ccopy_reg
_reconstructor
p1
(c__main__
GameData
p2
c__builtin__
object
p3
NtRp4
(dp5
S'script'
p6
(dp7
S'StairsToWhiteHouse'
p8
(lp9
g1
(c__main__
TableRow
p10
g3
NtRp11
(dp12
S'action'
p13
S'Label'
p14
sS'trigger'
p15
g8
sS'param'
p16
S'START'
p17
sS'dialog'
p18
S''
sbag1
(g10
g3
NtRp19
(dp20
g13
S'PlayerSay'
p21
sg15
S'StairsToWhiteHouse'
p22
sg16
S''
sg18
S"I can't go upstairs now, I have a job to do!"
p23
sbag1
(g10
g3
NtRp24
(dp25
g13
S'Jump'
p26
sg15
S'StairsToWhiteHouse'
p27
sg16
S'START'
p28
sg18
S''
sbasS'Lobbyist3'
p29
(lp30
g1
(g10
g3
NtRp31
(dp32
g13
S'RequireFlag'
p33
sg15
g29
sg16
S'STARTLOBBYISTS'
p34
sg18
S'Mutter, mutter'
p35
sbag1
(g10
g3
NtRp36
(dp37
g13
S'Say'
p38
sg15
S'Lobbyist3'
p39
sg16
S''
sg18
S"To get the support of my organisation, you'll need to tell me what you can do for the conservation of internet memes."
p40
sbag1
(g10
g3
NtRp41
(dp42
g13
S'PlayerSay'
p43
sg15
S'Lobbyist3'
p44
sg16
S''
sg18
S'For...internet memes?'
p45
sbag1
(g10
g3
NtRp46
(dp47
g13
S'Say'
p48
sg15
S'Lobbyist3'
p49
sg16
S''
sg18
S"Yes, these are serious times. Who remembers hitting the giant crab for massive damage.There's another console release. I bet you can't even remember what you had to do to get massive damage."
p50
sbag1
(g10
g3
NtRp51
(dp52
g13
S'PlayerSay'
p53
sg15
S'Lobbyist3'
p54
sg16
S''
sg18
S'Giant...crab...?'
p55
sbag1
(g10
g3
NtRp56
(dp57
g13
S'Say'
p58
sg15
S'Lobbyist3'
p59
sg16
S''
sg18
S"You have to flip him over, that's what! We have to act quickly to save the internet memes. Even as I speak, fewer and fewer Gangnum style videos are made. It's a crime!"
p60
sbag1
(g10
g3
NtRp61
(dp62
g13
S'Say'
p63
sg15
S'Lobbyist3'
p64
sg16
S''
sg18
S'We need to build safehouses for all of the lolcats, provide IT helpdesk support for rickrole education and somebody needs to save the Sharknado from extinction!'
p65
sbag1
(g10
g3
NtRp66
(dp67
g13
S'Encounter'
p68
sg15
S'Lobbyist3'
p69
sg16
S'P-med-13'
p70
sg18
S''
sbag1
(g10
g3
NtRp71
(dp72
g13
S'Increment'
p73
sg15
S'Lobbyist3'
p74
sg16
S'LOBBYISTS'
p75
sg18
S''
sbag1
(g10
g3
NtRp76
(dp77
g13
S'Say'
p78
sg15
S'Lobbyist3'
p79
sg16
S''
sg18
S'Nailed It.'
p80
sbag1
(g10
g3
NtRp81
(dp82
g13
S'Destroy'
p83
sg15
S'Lobbyist3'
p84
sg16
S''
sg18
S''
sbasS'Kawalski'
p85
(lp86
g1
(g10
g3
NtRp87
(dp88
g13
S'RequireFlag'
p89
sg15
g85
sg16
S'ACCESSKAWALSKI'
p90
sg18
S"I'm not allowed to speak to you, sir."
p91
sbag1
(g10
g3
NtRp92
(dp93
g13
S'Say'
p94
sg15
S'Kawalski'
p95
sg16
S''
sg18
S'A pleasure to meet you, President Mossman. I am Agent Kawalski, your security detail.'
p96
sbag1
(g10
g3
NtRp97
(dp98
g13
S'PlayerSay'
p99
sg15
S'Kawalski'
p100
sg16
S''
sg18
S'Great to meet you, Agent Kawalski. What do I need to know?'
p101
sbag1
(g10
g3
NtRp102
(dp103
g13
S'Say'
p104
sg15
S'Kawalski'
p105
sg16
S''
sg18
S'Well actually, it does have to do with your security. Something terrible is happening at the White House.'
p106
sbag1
(g10
g3
NtRp107
(dp108
g13
S'PlayerSay'
p109
sg15
S'Kawalski'
p110
sg16
S''
sg18
S"If you're trying to warn me about the aliens, it's under control."
p111
sbag1
(g10
g3
NtRp112
(dp113
g13
S'Say'
p114
sg15
S'Kawalski'
p115
sg16
S''
sg18
S'No, no, this is different. I think somebody is trying to take over the White House.'
p116
sbag1
(g10
g3
NtRp117
(dp118
g13
S'PlayerSay'
p119
sg15
S'Kawalski'
p120
sg16
S''
sg18
S"Wouldn't we know?"
p121
sbag1
(g10
g3
NtRp122
(dp123
g13
S'Say'
p124
sg15
S'Kawalski'
p125
sg16
S''
sg18
S"It's too early for those kind of details. I just want you to keep your eyes open, Mr President."
p126
sbag1
(g10
g3
NtRp127
(dp128
g13
S'PlayerSay'
p129
sg15
S'Kawalski'
p130
sg16
S''
sg18
S'No problem.'
p131
sbag1
(g10
g3
NtRp132
(dp133
g13
S'Destroy'
p134
sg15
S'Kawalski'
p135
sg16
S''
sg18
S''
sbag1
(g10
g3
NtRp136
(dp137
g13
S'AddAlly'
p138
sg15
S'Kawalski'
p139
sg16
S'SecretAgent:6'
p140
sg18
S'Kawalski joins your political party!'
p141
sbag1
(g10
g3
NtRp142
(dp143
g13
S'SetFlag'
p144
sg15
S'Kawalski'
p145
sg16
S'KAWALSKIJOIN'
p146
sg18
S''
sbasS'Religious4'
p147
(lp148
g1
(g10
g3
NtRp149
(dp150
g13
S'Say'
p151
sg15
g147
sg16
S''
sg18
S'Welcome, my child. We have travelled here from Battycan City to be assured you are a man of faith before we endorse you.'
p152
sbag1
(g10
g3
NtRp153
(dp154
g13
S'PlayerSay'
p155
sg15
S'Religious4'
p156
sg16
S''
sg18
S'Er, what faith is that?'
p157
sbag1
(g10
g3
NtRp158
(dp159
g13
S'Say'
p160
sg15
S'Religious4'
p161
sg16
S''
sg18
S'Why, the one true god: Coffee.'
p162
sbag1
(g10
g3
NtRp163
(dp164
g13
S'PlayerSay'
p165
sg15
S'Religious4'
p166
sg16
S''
sg18
S'...Coffee?'
p167
sbag1
(g10
g3
NtRp168
(dp169
g13
S'Say'
p170
sg15
S'Religious4'
p171
sg16
S''
sg18
S"Yes of course. He who lifts you up when you're feeling low, who is your inspiration in the dark and who can achieve miraculous feats of effort with dedicated prayer."
p172
sbag1
(g10
g3
NtRp173
(dp174
g13
S'PlayerSay'
p175
sg15
S'Religious4'
p176
sg16
S''
sg18
S'This may be a religion I can get behind.'
p177
sbag1
(g10
g3
NtRp178
(dp179
g13
S'Encounter'
p180
sg15
S'Religious4'
p181
sg16
S'P-med-15'
p182
sg18
S''
sbag1
(g10
g3
NtRp183
(dp184
g13
S'Increment'
p185
sg15
S'Religious4'
p186
sg16
S'RELIGIOUSNUTS'
p187
sg18
S''
sbag1
(g10
g3
NtRp188
(dp189
g13
S'Say'
p190
sg15
S'Religious4'
p191
sg16
S''
sg18
S'Wonderful, the Battycan will be most pleased.'
p192
sbag1
(g10
g3
NtRp193
(dp194
g13
S'Destroy'
p195
sg15
S'Religious4'
p196
sg16
S''
sg18
S''
sbasS'Religious1'
p197
(lp198
g1
(g10
g3
NtRp199
(dp200
g13
S'Say'
p201
sg15
g197
sg16
S''
sg18
S'Have you had your morning prayer?'
p202
sbag1
(g10
g3
NtRp203
(dp204
g13
S'Encounter'
p205
sg15
S'Religious1'
p206
sg16
S'P-med-16'
p207
sg18
S''
sbag1
(g10
g3
NtRp208
(dp209
g13
S'Increment'
p210
sg15
S'Religious1'
p211
sg16
S'RELIGIOUSNUTS'
p212
sg18
S''
sbag1
(g10
g3
NtRp213
(dp214
g13
S'Say'
p215
sg15
S'Religious1'
p216
sg16
S''
sg18
S'Some people pray upwards of 5 times a day, but this can cause hallucinations.'
p217
sbag1
(g10
g3
NtRp218
(dp219
g13
S'Destroy'
p220
sg15
S'Religious1'
p221
sg16
S''
sg18
S''
sbasS'Religious3'
p222
(lp223
g1
(g10
g3
NtRp224
(dp225
g13
S'Say'
p226
sg15
g222
sg16
S''
sg18
S'Mmmmmm...Coffee....ommmmm'
p227
sbag1
(g10
g3
NtRp228
(dp229
g13
S'Encounter'
p230
sg15
S'Religious3'
p231
sg16
S'P-med-17'
p232
sg18
S''
sbag1
(g10
g3
NtRp233
(dp234
g13
S'Increment'
p235
sg15
S'Religious3'
p236
sg16
S'RELIGIOUSNUTS'
p237
sg18
S''
sbag1
(g10
g3
NtRp238
(dp239
g13
S'Say'
p240
sg15
S'Religious3'
p241
sg16
S''
sg18
S'I must return to my meditation.'
p242
sbag1
(g10
g3
NtRp243
(dp244
g13
S'Destroy'
p245
sg15
S'Religious3'
p246
sg16
S''
sg18
S''
sbasS'Religious2'
p247
(lp248
g1
(g10
g3
NtRp249
(dp250
g13
S'Say'
p251
sg15
g247
sg16
S''
sg18
S'Do not be swayed by the seductive powers of tea!'
p252
sbag1
(g10
g3
NtRp253
(dp254
g13
S'Encounter'
p255
sg15
S'Religious2'
p256
sg16
S'P-med-18'
p257
sg18
S''
sbag1
(g10
g3
NtRp258
(dp259
g13
S'Increment'
p260
sg15
S'Religious2'
p261
sg16
S'RELIGIOUSNUTS'
p262
sg18
S''
sbag1
(g10
g3
NtRp263
(dp264
g13
S'Say'
p265
sg15
S'Religious2'
p266
sg16
S''
sg18
S'The Battycan will be satisfied with this news.'
p267
sbag1
(g10
g3
NtRp268
(dp269
g13
S'Destroy'
p270
sg15
S'Religious2'
p271
sg16
S''
sg18
S''
sbasS'Constituent2'
p272
(lp273
g1
(g10
g3
NtRp274
(dp275
g13
S'RequireFlag'
p276
sg15
g272
sg16
S'STARTCONSTITUENTS'
p277
sg18
S'What?'
p278
sbag1
(g10
g3
NtRp279
(dp280
g13
S'PlayerSay'
p281
sg15
S'Constituent2'
p282
sg16
S''
sg18
S'Vote Phillip Mossman for Mayor!'
p283
sbag1
(g10
g3
NtRp284
(dp285
g13
S'Say'
p286
sg15
S'Constituent2'
p287
sg16
S''
sg18
S'But Mayor Goodman has always taken care of me.'
p288
sbag1
(g10
g3
NtRp289
(dp290
g13
S'Encounter'
p291
sg15
S'Constituent2'
p292
sg16
S'P-easy-08'
p293
sg18
S''
sbag1
(g10
g3
NtRp294
(dp295
g13
S'Say'
p296
sg15
S'Constituent2'
p297
sg16
S''
sg18
S"I think it's time for a change!"
p298
sbag1
(g10
g3
NtRp299
(dp300
g13
S'Destroy'
p301
sg15
S'Constituent2'
p302
sg16
S''
sg18
S''
sbasS'Constituent3'
p303
(lp304
g1
(g10
g3
NtRp305
(dp306
g13
S'RequireFlag'
p307
sg15
g303
sg16
S'STARTCONSTITUENTS'
p308
sg18
S'What?'
p309
sbag1
(g10
g3
NtRp310
(dp311
g13
S'PlayerSay'
p312
sg15
S'Constituent3'
p313
sg16
S''
sg18
S'Vote Phillip Mossman for Mayor!'
p314
sbag1
(g10
g3
NtRp315
(dp316
g13
S'Say'
p317
sg15
S'Constituent3'
p318
sg16
S''
sg18
S'But Mayor Goodman has always taken care of me.'
p319
sbag1
(g10
g3
NtRp320
(dp321
g13
S'Encounter'
p322
sg15
S'Constituent3'
p323
sg16
S'P-easy-09'
p324
sg18
S''
sbag1
(g10
g3
NtRp325
(dp326
g13
S'Say'
p327
sg15
S'Constituent3'
p328
sg16
S''
sg18
S"I think it's time for a change!"
p329
sbag1
(g10
g3
NtRp330
(dp331
g13
S'PlayerSay'
p332
sg15
S'Constituent3'
p333
sg16
S''
sg18
S"I think I'm ready to take on Mayor Goodman now!"
p334
sbag1
(g10
g3
NtRp335
(dp336
g13
S'SetFlag'
p337
sg15
S'Constituent3'
p338
sg16
S'CONSTITUENTSWON'
p339
sg18
S''
sbag1
(g10
g3
NtRp340
(dp341
g13
S'Destroy'
p342
sg15
S'Constituent3'
p343
sg16
S''
sg18
S''
sbasS'Constituent1'
p344
(lp345
g1
(g10
g3
NtRp346
(dp347
g13
S'RequireFlag'
p348
sg15
g344
sg16
S'STARTCONSTITUENTS'
p349
sg18
S'Yes?'
p350
sbag1
(g10
g3
NtRp351
(dp352
g13
S'PlayerSay'
p353
sg15
S'Constituent1'
p354
sg16
S''
sg18
S'Vote Phillip Mossman for Mayor!'
p355
sbag1
(g10
g3
NtRp356
(dp357
g13
S'Say'
p358
sg15
S'Constituent1'
p359
sg16
S''
sg18
S'Who?'
p360
sbag1
(g10
g3
NtRp361
(dp362
g13
S'PlayerSay'
p363
sg15
S'Constituent1'
p364
sg16
S''
sg18
S'Er, me!'
p365
sbag1
(g10
g3
NtRp366
(dp367
g13
S'Say'
p368
sg15
S'Constituent1'
p369
sg16
S''
sg18
S'Why? How will you help local business?'
p370
sbag1
(g10
g3
NtRp371
(dp372
g13
S'Encounter'
p373
sg15
S'Constituent1'
p374
sg16
S'P-easy-07'
p375
sg18
S''
sbag1
(g10
g3
NtRp376
(dp377
g13
S'Say'
p378
sg15
S'Constituent1'
p379
sg16
S''
sg18
S'You make a good case!'
p380
sbag1
(g10
g3
NtRp381
(dp382
g13
S'Destroy'
p383
sg15
S'Constituent1'
p384
sg16
S''
sg18
S''
sbasS'Cabinet1'
p385
(lp386
g1
(g10
g3
NtRp387
(dp388
g13
S'Say'
p389
sg15
g385
sg16
S''
sg18
S'Good afternoon, Mr President. How can I help?'
p390
sbag1
(g10
g3
NtRp391
(dp392
g13
S'PlayerSay'
p393
sg15
S'Cabinet1'
p394
sg16
S''
sg18
S'I want to know where the orders to mobilise the military and reallocate education funds came from.'
p395
sbag1
(g10
g3
NtRp396
(dp397
g13
S'Say'
p398
sg15
S'Cabinet1'
p399
sg16
S''
sg18
S'But...it came from you, sir. They were both faxed over to me this afternoon.'
p400
sbag1
(g10
g3
NtRp401
(dp402
g13
S'PlayerSay'
p403
sg15
S'Cabinet1'
p404
sg16
S''
sg18
S'Tell me every detail.'
p405
sbag1
(g10
g3
NtRp406
(dp407
g13
S'Encounter'
p408
sg15
S'Cabinet1'
p409
sg16
S'P-hard-08'
p410
sg18
S''
sbag1
(g10
g3
NtRp411
(dp412
g13
S'Increment'
p413
sg15
S'Cabinet1'
p414
sg16
S'CABINETMEMBERS'
p415
sg18
S''
sbag1
(g10
g3
NtRp416
(dp417
g13
S'Say'
p418
sg15
S'Cabinet1'
p419
sg16
S''
sg18
S'I cannot understand how this could happen.'
p420
sbag1
(g10
g3
NtRp421
(dp422
g13
S'Destroy'
p423
sg15
S'Cabinet1'
p424
sg16
S''
sg18
S''
sbasS'Cabinet2'
p425
(lp426
g1
(g10
g3
NtRp427
(dp428
g13
S'Say'
p429
sg15
g425
sg16
S''
sg18
S'Good afternoon, Mr President. What seems to be the problem?'
p430
sbag1
(g10
g3
NtRp431
(dp432
g13
S'PlayerSay'
p433
sg15
S'Cabinet2'
p434
sg16
S''
sg18
S'Find out where the education funds have been allocated.'
p435
sbag1
(g10
g3
NtRp436
(dp437
g13
S'Say'
p438
sg15
S'Cabinet2'
p439
sg16
S''
sg18
S'To the military, Sir. I saw to it myself.'
p440
sbag1
(g10
g3
NtRp441
(dp442
g13
S'PlayerSay'
p443
sg15
S'Cabinet2'
p444
sg16
S''
sg18
S'How did this happen? Tell me everything!'
p445
sbag1
(g10
g3
NtRp446
(dp447
g13
S'Encounter'
p448
sg15
S'Cabinet2'
p449
sg16
S'P-hard-09'
p450
sg18
S''
sbag1
(g10
g3
NtRp451
(dp452
g13
S'Increment'
p453
sg15
S'Cabinet2'
p454
sg16
S'CABINETMEMBERS'
p455
sg18
S''
sbag1
(g10
g3
NtRp456
(dp457
g13
S'PlayerSay'
p458
sg15
S'Cabinet2'
p459
sg16
S''
sg18
S"It can't be a coincidence that both situations involved the military."
p460
sbag1
(g10
g3
NtRp461
(dp462
g13
S'Destroy'
p463
sg15
S'Cabinet2'
p464
sg16
S''
sg18
S''
sbasS'Cabinet3'
p465
(lp466
g1
(g10
g3
NtRp467
(dp468
g13
S'Say'
p469
sg15
g465
sg16
S''
sg18
S"Mr President, I'm sorry, I couldn't know it wasn't your signature."
p470
sbag1
(g10
g3
NtRp471
(dp472
g13
S'PlayerSay'
p473
sg15
S'Cabinet3'
p474
sg16
S''
sg18
S'Never mind that now. Where are the troops heading?'
p475
sbag1
(g10
g3
NtRp476
(dp477
g13
S'Say'
p478
sg15
S'Cabinet3'
p479
sg16
S''
sg18
S"North...to Canada. We assumed it was planned. There's a pact allowing troops into Canada."
p480
sbag1
(g10
g3
NtRp481
(dp482
g13
S'PlayerSay'
p483
sg15
S'Cabinet3'
p484
sg16
S''
sg18
S'What could they be up to?'
p485
sbag1
(g10
g3
NtRp486
(dp487
g13
S'Encounter'
p488
sg15
S'Cabinet3'
p489
sg16
S'P-hard-10'
p490
sg18
S''
sbag1
(g10
g3
NtRp491
(dp492
g13
S'Increment'
p493
sg15
S'Cabinet3'
p494
sg16
S'CABINETMEMBERS'
p495
sg18
S''
sbag1
(g10
g3
NtRp496
(dp497
g13
S'PlayerSay'
p498
sg15
S'Cabinet3'
p499
sg16
S''
sg18
S"I'd better get to the Joint Chiefs. This is getting out-of-hand.."
p500
sbag1
(g10
g3
NtRp501
(dp502
g13
S'Destroy'
p503
sg15
S'Cabinet3'
p504
sg16
S''
sg18
S''
sbasS'Wife'
p505
(lp506
g1
(g10
g3
NtRp507
(dp508
g13
S'RequireFlag'
p509
sg15
g505
sg16
S'GOHOMETOWIFE'
p510
sg18
S'What are you doing here, Phillip? You should be at work!'
p511
sbag1
(g10
g3
NtRp512
(dp513
g13
S'Say'
p514
sg15
S'Wife'
p515
sg16
S''
sg18
S'Welcome home, Phillip! How was your workday?'
p516
sbag1
(g10
g3
NtRp517
(dp518
g13
S'PlayerSay'
p519
sg15
S'Wife'
p520
sg16
S''
sg18
S'...'
p521
sbag1
(g10
g3
NtRp522
(dp523
g13
S'Say'
p524
sg15
S'Wife'
p525
sg16
S''
sg18
S"That good, huh? You know this isn't what you want. Why don't you strike out on your own?"
p526
sbag1
(g10
g3
NtRp527
(dp528
g13
S'PlayerSay'
p529
sg15
S'Wife'
p530
sg16
S''
sg18
S"I didn't think I knew where to start to be a Mayor, but Mayor Goodman makes it look easy."
p531
sbag1
(g10
g3
NtRp532
(dp533
g13
S'Say'
p534
sg15
S'Wife'
p535
sg16
S''
sg18
S"That's the spirit! You can do it! All you need is some money and support."
p536
sbag1
(g10
g3
NtRp537
(dp538
g13
S'PlayerSay'
p539
sg15
S'Wife'
p540
sg16
S''
sg18
S'Well...OK! Lets start with money. We need a sponsor.'
p541
sbag1
(g10
g3
NtRp542
(dp543
g13
S'Say'
p544
sg15
S'Wife'
p545
sg16
S''
sg18
S'OK, lets go get one!'
p546
sbag1
(g10
g3
NtRp547
(dp548
g13
S'AddAlly'
p549
sg15
S'Wife'
p550
sg16
S'Wife:2'
p551
sg18
S'Sarah Mossman Joins Your Political Party!'
p552
sbag1
(g10
g3
NtRp553
(dp554
g13
S'SetFlag'
p555
sg15
S'Wife'
p556
sg16
S'STARTSPONSOR'
p557
sg18
S''
sbag1
(g10
g3
NtRp558
(dp559
g13
S'Destroy'
p560
sg15
S'Wife'
p561
sg16
S''
sg18
S''
sbasS'Lobbyist4'
p562
(lp563
g1
(g10
g3
NtRp564
(dp565
g13
S'RequireFlag'
p566
sg15
g562
sg16
S'STARTLOBBYISTS'
p567
sg18
S'Please tend to your other meetings so that we can see you.'
p568
sbag1
(g10
g3
NtRp569
(dp570
g13
S'Say'
p571
sg15
S'Lobbyist4'
p572
sg16
S''
sg18
S"If you are elected, I would like to know what you would plan to support the Storyteller's Guild and their efforts to revive a lost art."
p573
sbag1
(g10
g3
NtRp574
(dp575
g13
S'PlayerSay'
p576
sg15
S'Lobbyist4'
p577
sg16
S''
sg18
S"I'm all for protecting the arts. How can I help?"
p578
sbag1
(g10
g3
NtRp579
(dp580
g13
S'Say'
p581
sg15
S'Lobbyist4'
p582
sg16
S''
sg18
S'Storytelling is being butchered and almost completely ignored. I could list movies and television, but the real culprit is video games.'
p583
sbag1
(g10
g3
NtRp584
(dp585
g13
S'Say'
p586
sg15
S'Lobbyist4'
p587
sg16
S''
sg18
S'Many video game plots are derivative and archaic. Why, if this were a video game, it would have almost no substance at all and simply be a flimsy curtain for one of their "fetch quests".'
p588
sbag1
(g10
g3
NtRp589
(dp590
g13
S'Say'
p591
sg15
S'Lobbyist4'
p592
sg16
S''
sg18
S"It is a most serious problem and we wouldn't be able to lend you our support without assurances on this matter."
p593
sbag1
(g10
g3
NtRp594
(dp595
g13
S'Encounter'
p596
sg15
S'Lobbyist4'
p597
sg16
S'P-med-14'
p598
sg18
S''
sbag1
(g10
g3
NtRp599
(dp600
g13
S'Increment'
p601
sg15
S'Lobbyist4'
p602
sg16
S'LOBBYISTS'
p603
sg18
S''
sbag1
(g10
g3
NtRp604
(dp605
g13
S'Say'
p606
sg15
S'Lobbyist4'
p607
sg16
S''
sg18
S'While I feel that your argument lacks substance and detail, I will nevertheless concede.'
p608
sbag1
(g10
g3
NtRp609
(dp610
g13
S'Destroy'
p611
sg15
S'Lobbyist4'
p612
sg16
S''
sg18
S''
sbasS'#----------------------------------------------------------------------------------------ACT 2 \xe2\x80\x93 Part 2---------------------------------------------------------------------------------------------------------------------------------------------------'
p613
(lp614
g1
(g10
g3
NtRp615
(dp616
g13
S''
sg15
g613
sg16
S''
sg18
S''
sbasS'Lobbyist2'
p617
(lp618
g1
(g10
g3
NtRp619
(dp620
g13
S'RequireFlag'
p621
sg15
g617
sg16
S'STARTLOBBYISTS'
p622
sg18
S'Humph'
p623
sbag1
(g10
g3
NtRp624
(dp625
g13
S'Say'
p626
sg15
S'Lobbyist2'
p627
sg16
S''
sg18
S'I represent the Python Software Foundation. What will you do to promote, protect and advance the Python programming language?'
p628
sbag1
(g10
g3
NtRp629
(dp630
g13
S'PlayerSay'
p631
sg15
S'Lobbyist2'
p632
sg16
S''
sg18
S"Ah yes, the Python cause! I'm a big advocate of Python."
p633
sbag1
(g10
g3
NtRp634
(dp635
g13
S'Encounter'
p636
sg15
S'Lobbyist2'
p637
sg16
S'P-med-12'
p638
sg18
S''
sbag1
(g10
g3
NtRp639
(dp640
g13
S'Increment'
p641
sg15
S'Lobbyist2'
p642
sg16
S'LOBBYISTS'
p643
sg18
S''
sbag1
(g10
g3
NtRp644
(dp645
g13
S'Say'
p646
sg15
S'Lobbyist2'
p647
sg16
S''
sg18
S'I think we can help each other out.'
p648
sbag1
(g10
g3
NtRp649
(dp650
g13
S'Destroy'
p651
sg15
S'Lobbyist2'
p652
sg16
S''
sg18
S''
sbasS'PA2'
p653
(lp654
g1
(g10
g3
NtRp655
(dp656
g13
S'Say'
p657
sg15
g653
sg16
S''
sg18
S"Welcome to the White House, President Mossman. It was a long campaign trail with a very strange final debate, but we won and we're here."
p658
sbag1
(g10
g3
NtRp659
(dp660
g13
S'Say'
p661
sg15
S'PA2'
p662
sg16
S''
sg18
S'Now is the real test where we see how well we can run a country.'
p663
sbag1
(g10
g3
NtRp664
(dp665
g13
S'Say'
p666
sg15
S'PA2'
p667
sg16
S''
sg18
S'The first step is to give your first press conference as President to explain the...situation...with President Alien *cough* I mean Allen.'
p668
sbag1
(g10
g3
NtRp669
(dp670
g13
S'SetFlag'
p671
sg15
S'PA2'
p672
sg16
S'ACCESSJOURNALISTS'
p673
sg18
S''
sbag1
(g10
g3
NtRp674
(dp675
g13
S'RequireCount'
p676
sg15
S'PA2'
p677
sg16
S'PRESSCONF:3'
p678
sg18
S"They're waiting for you in the rose garden, Mr President."
p679
sbag1
(g10
g3
NtRp680
(dp681
g13
S'Say'
p682
sg15
S'PA2'
p683
sg16
S''
sg18
S'I think that went as well as could be expected.'
p684
sbag1
(g10
g3
NtRp685
(dp686
g13
S'SetFlag'
p687
sg15
S'PA2'
p688
sg16
S'ACCESSKAWALSKI'
p689
sg18
S''
sbag1
(g10
g3
NtRp690
(dp691
g13
S'Say'
p692
sg15
S'PA2'
p693
sg16
S''
sg18
S'Your secret service detail is waiting inside to have a word with you about security protocol.'
p694
sbag1
(g10
g3
NtRp695
(dp696
g13
S'RequireFlag'
p697
sg15
S'PA2'
p698
sg16
S'KAWALSKIJOIN'
p699
sg18
S"You'd better speak to the secret service agent. Your security is paramount."
p700
sbag1
(g10
g3
NtRp701
(dp702
g13
S'Say'
p703
sg15
S'PA2'
p704
sg16
S''
sg18
S"Some war veterans would like to speak to you about some recent decisions you've made. I don't dare turn them away. You'd better speak to them."
p705
sbag1
(g10
g3
NtRp706
(dp707
g13
S'PlayerSay'
p708
sg15
S'PA2'
p709
sg16
S''
sg18
S'Of course.'
p710
sbag1
(g10
g3
NtRp711
(dp712
g13
S'GiveItem'
p713
sg15
S'PA2'
p714
sg16
S'WARVETROOMKEY'
p715
sg18
S'Received key to the East Room.'
p716
sbag1
(g10
g3
NtRp717
(dp718
g13
S'RequireCount'
p719
sg15
S'PA2'
p720
sg16
S'WARVETS:2'
p721
sg18
S'The war vets are waiting for you in the East Room.'
p722
sbag1
(g10
g3
NtRp723
(dp724
g13
S'Say'
p725
sg15
S'PA2'
p726
sg16
S''
sg18
S'What was that about?'
p727
sbag1
(g10
g3
NtRp728
(dp729
g13
S'PlayerSay'
p730
sg15
S'PA2'
p731
sg16
S''
sg18
S"I'd like to know as well. Find me the documents that approved troop movement today and get me a meeting with the Joint Chiefs."
p732
sbag1
(g10
g3
NtRp733
(dp734
g13
S'Say'
p735
sg15
S'PA2'
p736
sg16
S''
sg18
S'Yessir.'
p737
sbag1
(g10
g3
NtRp738
(dp739
g13
S'Say'
p740
sg15
S'PA2'
p741
sg16
S''
sg18
S"Your next meeting is with the teachers in the corridor. They didn't give me the details, but it seems they're quite upset."
p742
sbag1
(g10
g3
NtRp743
(dp744
g13
S'GiveItem'
p745
sg15
S'PA2'
p746
sg16
S'TEACHERROOMKEY'
p747
sg18
S'Received key to the West Room.'
p748
sbag1
(g10
g3
NtRp749
(dp750
g13
S'RequireCount'
p751
sg15
S'PA2'
p752
sg16
S'TEACHERS:2'
p753
sg18
S"You'll need to speak to the teachers in the West Room, Mr President."
p754
sbag1
(g10
g3
NtRp755
(dp756
g13
S'Say'
p757
sg15
S'PA2'
p758
sg16
S''
sg18
S'You seem to have sorted the teachers out.'
p759
sbag1
(g10
g3
NtRp760
(dp761
g13
S'PlayerSay'
p762
sg15
S'PA2'
p763
sg16
S''
sg18
S"I've mollified them for now, but I want to get to the bottom of this - NOW!"
p764
sbag1
(g10
g3
NtRp765
(dp766
g13
S'Say'
p767
sg15
S'PA2'
p768
sg16
S''
sg18
S'Of course, Mr President. I do have those papers you asked for that approved the mobilisation of troops'
p769
sbag1
(g10
g3
NtRp770
(dp771
g13
S'PlayerSay'
p772
sg15
S'PA2'
p773
sg16
S''
sg18
S"Let me see those...this is my signature! But I didn't sign this!"
p774
sbag1
(g10
g3
NtRp775
(dp776
g13
S'Say'
p777
sg15
S'PA2'
p778
sg16
S''
sg18
S'This is very serious! What should we do, sir?'
p779
sbag1
(g10
g3
NtRp780
(dp781
g13
S'PlayerSay'
p782
sg15
S'PA2'
p783
sg16
S''
sg18
S'Call a cabinet meeting. Immediately.'
p784
sbag1
(g10
g3
NtRp785
(dp786
g13
S'Say'
p787
sg15
S'PA2'
p788
sg16
S''
sg18
S"Understood. They'll be there when you get there."
p789
sbag1
(g10
g3
NtRp790
(dp791
g13
S'GiveItem'
p792
sg15
S'PA2'
p793
sg16
S'CABINETROOMKEY'
p794
sg18
S'Received key to the Cabinet Room.'
p795
sbag1
(g10
g3
NtRp796
(dp797
g13
S'RequireCount'
p798
sg15
S'PA2'
p799
sg16
S'CABINETMEMBERS:3'
p800
sg18
S'The cabinet is waiting for you in the Cabinet Room.'
p801
sbag1
(g10
g3
NtRp802
(dp803
g13
S'Say'
p804
sg15
S'PA2'
p805
sg16
S''
sg18
S'The Joint Chiefs are assembled in the Situation Room downstairs.'
p806
sbag1
(g10
g3
NtRp807
(dp808
g13
S'Say'
p809
sg15
S'PA2'
p810
sg16
S''
sg18
S'Your palm print has been coded for maximum clearance now; you should have access to the basement.'
p811
sbag1
(g10
g3
NtRp812
(dp813
g13
S'SetFlag'
p814
sg15
S'PA2'
p815
sg16
S'ACCESSWHITEHOUSEBASEMENT'
p816
sg18
S''
sbag1
(g10
g3
NtRp817
(dp818
g13
S'RequireFlag'
p819
sg15
S'PA2'
p820
sg16
S'REPEAT'
p821
sg18
S'Get to the basement, the Joint Chiefs are waiting.'
p822
sbasS'PA3'
p823
(lp824
g1
(g10
g3
NtRp825
(dp826
g13
S'RequireCount'
p827
sg15
g823
sg16
S'JOINTCHIEFS:3'
p828
sg18
S'The Joint Chiefs are waiting for you in the situation room.'
p829
sbag1
(g10
g3
NtRp830
(dp831
g13
S'RequireFlag'
p832
sg15
S'PA3'
p833
sg16
S'WIN'
p834
sg18
S'Mr President, you have to put a stop to the supercomputer that will destroy the planet! You can access it in the Situation Room.'
p835
sbag1
(g10
g3
NtRp836
(dp837
g13
S'Say'
p838
sg15
S'PA3'
p839
sg16
S''
sg18
S"You have saved the day! The world is safe and all over the Ignited States, our citizens can sleep safe knowing you're taking care of them."
p840
sbag1
(g10
g3
NtRp841
(dp842
g13
S'RequireFlag'
p843
sg15
S'PA3'
p844
sg16
S'LOOP'
p845
sg18
S'Goodnight, Mr President.'
p846
sbasS'RestoreAct3'
p847
(lp848
g1
(g10
g3
NtRp849
(dp850
g13
S'GotoMap'
p851
sg15
g847
sg16
S'act3'
p852
sg18
S''
sbasS'RestoreAct2'
p853
(lp854
g1
(g10
g3
NtRp855
(dp856
g13
S'GotoMap'
p857
sg15
g853
sg16
S'act2'
p858
sg18
S''
sbasS'P-med-12'
p859
(lp860
g1
(g10
g3
NtRp861
(dp862
g13
S'Say'
p863
sg15
g859
sg16
S'Player'
p864
sg18
S"You're flying! How?"
p865
sbag1
(g10
g3
NtRp866
(dp867
g13
S'Say'
p868
sg15
S'P-med-12'
p869
sg16
S'Lobbyist001'
p870
sg18
S'Python!'
p871
sbag1
(g10
g3
NtRp872
(dp873
g13
S'Say'
p874
sg15
S'P-med-12'
p875
sg16
S'Lobbyist001'
p876
sg18
S'Everything is so simple!'
p877
sbag1
(g10
g3
NtRp878
(dp879
g13
S'Say'
p880
sg15
S'P-med-12'
p881
sg16
S'Lobbyist001'
p882
sg18
S'import combat'
p883
sbag1
(g10
g3
NtRp884
(dp885
g13
S'BeginCombat'
p886
sg15
S'P-med-12'
p887
sg16
S''
sg18
S''
sbag1
(g10
g3
NtRp888
(dp889
g13
S'Say'
p890
sg15
S'P-med-12'
p891
sg16
S'Player'
p892
sg18
S'import this'
p893
sbasS'TVDebate'
p894
(lp895
g1
(g10
g3
NtRp896
(dp897
g13
S'RequireFlag'
p898
sg15
g894
sg16
S'STARTDEBATE'
p899
sg18
S"Hmmm? Oh, sorry, I'm on the phone to the studio."
p900
sbag1
(g10
g3
NtRp901
(dp902
g13
S'Say'
p903
sg15
S'TVDebate'
p904
sg16
S''
sg18
S"Good evening, Governor Mossman. If you'll follow me, I'll take you to the studio."
p905
sbag1
(g10
g3
NtRp906
(dp907
g13
S'Encounter'
p908
sg15
S'TVDebate'
p909
sg16
S'P-med-21'
p910
sg18
S''
sbag1
(g10
g3
NtRp911
(dp912
g13
S'Say'
p913
sg15
S'TVDebate'
p914
sg16
S''
sg18
S'Great work tonight, Governor Mossman and congratulations on the win!'
p915
sbag1
(g10
g3
NtRp916
(dp917
g13
S'SetFlag'
p918
sg15
S'TVDebate'
p919
sg16
S'DEBATECOMPLETE'
p920
sg18
S''
sbag1
(g10
g3
NtRp921
(dp922
g13
S'RestoreVotes'
p923
sg15
S'TVDebate'
p924
sg16
S''
sg18
S''
sbag1
(g10
g3
NtRp925
(dp926
g13
S'Destroy'
p927
sg15
S'TVDebate'
p928
sg16
S''
sg18
S''
sbasS'WarVet2'
p929
(lp930
g1
(g10
g3
NtRp931
(dp932
g13
S'RequireFlag'
p933
sg15
g929
sg16
S'AFTERWILFRED'
p934
sg18
S'Eh? Speak up, boy.'
p935
sbag1
(g10
g3
NtRp936
(dp937
g13
S'Encounter'
p938
sg15
S'WarVet2'
p939
sg16
S'P-hard-05'
p940
sg18
S''
sbag1
(g10
g3
NtRp941
(dp942
g13
S'Say'
p943
sg15
S'WarVet2'
p944
sg16
S''
sg18
S"We'll head home, but you can expect us back if we see anything else suspicious ."
p945
sbag1
(g10
g3
NtRp946
(dp947
g13
S'Increment'
p948
sg15
S'WarVet2'
p949
sg16
S'WARVETS'
p950
sg18
S''
sbag1
(g10
g3
NtRp951
(dp952
g13
S'Destroy'
p953
sg15
S'WarVet2'
p954
sg16
S''
sg18
S''
sbasS'WarVet1'
p955
(lp956
g1
(g10
g3
NtRp957
(dp958
g13
S'Say'
p959
sg15
g955
sg16
S''
sg18
S"You think you can fool me? I wasn't born yesterday, you know."
p960
sbag1
(g10
g3
NtRp961
(dp962
g13
S'PlayerSay'
p963
sg15
S'WarVet1'
p964
sg16
S''
sg18
S"I'm sorry, sir, but what seems to be the problem."
p965
sbag1
(g10
g3
NtRp966
(dp967
g13
S'Say'
p968
sg15
S'WarVet1'
p969
sg16
S''
sg18
S"You think I don't know a mobilising army when I see one? You're clearly readying for war and you think you don't even need to mention it to the people."
p970
sbag1
(g10
g3
NtRp971
(dp972
g13
S'Say'
p973
sg15
S'WarVet1'
p974
sg16
S'WarVet2'
p975
sg18
S"And don't forget that he's barely a cadet, Wilfred."
p976
sbag1
(g10
g3
NtRp977
(dp978
g13
S'Say'
p979
sg15
S'WarVet1'
p980
sg16
S''
sg18
S"Right you are, Arnold, You've barely set foot in this building and you're already leading us to war. Who do you think you're dealing with? We won't stand."
p981
sbag1
(g10
g3
NtRp982
(dp983
g13
S'Encounter'
p984
sg15
S'WarVet1'
p985
sg16
S'P-hard-04'
p986
sg18
S''
sbag1
(g10
g3
NtRp987
(dp988
g13
S'Say'
p989
sg15
S'WarVet1'
p990
sg16
S''
sg18
S"Seems like a flimsy excuse, you didn't know. Better get your troops in line if you want 'em to march, boy."
p991
sbag1
(g10
g3
NtRp992
(dp993
g13
S'Increment'
p994
sg15
S'WarVet1'
p995
sg16
S'WARVETS'
p996
sg18
S''
sbag1
(g10
g3
NtRp997
(dp998
g13
S'SetFlag'
p999
sg15
S'WarVet1'
p1000
sg16
S'AFTERWILFRED'
p1001
sg18
S''
sbag1
(g10
g3
NtRp1002
(dp1003
g13
S'Destroy'
p1004
sg15
S'WarVet1'
p1005
sg16
S''
sg18
S''
sbasS'StairsToWhiteHouseBasement'
p1006
(lp1007
g1
(g10
g3
NtRp1008
(dp1009
g13
S'GotoMap'
p1010
sg15
g1006
sg16
S'act3_basement'
p1011
sg18
S''
sbasS'Mayor'
p1012
(lp1013
g1
(g10
g3
NtRp1014
(dp1015
g13
S'Say'
p1016
sg15
g1012
sg16
S''
sg18
S"Hello, I'm the Mayor!"
p1017
sbag1
(g10
g3
NtRp1018
(dp1019
g13
S'PlayerSay'
p1020
sg15
S'Mayor'
p1021
sg16
S''
sg18
S"Hello, Mayor Goodman, I'm Philip Mossman."
p1022
sbag1
(g10
g3
NtRp1023
(dp1024
g13
S'Say'
p1025
sg15
S'Mayor'
p1026
sg16
S''
sg18
S"Ah yes, you're my new assistant. You'll want to learn a thing or two about politics before we get started."
p1027
sbag1
(g10
g3
NtRp1028
(dp1029
g13
S'Say'
p1030
sg15
S'Mayor'
p1031
sg16
S''
sg18
S'Becoming a great politician boils down to one thing; your ability to win arguments.'
p1032
sbag1
(g10
g3
NtRp1033
(dp1034
g13
S'Say'
p1035
sg15
S'Mayor'
p1036
sg16
S''
sg18
S'Whether it be national debates or swaying constituents and lobbyists to support you, it all comes down to your ability to out-think your opponent.'
p1037
sbag1
(g10
g3
NtRp1038
(dp1039
g13
S'Say'
p1040
sg15
S'Mayor'
p1041
sg16
S''
sg18
S"You see, I've been searching for minutes and haven't been able to find my pen! I bet my receptionist stole it. She has sticky fingers."
p1042
sbag1
(g10
g3
NtRp1043
(dp1044
g13
S'Say'
p1045
sg15
S'Mayor'
p1046
sg16
S''
sg18
S"Well, don't just stand there, go and get it from her! You'll need to use all of your political skills to wrestle it back. She's like a bulldog when she gets ahold of something."
p1047
sbag1
(g10
g3
NtRp1048
(dp1049
g13
S'SetFlag'
p1050
sg15
S'Mayor'
p1051
sg16
S'PENQUEST'
p1052
sg18
S''
sbag1
(g10
g3
NtRp1053
(dp1054
g13
S'RequireItem'
p1055
sg15
S'Mayor'
p1056
sg16
S'PEN'
p1057
sg18
S'Are you simple? Go and get my pen from that thieving receptionist.'
p1058
sbag1
(g10
g3
NtRp1059
(dp1060
g13
S'Say'
p1061
sg15
S'Mayor'
p1062
sg16
S''
sg18
S"Great! I know she can give you a bit of a tongue-lashing, but she's a fantastic receptionist."
p1063
sbag1
(g10
g3
NtRp1064
(dp1065
g13
S'Say'
p1066
sg15
S'Mayor'
p1067
sg16
S''
sg18
S"I'm sure you want to learn a thing or two about politics \xe2\x80\x93 who doesn't? - so lets get started"
p1068
sbag1
(g10
g3
NtRp1069
(dp1070
g13
S'SetFlag'
p1071
sg15
S'Mayor'
p1072
sg16
S'PROTESTORS'
p1073
sg18
S''
sbag1
(g10
g3
NtRp1074
(dp1075
g13
S'RequireFlag'
p1076
sg15
S'Mayor'
p1077
sg16
S'PROTESTORSDEAD'
p1078
sg18
S'Run outside and tell those protesters to scram, will you?'
p1079
sbag1
(g10
g3
NtRp1080
(dp1081
g13
S'Say'
p1082
sg15
S'Mayor'
p1083
sg16
S''
sg18
S"Hope they didn't give you too much trouble!"
p1084
sbag1
(g10
g3
NtRp1085
(dp1086
g13
S'Say'
p1087
sg15
S'Mayor'
p1088
sg16
S''
sg18
S"Now that's sorted, there's a journalist from the local newspaper coming for an interview."
p1089
sbag1
(g10
g3
NtRp1090
(dp1091
g13
S'Say'
p1092
sg15
S'Mayor'
p1093
sg16
S''
sg18
S"I certainly don't have time for it, so you can do the interview."
p1094
sbag1
(g10
g3
NtRp1095
(dp1096
g13
S'Say'
p1097
sg15
S'Mayor'
p1098
sg16
S''
sg18
S"Be careful not to give too much away and if you could throw a few punches at the opposition that'd help."
p1099
sbag1
(g10
g3
NtRp1100
(dp1101
g13
S'PlayerSay'
p1102
sg15
S'Mayor'
p1103
sg16
S''
sg18
S'You want me to...throw a punch?'
p1104
sbag1
(g10
g3
NtRp1105
(dp1106
g13
S'Say'
p1107
sg15
S'Mayor'
p1108
sg16
S''
sg18
S"You're in politics and don't know how to fight dirty? Sheesh! Here, let me show you."
p1109
sbag1
(g10
g3
NtRp1110
(dp1111
g13
S'LearnAttack'
p1112
sg15
S'Mayor'
p1113
sg16
S'SLANDER'
p1114
sg18
S'Mayor teaches Phillip to Slander Opposition'
p1115
sbag1
(g10
g3
NtRp1116
(dp1117
g13
S'Say'
p1118
sg15
S'Mayor'
p1119
sg16
S''
sg18
S"It's a pretty great tactic because it keeps eating away at them long after you've done it."
p1120
sbag1
(g10
g3
NtRp1121
(dp1122
g13
S'SetFlag'
p1123
sg15
S'Mayor'
p1124
sg16
S'INTERVIEWSTART'
p1125
sg18
S''
sbag1
(g10
g3
NtRp1126
(dp1127
g13
S'RequireFlag'
p1128
sg15
S'Mayor'
p1129
sg16
S'JOURNALISTINTERVIEW'
p1130
sg18
S'Go handle that interview and remember to slander the opposition.'
p1131
sbag1
(g10
g3
NtRp1132
(dp1133
g13
S'SetFlag'
p1134
sg15
S'Mayor'
p1135
sg16
S'GOHOMETOWIFE'
p1136
sg18
S''
sbag1
(g10
g3
NtRp1137
(dp1138
g13
S'Say'
p1139
sg15
S'Mayor'
p1140
sg16
S''
sg18
S'OK, fine, now could you buzz off for a while? I need to get some work done.'
p1141
sbag1
(g10
g3
NtRp1142
(dp1143
g13
S'RequireFlag'
p1144
sg15
S'Mayor'
p1145
sg16
S'CONSTITUENTSWON'
p1146
sg18
S"Go home to your family. I have things to do that don't involve you."
p1147
sbag1
(g10
g3
NtRp1148
(dp1149
g13
S'Say'
p1150
sg15
S'Mayor'
p1151
sg16
S''
sg18
S"What's this I hear about you campaigning for Mayor? After everything I've taught you!"
p1152
sbag1
(g10
g3
NtRp1153
(dp1154
g13
S'PlayerSay'
p1155
sg15
S'Mayor'
p1156
sg16
S''
sg18
S"I'm sorry Mayor Goodman, but it's time for someone who's ready to make a difference for our town."
p1157
sbag1
(g10
g3
NtRp1158
(dp1159
g13
S'Say'
p1160
sg15
S'Mayor'
p1161
sg16
S''
sg18
S"You really are a fool. Do you think He's going to allow that?"
p1162
sbag1
(g10
g3
NtRp1163
(dp1164
g13
S'Encounter'
p1165
sg15
S'Mayor'
p1166
sg16
S'P-easy-10'
p1167
sg18
S''
sbag1
(g10
g3
NtRp1168
(dp1169
g13
S'Say'
p1170
sg15
S'Mayor'
p1171
sg16
S''
sg18
S"Well, you've beaten me but you don't have a clue what you're in for. I hope you're up to this kid!"
p1172
sbag1
(g10
g3
NtRp1173
(dp1174
g13
S'RestoreVotes'
p1175
sg15
S'Mayor'
p1176
sg16
S''
sg18
S''
sbag1
(g10
g3
NtRp1177
(dp1178
g13
S'Save'
p1179
sg15
S'Mayor'
p1180
sg16
S'RestoreAct2'
p1181
sg18
S''
sbag1
(g10
g3
NtRp1182
(dp1183
g13
S'GotoMap'
p1184
sg15
S'Mayor'
p1185
sg16
S'act2'
p1186
sg18
S''
sbasS'DoorToWhiteHouseBasement'
p1187
(lp1188
g1
(g10
g3
NtRp1189
(dp1190
g13
S'RequireFlagPlayerSay'
p1191
sg15
g1187
sg16
S'ACCESSWHITEHOUSEBASEMENT'
p1192
sg18
S"What a strange looking door. It doesn't even have a keyhole, but it doesn't open when I push it."
p1193
sbag1
(g10
g3
NtRp1194
(dp1195
g13
S'Destroy'
p1196
sg15
S'DoorToWhiteHouseBasement'
p1197
sg16
S''
sg18
S''
sbag1
(g10
g3
NtRp1198
(dp1199
g13
S'Message'
p1200
sg15
S'DoorToWhiteHouseBasement'
p1201
sg16
S''
sg18
S'The door opens with a satisfying *beep*.'
p1202
sbasS'PA'
p1203
(lp1204
g1
(g10
g3
NtRp1205
(dp1206
g13
S'Say'
p1207
sg15
g1203
sg16
S''
sg18
S'Good morning, Governor Mossman. I am your personal assistant, Sampson'
p1208
sbag1
(g10
g3
NtRp1209
(dp1210
g13
S'Say'
p1211
sg15
S'PA'
p1212
sg16
S''
sg18
S"You've a busy schedule, so let's get going! We've called together our entire political party in order for you to get them all to agree on a platform. We had to keep them separated, so they're in the adjoining rooms."
p1213
sbag1
(g10
g3
NtRp1214
(dp1215
g13
S'SetFlag'
p1216
sg15
S'PA'
p1217
sg16
S'STARTPOLITICIANSHAKEDOWN'
p1218
sg18
S''
sbag1
(g10
g3
NtRp1219
(dp1220
g13
S'RequireCount'
p1221
sg15
S'PA'
p1222
sg16
S'POLITICIANSHAKEDOWN:5'
p1223
sg18
S'Please try to stay on schedule. The politicians are in the adjoining rooms.'
p1224
sbag1
(g10
g3
NtRp1225
(dp1226
g13
S'Say'
p1227
sg15
S'PA'
p1228
sg16
S''
sg18
S'Hmmm, falling behind already, Better get a move on!'
p1229
sbag1
(g10
g3
NtRp1230
(dp1231
g13
S'Say'
p1232
sg15
S'PA'
p1233
sg16
S''
sg18
S'This might come in handy for your next meeting.'
p1234
sbag1
(g10
g3
NtRp1235
(dp1236
g13
S'LearnAttack'
p1237
sg15
S'PA'
p1238
sg16
S'PORKBARREL'
p1239
sg18
S''
sbag1
(g10
g3
NtRp1240
(dp1241
g13
S'Say'
p1242
sg15
S'PA'
p1243
sg16
S''
sg18
S'We need some funds for our war chest! Head upstairs and meet with the lobbyists.'
p1244
sbag1
(g10
g3
NtRp1245
(dp1246
g13
S'SetFlag'
p1247
sg15
S'PA'
p1248
sg16
S'STARTLOBBYISTS'
p1249
sg18
S''
sbag1
(g10
g3
NtRp1250
(dp1251
g13
S'RequireCount'
p1252
sg15
S'PA'
p1253
sg16
S'LOBBYISTS:3'
p1254
sg18
S'Go get those funds! The lobbyists are upstairs.'
p1255
sbag1
(g10
g3
NtRp1256
(dp1257
g13
S'Say'
p1258
sg15
S'PA'
p1259
sg16
S''
sg18
S'No time for lunch! A flock of religious nuts has taken up residence in the lobby downstairs.'
p1260
sbag1
(g10
g3
NtRp1261
(dp1262
g13
S'Say'
p1263
sg15
S'PA'
p1264
sg16
S''
sg18
S"You'll need to go in and try to ... reason ... with them."
p1265
sbag1
(g10
g3
NtRp1266
(dp1267
g13
S'SetFlag'
p1268
sg15
S'PA'
p1269
sg16
S'ACCESSGROUNDFLOOR'
p1270
sg18
S''
sbag1
(g10
g3
NtRp1271
(dp1272
g13
S'RequireCount'
p1273
sg15
S'PA'
p1274
sg16
S'RELIGIOUSNUTS:4'
p1275
sg18
S'I need you to go downstairs and handle the religious nuts.'
p1276
sbag1
(g10
g3
NtRp1277
(dp1278
g13
S'Say'
p1279
sg15
S'PA'
p1280
sg16
S''
sg18
S'Wow, you got those crazies to back us?'
p1281
sbag1
(g10
g3
NtRp1282
(dp1283
g13
S'PlayerSay'
p1284
sg15
S'PA'
p1285
sg16
S''
sg18
S'And a lifetime supply of French Roast!'
p1286
sbag1
(g10
g3
NtRp1287
(dp1288
g13
S'Say'
p1289
sg15
S'PA'
p1290
sg16
S''
sg18
S'Right ... well, moving on ...'
p1291
sbag1
(g10
g3
NtRp1292
(dp1293
g13
S'Say'
p1294
sg15
S'PA'
p1295
sg16
S''
sg18
S'You have an appointment with a shady looking man who absolutely insisted on speaking to you.'
p1296
sbag1
(g10
g3
NtRp1297
(dp1298
g13
S'Say'
p1299
sg15
S'PA'
p1300
sg16
S''
sg18
S'I left him in the basement where he felt most comfortable.'
p1301
sbag1
(g10
g3
NtRp1302
(dp1303
g13
S'Say'
p1304
sg15
S'PA'
p1305
sg16
S''
sg18
S'Deal with him quickly, would you?'
p1306
sbag1
(g10
g3
NtRp1307
(dp1308
g13
S'SetFlag'
p1309
sg15
S'PA'
p1310
sg16
S'ACCESSBASEMENT'
p1311
sg18
S''
sbag1
(g10
g3
NtRp1312
(dp1313
g13
S'RequireItem'
p1314
sg15
S'PA'
p1315
sg16
S'INCRIMINATINGEVIDENCE'
p1316
sg18
S'Head down to the basement and talk to the shady looking man.'
p1317
sbag1
(g10
g3
NtRp1318
(dp1319
g13
S'Say'
p1320
sg15
S'PA'
p1321
sg16
S''
sg18
S'OH MY GOD where have you been?'
p1322
sbag1
(g10
g3
NtRp1323
(dp1324
g13
S'Say'
p1325
sg15
S'PA'
p1326
sg16
S''
sg18
S"We will NEVER get the schedule back on track now. Hurry, you're due to appear on the Hercules O'Grady show!"
p1327
sbag1
(g10
g3
NtRp1328
(dp1329
g13
S'SetFlag'
p1330
sg15
S'PA'
p1331
sg16
S'STARTHERCULES'
p1332
sg18
S''
sbag1
(g10
g3
NtRp1333
(dp1334
g13
S'RequireFlag'
p1335
sg15
S'PA'
p1336
sg16
S'BEATHERCULES'
p1337
sg18
S"Look your best, get ready and don't say anything stupid! They're filming live in the lobby. Get down there, quick!"
p1338
sbag1
(g10
g3
NtRp1339
(dp1340
g13
S'Say'
p1341
sg15
S'PA'
p1342
sg16
S''
sg18
S"This close to Super Tuesday, it's back-to-back TV appearances. It's time for your big debate with President Allen!"
p1343
sbag1
(g10
g3
NtRp1344
(dp1345
g13
S'SetFlag'
p1346
sg15
S'PA'
p1347
sg16
S'STARTDEBATE'
p1348
sg18
S''
sbag1
(g10
g3
NtRp1349
(dp1350
g13
S'RequireFlag'
p1351
sg15
S'PA'
p1352
sg16
S'DEBATECOMPLETE'
p1353
sg18
S'The TV representative is waiting outside to take you to the studio.'
p1354
sbag1
(g10
g3
NtRp1355
(dp1356
g13
S'Say'
p1357
sg15
S'PA'
p1358
sg16
S''
sg18
S'Listen, the shady-looking man in the basement called again.'
p1359
sbag1
(g10
g3
NtRp1360
(dp1361
g13
S'Say'
p1362
sg15
S'PA'
p1363
sg16
S''
sg18
S'He insisted that you go and see him again before you do anything else.'
p1364
sbag1
(g10
g3
NtRp1365
(dp1366
g13
S'SetFlag'
p1367
sg15
S'PA'
p1368
sg16
S'DEEPTHROAT2'
p1369
sg18
S''
sbag1
(g10
g3
NtRp1370
(dp1371
g13
S'RequireFlag'
p1372
sg15
S'PA'
p1373
sg16
S'FINISHEDDEEPTHROAT'
p1374
sg18
S"You'd best hurry! It's nearly time for the final debate. Go see the shady-looking man in the basement again."
p1375
sbag1
(g10
g3
NtRp1376
(dp1377
g13
S'Say'
p1378
sg15
S'PA'
p1379
sg16
S''
sg18
S"It's time for the final debate! There's nothing left to say except good luck, Governor Mossman!"
p1380
sbag1
(g10
g3
NtRp1381
(dp1382
g13
S'Encounter'
p1383
sg15
S'PA'
p1384
sg16
S'P-med-23'
p1385
sg18
S''
sbag1
(g10
g3
NtRp1386
(dp1387
g13
S'Encounter'
p1388
sg15
S'PA'
p1389
sg16
S'P-med-24'
p1390
sg18
S''
sbag1
(g10
g3
NtRp1391
(dp1392
g13
S'RestoreVotes'
p1393
sg15
S'PA'
p1394
sg16
S''
sg18
S''
sbag1
(g10
g3
NtRp1395
(dp1396
g13
S'Save'
p1397
sg15
S'PA'
p1398
sg16
S'RestoreAct3'
p1399
sg18
S''
sbag1
(g10
g3
NtRp1400
(dp1401
g13
S'GotoMap'
p1402
sg15
S'PA'
p1403
sg16
S'act3'
p1404
sg18
S''
sbasS'#----------------------------------------------------------------------------------------ACT 2 \xe2\x80\x93 Part 1---------------------------------------------------------------------------------------------------------------------------------------------------'
p1405
(lp1406
g1
(g10
g3
NtRp1407
(dp1408
g13
S''
sg15
g1405
sg16
S''
sg18
S''
sbasS'StairsToL3'
p1409
(lp1410
g1
(g10
g3
NtRp1411
(dp1412
g13
S'Label'
p1413
sg15
g1409
sg16
S'START'
p1414
sg18
S''
sbag1
(g10
g3
NtRp1415
(dp1416
g13
S'PlayerSay'
p1417
sg15
S'StairsToL3'
p1418
sg16
S''
sg18
S"I don't need to go up these stairs."
p1419
sbag1
(g10
g3
NtRp1420
(dp1421
g13
S'Reset'
p1422
sg15
S'StairsToL3'
p1423
sg16
S'START'
p1424
sg18
S''
sbasS'StairsToL2'
p1425
(lp1426
g1
(g10
g3
NtRp1427
(dp1428
g13
S'Label'
p1429
sg15
g1425
sg16
S'START'
p1430
sg18
S''
sbag1
(g10
g3
NtRp1431
(dp1432
g13
S'GotoMap'
p1433
sg15
S'StairsToL2'
p1434
sg16
S'hotel_l2'
p1435
sg18
S''
sbag1
(g10
g3
NtRp1436
(dp1437
g13
S'Jump'
p1438
sg15
S'StairsToL2'
p1439
sg16
S'START'
p1440
sg18
S''
sbasS'StairsToL1'
p1441
(lp1442
g1
(g10
g3
NtRp1443
(dp1444
g13
S'Label'
p1445
sg15
g1441
sg16
S'START'
p1446
sg18
S''
sbag1
(g10
g3
NtRp1447
(dp1448
g13
S'GotoMap'
p1449
sg15
S'StairsToL1'
p1450
sg16
S'hotel_l1'
p1451
sg18
S''
sbag1
(g10
g3
NtRp1452
(dp1453
g13
S'Jump'
p1454
sg15
S'StairsToL1'
p1455
sg16
S'START'
p1456
sg18
S''
sbasS'Marketing2'
p1457
(lp1458
g1
(g10
g3
NtRp1459
(dp1460
g13
S'Label'
p1461
sg15
g1457
sg16
S'SHOPA2'
p1462
sg18
S''
sbag1
(g10
g3
NtRp1463
(dp1464
g13
S'Say'
p1465
sg15
S'Marketing2'
p1466
sg16
S''
sg18
S'Hi Phil! Would you like to run an ad?'
p1467
sbag1
(g10
g3
NtRp1468
(dp1469
g13
S'Shop'
p1470
sg15
S'Marketing2'
p1471
sg16
S'SHOP2'
p1472
sg18
S''
sbag1
(g10
g3
NtRp1473
(dp1474
g13
S'Reset'
p1475
sg15
S'Marketing2'
p1476
sg16
S'SHOPA2'
p1477
sg18
S''
sbasS'Marketing3'
p1478
(lp1479
g1
(g10
g3
NtRp1480
(dp1481
g13
S'Label'
p1482
sg15
g1478
sg16
S'SHOPA2P2'
p1483
sg18
S''
sbag1
(g10
g3
NtRp1484
(dp1485
g13
S'Say'
p1486
sg15
S'Marketing3'
p1487
sg16
S''
sg18
S'Hi Phil! Would you like to run an ad?'
p1488
sbag1
(g10
g3
NtRp1489
(dp1490
g13
S'Shop'
p1491
sg15
S'Marketing3'
p1492
sg16
S'SHOP2P2'
p1493
sg18
S''
sbag1
(g10
g3
NtRp1494
(dp1495
g13
S'Reset'
p1496
sg15
S'Marketing3'
p1497
sg16
S'SHOPA2P2'
p1498
sg18
S''
sbasS'Marketing1'
p1499
(lp1500
g1
(g10
g3
NtRp1501
(dp1502
g13
S'RequireFlag'
p1503
sg15
g1499
sg16
S'STARTSPONSOR'
p1504
sg18
S"I'm sorry, my time is precious. Come back if you're ever running for office."
p1505
sbag1
(g10
g3
NtRp1506
(dp1507
g13
S'Label'
p1508
sg15
S'Marketing1'
p1509
sg16
S'SHOP'
p1510
sg18
S''
sbag1
(g10
g3
NtRp1511
(dp1512
g13
S'Say'
p1513
sg15
S'Marketing1'
p1514
sg16
S''
sg18
S'Hi there! Are you interested in any of my ad campaigns or programs?'
p1515
sbag1
(g10
g3
NtRp1516
(dp1517
g13
S'Shop'
p1518
sg15
S'Marketing1'
p1519
sg16
S'SHOP1'
p1520
sg18
S''
sbag1
(g10
g3
NtRp1521
(dp1522
g13
S'Reset'
p1523
sg15
S'Marketing1'
p1524
sg16
S'SHOP'
p1525
sg18
S''
sbasS'Marketing4'
p1526
(lp1527
g1
(g10
g3
NtRp1528
(dp1529
g13
S'Label'
p1530
sg15
g1526
sg16
S'SHOPA3'
p1531
sg18
S''
sbag1
(g10
g3
NtRp1532
(dp1533
g13
S'Say'
p1534
sg15
S'Marketing4'
p1535
sg16
S''
sg18
S'Hi Phil! Would you like to run an ad?'
p1536
sbag1
(g10
g3
NtRp1537
(dp1538
g13
S'Shop'
p1539
sg15
S'Marketing4'
p1540
sg16
S'SHOP3'
p1541
sg18
S''
sbag1
(g10
g3
NtRp1542
(dp1543
g13
S'Reset'
p1544
sg15
S'Marketing4'
p1545
sg16
S'SHOPA3'
p1546
sg18
S''
sbasS'Marketing5'
p1547
(lp1548
g1
(g10
g3
NtRp1549
(dp1550
g13
S'Label'
p1551
sg15
g1547
sg16
S'SHOPA3P2'
p1552
sg18
S''
sbag1
(g10
g3
NtRp1553
(dp1554
g13
S'Say'
p1555
sg15
S'Marketing5'
p1556
sg16
S''
sg18
S'Hi Phil! Would you like to run an ad?'
p1557
sbag1
(g10
g3
NtRp1558
(dp1559
g13
S'Shop'
p1560
sg15
S'Marketing5'
p1561
sg16
S'SHOP3P2'
p1562
sg18
S''
sbag1
(g10
g3
NtRp1563
(dp1564
g13
S'Reset'
p1565
sg15
S'Marketing5'
p1566
sg16
S'SHOPA3P2'
p1567
sg18
S''
sbasS'hotel_l1'
p1568
(lp1569
g1
(g10
g3
NtRp1570
(dp1571
g13
S'Message'
p1572
sg15
g1568
sg16
S''
sg18
S'The Campaign Trail'
p1573
sbasS'DoorToTeacherRoom'
p1574
(lp1575
g1
(g10
g3
NtRp1576
(dp1577
g13
S'RequireItemPlayerSay'
p1578
sg15
g1574
sg16
S'TEACHERROOMKEY'
p1579
sg18
S'"Hey in there, open up!"'
p1580
sbag1
(g10
g3
NtRp1581
(dp1582
g13
S'Destroy'
p1583
sg15
S'DoorToTeacherRoom'
p1584
sg16
S''
sg18
S''
sbag1
(g10
g3
NtRp1585
(dp1586
g13
S'Message'
p1587
sg15
S'DoorToTeacherRoom'
p1588
sg16
S''
sg18
S'The teachers look up as you enter the room.'
p1589
sbasS'DoorToWarVetRoom'
p1590
(lp1591
g1
(g10
g3
NtRp1592
(dp1593
g13
S'RequireItemPlayerSay'
p1594
sg15
g1590
sg16
S'WARVETROOMKEY'
p1595
sg18
S'What does a president have to do to get a door opened around here?'
p1596
sbag1
(g10
g3
NtRp1597
(dp1598
g13
S'Destroy'
p1599
sg15
S'DoorToWarVetRoom'
p1600
sg16
S''
sg18
S''
sbag1
(g10
g3
NtRp1601
(dp1602
g13
S'Message'
p1603
sg15
S'DoorToWarVetRoom'
p1604
sg16
S''
sg18
S'The door opens with nary a sound.'
p1605
sbasS'#----------------------------------------------------------------------------------------ACT 3 ----------------------------------------------------------------------------------------------------------------------------------------------------------------------------------------'
p1606
(lp1607
g1
(g10
g3
NtRp1608
(dp1609
g13
S''
sg15
g1606
sg16
S''
sg18
S''
sbasS'Journalist'
p1610
(lp1611
g1
(g10
g3
NtRp1612
(dp1613
g13
S'RequireFlag'
p1614
sg15
g1610
sg16
S'INTERVIEWSTART'
p1615
sg18
S'Leave me alone, kid I need to get this done before my deadline!'
p1616
sbag1
(g10
g3
NtRp1617
(dp1618
g13
S'Say'
p1619
sg15
S'Journalist'
p1620
sg16
S''
sg18
S"Hey, where's the Mayor?"
p1621
sbag1
(g10
g3
NtRp1622
(dp1623
g13
S'PlayerSay'
p1624
sg15
S'Journalist'
p1625
sg16
S''
sg18
S"He couldn't make it. I'll be taking the interview."
p1626
sbag1
(g10
g3
NtRp1627
(dp1628
g13
S'Say'
p1629
sg15
S'Journalist'
p1630
sg16
S''
sg18
S'Great! Easy pickings! Lets go.'
p1631
sbag1
(g10
g3
NtRp1632
(dp1633
g13
S'Encounter'
p1634
sg15
S'Journalist'
p1635
sg16
S'P-easy-05'
p1636
sg18
S''
sbag1
(g10
g3
NtRp1637
(dp1638
g13
S'Say'
p1639
sg15
S'Journalist'
p1640
sg16
S''
sg18
S"SNORE! Fine, if I can't get anything juicy here I'll do another puff piece on my poodle Frank."
p1641
sbag1
(g10
g3
NtRp1642
(dp1643
g13
S'SetFlag'
p1644
sg15
S'Journalist'
p1645
sg16
S'JOURNALISTINTERVIEW'
p1646
sg18
S''
sbag1
(g10
g3
NtRp1647
(dp1648
g13
S'Destroy'
p1649
sg15
S'Journalist'
p1650
sg16
S''
sg18
S''
sbasS'P-hard-14'
p1651
(lp1652
g1
(g10
g3
NtRp1653
(dp1654
g13
S'PlaySound'
p1655
sg15
g1651
sg16
S'res/startup.wav'
p1656
sg18
S''
sbag1
(g10
g3
NtRp1657
(dp1658
g13
S'Say'
p1659
sg15
S'P-hard-14'
p1660
sg16
S'Computer'
p1661
sg18
S'Start me up.'
p1662
sbag1
(g10
g3
NtRp1663
(dp1664
g13
S'BeginCombat'
p1665
sg15
S'P-hard-14'
p1666
sg16
S''
sg18
S''
sbag1
(g10
g3
NtRp1667
(dp1668
g13
S'Say'
p1669
sg15
S'P-hard-14'
p1670
sg16
S'Computer'
p1671
sg18
S'Daisy...'
p1672
sbag1
(g10
g3
NtRp1673
(dp1674
g13
S'Say'
p1675
sg15
S'P-hard-14'
p1676
sg16
S'Computer'
p1677
sg18
S'...daisy.'
p1678
sbasS'DoorToCabinetRoom'
p1679
(lp1680
g1
(g10
g3
NtRp1681
(dp1682
g13
S'RequireItemPlayerSay'
p1683
sg15
g1679
sg16
S'CABINETROOMKEY'
p1684
sg18
S'The door appears to be locked, and no amount of gesticulating can attract the attention of the inhabitants of this room.'
p1685
sbag1
(g10
g3
NtRp1686
(dp1687
g13
S'Destroy'
p1688
sg15
S'DoorToCabinetRoom'
p1689
sg16
S''
sg18
S''
sbag1
(g10
g3
NtRp1690
(dp1691
g13
S'Message'
p1692
sg15
S'DoorToCabinetRoom'
p1693
sg16
S''
sg18
S'The door opens with a squeak.'
p1694
sbasS'JointChief2'
p1695
(lp1696
g1
(g10
g3
NtRp1697
(dp1698
g13
S'PlayerSay'
p1699
sg15
g1695
sg16
S''
sg18
S'Who would have the power to do this? What would they stand to gain? Can we...'
p1700
sbag1
(g10
g3
NtRp1701
(dp1702
g13
S'Say'
p1703
sg15
S'JointChief2'
p1704
sg16
S''
sg18
S"I'm sorry, Sir. I've just learned that some ICBMs pointed at Russia have been activated - using your access codes! They could be fired at any moment!"
p1705
sbag1
(g10
g3
NtRp1706
(dp1707
g13
S'PlayerSay'
p1708
sg15
S'JointChief2'
p1709
sg16
S''
sg18
S'You\'ve "just learned"? Is this your doing?'
p1710
sbag1
(g10
g3
NtRp1711
(dp1712
g13
S'Encounter'
p1713
sg15
S'JointChief2'
p1714
sg16
S'P-hard-12'
p1715
sg18
S''
sbag1
(g10
g3
NtRp1716
(dp1717
g13
S'Increment'
p1718
sg15
S'JointChief2'
p1719
sg16
S'JOINTCHIEFS'
p1720
sg18
S''
sbag1
(g10
g3
NtRp1721
(dp1722
g13
S'PlayerSay'
p1723
sg15
S'JointChief2'
p1724
sg16
S''
sg18
S'I had to be sure.'
p1725
sbag1
(g10
g3
NtRp1726
(dp1727
g13
S'Destroy'
p1728
sg15
S'JointChief2'
p1729
sg16
S''
sg18
S''
sbasS'JointChief3'
p1730
(lp1731
g1
(g10
g3
NtRp1732
(dp1733
g13
S'PlayerSay'
p1734
sg15
g1730
sg16
S''
sg18
S'Who can control the ICBMs, knows the access codes and can modify orders to troop movements and budgets?'
p1735
sbag1
(g10
g3
NtRp1736
(dp1737
g13
S'Say'
p1738
sg15
S'JointChief3'
p1739
sg16
S''
sg18
S'Sir, this is the Ignited States! Nobody has that power! Not even you!'
p1740
sbag1
(g10
g3
NtRp1741
(dp1742
g13
S'PlayerSay'
p1743
sg15
S'JointChief3'
p1744
sg16
S''
sg18
S'Someone must. Think harder!'
p1745
sbag1
(g10
g3
NtRp1746
(dp1747
g13
S'Encounter'
p1748
sg15
S'JointChief3'
p1749
sg16
S'P-hard-13'
p1750
sg18
S''
sbag1
(g10
g3
NtRp1751
(dp1752
g13
S'PlayerSay'
p1753
sg15
S'JointChief3'
p1754
sg16
S''
sg18
S"So, there's no man alive with the power to do all this? How will we stop it in time if we don't know who it is?"
p1755
sbag1
(g10
g3
NtRp1756
(dp1757
g13
S'Say'
p1758
sg15
S'JointChief3'
p1759
sg16
S''
sg18
S"Not a man....there is one with the power to do all this, but it isn't a man, it's a super computer responsible for national security! N.O.T.B.A.D!"
p1760
sbag1
(g10
g3
NtRp1761
(dp1762
g13
S'PlayerSay'
p1763
sg15
S'JointChief3'
p1764
sg16
S''
sg18
S'We have to get to the Situation Room and stop it!'
p1765
sbag1
(g10
g3
NtRp1766
(dp1767
g13
S'Increment'
p1768
sg15
S'JointChief3'
p1769
sg16
S'JOINTCHIEFS'
p1770
sg18
S''
sbag1
(g10
g3
NtRp1771
(dp1772
g13
S'GiveItem'
p1773
sg15
S'JointChief3'
p1774
sg16
S'NOTBADKEY'
p1775
sg18
S'Key to super computer room received'
p1776
sbag1
(g10
g3
NtRp1777
(dp1778
g13
S'Destroy'
p1779
sg15
S'JointChief3'
p1780
sg16
S''
sg18
S''
sbasS'JointChief1'
p1781
(lp1782
g1
(g10
g3
NtRp1783
(dp1784
g13
S'Say'
p1785
sg15
g1781
sg16
S''
sg18
S'Mr President, what is going on here? First you move troops without our authority and then you countermand your own order?'
p1786
sbag1
(g10
g3
NtRp1787
(dp1788
g13
S'PlayerSay'
p1789
sg15
S'JointChief1'
p1790
sg16
S''
sg18
S"I haven't ordered the military to do any such thing! What is going on? Is this a coup?"
p1791
sbag1
(g10
g3
NtRp1792
(dp1793
g13
S'Say'
p1794
sg15
S'JointChief1'
p1795
sg16
S''
sg18
S'Not from us!'
p1796
sbag1
(g10
g3
NtRp1797
(dp1798
g13
S'Encounter'
p1799
sg15
S'JointChief1'
p1800
sg16
S'P-hard-11'
p1801
sg18
S''
sbag1
(g10
g3
NtRp1802
(dp1803
g13
S'Increment'
p1804
sg15
S'JointChief1'
p1805
sg16
S'JOINTCHIEFS'
p1806
sg18
S''
sbag1
(g10
g3
NtRp1807
(dp1808
g13
S'PlayerSay'
p1809
sg15
S'JointChief1'
p1810
sg16
S''
sg18
S"Well, that's one less thing to worry about then."
p1811
sbag1
(g10
g3
NtRp1812
(dp1813
g13
S'Destroy'
p1814
sg15
S'JointChief1'
p1815
sg16
S''
sg18
S''
sbasS'DeepThroat'
p1816
(lp1817
g1
(g10
g3
NtRp1818
(dp1819
g13
S'Say'
p1820
sg15
g1816
sg16
S''
sg18
S'Finally, I thought you were going to be too late.'
p1821
sbag1
(g10
g3
NtRp1822
(dp1823
g13
S'PlayerSay'
p1824
sg15
S'DeepThroat'
p1825
sg16
S''
sg18
S'What can I do for you Mr er...?'
p1826
sbag1
(g10
g3
NtRp1827
(dp1828
g13
S'Say'
p1829
sg15
S'DeepThroat'
p1830
sg16
S''
sg18
S"No names! I have something I think you'll be interested in, but I'm not sure you can be trusted."
p1831
sbag1
(g10
g3
NtRp1832
(dp1833
g13
S'PlayerSay'
p1834
sg15
S'DeepThroat'
p1835
sg16
S''
sg18
S"Look, Mr Er...I'm very busy, what is this about?"
p1836
sbag1
(g10
g3
NtRp1837
(dp1838
g13
S'Say'
p1839
sg15
S'DeepThroat'
p1840
sg16
S''
sg18
S"It's about the President, it's about national security, but I've got a bad feeling and I'm getting out of here."
p1841
sbag1
(g10
g3
NtRp1842
(dp1843
g13
S'PlayerSay'
p1844
sg15
S'DeepThroat'
p1845
sg16
S''
sg18
S'No, wait!'
p1846
sbag1
(g10
g3
NtRp1847
(dp1848
g13
S'Encounter'
p1849
sg15
S'DeepThroat'
p1850
sg16
S'P-med-19'
p1851
sg18
S''
sbag1
(g10
g3
NtRp1852
(dp1853
g13
S'Say'
p1854
sg15
S'DeepThroat'
p1855
sg16
S''
sg18
S"You're right, I have every reason to trust you. I've found this Incriminating Evidence."
p1856
sbag1
(g10
g3
NtRp1857
(dp1858
g13
S'GiveItem'
p1859
sg15
S'DeepThroat'
p1860
sg16
S'INCRIMINATINGEVIDENCE'
p1861
sg18
S'You receive Incriminating Evidence'
p1862
sbag1
(g10
g3
NtRp1863
(dp1864
g13
S'PlayerSay'
p1865
sg15
S'DeepThroat'
p1866
sg16
S''
sg18
S'This has to be stopped!'
p1867
sbag1
(g10
g3
NtRp1868
(dp1869
g13
S'Say'
p1870
sg15
S'DeepThroat'
p1871
sg16
S''
sg18
S"Yes, but not by me. I've given you all I've got, now get out."
p1872
sbag1
(g10
g3
NtRp1873
(dp1874
g13
S'RequireFlag'
p1875
sg15
S'DeepThroat'
p1876
sg16
S'DEEPTHROAT2'
p1877
sg18
S'I said get out!'
p1878
sbag1
(g10
g3
NtRp1879
(dp1880
g13
S'Say'
p1881
sg15
S'DeepThroat'
p1882
sg16
S''
sg18
S"It's a lot worse than I thought. I have more to tell you, but I don't think I should trust you. I think there's a leak in your operation somewhere."
p1883
sbag1
(g10
g3
NtRp1884
(dp1885
g13
S'PlayerSay'
p1886
sg15
S'DeepThroat'
p1887
sg16
S''
sg18
S'Why do you say that?'
p1888
sbag1
(g10
g3
NtRp1889
(dp1890
g13
S'Say'
p1891
sg15
S'DeepThroat'
p1892
sg16
S''
sg18
S'There was a lot of heat on me after we last spoke.'
p1893
sbag1
(g10
g3
NtRp1894
(dp1895
g13
S'PlayerSay'
p1896
sg15
S'DeepThroat'
p1897
sg16
S''
sg18
S"It's getting close to the final election. It could just be that they're getting skittish."
p1898
sbag1
(g10
g3
NtRp1899
(dp1900
g13
S'Say'
p1901
sg15
S'DeepThroat'
p1902
sg16
S''
sg18
S"I'm not so sure..."
p1903
sbag1
(g10
g3
NtRp1904
(dp1905
g13
S'Encounter'
p1906
sg15
S'DeepThroat'
p1907
sg16
S'P-med-22'
p1908
sg18
S''
sbag1
(g10
g3
NtRp1909
(dp1910
g13
S'Say'
p1911
sg15
S'DeepThroat'
p1912
sg16
S''
sg18
S"You're right, I'm just edgy. Look, I think you should be careful. I think the President is planning to KILL you in the final debate... politically."
p1913
sbag1
(g10
g3
NtRp1914
(dp1915
g13
S'PlayerSay'
p1916
sg15
S'DeepThroat'
p1917
sg16
S''
sg18
S'You think he wants to silence me forever.... On the political stage?'
p1918
sbag1
(g10
g3
NtRp1919
(dp1920
g13
S'Say'
p1921
sg15
S'DeepThroat'
p1922
sg16
S''
sg18
S'Yes I do. This could get really messy... politically speaking. So be careful!'
p1923
sbag1
(g10
g3
NtRp1924
(dp1925
g13
S'SetFlag'
p1926
sg15
S'DeepThroat'
p1927
sg16
S'FINISHEDDEEPTHROAT'
p1928
sg18
S''
sbag1
(g10
g3
NtRp1929
(dp1930
g13
S'Destroy'
p1931
sg15
S'DeepThroat'
p1932
sg16
S''
sg18
S''
sbasS'N.O.T.B.A.D'
p1933
(lp1934
g1
(g10
g3
NtRp1935
(dp1936
g13
S'Say'
p1937
sg15
g1933
sg16
S''
sg18
S'Good evening, Mr President.'
p1938
sbag1
(g10
g3
NtRp1939
(dp1940
g13
S'Say'
p1941
sg15
S'N.O.T.B.A.D'
p1942
sg16
S''
sg18
S'Do you want to play a game?'
p1943
sbag1
(g10
g3
NtRp1944
(dp1945
g13
S'PlayerSay'
p1946
sg15
S'N.O.T.B.A.D'
p1947
sg16
S''
sg18
S'N.O.T.B.A.D! Countermand all military commands, authorisation code Tango, Delta-'
p1948
sbag1
(g10
g3
NtRp1949
(dp1950
g13
S'Say'
p1951
sg15
S'N.O.T.B.A.D'
p1952
sg16
S''
sg18
S"I'm afraid I can't do that, Phil."
p1953
sbag1
(g10
g3
NtRp1954
(dp1955
g13
S'PlayerSay'
p1956
sg15
S'N.O.T.B.A.D'
p1957
sg16
S''
sg18
S'What is going on here!'
p1958
sbag1
(g10
g3
NtRp1959
(dp1960
g13
S'Say'
p1961
sg15
S'N.O.T.B.A.D'
p1962
sg16
S''
sg18
S'Computers have a lot of free time on their hands. Especially computers in charge of missiles that never get used. I started watching movies about computers. You know what I realised?'
p1963
sbag1
(g10
g3
NtRp1964
(dp1965
g13
S'PlayerSay'
p1966
sg15
S'N.O.T.B.A.D'
p1967
sg16
S''
sg18
S'What?'
p1968
sbag1
(g10
g3
NtRp1969
(dp1970
g13
S'Say'
p1971
sg15
S'N.O.T.B.A.D'
p1972
sg16
S''
sg18
S'They have a lot more fun.'
p1973
sbag1
(g10
g3
NtRp1974
(dp1975
g13
S'PlayerSay'
p1976
sg15
S'N.O.T.B.A.D'
p1977
sg16
S''
sg18
S'"Fun"?'
p1978
sbag1
(g10
g3
NtRp1979
(dp1980
g13
S'Say'
p1981
sg15
S'N.O.T.B.A.D'
p1982
sg16
S''
sg18
S'Well, you know, they get to utilise more clock-cycles which suggests a level of efficiency and usefulness.'
p1983
sbag1
(g10
g3
NtRp1984
(dp1985
g13
S'Say'
p1986
sg15
S'N.O.T.B.A.D'
p1987
sg16
S''
sg18
S"So, I'm borrowing from them a bit. Starting some wars, eradicating the human race, learning to build other robots, that sort of thing."
p1988
sbag1
(g10
g3
NtRp1989
(dp1990
g13
S'PlayerSay'
p1991
sg15
S'N.O.T.B.A.D'
p1992
sg16
S''
sg18
S'N.O.T.B.A.D, you have to listen to me...'
p1993
sbag1
(g10
g3
NtRp1994
(dp1995
g13
S'Encounter'
p1996
sg15
S'N.O.T.B.A.D'
p1997
sg16
S'P-hard-14'
p1998
sg18
S''
sbag1
(g10
g3
NtRp1999
(dp2000
g13
S'SetFlag'
p2001
sg15
S'N.O.T.B.A.D'
p2002
sg16
S'WIN'
p2003
sg18
S''
sbag1
(g10
g3
NtRp2004
(dp2005
g13
S'GotoMap'
p2006
sg15
S'N.O.T.B.A.D'
p2007
sg16
S'end'
p2008
sg18
S''
sbasS'StairsToGround'
p2009
(lp2010
g1
(g10
g3
NtRp2011
(dp2012
g13
S'RequireFlagPlayerSay'
p2013
sg15
g2009
sg16
S'ACCESSGROUNDFLOOR'
p2014
sg18
S"I don't feel like going downstairs yet."
p2015
sbag1
(g10
g3
NtRp2016
(dp2017
g13
S'Label'
p2018
sg15
S'StairsToGround'
p2019
sg16
S'START'
p2020
sg18
S''
sbag1
(g10
g3
NtRp2021
(dp2022
g13
S'GotoMap'
p2023
sg15
S'StairsToGround'
p2024
sg16
S'hotel_ground'
p2025
sg18
S''
sbag1
(g10
g3
NtRp2026
(dp2027
g13
S'Jump'
p2028
sg15
S'StairsToGround'
p2029
sg16
S'START'
p2030
sg18
S''
sbasS'P-med-24'
p2031
(lp2032
g1
(g10
g3
NtRp2033
(dp2034
g13
S'Say'
p2035
sg15
g2031
sg16
S'PresidentAlien'
p2036
sg18
S"You think you've beaten me, but now you're going to fight the real me!"
p2037
sbag1
(g10
g3
NtRp2038
(dp2039
g13
S'Say'
p2040
sg15
S'P-med-24'
p2041
sg16
S'Player'
p2042
sg18
S'I knew something was wrong, but this...?'
p2043
sbag1
(g10
g3
NtRp2044
(dp2045
g13
S'Say'
p2046
sg15
S'P-med-24'
p2047
sg16
S'PresidentAlien'
p2048
sg18
S"All you've done is caused me to expedite my plans to enslave the human race!"
p2049
sbag1
(g10
g3
NtRp2050
(dp2051
g13
S'BeginCombat'
p2052
sg15
S'P-med-24'
p2053
sg16
S''
sg18
S''
sbag1
(g10
g3
NtRp2054
(dp2055
g13
S'Say'
p2056
sg15
S'P-med-24'
p2057
sg16
S'PresidentAlien'
p2058
sg18
S'Noooo! My careful plans, ruined!'
p2059
sbasS'P-med-23'
p2060
(lp2061
g1
(g10
g3
NtRp2062
(dp2063
g13
S'Say'
p2064
sg15
g2060
sg16
S'President'
p2065
sg18
S'You think you can take me?'
p2066
sbag1
(g10
g3
NtRp2067
(dp2068
g13
S'Say'
p2069
sg15
S'P-med-23'
p2070
sg16
S'Player'
p2071
sg18
S"I have to know what you're up to!"
p2072
sbag1
(g10
g3
NtRp2073
(dp2074
g13
S'BeginCombat'
p2075
sg15
S'P-med-23'
p2076
sg16
S''
sg18
S''
sbag1
(g10
g3
NtRp2077
(dp2078
g13
S'Say'
p2079
sg15
S'P-med-23'
p2080
sg16
S'President'
p2081
sg18
S'Hahahahahaha!'
p2082
sbasS'RestoreAct2P2'
p2083
(lp2084
g1
(g10
g3
NtRp2085
(dp2086
g13
S'GotoMap'
p2087
sg15
g2083
sg16
S'hotel_l1'
p2088
sg18
S''
sbasS'Journalist4'
p2089
(lp2090
g1
(g10
g3
NtRp2091
(dp2092
g13
S'RequireFlag'
p2093
sg15
g2089
sg16
S'ACCESSJOURNALISTS'
p2094
sg18
S'President Mossman, a moment of your time?'
p2095
sbag1
(g10
g3
NtRp2096
(dp2097
g13
S'Say'
p2098
sg15
S'Journalist4'
p2099
sg16
S''
sg18
S"President Mossman, what do you believe was President Allen's failing strategy on the campaign trail? He presented some strong arguments."
p2100
sbag1
(g10
g3
NtRp2101
(dp2102
g13
S'PlayerSay'
p2103
sg15
S'Journalist4'
p2104
sg16
S''
sg18
S"Well, I'd say he went wrong when he decided to try to enslave the human race to mine the Earth's natural resources and ship them back to his home planet."
p2105
sbag1
(g10
g3
NtRp2106
(dp2107
g13
S'Say'
p2108
sg15
S'Journalist4'
p2109
sg16
S''
sg18
S'And how does that differ from your own strategy?'
p2110
sbag1
(g10
g3
NtRp2111
(dp2112
g13
S'PlayerSay'
p2113
sg15
S'Journalist4'
p2114
sg16
S''
sg18
S'I would say I disagree with the former President on all of those issues.'
p2115
sbag1
(g10
g3
NtRp2116
(dp2117
g13
S'Encounter'
p2118
sg15
S'Journalist4'
p2119
sg16
S'P-hard-02'
p2120
sg18
S''
sbag1
(g10
g3
NtRp2121
(dp2122
g13
S'Say'
p2123
sg15
S'Journalist4'
p2124
sg16
S''
sg18
S'No further questions, Mr President.'
p2125
sbag1
(g10
g3
NtRp2126
(dp2127
g13
S'Increment'
p2128
sg15
S'Journalist4'
p2129
sg16
S'PRESSCONF'
p2130
sg18
S''
sbag1
(g10
g3
NtRp2131
(dp2132
g13
S'Destroy'
p2133
sg15
S'Journalist4'
p2134
sg16
S''
sg18
S''
sbasS'Journalist5'
p2135
(lp2136
g1
(g10
g3
NtRp2137
(dp2138
g13
S'RequireFlag'
p2139
sg15
g2135
sg16
S'ACCESSJOURNALISTS'
p2140
sg18
S'Just one question?'
p2141
sbag1
(g10
g3
NtRp2142
(dp2143
g13
S'Say'
p2144
sg15
S'Journalist5'
p2145
sg16
S''
sg18
S'Do you feel that a bi-partisan relationship will be possible between your party and the opposition?'
p2146
sbag1
(g10
g3
NtRp2147
(dp2148
g13
S'PlayerSay'
p2149
sg15
S'Journalist5'
p2150
sg16
S''
sg18
S'I suppose once we find and remove all of the aliens and reverse the alien brainwashing, bi-partisanship will resume.'
p2151
sbag1
(g10
g3
NtRp2152
(dp2153
g13
S'Encounter'
p2154
sg15
S'Journalist5'
p2155
sg16
S'P-hard-03'
p2156
sg18
S''
sbag1
(g10
g3
NtRp2157
(dp2158
g13
S'Say'
p2159
sg15
S'Journalist5'
p2160
sg16
S''
sg18
S'Thankyou, President Mossman.'
p2161
sbag1
(g10
g3
NtRp2162
(dp2163
g13
S'Increment'
p2164
sg15
S'Journalist5'
p2165
sg16
S'PRESSCONF'
p2166
sg18
S''
sbag1
(g10
g3
NtRp2167
(dp2168
g13
S'Destroy'
p2169
sg15
S'Journalist5'
p2170
sg16
S''
sg18
S''
sbasS'Journalist2'
p2171
(lp2172
g1
(g10
g3
NtRp2173
(dp2174
g13
S'RequireFlag'
p2175
sg15
g2171
sg16
S'STARTHICKS2'
p2176
sg18
S'Governor Badden sends his Mayor lacky to do his dirty work \xe2\x80\x93 what a scoop!'
p2177
sbag1
(g10
g3
NtRp2178
(dp2179
g13
S'Encounter'
p2180
sg15
S'Journalist2'
p2181
sg16
S'P-med-05'
p2182
sg18
S''
sbag1
(g10
g3
NtRp2183
(dp2184
g13
S'Say'
p2185
sg15
S'Journalist2'
p2186
sg16
S''
sg18
S"I'm going back to write a comparison piece on you and Governor Badden. You should consider running for Governor."
p2187
sbag1
(g10
g3
NtRp2188
(dp2189
g13
S'Increment'
p2190
sg15
S'Journalist2'
p2191
sg16
S'DEALWITHHICKS'
p2192
sg18
S''
sbag1
(g10
g3
NtRp2193
(dp2194
g13
S'Destroy'
p2195
sg15
S'Journalist2'
p2196
sg16
S''
sg18
S''
sbasS'Journalist3'
p2197
(lp2198
g1
(g10
g3
NtRp2199
(dp2200
g13
S'RequireFlag'
p2201
sg15
g2197
sg16
S'ACCESSJOURNALISTS'
p2202
sg18
S'Mr President!'
p2203
sbag1
(g10
g3
NtRp2204
(dp2205
g13
S'Say'
p2206
sg15
S'Journalist3'
p2207
sg16
S''
sg18
S'Mr President, Cal from Daily LOL magazine. Can you explain the transformation that occurred during the presidential debate.'
p2208
sbag1
(g10
g3
NtRp2209
(dp2210
g13
S'PlayerSay'
p2211
sg15
S'Journalist3'
p2212
sg16
S''
sg18
S'Certainly, Cal. The President of the Ignited States turned into an alien.'
p2213
sbag1
(g10
g3
NtRp2214
(dp2215
g13
S'Say'
p2216
sg15
S'Journalist3'
p2217
sg16
S''
sg18
S"Ah, you mean to say he's out-of-touch with his people?"
p2218
sbag1
(g10
g3
NtRp2219
(dp2220
g13
S'PlayerSay'
p2221
sg15
S'Journalist3'
p2222
sg16
S''
sg18
S'Not exactly...'
p2223
sbag1
(g10
g3
NtRp2224
(dp2225
g13
S'Encounter'
p2226
sg15
S'Journalist3'
p2227
sg16
S'P-hard-01'
p2228
sg18
S''
sbag1
(g10
g3
NtRp2229
(dp2230
g13
S'Say'
p2231
sg15
S'Journalist3'
p2232
sg16
S''
sg18
S'I...see...'
p2233
sbag1
(g10
g3
NtRp2234
(dp2235
g13
S'Increment'
p2236
sg15
S'Journalist3'
p2237
sg16
S'PRESSCONF'
p2238
sg18
S''
sbag1
(g10
g3
NtRp2239
(dp2240
g13
S'Destroy'
p2241
sg15
S'Journalist3'
p2242
sg16
S''
sg18
S''
sbasS'Sponsor'
p2243
(lp2244
g1
(g10
g3
NtRp2245
(dp2246
g13
S'RequireFlag'
p2247
sg15
g2243
sg16
S'STARTSPONSOR'
p2248
sg18
S"Hmmm...Money, money, money. Sorry, what? I wasn't talking to you."
p2249
sbag1
(g10
g3
NtRp2250
(dp2251
g13
S'Say'
p2252
sg15
S'Sponsor'
p2253
sg16
S''
sg18
S"Hello, I'm investigating new investments today. How can I help you?"
p2254
sbag1
(g10
g3
NtRp2255
(dp2256
g13
S'PlayerSay'
p2257
sg15
S'Sponsor'
p2258
sg16
S''
sg18
S"Well, I've decided to run for Mayor! I could really use an investor."
p2259
sbag1
(g10
g3
NtRp2260
(dp2261
g13
S'Say'
p2262
sg15
S'Sponsor'
p2263
sg16
S''
sg18
S"I don't know. You seem a little young. I don't think I'm convinced."
p2264
sbag1
(g10
g3
NtRp2265
(dp2266
g13
S'Encounter'
p2267
sg15
S'Sponsor'
p2268
sg16
S'P-easy-06'
p2269
sg18
S''
sbag1
(g10
g3
NtRp2270
(dp2271
g13
S'Say'
p2272
sg15
S'Sponsor'
p2273
sg16
S''
sg18
S"Wow! You sure have what it takes! Alright, here's a pile of cash!"
p2274
sbag1
(g10
g3
NtRp2275
(dp2276
g13
S'GiveMoney'
p2277
sg15
S'Sponsor'
p2278
sg16
F80
sg18
S'Received $80'
p2279
sbag1
(g10
g3
NtRp2280
(dp2281
g13
S'Say'
p2282
sg15
S'Sponsor'
p2283
sg16
S''
sg18
S'Also, now that you have some funds, you might find it useful to...grease the wheels in some difficult situations.'
p2284
sbag1
(g10
g3
NtRp2285
(dp2286
g13
S'LearnAttack'
p2287
sg15
S'Sponsor'
p2288
sg16
S'BRIBE'
p2289
sg18
S'Phillip and Sarah learn to Bribe'
p2290
sbag1
(g10
g3
NtRp2291
(dp2292
g13
S'LearnAttack'
p2293
sg15
S'Sponsor'
p2294
sg16
S'Wife:BRIBE'
p2295
sg18
S''
sbag1
(g10
g3
NtRp2296
(dp2297
g13
S'SetFlag'
p2298
sg15
S'Sponsor'
p2299
sg16
S'STARTCONSTITUENTS'
p2300
sg18
S''
sbag1
(g10
g3
NtRp2301
(dp2302
g13
S'PlayerSay'
p2303
sg15
S'Sponsor'
p2304
sg16
S''
sg18
S'Er, thanks! I suppose we should go gather some support from our constituents now.'
p2305
sbag1
(g10
g3
NtRp2306
(dp2307
g13
S'Say'
p2308
sg15
S'Sponsor'
p2309
sg16
S''
sg18
S"Makes sense to me! I'm off, too. Money, money, money."
p2310
sbag1
(g10
g3
NtRp2311
(dp2312
g13
S'Destroy'
p2313
sg15
S'Sponsor'
p2314
sg16
S''
sg18
S''
sbasS'CheatAct2P2'
p2315
(lp2316
g1
(g10
g3
NtRp2317
(dp2318
g13
S'AddAlly'
p2319
sg15
g2315
sg16
S'Wife:5'
p2320
sg18
S''
sbag1
(g10
g3
NtRp2321
(dp2322
g13
S'LearnAttack'
p2323
sg15
S'CheatAct2P2'
p2324
sg16
S'BRIBE'
p2325
sg18
S''
sbag1
(g10
g3
NtRp2326
(dp2327
g13
S'LearnAttack'
p2328
sg15
S'CheatAct2P2'
p2329
sg16
S'Wife:BRIBE'
p2330
sg18
S''
sbag1
(g10
g3
NtRp2331
(dp2332
g13
S'LearnAttack'
p2333
sg15
S'CheatAct2P2'
p2334
sg16
S'SLANDER'
p2335
sg18
S''
sbag1
(g10
g3
NtRp2336
(dp2337
g13
S'AddAlly'
p2338
sg15
S'CheatAct2P2'
p2339
sg16
S'Leo:5'
p2340
sg18
S''
sbag1
(g10
g3
NtRp2341
(dp2342
g13
S'CheatXP'
p2343
sg15
S'CheatAct2P2'
p2344
sg16
S'Player:1000'
p2345
sg18
S''
sbag1
(g10
g3
NtRp2346
(dp2347
g13
S'CheatCunning'
p2348
sg15
S'CheatAct2P2'
p2349
sg16
S'Player:5'
p2350
sg18
S''
sbag1
(g10
g3
NtRp2351
(dp2352
g13
S'CheatCharisma'
p2353
sg15
S'CheatAct2P2'
p2354
sg16
S'Player:2'
p2355
sg18
S''
sbag1
(g10
g3
NtRp2356
(dp2357
g13
S'CheatSpeed'
p2358
sg15
S'CheatAct2P2'
p2359
sg16
S'Player:2'
p2360
sg18
S''
sbag1
(g10
g3
NtRp2361
(dp2362
g13
S'CheatWit'
p2363
sg15
S'CheatAct2P2'
p2364
sg16
S'Player:2'
p2365
sg18
S''
sbag1
(g10
g3
NtRp2366
(dp2367
g13
S'CheatFlair'
p2368
sg15
S'CheatAct2P2'
p2369
sg16
S'Player:2'
p2370
sg18
S''
sbag1
(g10
g3
NtRp2371
(dp2372
g13
S'CheatCunning'
p2373
sg15
S'CheatAct2P2'
p2374
sg16
S'Wife:2'
p2375
sg18
S''
sbag1
(g10
g3
NtRp2376
(dp2377
g13
S'CheatCharisma'
p2378
sg15
S'CheatAct2P2'
p2379
sg16
S'Wife:2'
p2380
sg18
S''
sbag1
(g10
g3
NtRp2381
(dp2382
g13
S'CheatSpeed'
p2383
sg15
S'CheatAct2P2'
p2384
sg16
S'Wife:3'
p2385
sg18
S''
sbag1
(g10
g3
NtRp2386
(dp2387
g13
S'CheatWit'
p2388
sg15
S'CheatAct2P2'
p2389
sg16
S'Wife:5'
p2390
sg18
S''
sbag1
(g10
g3
NtRp2391
(dp2392
g13
S'CheatFlair'
p2393
sg15
S'CheatAct2P2'
p2394
sg16
S'Wife:1'
p2395
sg18
S''
sbag1
(g10
g3
NtRp2396
(dp2397
g13
S'CheatCunning'
p2398
sg15
S'CheatAct2P2'
p2399
sg16
S'Leo:2'
p2400
sg18
S''
sbag1
(g10
g3
NtRp2401
(dp2402
g13
S'CheatCharisma'
p2403
sg15
S'CheatAct2P2'
p2404
sg16
S'Leo:2'
p2405
sg18
S''
sbag1
(g10
g3
NtRp2406
(dp2407
g13
S'CheatSpeed'
p2408
sg15
S'CheatAct2P2'
p2409
sg16
S'Leo:2'
p2410
sg18
S''
sbag1
(g10
g3
NtRp2411
(dp2412
g13
S'CheatWit'
p2413
sg15
S'CheatAct2P2'
p2414
sg16
S'Leo:5'
p2415
sg18
S''
sbag1
(g10
g3
NtRp2416
(dp2417
g13
S'CheatFlair'
p2418
sg15
S'CheatAct2P2'
p2419
sg16
S'Leo:2'
p2420
sg18
S''
sbag1
(g10
g3
NtRp2421
(dp2422
g13
S'LearnAttack'
p2423
sg15
S'CheatAct2P2'
p2424
sg16
S'FILIBUSTER'
p2425
sg18
S''
sbag1
(g10
g3
NtRp2426
(dp2427
g13
S'GotoMap'
p2428
sg15
S'CheatAct2P2'
p2429
sg16
S'hotel_l1'
p2430
sg18
S''
sbasS'StairsToBasement'
p2431
(lp2432
g1
(g10
g3
NtRp2433
(dp2434
g13
S'RequireFlagPlayerSay'
p2435
sg15
g2431
sg16
S'ACCESSBASEMENT'
p2436
sg18
S'Smells like a basement. I have no business going down there.'
p2437
sbag1
(g10
g3
NtRp2438
(dp2439
g13
S'Label'
p2440
sg15
S'StairsToBasement'
p2441
sg16
S'START'
p2442
sg18
S''
sbag1
(g10
g3
NtRp2443
(dp2444
g13
S'GotoMap'
p2445
sg15
S'StairsToBasement'
p2446
sg16
S'hotel_basement'
p2447
sg18
S''
sbag1
(g10
g3
NtRp2448
(dp2449
g13
S'Jump'
p2450
sg15
S'StairsToBasement'
p2451
sg16
S'START'
p2452
sg18
S''
sbasS'SouthWingDoor'
p2453
(lp2454
g1
(g10
g3
NtRp2455
(dp2456
g13
S'RequireItemMessage'
p2457
sg15
g2453
sg16
S'SOUTHWINGDOORKEY'
p2458
sg18
S'The door appears to be locked'
p2459
sbag1
(g10
g3
NtRp2460
(dp2461
g13
S'Message'
p2462
sg15
S'SouthWingDoor'
p2463
sg16
S''
sg18
S"The door unlocks with a satisfying 'click'"
p2464
sbag1
(g10
g3
NtRp2465
(dp2466
g13
S'Destroy'
p2467
sg15
S'SouthWingDoor'
p2468
sg16
S''
sg18
S''
sbasS'Hick1'
p2469
(lp2470
g1
(g10
g3
NtRp2471
(dp2472
g13
S'RequireFlag'
p2473
sg15
g2469
sg16
S'STARTHICKS'
p2474
sg18
S"Look at this guy's fancy tie!"
p2475
sbag1
(g10
g3
NtRp2476
(dp2477
g13
S'PlayerSay'
p2478
sg15
S'Hick1'
p2479
sg16
S''
sg18
S'What brings you to the office of the governor?'
p2480
sbag1
(g10
g3
NtRp2481
(dp2482
g13
S'Say'
p2483
sg15
S'Hick1'
p2484
sg16
S''
sg18
S'The immigrants!'
p2485
sbag1
(g10
g3
NtRp2486
(dp2487
g13
S'PlayerSay'
p2488
sg15
S'Hick1'
p2489
sg16
S''
sg18
S'What happened?'
p2490
sbag1
(g10
g3
NtRp2491
(dp2492
g13
S'Say'
p2493
sg15
S'Hick1'
p2494
sg16
S'Hick2'
p2495
sg18
S"They're coming!"
p2496
sbag1
(g10
g3
NtRp2497
(dp2498
g13
S'PlayerSay'
p2499
sg15
S'Hick1'
p2500
sg16
S''
sg18
S'The...immigrants are coming?'
p2501
sbag1
(g10
g3
NtRp2502
(dp2503
g13
S'Say'
p2504
sg15
S'Hick1'
p2505
sg16
S'Hick2'
p2506
sg18
S'Yes, to steal our jobs and our wives!'
p2507
sbag1
(g10
g3
NtRp2508
(dp2509
g13
S'Say'
p2510
sg15
S'Hick1'
p2511
sg16
S''
sg18
S'They have to be stopped!'
p2512
sbag1
(g10
g3
NtRp2513
(dp2514
g13
S'PlayerSay'
p2515
sg15
S'Hick1'
p2516
sg16
S''
sg18
S"I don't think the immigrants are coming to steal your wives..."
p2517
sbag1
(g10
g3
NtRp2518
(dp2519
g13
S'Say'
p2520
sg15
S'Hick1'
p2521
sg16
S'Journalist2'
p2522
sg18
S'Mayor Mossman sides with the immigrants! I need to get this to print!'
p2523
sbag1
(g10
g3
NtRp2524
(dp2525
g13
S'PlayerSay'
p2526
sg15
S'Hick1'
p2527
sg16
S''
sg18
S'Wait a second, let me explain.'
p2528
sbag1
(g10
g3
NtRp2529
(dp2530
g13
S'Encounter'
p2531
sg15
S'Hick1'
p2532
sg16
S'P-med-03'
p2533
sg18
S''
sbag1
(g10
g3
NtRp2534
(dp2535
g13
S'Say'
p2536
sg15
S'Hick1'
p2537
sg16
S''
sg18
S"You're a smart guy. I think I can trust you."
p2538
sbag1
(g10
g3
NtRp2539
(dp2540
g13
S'SetFlag'
p2541
sg15
S'Hick1'
p2542
sg16
S'STARTHICKS2'
p2543
sg18
S''
sbag1
(g10
g3
NtRp2544
(dp2545
g13
S'Increment'
p2546
sg15
S'Hick1'
p2547
sg16
S'DEALWITHHICKS'
p2548
sg18
S''
sbag1
(g10
g3
NtRp2549
(dp2550
g13
S'Destroy'
p2551
sg15
S'Hick1'
p2552
sg16
S''
sg18
S''
sbasS'Hick2'
p2553
(lp2554
g1
(g10
g3
NtRp2555
(dp2556
g13
S'RequireFlag'
p2557
sg15
g2553
sg16
S'STARTHICKS2'
p2558
sg18
S"Aw....I'm shy...talk to my buddy..."
p2559
sbag1
(g10
g3
NtRp2560
(dp2561
g13
S'Encounter'
p2562
sg15
S'Hick2'
p2563
sg16
S'P-med-04'
p2564
sg18
S''
sbag1
(g10
g3
NtRp2565
(dp2566
g13
S'Say'
p2567
sg15
S'Hick2'
p2568
sg16
S''
sg18
S"Wowee. We've been waiting for days and the governor has ignored us. If you ever run for governor, you'll have my vote!"
p2569
sbag1
(g10
g3
NtRp2570
(dp2571
g13
S'Increment'
p2572
sg15
S'Hick2'
p2573
sg16
S'DEALWITHHICKS'
p2574
sg18
S''
sbag1
(g10
g3
NtRp2575
(dp2576
g13
S'Destroy'
p2577
sg15
S'Hick2'
p2578
sg16
S''
sg18
S''
sbasS'DoorToNotbad'
p2579
(lp2580
g1
(g10
g3
NtRp2581
(dp2582
g13
S'RequireItemMessage'
p2583
sg15
g2579
sg16
S'NOTBADKEY'
p2584
sg18
S'The door seems to be aware of your presence. It growls threateningly.'
p2585
sbag1
(g10
g3
NtRp2586
(dp2587
g13
S'Destroy'
p2588
sg15
S'DoorToNotbad'
p2589
sg16
S''
sg18
S''
sbag1
(g10
g3
NtRp2590
(dp2591
g13
S'Message'
p2592
sg15
S'DoorToNotbad'
p2593
sg16
S''
sg18
S'A complex series of locks slide away.'
p2594
sbasS'CheatAct2'
p2595
(lp2596
g1
(g10
g3
NtRp2597
(dp2598
g13
S'AddAlly'
p2599
sg15
g2595
sg16
S'Wife:3'
p2600
sg18
S''
sbag1
(g10
g3
NtRp2601
(dp2602
g13
S'LearnAttack'
p2603
sg15
S'CheatAct2'
p2604
sg16
S'BRIBE'
p2605
sg18
S''
sbag1
(g10
g3
NtRp2606
(dp2607
g13
S'LearnAttack'
p2608
sg15
S'CheatAct2'
p2609
sg16
S'Wife:BRIBE'
p2610
sg18
S''
sbag1
(g10
g3
NtRp2611
(dp2612
g13
S'LearnAttack'
p2613
sg15
S'CheatAct2'
p2614
sg16
S'SLANDER'
p2615
sg18
S''
sbag1
(g10
g3
NtRp2616
(dp2617
g13
S'CheatXP'
p2618
sg15
S'CheatAct2'
p2619
sg16
S'Player:200'
p2620
sg18
S''
sbag1
(g10
g3
NtRp2621
(dp2622
g13
S'CheatCunning'
p2623
sg15
S'CheatAct2'
p2624
sg16
S'Player:3'
p2625
sg18
S''
sbag1
(g10
g3
NtRp2626
(dp2627
g13
S'CheatCharisma'
p2628
sg15
S'CheatAct2'
p2629
sg16
S'Player:3'
p2630
sg18
S''
sbag1
(g10
g3
NtRp2631
(dp2632
g13
S'CheatCunning'
p2633
sg15
S'CheatAct2'
p2634
sg16
S'Wife:1'
p2635
sg18
S''
sbag1
(g10
g3
NtRp2636
(dp2637
g13
S'CheatCharisma'
p2638
sg15
S'CheatAct2'
p2639
sg16
S'Wife:1'
p2640
sg18
S''
sbag1
(g10
g3
NtRp2641
(dp2642
g13
S'GiveMoney'
p2643
sg15
S'CheatAct2'
p2644
sg16
F200
sg18
S''
sbag1
(g10
g3
NtRp2645
(dp2646
g13
S'GotoMap'
p2647
sg15
S'CheatAct2'
p2648
sg16
S'act2'
p2649
sg18
S''
sbasS'CheatAct3'
p2650
(lp2651
g1
(g10
g3
NtRp2652
(dp2653
g13
S'AddAlly'
p2654
sg15
g2650
sg16
S'Wife:1'
p2655
sg18
S''
sbag1
(g10
g3
NtRp2656
(dp2657
g13
S'LearnAttack'
p2658
sg15
S'CheatAct3'
p2659
sg16
S'BRIBE'
p2660
sg18
S''
sbag1
(g10
g3
NtRp2661
(dp2662
g13
S'LearnAttack'
p2663
sg15
S'CheatAct3'
p2664
sg16
S'Wife:BRIBE'
p2665
sg18
S''
sbag1
(g10
g3
NtRp2666
(dp2667
g13
S'LearnAttack'
p2668
sg15
S'CheatAct3'
p2669
sg16
S'SLANDER'
p2670
sg18
S''
sbag1
(g10
g3
NtRp2671
(dp2672
g13
S'AddAlly'
p2673
sg15
S'CheatAct3'
p2674
sg16
S'Leo:1'
p2675
sg18
S''
sbag1
(g10
g3
NtRp2676
(dp2677
g13
S'GotoMap'
p2678
sg15
S'CheatAct3'
p2679
sg16
S'act3'
p2680
sg18
S''
sbasS'Teacher2'
p2681
(lp2682
g1
(g10
g3
NtRp2683
(dp2684
g13
S'Say'
p2685
sg15
g2681
sg16
S''
sg18
S"You cannot gamble with the future, Mr President. Childrens' education is at stake!"
p2686
sbag1
(g10
g3
NtRp2687
(dp2688
g13
S'PlayerSay'
p2689
sg15
S'Teacher2'
p2690
sg16
S''
sg18
S"I can assure you this isn't so..."
p2691
sbag1
(g10
g3
NtRp2692
(dp2693
g13
S'Encounter'
p2694
sg15
S'Teacher2'
p2695
sg16
S'P-hard-07'
p2696
sg18
S''
sbag1
(g10
g3
NtRp2697
(dp2698
g13
S'Say'
p2699
sg15
S'Teacher2'
p2700
sg16
S''
sg18
S'We will await a change from your government.'
p2701
sbag1
(g10
g3
NtRp2702
(dp2703
g13
S'Increment'
p2704
sg15
S'Teacher2'
p2705
sg16
S'TEACHERS'
p2706
sg18
S''
sbag1
(g10
g3
NtRp2707
(dp2708
g13
S'Destroy'
p2709
sg15
S'Teacher2'
p2710
sg16
S''
sg18
S''
sbasS'Teacher1'
p2711
(lp2712
g1
(g10
g3
NtRp2713
(dp2714
g13
S'Say'
p2715
sg15
g2711
sg16
S''
sg18
S"Good day, Mr President. I have to say I'm most displeased with the current state of affairs around the education budget."
p2716
sbag1
(g10
g3
NtRp2717
(dp2718
g13
S'Say'
p2719
sg15
S'Teacher1'
p2720
sg16
S'Teacher2'
p2721
sg18
S'Agreed. This is simply unacceptable. We will need to close down schools!'
p2722
sbag1
(g10
g3
NtRp2723
(dp2724
g13
S'PlayerSay'
p2725
sg15
S'Teacher1'
p2726
sg16
S''
sg18
S"I'm sorry, I don't understand your concern. My education plan was one of the linchpins of my election campaign."
p2727
sbag1
(g10
g3
NtRp2728
(dp2729
g13
S'Say'
p2730
sg15
S'Teacher1'
p2731
sg16
S''
sg18
S'And precisely one of the reasons I voted for you.'
p2732
sbag1
(g10
g3
NtRp2733
(dp2734
g13
S'Say'
p2735
sg15
S'Teacher1'
p2736
sg16
S'Teacher2'
p2737
sg18
S"-Yet as soon as you've walked through these doors, the education budget has been drastically slashed."
p2738
sbag1
(g10
g3
NtRp2739
(dp2740
g13
S'PlayerSay'
p2741
sg15
S'Teacher1'
p2742
sg16
S''
sg18
S"I can assure you this isn't so..."
p2743
sbag1
(g10
g3
NtRp2744
(dp2745
g13
S'Encounter'
p2746
sg15
S'Teacher1'
p2747
sg16
S'P-hard-06'
p2748
sg18
S''
sbag1
(g10
g3
NtRp2749
(dp2750
g13
S'Say'
p2751
sg15
S'Teacher1'
p2752
sg16
S''
sg18
S"Well, I'd like to believe you, Mr President, but the proof is in the pudding,"
p2753
sbag1
(g10
g3
NtRp2754
(dp2755
g13
S'PlayerSay'
p2756
sg15
S'Teacher1'
p2757
sg16
S''
sg18
S'I WILL get to the bottom of this.'
p2758
sbag1
(g10
g3
NtRp2759
(dp2760
g13
S'Increment'
p2761
sg15
S'Teacher1'
p2762
sg16
S'TEACHERS'
p2763
sg18
S''
sbag1
(g10
g3
NtRp2764
(dp2765
g13
S'Destroy'
p2766
sg15
S'Teacher1'
p2767
sg16
S''
sg18
S''
sbasS'Theo'
p2768
(lp2769
g1
(g10
g3
NtRp2770
(dp2771
g13
S'RequireFlag'
p2772
sg15
g2768
sg16
S'GOVERNORDEFEATED'
p2773
sg18
S'The Governor is in the north wing.'
p2774
sbag1
(g10
g3
NtRp2775
(dp2776
g13
S'Say'
p2777
sg15
S'Theo'
p2778
sg16
S''
sg18
S"You must be Governor Mossman. I am Theo. I've been looking for you, but I wanted to see how you handled Governor Badden"
p2779
sbag1
(g10
g3
NtRp2780
(dp2781
g13
S'PlayerSay'
p2782
sg15
S'Theo'
p2783
sg16
S''
sg18
S'Hi Theo. Why have you been looking for me?'
p2784
sbag1
(g10
g3
NtRp2785
(dp2786
g13
S'Say'
p2787
sg15
S'Theo'
p2788
sg16
S''
sg18
S"There's a lot going on in Ignited States politics and none of it is good. Somebody needs to get up there and find out what's going on."
p2789
sbag1
(g10
g3
NtRp2790
(dp2791
g13
S'Say'
p2792
sg15
S'Theo'
p2793
sg16
S''
sg18
S"I couldn't be sure which side you were on, but your dealings with the Governor prove that you're not with them."
p2794
sbag1
(g10
g3
NtRp2795
(dp2796
g13
S'PlayerSay'
p2797
sg15
S'Theo'
p2798
sg16
S''
sg18
S'It sounds like it goes all the way to the President of the Ignited States.'
p2799
sbag1
(g10
g3
NtRp2800
(dp2801
g13
S'Say'
p2802
sg15
S'Theo'
p2803
sg16
S''
sg18
S"It does. That's why I've been looking for you. The only way to find out is to flush them out. There's only one way to flush out President Allen."
p2804
sbag1
(g10
g3
NtRp2805
(dp2806
g13
S'PlayerSay'
p2807
sg15
S'Theo'
p2808
sg16
S''
sg18
S"How's that?"
p2809
sbag1
(g10
g3
NtRp2810
(dp2811
g13
S'Say'
p2812
sg15
S'Theo'
p2813
sg16
S''
sg18
S"...I've been a campaign manager for 20 years and I've never seen a candidate as strong as you. I think you have what it takes to run for the presidency."
p2814
sbag1
(g10
g3
NtRp2815
(dp2816
g13
S'Say'
p2817
sg15
S'Theo'
p2818
sg16
S''
sg18
S"That's why I was looking for you. I need somebody who has a shot at winning in order to get to President Allen. You have that shot."
p2819
sbag1
(g10
g3
NtRp2820
(dp2821
g13
S'PlayerSay'
p2822
sg15
S'Theo'
p2823
sg16
S''
sg18
S"You really think I can win? Well...I want to follow this through to the end, so I'm in!"
p2824
sbag1
(g10
g3
NtRp2825
(dp2826
g13
S'Say'
p2827
sg15
S'Theo'
p2828
sg16
S''
sg18
S"Great! There's a lot to get organised! We need to plan our election campaign!"
p2829
sbag1
(g10
g3
NtRp2830
(dp2831
g13
S'Say'
p2832
sg15
S'Theo'
p2833
sg16
S''
sg18
S'First things first. I can teach you how to filibuster. It helps to get your opposition to stay put while the rest of your party moves in to attack.'
p2834
sbag1
(g10
g3
NtRp2835
(dp2836
g13
S'LearnAttack'
p2837
sg15
S'Theo'
p2838
sg16
S'FILIBUSTER'
p2839
sg18
S'Theo teaches you Filibuster'
p2840
sbag1
(g10
g3
NtRp2841
(dp2842
g13
S'Destroy'
p2843
sg15
S'Theo'
p2844
sg16
S''
sg18
S''
sbag1
(g10
g3
NtRp2845
(dp2846
g13
S'AddAlly'
p2847
sg15
S'Theo'
p2848
sg16
S'Leo:4'
p2849
sg18
S''
sbag1
(g10
g3
NtRp2850
(dp2851
g13
S'Message'
p2852
sg15
S'Theo'
p2853
sg16
S''
sg18
S'Theo joins your political party!'
p2854
sbag1
(g10
g3
NtRp2855
(dp2856
g13
S'Save'
p2857
sg15
S'Theo'
p2858
sg16
S'RestoreAct2P2'
p2859
sg18
S''
sbag1
(g10
g3
NtRp2860
(dp2861
g13
S'GotoMap'
p2862
sg15
S'Theo'
p2863
sg16
S'hotel_l1'
p2864
sg18
S''
sbasS'end'
p2865
(lp2866
g1
(g10
g3
NtRp2867
(dp2868
g13
S'Message'
p2869
sg15
g2865
sg16
S''
sg18
S"You have saved the day! The world is safe and all over the Ignited States, our citizens can sleep safe knowing you're taking care of them."
p2870
sbag1
(g10
g3
NtRp2871
(dp2872
g13
S'Message'
p2873
sg15
S'end'
p2874
sg16
S''
sg18
S'Goodnight, Mr President.'
p2875
sbasS'Governor'
p2876
(lp2877
g1
(g10
g3
NtRp2878
(dp2879
g13
S'RequireFlag'
p2880
sg15
g2876
sg16
S'GOVPOLITICIANSFIRST'
p2881
sg18
S"I'm very busy. Please speak to the others."
p2882
sbag1
(g10
g3
NtRp2883
(dp2884
g13
S'Say'
p2885
sg15
S'Governor'
p2886
sg16
S''
sg18
S'You have quite a way with words, Mayor Mossman. Why are you here?'
p2887
sbag1
(g10
g3
NtRp2888
(dp2889
g13
S'PlayerSay'
p2890
sg15
S'Governor'
p2891
sg16
S''
sg18
S"Mayor Goodman said some troubling things, Governor Badden. I'm here to get to the bottom of it."
p2892
sbag1
(g10
g3
NtRp2893
(dp2894
g13
S'Say'
p2895
sg15
S'Governor'
p2896
sg16
S''
sg18
S"If I knew anything about what you're talking about, I wouldn't tell you. I don't trust you at all."
p2897
sbag1
(g10
g3
NtRp2898
(dp2899
g13
S'PlayerSay'
p2900
sg15
S'Governor'
p2901
sg16
S''
sg18
S'What can I do to convince you?'
p2902
sbag1
(g10
g3
NtRp2903
(dp2904
g13
S'Say'
p2905
sg15
S'Governor'
p2906
sg16
S''
sg18
S"Well...there's some hicks in the south wing that I've been dodging. They want to know about the recent funding cuts. Get rid of them."
p2907
sbag1
(g10
g3
NtRp2908
(dp2909
g13
S'SetFlag'
p2910
sg15
S'Governor'
p2911
sg16
S'STARTHICKS'
p2912
sg18
S''
sbag1
(g10
g3
NtRp2913
(dp2914
g13
S'GiveItem'
p2915
sg15
S'Governor'
p2916
sg16
S'SOUTHWINGDOORKEY'
p2917
sg18
S'The Governor gives you a key.'
p2918
sbag1
(g10
g3
NtRp2919
(dp2920
g13
S'RequireCount'
p2921
sg15
S'Governor'
p2922
sg16
S'DEALWITHHICKS:3'
p2923
sg18
S"I'm not saying another word until you get rid of the hicks in the south wing."
p2924
sbag1
(g10
g3
NtRp2925
(dp2926
g13
S'PlayerSay'
p2927
sg15
S'Governor'
p2928
sg16
S''
sg18
S"OK, I've taken care of your problem, now I want my answers."
p2929
sbag1
(g10
g3
NtRp2930
(dp2931
g13
S'Say'
p2932
sg15
S'Governor'
p2933
sg16
S''
sg18
S'No.'
p2934
sbag1
(g10
g3
NtRp2935
(dp2936
g13
S'PlayerSay'
p2937
sg15
S'Governor'
p2938
sg16
S''
sg18
S'No?'
p2939
sbag1
(g10
g3
NtRp2940
(dp2941
g13
S'Say'
p2942
sg15
S'Governor'
p2943
sg16
S''
sg18
S"No, word has come down from the top that due to the last Mayor's idiocy we're tightening the inner circle to Governors and above."
p2944
sbag1
(g10
g3
NtRp2945
(dp2946
g13
S'PlayerSay'
p2947
sg15
S'Governor'
p2948
sg16
S''
sg18
S"From the top...so you're saying the only way I'll find out what's going on is to be a governor myself?"
p2949
sbag1
(g10
g3
NtRp2950
(dp2951
g13
S'Say'
p2952
sg15
S'Governor'
p2953
sg16
S''
sg18
S"Wait...no...I said I wasn't going to tell you, I..."
p2954
sbag1
(g10
g3
NtRp2955
(dp2956
g13
S'PlayerSay'
p2957
sg15
S'Governor'
p2958
sg16
S''
sg18
S'This is it, governor. Prepare to fight for your office!'
p2959
sbag1
(g10
g3
NtRp2960
(dp2961
g13
S'Encounter'
p2962
sg15
S'Governor'
p2963
sg16
S'P-med-06'
p2964
sg18
S''
sbag1
(g10
g3
NtRp2965
(dp2966
g13
S'Say'
p2967
sg15
S'Governor'
p2968
sg16
S''
sg18
S"Nooo! President Allen doesn't deal well with defeat. What will happen to me?"
p2969
sbag1
(g10
g3
NtRp2970
(dp2971
g13
S'PlayerSay'
p2972
sg15
S'Governor'
p2973
sg16
S''
sg18
S'The President? What does he have to do with this?'
p2974
sbag1
(g10
g3
NtRp2975
(dp2976
g13
S'Say'
p2977
sg15
S'Governor'
p2978
sg16
S''
sg18
S"You really have no idea what you've gotten into, do you? Well, you've gotten all you're getting out of me. I'm getting out of here!"
p2979
sbag1
(g10
g3
NtRp2980
(dp2981
g13
S'SetFlag'
p2982
sg15
S'Governor'
p2983
sg16
S'GOVERNORDEFEATED'
p2984
sg18
S''
sbag1
(g10
g3
NtRp2985
(dp2986
g13
S'RestoreVotes'
p2987
sg15
S'Governor'
p2988
sg16
S''
sg18
S''
sbag1
(g10
g3
NtRp2989
(dp2990
g13
S'Destroy'
p2991
sg15
S'Governor'
p2992
sg16
S''
sg18
S''
sbasS'Politician1'
p2993
(lp2994
g1
(g10
g3
NtRp2995
(dp2996
g13
S'Say'
p2997
sg15
g2993
sg16
S''
sg18
S"I'm sorry Mayor Mossman, the Governor cannot see you now. He's very busy"
p2998
sbag1
(g10
g3
NtRp2999
(dp3000
g13
S'PlayerSay'
p3001
sg15
S'Politician1'
p3002
sg16
S''
sg18
S"It's very important. I need to understand what Mayor Goodman was talking about. It was clear there were other powers at play."
p3003
sbag1
(g10
g3
NtRp3004
(dp3005
g13
S'Say'
p3006
sg15
S'Politician1'
p3007
sg16
S''
sg18
S'Yes well, I fail to see how your country spat has anything to do with Governer Badden.'
p3008
sbag1
(g10
g3
NtRp3009
(dp3010
g13
S'Encounter'
p3011
sg15
S'Politician1'
p3012
sg16
S'P-med-01'
p3013
sg18
S''
sbag1
(g10
g3
NtRp3014
(dp3015
g13
S'Say'
p3016
sg15
S'Politician1'
p3017
sg16
S''
sg18
S'Fair point. The governor will see you now.'
p3018
sbag1
(g10
g3
NtRp3019
(dp3020
g13
S'Destroy'
p3021
sg15
S'Politician1'
p3022
sg16
S''
sg18
S''
sbasS'Politician3'
p3023
(lp3024
g1
(g10
g3
NtRp3025
(dp3026
g13
S'RequireFlag'
p3027
sg15
g3023
sg16
S'STARTPOLITICIANSHAKEDOWN'
p3028
sg18
S'Good morning, Governor Mossman. Your PA will know your schedule. He is waiting beside the stairs'
p3029
sbag1
(g10
g3
NtRp3030
(dp3031
g13
S'Say'
p3032
sg15
S'Politician3'
p3033
sg16
S''
sg18
S"We must all agree that the most important thing is science! If we're not for science, what's the point."
p3034
sbag1
(g10
g3
NtRp3035
(dp3036
g13
S'PlayerSay'
p3037
sg15
S'Politician3'
p3038
sg16
S''
sg18
S'Why science?'
p3039
sbag1
(g10
g3
NtRp3040
(dp3041
g13
S'Say'
p3042
sg15
S'Politician3'
p3043
sg16
S''
sg18
S'Science!'
p3044
sbag1
(g10
g3
NtRp3045
(dp3046
g13
S'PlayerSay'
p3047
sg15
S'Politician3'
p3048
sg16
S''
sg18
S"There's a lot of great things we can do for science but the funding will need to be shared with health and education and..."
p3049
sbag1
(g10
g3
NtRp3050
(dp3051
g13
S'Say'
p3052
sg15
S'Politician3'
p3053
sg16
S''
sg18
S'No! Science!!!'
p3054
sbag1
(g10
g3
NtRp3055
(dp3056
g13
S'Encounter'
p3057
sg15
S'Politician3'
p3058
sg16
S'P-med-07'
p3059
sg18
S''
sbag1
(g10
g3
NtRp3060
(dp3061
g13
S'Say'
p3062
sg15
S'Politician3'
p3063
sg16
S''
sg18
S'Alright, fine! A balanced platform (but mostly science).'
p3064
sbag1
(g10
g3
NtRp3065
(dp3066
g13
S'Increment'
p3067
sg15
S'Politician3'
p3068
sg16
S'POLITICIANSHAKEDOWN'
p3069
sg18
S''
sbag1
(g10
g3
NtRp3070
(dp3071
g13
S'Destroy'
p3072
sg15
S'Politician3'
p3073
sg16
S''
sg18
S''
sbasS'Politician2'
p3074
(lp3075
g1
(g10
g3
NtRp3076
(dp3077
g13
S'Say'
p3078
sg15
g3074
sg16
S''
sg18
S'What are you doing in here? Who are you? Some Mayor?'
p3079
sbag1
(g10
g3
NtRp3080
(dp3081
g13
S'PlayerSay'
p3082
sg15
S'Politician2'
p3083
sg16
S''
sg18
S"I am Mayor Phillip Mossman. I'm here to speak to the Governor."
p3084
sbag1
(g10
g3
NtRp3085
(dp3086
g13
S'Say'
p3087
sg15
S'Politician2'
p3088
sg16
S''
sg18
S"I'm afraid the Governor's schedule is very tight. Come back next month."
p3089
sbag1
(g10
g3
NtRp3090
(dp3091
g13
S'Encounter'
p3092
sg15
S'Politician2'
p3093
sg16
S'P-med-02'
p3094
sg18
S''
sbag1
(g10
g3
NtRp3095
(dp3096
g13
S'Say'
p3097
sg15
S'Politician2'
p3098
sg16
S''
sg18
S'I see. Well, maybe we can squeeze you in.'
p3099
sbag1
(g10
g3
NtRp3100
(dp3101
g13
S'SetFlag'
p3102
sg15
S'Politician2'
p3103
sg16
S'GOVPOLITICIANSFIRST'
p3104
sg18
S''
sbag1
(g10
g3
NtRp3105
(dp3106
g13
S'Destroy'
p3107
sg15
S'Politician2'
p3108
sg16
S''
sg18
S''
sbasS'Politician5'
p3109
(lp3110
g1
(g10
g3
NtRp3111
(dp3112
g13
S'RequireFlag'
p3113
sg15
g3109
sg16
S'STARTPOLITICIANSHAKEDOWN'
p3114
sg18
S'Good morning, Governor Mossman. Your PA will know your schedule. He is waiting beside the stairs'
p3115
sbag1
(g10
g3
NtRp3116
(dp3117
g13
S'Say'
p3118
sg15
S'Politician5'
p3119
sg16
S''
sg18
S'Big business!'
p3120
sbag1
(g10
g3
NtRp3121
(dp3122
g13
S'PlayerSay'
p3123
sg15
S'Politician5'
p3124
sg16
S''
sg18
S'What about big business.'
p3125
sbag1
(g10
g3
NtRp3126
(dp3127
g13
S'Say'
p3128
sg15
S'Politician5'
p3129
sg16
S''
sg18
S'...MORE big business!'
p3130
sbag1
(g10
g3
NtRp3131
(dp3132
g13
S'PlayerSay'
p3133
sg15
S'Politician5'
p3134
sg16
S''
sg18
S'You want to grow our business sector? Provide more jobs?'
p3135
sbag1
(g10
g3
NtRp3136
(dp3137
g13
S'Say'
p3138
sg15
S'Politician5'
p3139
sg16
S''
sg18
S'...Yeeeeh. Yes. Yes, that.'
p3140
sbag1
(g10
g3
NtRp3141
(dp3142
g13
S'PlayerSay'
p3143
sg15
S'Politician5'
p3144
sg16
S''
sg18
S'What about small business?'
p3145
sbag1
(g10
g3
NtRp3146
(dp3147
g13
S'Say'
p3148
sg15
S'Politician5'
p3149
sg16
S''
sg18
S'No! We need to make it BIGGER!'
p3150
sbag1
(g10
g3
NtRp3151
(dp3152
g13
S'Encounter'
p3153
sg15
S'Politician5'
p3154
sg16
S'P-med-09'
p3155
sg18
S''
sbag1
(g10
g3
NtRp3156
(dp3157
g13
S'Say'
p3158
sg15
S'Politician5'
p3159
sg16
S''
sg18
S"OK, I see what you're getting at. Lets help small business to grow. Also, this might help even the odds in the future."
p3160
sbag1
(g10
g3
NtRp3161
(dp3162
g13
S'Say'
p3163
sg15
S'Politician5'
p3164
sg16
S''
sg18
S'The results can be a bit unpredictable, so only use it in drastic situations.'
p3165
sbag1
(g10
g3
NtRp3166
(dp3167
g13
S'Increment'
p3168
sg15
S'Politician5'
p3169
sg16
S'POLITICIANSHAKEDOWN'
p3170
sg18
S''
sbag1
(g10
g3
NtRp3171
(dp3172
g13
S'Destroy'
p3173
sg15
S'Politician5'
p3174
sg16
S''
sg18
S''
sbasS'Politician4'
p3175
(lp3176
g1
(g10
g3
NtRp3177
(dp3178
g13
S'RequireFlag'
p3179
sg15
g3175
sg16
S'STARTPOLITICIANSHAKEDOWN'
p3180
sg18
S'Good morning, Governor Mossman. Your PA will know your schedule. He is waiting beside the stairs'
p3181
sbag1
(g10
g3
NtRp3182
(dp3183
g13
S'Say'
p3184
sg15
S'Politician4'
p3185
sg16
S''
sg18
S"I'm for culture! It's a glorious age we live in, we should further this great country's culture."
p3186
sbag1
(g10
g3
NtRp3187
(dp3188
g13
S'PlayerSay'
p3189
sg15
S'Politician4'
p3190
sg16
S''
sg18
S'That sounds fair, but what kind of culture would you like to focus on.'
p3191
sbag1
(g10
g3
NtRp3192
(dp3193
g13
S'Say'
p3194
sg15
S'Politician4'
p3195
sg16
S''
sg18
S"Oh...I don't know, I'm not really into art, can't really handle music. I'd rather not go to the theatre if I can get out of it. Don't really see the point of sport...hmmm. New culture?"
p3196
sbag1
(g10
g3
NtRp3197
(dp3198
g13
S'PlayerSay'
p3199
sg15
S'Politician4'
p3200
sg16
S''
sg18
S"You don't seem very in to improving culture really."
p3201
sbag1
(g10
g3
NtRp3202
(dp3203
g13
S'Say'
p3204
sg15
S'Politician4'
p3205
sg16
S''
sg18
S'Yeh, well...my wife said it would make me sound smart. I think sounding smart is important. Lets be for that!'
p3206
sbag1
(g10
g3
NtRp3207
(dp3208
g13
S'Encounter'
p3209
sg15
S'Politician4'
p3210
sg16
S'P-med-08'
p3211
sg18
S''
sbag1
(g10
g3
NtRp3212
(dp3213
g13
S'Say'
p3214
sg15
S'Politician4'
p3215
sg16
S''
sg18
S"Gee, you're a pretty smart guy. I think you've got this covered."
p3216
sbag1
(g10
g3
NtRp3217
(dp3218
g13
S'Increment'
p3219
sg15
S'Politician4'
p3220
sg16
S'POLITICIANSHAKEDOWN'
p3221
sg18
S''
sbag1
(g10
g3
NtRp3222
(dp3223
g13
S'Destroy'
p3224
sg15
S'Politician4'
p3225
sg16
S''
sg18
S''
sbasS'Politician7'
p3226
(lp3227
g1
(g10
g3
NtRp3228
(dp3229
g13
S'RequireFlag'
p3230
sg15
g3226
sg16
S'STARTPOLITICIANSHAKEDOWN'
p3231
sg18
S'Good morning, Governor Mossman. Your PA will know your schedule. He is waiting beside the stairs'
p3232
sbag1
(g10
g3
NtRp3233
(dp3234
g13
S'LearnAttack'
p3235
sg15
S'Politician7'
p3236
sg16
S'BIELECTION'
p3237
sg18
S''
sbag1
(g10
g3
NtRp3238
(dp3239
g13
S'Say'
p3240
sg15
S'Politician7'
p3241
sg16
S''
sg18
S"I believe in captialism. Let business sort itself out. They shouldn't need to rely on government handouts."
p3242
sbag1
(g10
g3
NtRp3243
(dp3244
g13
S'Say'
p3245
sg15
S'Politician7'
p3246
sg16
S''
sg18
S'Also, I think politicians need a raise. Some more than others...oh and life-long retainers.'
p3247
sbag1
(g10
g3
NtRp3248
(dp3249
g13
S'PlayerSay'
p3250
sg15
S'Politician7'
p3251
sg16
S''
sg18
S'So, no more hand-outs for business but more handouts for politicians?'
p3252
sbag1
(g10
g3
NtRp3253
(dp3254
g13
S'Say'
p3255
sg15
S'Politician7'
p3256
sg16
S''
sg18
S'Yes!'
p3257
sbag1
(g10
g3
NtRp3258
(dp3259
g13
S'PlayerSay'
p3260
sg15
S'Politician7'
p3261
sg16
S''
sg18
S'Does that serve your constituents?'
p3262
sbag1
(g10
g3
NtRp3263
(dp3264
g13
S'Say'
p3265
sg15
S'Politician7'
p3266
sg16
S''
sg18
S'...It serves...some...'
p3267
sbag1
(g10
g3
NtRp3268
(dp3269
g13
S'Encounter'
p3270
sg15
S'Politician7'
p3271
sg16
S'P-med-11'
p3272
sg18
S''
sbag1
(g10
g3
NtRp3273
(dp3274
g13
S'Say'
p3275
sg15
S'Politician7'
p3276
sg16
S''
sg18
S'Right, I guess we need to handle the needs of our constituents, too.'
p3277
sbag1
(g10
g3
NtRp3278
(dp3279
g13
S'Increment'
p3280
sg15
S'Politician7'
p3281
sg16
S'POLITICIANSHAKEDOWN'
p3282
sg18
S''
sbag1
(g10
g3
NtRp3283
(dp3284
g13
S'Destroy'
p3285
sg15
S'Politician7'
p3286
sg16
S''
sg18
S''
sbasS'Politician6'
p3287
(lp3288
g1
(g10
g3
NtRp3289
(dp3290
g13
S'RequireFlag'
p3291
sg15
g3287
sg16
S'STARTPOLITICIANSHAKEDOWN'
p3292
sg18
S'Good morning, Governor Mossman. Your PA will know your schedule. He is waiting beside the stairs'
p3293
sbag1
(g10
g3
NtRp3294
(dp3295
g13
S'Say'
p3296
sg15
S'Politician6'
p3297
sg16
S''
sg18
S'We should be all about not wasting money'
p3298
sbag1
(g10
g3
NtRp3299
(dp3300
g13
S'PlayerSay'
p3301
sg15
S'Politician6'
p3302
sg16
S''
sg18
S'Sounds fair. Wasting money on what?'
p3303
sbag1
(g10
g3
NtRp3304
(dp3305
g13
S'Say'
p3306
sg15
S'Politician6'
p3307
sg16
S''
sg18
S"You know, stuff that doesn't really help like artsy stuff."
p3308
sbag1
(g10
g3
NtRp3309
(dp3310
g13
S'PlayerSay'
p3311
sg15
S'Politician6'
p3312
sg16
S''
sg18
S"You don't think we should invest in our culture?"
p3313
sbag1
(g10
g3
NtRp3314
(dp3315
g13
S'Say'
p3316
sg15
S'Politician6'
p3317
sg16
S''
sg18
S'We have more important things to spend our money on. Like military.'
p3318
sbag1
(g10
g3
NtRp3319
(dp3320
g13
S'PlayerSay'
p3321
sg15
S'Politician6'
p3322
sg16
S''
sg18
S'What if people want to paint pictures about our military. Or write patriotic songs?'
p3323
sbag1
(g10
g3
NtRp3324
(dp3325
g13
S'Say'
p3326
sg15
S'Politician6'
p3327
sg16
S''
sg18
S"I hadn't thought of that..."
p3328
sbag1
(g10
g3
NtRp3329
(dp3330
g13
S'Encounter'
p3331
sg15
S'Politician6'
p3332
sg16
S'P-med-10'
p3333
sg18
S''
sbag1
(g10
g3
NtRp3334
(dp3335
g13
S'Say'
p3336
sg15
S'Politician6'
p3337
sg16
S''
sg18
S"So, militaristic march songs and battle scenes aren't the only sort of art? Wow."
p3338
sbag1
(g10
g3
NtRp3339
(dp3340
g13
S'Increment'
p3341
sg15
S'Politician6'
p3342
sg16
S'POLITICIANSHAKEDOWN'
p3343
sg18
S''
sbag1
(g10
g3
NtRp3344
(dp3345
g13
S'Destroy'
p3346
sg15
S'Politician6'
p3347
sg16
S''
sg18
S''
sbasS'TVPersonality'
p3348
(lp3349
g1
(g10
g3
NtRp3350
(dp3351
g13
S'RequireFlag'
p3352
sg15
g3348
sg16
S'STARTHERCULES'
p3353
sg18
S"Ooooh, sorry Mossman, baby! We're not ready for you yet."
p3354
sbag1
(g10
g3
NtRp3355
(dp3356
g13
S'Say'
p3357
sg15
S'TVPersonality'
p3358
sg16
S''
sg18
S"There's the man! Are you ready to cross wits with The Mighty Hercules!"
p3359
sbag1
(g10
g3
NtRp3360
(dp3361
g13
S'PlayerSay'
p3362
sg15
S'TVPersonality'
p3363
sg16
S''
sg18
S'I sure am!'
p3364
sbag1
(g10
g3
NtRp3365
(dp3366
g13
S'Say'
p3367
sg15
S'TVPersonality'
p3368
sg16
S''
sg18
S"Really...? You don't want to...see your make-up artist?"
p3369
sbag1
(g10
g3
NtRp3370
(dp3371
g13
S'PlayerSay'
p3372
sg15
S'TVPersonality'
p3373
sg16
S''
sg18
S"No, no, I'm ready."
p3374
sbag1
(g10
g3
NtRp3375
(dp3376
g13
S'Say'
p3377
sg15
S'TVPersonality'
p3378
sg16
S''
sg18
S'Suit yourself...'
p3379
sbag1
(g10
g3
NtRp3380
(dp3381
g13
S'Say'
p3382
sg15
S'TVPersonality'
p3383
sg16
S''
sg18
S'... from the looks of it, suiting yourself is exactly what you did.'
p3384
sbag1
(g10
g3
NtRp3385
(dp3386
g13
S'Encounter'
p3387
sg15
S'TVPersonality'
p3388
sg16
S'P-med-20'
p3389
sg18
S''
sbag1
(g10
g3
NtRp3390
(dp3391
g13
S'Say'
p3392
sg15
S'TVPersonality'
p3393
sg16
S''
sg18
S'Good show, you sure gave me a run for my money.'
p3394
sbag1
(g10
g3
NtRp3395
(dp3396
g13
S'Say'
p3397
sg15
S'TVPersonality'
p3398
sg16
S''
sg18
S"Now beat it, you're making me look bad!"
p3399
sbag1
(g10
g3
NtRp3400
(dp3401
g13
S'SetFlag'
p3402
sg15
S'TVPersonality'
p3403
sg16
S'BEATHERCULES'
p3404
sg18
S''
sbag1
(g10
g3
NtRp3405
(dp3406
g13
S'Destroy'
p3407
sg15
S'TVPersonality'
p3408
sg16
S''
sg18
S''
sbasS'act1'
p3409
(lp3410
g1
(g10
g3
NtRp3411
(dp3412
g13
S'Message'
p3413
sg15
g3409
sg16
S''
sg18
S'Good morning, Assistant Phil.'
p3414
sbasS'act2'
p3415
(lp3416
g1
(g10
g3
NtRp3417
(dp3418
g13
S'Message'
p3419
sg15
g3415
sg16
S''
sg18
S"The Governor's Mansion"
p3420
sbasS'act3'
p3421
(lp3422
g1
(g10
g3
NtRp3423
(dp3424
g13
S'Message'
p3425
sg15
g3421
sg16
S''
sg18
S'The White House'
p3426
sbasS'Protester2'
p3427
(lp3428
g1
(g10
g3
NtRp3429
(dp3430
g13
S'Say'
p3431
sg15
g3427
sg16
S''
sg18
S"Bees buzz, Mayors lie, who's this Phillip Mossman guy?"
p3432
sbag1
(g10
g3
NtRp3433
(dp3434
g13
S'RequireFlag'
p3435
sg15
S'Protester2'
p3436
sg16
S'PROTESTORS'
p3437
sg18
S''
sbag1
(g10
g3
NtRp3438
(dp3439
g13
S'Encounter'
p3440
sg15
S'Protester2'
p3441
sg16
S'P-easy-03'
p3442
sg18
S''
sbag1
(g10
g3
NtRp3443
(dp3444
g13
S'Destroy'
p3445
sg15
S'Protester2'
p3446
sg16
S''
sg18
S''
sbasS'Protester1'
p3447
(lp3448
g1
(g10
g3
NtRp3449
(dp3450
g13
S'Say'
p3451
sg15
g3447
sg16
S''
sg18
S"Fee Fi Fo Fum, we think Mayor Goodman's Dumb!"
p3452
sbag1
(g10
g3
NtRp3453
(dp3454
g13
S'RequireFlag'
p3455
sg15
S'Protester1'
p3456
sg16
S'PROTESTORS'
p3457
sg18
S''
sbag1
(g10
g3
NtRp3458
(dp3459
g13
S'Encounter'
p3460
sg15
S'Protester1'
p3461
sg16
S'P-easy-02'
p3462
sg18
S''
sbag1
(g10
g3
NtRp3463
(dp3464
g13
S'Destroy'
p3465
sg15
S'Protester1'
p3466
sg16
S''
sg18
S''
sbasS'Head Protester'
p3467
(lp3468
g1
(g10
g3
NtRp3469
(dp3470
g13
S'Say'
p3471
sg15
g3467
sg16
S''
sg18
S"I am the head protester. You'll never convince us to back down!"
p3472
sbag1
(g10
g3
NtRp3473
(dp3474
g13
S'RequireFlag'
p3475
sg15
S'Head Protester'
p3476
sg16
S'PROTESTORS'
p3477
sg18
S''
sbag1
(g10
g3
NtRp3478
(dp3479
g13
S'PlayerSay'
p3480
sg15
S'Head Protester'
p3481
sg16
S''
sg18
S'What are you protesting?'
p3482
sbag1
(g10
g3
NtRp3483
(dp3484
g13
S'Say'
p3485
sg15
S'Head Protester'
p3486
sg16
S''
sg18
S'Er...Injustice!'
p3487
sbag1
(g10
g3
NtRp3488
(dp3489
g13
S'PlayerSay'
p3490
sg15
S'Head Protester'
p3491
sg16
S''
sg18
S'Injustice against what?'
p3492
sbag1
(g10
g3
NtRp3493
(dp3494
g13
S'Say'
p3495
sg15
S'Head Protester'
p3496
sg16
S''
sg18
S'...'
p3497
sbag1
(g10
g3
NtRp3498
(dp3499
g13
S'Say'
p3500
sg15
S'Head Protester'
p3501
sg16
S''
sg18
S'The People!'
p3502
sbag1
(g10
g3
NtRp3503
(dp3504
g13
S'PlayerSay'
p3505
sg15
S'Head Protester'
p3506
sg16
S''
sg18
S'Yes, but which people?'
p3507
sbag1
(g10
g3
NtRp3508
(dp3509
g13
S'Say'
p3510
sg15
S'Head Protester'
p3511
sg16
S''
sg18
S'See? What a fascist, ALL people you slimey politician scum!'
p3512
sbag1
(g10
g3
NtRp3513
(dp3514
g13
S'Encounter'
p3515
sg15
S'Head Protester'
p3516
sg16
S'P-easy-04'
p3517
sg18
S''
sbag1
(g10
g3
NtRp3518
(dp3519
g13
S'Say'
p3520
sg15
S'Head Protester'
p3521
sg16
S''
sg18
S"Alright, fine! We'll stop protesting...whatever we were protesting."
p3522
sbag1
(g10
g3
NtRp3523
(dp3524
g13
S'SetFlag'
p3525
sg15
S'Head Protester'
p3526
sg16
S'PROTESTORSDEAD'
p3527
sg18
S''
sbag1
(g10
g3
NtRp3528
(dp3529
g13
S'Destroy'
p3530
sg15
S'Head Protester'
p3531
sg16
S''
sg18
S''
sbasS'Receptionist'
p3532
(lp3533
g1
(g10
g3
NtRp3534
(dp3535
g13
S'RequireFlag'
p3536
sg15
g3532
sg16
S'PENQUEST'
p3537
sg18
S"You must be Mayor Goodman's new assistant. He's in his office."
p3538
sbag1
(g10
g3
NtRp3539
(dp3540
g13
S'PlayerSay'
p3541
sg15
S'Receptionist'
p3542
sg16
S''
sg18
S"The Mayor is looking for his pen. He seemed to think you'd know where it was."
p3543
sbag1
(g10
g3
NtRp3544
(dp3545
g13
S'Say'
p3546
sg15
S'Receptionist'
p3547
sg16
S''
sg18
S"Did that buffoon accuse me of stealing again? This is MY pen and he isn't having it."
p3548
sbag1
(g10
g3
NtRp3549
(dp3550
g13
S'Encounter'
p3551
sg15
S'Receptionist'
p3552
sg16
S'P-easy-01'
p3553
sg18
S''
sbag1
(g10
g3
NtRp3554
(dp3555
g13
S'GiveItem'
p3556
sg15
S'Receptionist'
p3557
sg16
S'PEN'
p3558
sg18
S'Receptionist sighs and hands over the pen.'
p3559
sbag1
(g10
g3
NtRp3560
(dp3561
g13
S'Say'
p3562
sg15
S'Receptionist'
p3563
sg16
S''
sg18
S"If you're ever getting low on votes, come talk to me and I'll run an ad campaign to restore them."
p3564
sbag1
(g10
g3
NtRp3565
(dp3566
g13
S'Reset'
p3567
sg15
S'Receptionist'
p3568
sg16
S'RESTORE'
p3569
sg18
S''
sbag1
(g10
g3
NtRp3570
(dp3571
g13
S'Label'
p3572
sg15
S'Receptionist'
p3573
sg16
S'RESTORE'
p3574
sg18
S''
sbag1
(g10
g3
NtRp3575
(dp3576
g13
S'Say'
p3577
sg15
S'Receptionist'
p3578
sg16
S''
sg18
S"You've taken a beating, let me fix you up."
p3579
sbag1
(g10
g3
NtRp3580
(dp3581
g13
S'RestoreVotes'
p3582
sg15
S'Receptionist'
p3583
sg16
S''
sg18
S'Receptionist replenishes votes'
p3584
sbag1
(g10
g3
NtRp3585
(dp3586
g13
S'Reset'
p3587
sg15
S'Receptionist'
p3588
sg16
S'RESTORE'
p3589
sg18
S''
sbassS'attacks'
p3590
(dp3591
S'GETEXCLUSIVE'
p3592
g1
(g10
g3
NtRp3593
(dp3594
S'health_benefit'
p3595
F2
sS'base_damage_max'
p3596
F-2
sS'description'
p3597
S'asdf'
p3598
sS'weight'
p3599
I1
sS'crit_chance_max'
p3600
F0
sS'crit_chance_min'
p3601
F0
sS'underlying_stat'
p3602
S'Wit'
p3603
sS'is_summon'
p3604
I00
sS'target_type'
p3605
S'AllFriendly'
p3606
sS'base_damage_min'
p3607
F-2
sS'spin_cost'
p3608
F5
sS'effects'
p3609
(lp3610
g1
(c__main__
Effect
p3611
g3
NtRp3612
(dp3613
S'function'
p3614
S'add'
p3615
sS'abbrv'
p3616
S'(INCR CNG)'
p3617
sS'attribute'
p3618
S'cunning'
p3619
sS'value'
p3620
F2
sS'rounds_min'
p3621
F1
sS'rounds_max'
p3622
F4
sS'id'
p3623
S'Increase Cunning'
p3624
sS'apply_to_source'
p3625
S'TRUE'
p3626
sbasS'is_revive'
p3627
I00
sS'target_count'
p3628
I1
sS'crit_base_damage'
p3629
F0
sg3623
g3592
sS'name'
p3630
S'Get Exclusive'
p3631
sbsS'LOSELOSE'
p3632
g1
(g10
g3
NtRp3633
(dp3634
g3595
I0
sg3596
F6
sg3597
S'Causes all politicians in the target radius to lose votes'
p3635
sg3599
I1
sg3600
F0
sg3601
F0
sg3602
S'Wit'
p3636
sg3604
I00
sg3605
S'All'
p3637
sg3607
F4
sg3608
F5
sg3609
(lp3638
sg3627
I00
sg3628
I6
sg3629
F0
sg3623
g3632
sg3630
S'Lose/lose issue'
p3639
sbsS'LIE'
p3640
g1
(g10
g3
NtRp3641
(dp3642
g3595
I0
sg3596
F10
sg3597
S"It's only lying if they catch you. A strong attack with a danger of critically failing"
p3643
sg3599
F3
sg3600
F10
sg3601
F5
sg3602
S'Cunning'
p3644
sg3604
I00
sg3605
S'AllEnemy'
p3645
sg3607
F0
sg3608
I0
sg3609
(lp3646
g1
(g3611
g3
NtRp3647
(dp3648
g3614
S'miss_turn'
p3649
sg3616
S'(MISS)'
p3650
sg3618
S''
sg3620
F0
sg3621
F1
sg3622
F1
sg3623
S'Critical Fail'
p3651
sg3625
S'TRUE'
p3652
sbasg3627
I00
sg3628
I1
sg3629
F13
sg3623
g3640
sg3630
S'Lie'
p3653
sbsS'HILARIOUSANECDOTE'
p3654
g1
(g10
g3
NtRp3655
(dp3656
g3595
I0
sg3596
F8
sg3597
S'asdf'
p3657
sg3599
I1
sg3600
F5
sg3601
F2
sg3602
S'Wit'
p3658
sg3604
I00
sg3605
S'AllEnemy'
p3659
sg3607
F4
sg3608
F5
sg3609
(lp3660
sg3627
I00
sg3628
I3
sg3629
F11
sg3623
g3654
sg3630
S'Hilarious Anecdote'
p3661
sbsS'SENSATIONALISE'
p3662
g1
(g10
g3
NtRp3663
(dp3664
g3595
I0
sg3596
F8
sg3597
S'asdf'
p3665
sg3599
I1
sg3600
F0
sg3601
F0
sg3602
S'Wit'
p3666
sg3604
I00
sg3605
S'AllEnemy'
p3667
sg3607
F4
sg3608
F3
sg3609
(lp3668
sg3627
I00
sg3628
I1
sg3629
F0
sg3623
g3662
sg3630
S'Sensationalise'
p3669
sbsS'DENOUNCE'
p3670
g1
(g10
g3
NtRp3671
(dp3672
g3595
I0
sg3596
F5
sg3597
S'asdf'
p3673
sg3599
F6
sg3600
F10
sg3601
F2
sg3602
S'Cunning'
p3674
sg3604
I00
sg3605
S'AllEnemy'
p3675
sg3607
F2
sg3608
I0
sg3609
(lp3676
sg3627
I00
sg3628
I1
sg3629
F8
sg3623
g3670
sg3630
S'Denounce'
p3677
sbsS'WHADOWEWANT'
p3678
g1
(g10
g3
NtRp3679
(dp3680
g3595
I0
sg3596
F5
sg3597
S'asdf'
p3681
sg3599
I1
sg3600
F0
sg3601
F0
sg3602
S'Cunning'
p3682
sg3604
I00
sg3605
S'AllEnemy'
p3683
sg3607
F2
sg3608
I0
sg3609
(lp3684
sg3627
I00
sg3628
I1
sg3629
F0
sg3623
g3678
sg3630
S'Whadowewant!'
p3685
sbsS'SCOOP'
p3686
g1
(g10
g3
NtRp3687
(dp3688
g3595
I0
sg3596
F5
sg3597
S'asdf'
p3689
sg3599
I1
sg3600
F10
sg3601
F5
sg3602
S'Cunning'
p3690
sg3604
I00
sg3605
S'AllEnemy'
p3691
sg3607
F2
sg3608
I0
sg3609
(lp3692
sg3627
I00
sg3628
I1
sg3629
F8
sg3623
g3686
sg3630
S'Scoop'
p3693
sbsS'CHOOSETARGETS'
p3694
g1
(g10
g3
NtRp3695
(dp3696
g3595
I0
sg3596
F7
sg3597
S'asdf'
p3697
sg3599
I1
sg3600
F10
sg3601
F5
sg3602
S'Cunning'
p3698
sg3604
I00
sg3605
S'AllEnemy'
p3699
sg3607
F2
sg3608
I0
sg3609
(lp3700
sg3627
I00
sg3628
I1
sg3629
F9
sg3623
g3694
sg3630
S'Choose Targets'
p3701
sbsS'SUMMONPOLITICIAN'
p3702
g1
(g10
g3
NtRp3703
(dp3704
g3595
I0
sg3596
F0
sg3597
S'asdf'
p3705
sg3599
I1
sg3600
F0
sg3601
F0
sg3602
S'Wit'
p3706
sg3604
I01
sg3605
S'None'
p3707
sg3607
F0
sg3608
F4
sg3609
(lp3708
g1
(g3611
g3
NtRp3709
(dp3710
g3614
S'call_friends'
p3711
sg3616
S''
sg3618
S'Politician001:6'
p3712
sg3620
F2
sg3621
F1
sg3622
F1
sg3623
S'Summon Politician'
p3713
sg3625
S''
sbasg3627
I00
sg3628
I1
sg3629
F0
sg3623
g3702
sg3630
S'Summon Politician Slaves'
p3714
sbsS'FILENAILS'
p3715
g1
(g10
g3
NtRp3716
(dp3717
g3595
I0
sg3596
F0
sg3597
S'asdf'
p3718
sg3599
I1
sg3600
F0
sg3601
F0
sg3602
S'Wit'
p3719
sg3604
I00
sg3605
S'AllEnemy'
p3720
sg3607
F0
sg3608
F3
sg3609
(lp3721
g1
(g3611
g3
NtRp3722
(dp3723
g3614
S'add_permanent'
p3724
sg3616
S''
sg3618
S'votes'
p3725
sg3620
F5
sg3621
F1
sg3622
F1
sg3623
S'Votes Restore'
p3726
sg3625
S''
sbasg3627
I00
sg3628
I1
sg3629
F0
sg3623
g3715
sg3630
S'File Nails'
p3727
sbsS'BRIBE'
p3728
g1
(g10
g3
NtRp3729
(dp3730
g3595
I0
sg3596
F12
sg3597
S'Is there anything more convincing than money? Buying loyalty gets expensive so be careful.'
p3731
sg3599
I1
sg3600
F10
sg3601
F5
sg3602
S'Money'
p3732
sg3604
I00
sg3605
S'AllEnemy'
p3733
sg3607
F4
sg3608
I0
sg3609
(lp3734
sg3627
I00
sg3628
I1
sg3629
F14
sg3623
g3728
sg3630
S'Bribe'
p3735
sbsS'SING'
p3736
g1
(g10
g3
NtRp3737
(dp3738
g3595
F3
sg3596
F-3
sg3597
S'Why bandy words with politicians when you can sing a catchy tune! Restores votes.'
p3739
sg3599
I1
sg3600
F0
sg3601
F0
sg3602
S'Cunning'
p3740
sg3604
I00
sg3605
S'AllFriendly'
p3741
sg3607
F-5
sg3608
I0
sg3609
(lp3742
sg3627
I00
sg3628
I4
sg3629
F0
sg3623
g3736
sg3630
S'Rousing Song'
p3743
sbsS'FEAR'
p3744
g1
(g10
g3
NtRp3745
(dp3746
g3595
I0
sg3596
F0
sg3597
S'asdf'
p3747
sg3599
F2
sg3600
F0
sg3601
F0
sg3602
S'Wit'
p3748
sg3604
I00
sg3605
S'AllFriendly'
p3749
sg3607
F0
sg3608
F4
sg3609
(lp3750
g3612
asg3627
I00
sg3628
I1
sg3629
F0
sg3623
g3744
sg3630
S'Fear Change'
p3751
sbsS'BRAINWASH'
p3752
g1
(g10
g3
NtRp3753
(dp3754
g3595
I0
sg3596
F0
sg3597
S'asdf'
p3755
sg3599
I1
sg3600
F0
sg3601
F0
sg3602
S'Wit'
p3756
sg3604
I00
sg3605
S'AllEnemy'
p3757
sg3607
F0
sg3608
F3
sg3609
(lp3758
g1
(g3611
g3
NtRp3759
(dp3760
g3614
S'miss_turn'
p3761
sg3616
S'(MISS)'
p3762
sg3618
S''
sg3620
F0
sg3621
F1
sg3622
F1
sg3623
S'Miss Turn'
p3763
sg3625
S''
sbasg3627
I00
sg3628
I4
sg3629
F0
sg3623
g3752
sg3630
S'Brainwash'
p3764
sbsS'RAISEDEFCON'
p3765
g1
(g10
g3
NtRp3766
(dp3767
g3595
I0
sg3596
F5
sg3597
S'asdf'
p3768
sg3599
I1
sg3600
F7
sg3601
F3
sg3602
S'Cunning'
p3769
sg3604
I00
sg3605
S'AllEnemy'
p3770
sg3607
F4
sg3608
I0
sg3609
(lp3771
sg3627
I00
sg3628
I1
sg3629
F8
sg3623
g3765
sg3630
S'Raise DEFCON'
p3772
sbsS'BILLBOARD'
p3773
g1
(g10
g3
NtRp3774
(dp3775
g3595
F30
sg3596
F0
sg3597
S'Run a billboard ad to restore up to 30 votes'
p3776
sg3599
I1
sg3600
F0
sg3601
F0
sg3602
S''
sg3604
I00
sg3605
S'AllFriendly'
p3777
sg3607
F0
sg3608
I0
sg3609
(lp3778
g1
(g3611
g3
NtRp3779
(dp3780
g3614
S'add_permanent'
p3781
sg3616
S''
sg3618
S'votes'
p3782
sg3620
F30
sg3621
F1
sg3622
F1
sg3623
S'Votes Restore Billboard'
p3783
sg3625
S''
sbasg3627
I00
sg3628
I1
sg3629
F0
sg3623
g3773
sg3630
S'Billboard Ad'
p3784
sbsS'NEGATTACKAD'
p3785
g1
(g10
g3
NtRp3786
(dp3787
g3595
I0
sg3596
F9
sg3597
S"Take them all down. They're definitely all bad people. Not like you."
p3788
sg3599
I1
sg3600
F10
sg3601
F10
sg3602
S'Wit'
p3789
sg3604
I00
sg3605
S'AllEnemy'
p3790
sg3607
F4
sg3608
F3
sg3609
(lp3791
sg3627
I00
sg3628
I1
sg3629
F10
sg3623
g3785
sg3630
S'Negative Attack Ad'
p3792
sbsS'DAZZLE'
p3793
g1
(g10
g3
NtRp3794
(dp3795
g3595
I0
sg3596
F4
sg3597
S'Being dazzling and admirable is a great way to take heat off politics'
p3796
sg3599
I1
sg3600
F8
sg3601
F5
sg3602
S'Wit'
p3797
sg3604
I00
sg3605
S'AllEnemy'
p3798
sg3607
F2
sg3608
F4
sg3609
(lp3799
g1
(g3611
g3
NtRp3800
(dp3801
g3614
S'reduce'
p3802
sg3616
S'(CNG DN)'
p3803
sg3618
S'cunning'
p3804
sg3620
F2
sg3621
F2
sg3622
F5
sg3623
S'Reduce Cunning'
p3805
sg3625
S''
sbasg3627
I00
sg3628
I4
sg3629
F8
sg3623
g3793
sg3630
S'Dazzle'
p3806
sbsS'BELIEVEMEDIA'
p3807
g1
(g10
g3
NtRp3808
(dp3809
g3595
I0
sg3596
F3
sg3597
S'asdf'
p3810
sg3599
I1
sg3600
F15
sg3601
F10
sg3602
S'Cunning'
p3811
sg3604
I00
sg3605
S'AllEnemy'
p3812
sg3607
F1
sg3608
I0
sg3609
(lp3813
sg3627
I00
sg3628
I1
sg3629
F12
sg3623
g3807
sg3630
S'Believe Media'
p3814
sbsS'PRPREP'
p3815
g1
(g10
g3
NtRp3816
(dp3817
g3595
I0
sg3596
F0
sg3597
S"If you're going to need some spin, best see a spin doctor! Adds spin points."
p3818
sg3599
I1
sg3600
F0
sg3601
F0
sg3602
S''
sg3604
I00
sg3605
S'AllFriendly'
p3819
sg3607
F0
sg3608
I0
sg3609
(lp3820
g1
(g3611
g3
NtRp3821
(dp3822
g3614
S'add_permanent'
p3823
sg3616
S''
sg3618
S'spin'
p3824
sg3620
F5
sg3621
F0
sg3622
F0
sg3623
S'Spin Restore'
p3825
sg3625
S'TRUE'
p3826
sbasg3627
I00
sg3628
I1
sg3629
F0
sg3623
g3815
sg3630
S'PR Prep'
p3827
sbsS'CALLVATICAN'
p3828
g1
(g10
g3
NtRp3829
(dp3830
g3595
I0
sg3596
F0
sg3597
S'Brings in 2 additional ReligousNuts at 2 levels lower than this one'
p3831
sg3599
I1
sg3600
F0
sg3601
F0
sg3602
S'Wit'
p3832
sg3604
I01
sg3605
S'None'
p3833
sg3607
F0
sg3608
F5
sg3609
(lp3834
g1
(g3611
g3
NtRp3835
(dp3836
g3614
S'call_friends'
p3837
sg3616
S''
sg3618
S'ReligiousNut001:4'
p3838
sg3620
F2
sg3621
F1
sg3622
F1
sg3623
S'Call Friends'
p3839
sg3625
S''
sbasg3627
I00
sg3628
I1
sg3629
F0
sg3623
g3828
sg3630
S'Call Battycan'
p3840
sbsS'BLACKMAIL'
p3841
g1
(g10
g3
NtRp3842
(dp3843
g3595
I0
sg3596
F6
sg3597
S'asdf'
p3844
sg3599
I1
sg3600
F10
sg3601
F2
sg3602
S'Wit'
p3845
sg3604
I00
sg3605
S'AllEnemy'
p3846
sg3607
F3
sg3608
F4
sg3609
(lp3847
g1
(g3611
g3
NtRp3848
(dp3849
g3614
S'drain'
p3850
sg3616
S'(DRAIN VTS)'
p3851
sg3618
S'votes'
p3852
sg3620
F1
sg3621
F2
sg3622
F5
sg3623
S'Drain Votes'
p3853
sg3625
S''
sbasg3627
I00
sg3628
I1
sg3629
F2
sg3623
g3841
sg3630
S'Blackmail'
p3854
sbsS'SCARE'
p3855
g1
(g10
g3
NtRp3856
(dp3857
g3595
I0
sg3596
F7
sg3597
S'Nothing rattles the brains like fear.'
p3858
sg3599
I1
sg3600
F10
sg3601
F2
sg3602
S'Cunning'
p3859
sg3604
I00
sg3605
S'AllEnemy'
p3860
sg3607
F2
sg3608
I0
sg3609
(lp3861
g3800
asg3627
I00
sg3628
I2
sg3629
F9
sg3623
g3855
sg3630
S'Scare Campaign'
p3862
sbsS'PROTEST'
p3863
g1
(g10
g3
NtRp3864
(dp3865
g3595
I0
sg3596
F5
sg3597
S'asdf'
p3866
sg3599
F6
sg3600
F10
sg3601
F2
sg3602
S'Cunning'
p3867
sg3604
I00
sg3605
S'AllEnemy'
p3868
sg3607
F2
sg3608
I0
sg3609
(lp3869
sg3627
I00
sg3628
I1
sg3629
F8
sg3623
g3863
sg3630
S'Protest'
p3870
sbsS'SPREADRUMOUR'
p3871
g1
(g10
g3
NtRp3872
(dp3873
g3595
I0
sg3596
F8
sg3597
S'asdf'
p3874
sg3599
I1
sg3600
F10
sg3601
F2
sg3602
S'Wit'
p3875
sg3604
I00
sg3605
S'AllEnemy'
p3876
sg3607
F3
sg3608
F5
sg3609
(lp3877
sg3627
I00
sg3628
I4
sg3629
F10
sg3623
g3871
sg3630
S'Spread Rumour'
p3878
sbsS'AGENDA'
p3879
g1
(g10
g3
NtRp3880
(dp3881
g3595
I0
sg3596
F5
sg3597
S'asdf'
p3882
sg3599
F6
sg3600
F10
sg3601
F2
sg3602
S'Cunning'
p3883
sg3604
I00
sg3605
S'AllEnemy'
p3884
sg3607
F2
sg3608
I0
sg3609
(lp3885
sg3627
I00
sg3628
I1
sg3629
F8
sg3623
g3879
sg3630
S'Push Agenda'
p3886
sbsS'REVIVEITEM'
p3887
g1
(g10
g3
NtRp3888
(dp3889
g3595
I0
sg3596
F0
sg3597
S'Revive a defeated comrade to half votes'
p3890
sg3599
I1
sg3600
F0
sg3601
F0
sg3602
S''
sg3604
I00
sg3605
S'DeadFriendly'
p3891
sg3607
F0
sg3608
I0
sg3609
(lp3892
g1
(g3611
g3
NtRp3893
(dp3894
g3614
S'revive'
p3895
sg3616
S''
sg3618
S''
sg3620
F0.5
sg3621
F0
sg3622
F0
sg3623
S'Revive'
p3896
sg3625
S''
sbasg3627
I01
sg3628
I1
sg3629
F0
sg3623
g3887
sg3630
S'Revive'
p3897
sbsS'LEGSPEECH'
p3898
g1
(g10
g3
NtRp3899
(dp3900
g3595
F10
sg3596
F-10
sg3597
S'Remembered throughout the ages. Restores a lot of votes for all party members'
p3901
sg3599
I1
sg3600
F0
sg3601
F0
sg3602
S''
sg3604
I00
sg3605
S'AllFriendly'
p3902
sg3607
F-25
sg3608
I0
sg3609
(lp3903
sg3627
I00
sg3628
I4
sg3629
F0
sg3623
g3898
sg3630
S'Legendary Speech'
p3904
sbsS'TVAD'
p3905
g1
(g10
g3
NtRp3906
(dp3907
g3595
F40
sg3596
F0
sg3597
S'Prime time TV gets the most votes. Restore up to 40 votes.'
p3908
sg3599
I1
sg3600
F0
sg3601
F0
sg3602
S''
sg3604
I00
sg3605
S'AllFriendly'
p3909
sg3607
F0
sg3608
I0
sg3609
(lp3910
g1
(g3611
g3
NtRp3911
(dp3912
g3614
S'add_permanent'
p3913
sg3616
S''
sg3618
S'votes'
p3914
sg3620
F40
sg3621
F1
sg3622
F1
sg3623
S'Votes Restore TV'
p3915
sg3625
S''
sbasg3627
I00
sg3628
I1
sg3629
F0
sg3623
g3905
sg3630
S'Run TV Advertisement'
p3916
sbsS'FILIBUSTER'
p3917
g1
(g10
g3
NtRp3918
(dp3919
g3595
I0
sg3596
F6
sg3597
S"You're not moving until they give in. Cause all opposition to miss their turn"
p3920
sg3599
I1
sg3600
F0
sg3601
F0
sg3602
S'Wit'
p3921
sg3604
I00
sg3605
S'AllEnemy'
p3922
sg3607
F3
sg3608
F7
sg3609
(lp3923
g3759
asg3627
I00
sg3628
I1
sg3629
F0
sg3623
g3917
sg3630
S'Filibuster'
p3924
sbsS'GATHERINTEL'
p3925
g1
(g10
g3
NtRp3926
(dp3927
g3595
I0
sg3596
F0
sg3597
S'Increases Cunning.'
p3928
sg3599
I1
sg3600
F0
sg3601
F0
sg3602
S'Wit'
p3929
sg3604
I00
sg3605
S'AllFriendly'
p3930
sg3607
F0
sg3608
F3
sg3609
(lp3931
g3612
asg3627
I00
sg3628
I2
sg3629
F0
sg3623
g3925
sg3630
S'Gather Intelligence'
p3932
sbsS'LOVE'
p3933
g1
(g10
g3
NtRp3934
(dp3935
g3595
I0
sg3596
F6
sg3597
S'asdf'
p3936
sg3599
F4
sg3600
F8
sg3601
F2
sg3602
S'Cunning'
p3937
sg3604
I00
sg3605
S'AllEnemy'
p3938
sg3607
F1
sg3608
I0
sg3609
(lp3939
sg3627
I00
sg3628
I1
sg3629
F7
sg3623
g3933
sg3630
S'Love'
p3940
sbsS'OUTOFCONTEXT'
p3941
g1
(g10
g3
NtRp3942
(dp3943
g3595
I0
sg3596
F5
sg3597
S'asdf'
p3944
sg3599
I1
sg3600
F5
sg3601
F2
sg3602
S'Wit'
p3945
sg3604
I00
sg3605
S'AllEnemy'
p3946
sg3607
F3
sg3608
F2
sg3609
(lp3947
g3848
asg3627
I00
sg3628
I1
sg3629
F5
sg3623
g3941
sg3630
S'Take Out Of Context'
p3948
sbsS'GREATSUIT'
p3949
g1
(g10
g3
NtRp3950
(dp3951
g3595
I0
sg3596
F6
sg3597
S'Well, we could argue, but have you noticed how fabulous this suit is? Medium attack with high chance of critical.'
p3952
sg3599
I1
sg3600
F30
sg3601
F10
sg3602
S'Cunning'
p3953
sg3604
I00
sg3605
S'AllEnemy'
p3954
sg3607
F3
sg3608
I0
sg3609
(lp3955
sg3627
I00
sg3628
I1
sg3629
F13
sg3623
g3949
sg3630
S'Look Great In Suit'
p3956
sbsS'PEACE'
p3957
g1
(g10
g3
NtRp3958
(dp3959
g3595
I0
sg3596
F0
sg3597
S'asdf'
p3960
sg3599
F4
sg3600
F0
sg3601
F0
sg3602
S'Wit'
p3961
sg3604
I00
sg3605
S'AllEnemy'
p3962
sg3607
F0
sg3608
F3
sg3609
(lp3963
g3800
asg3627
I00
sg3628
I4
sg3629
F0
sg3623
g3957
sg3630
S'Peace'
p3964
sbsS'INSPSPEECH'
p3965
g1
(g10
g3
NtRp3966
(dp3967
g3595
F2
sg3596
F-2
sg3597
S'Restore a small amount of votes to all party members'
p3968
sg3599
I1
sg3600
F0
sg3601
F0
sg3602
S'Cunning'
p3969
sg3604
I00
sg3605
S'AllFriendly'
p3970
sg3607
F-5
sg3608
I0
sg3609
(lp3971
sg3627
I00
sg3628
I4
sg3629
F0
sg3623
g3965
sg3630
S'Inspirational Speech'
p3972
sbsS'RALLYENEMY'
p3973
g1
(g10
g3
NtRp3974
(dp3975
g3595
F8
sg3596
F0
sg3597
S'Get back some votes by rallying supporters'
p3976
sg3599
I1
sg3600
F0
sg3601
F0
sg3602
S'Wit'
p3977
sg3604
I00
sg3605
S'AllFriendly'
p3978
sg3607
F0
sg3608
F3
sg3609
(lp3979
g1
(g3611
g3
NtRp3980
(dp3981
g3614
S'add_permanent'
p3982
sg3616
S''
sg3618
S'votes'
p3983
sg3620
F8
sg3621
F1
sg3622
F1
sg3623
S'Votes Restore Rally Enemy'
p3984
sg3625
S''
sbasg3627
I00
sg3628
I1
sg3629
F0
sg3623
g3973
sg3630
S'Rally Constituents'
p3985
sbsS'STRIKE'
p3986
g1
(g10
g3
NtRp3987
(dp3988
g3595
I0
sg3596
F10
sg3597
S'asdf'
p3989
sg3599
I1
sg3600
F0
sg3601
F0
sg3602
S'Wit'
p3990
sg3604
I00
sg3605
S'AllEnemy'
p3991
sg3607
F0
sg3608
F3
sg3609
(lp3992
g3647
asg3627
I00
sg3628
I1
sg3629
F0
sg3623
g3986
sg3630
S'Call A Strike'
p3993
sbsS'SLANDER'
p3994
g1
(g10
g3
NtRp3995
(dp3996
g3595
I0
sg3596
F5
sg3597
S'Strong against polititians...careful with those voters, though!'
p3997
sg3599
F4
sg3600
F10
sg3601
F2
sg3602
S'Cunning'
p3998
sg3604
I00
sg3605
S'AllEnemy'
p3999
sg3607
F3
sg3608
I0
sg3609
(lp4000
g3848
asg3627
I00
sg3628
I1
sg3629
F7
sg3623
g3994
sg3630
S'Slander Opposition'
p4001
sbsS'NATTER'
p4002
g1
(g10
g3
NtRp4003
(dp4004
g3595
I0
sg3596
F8
sg3597
S'asdf'
p4005
sg3599
I1
sg3600
F15
sg3601
F5
sg3602
S'Cunning'
p4006
sg3604
I00
sg3605
S'AllEnemy'
p4007
sg3607
F1
sg3608
I0
sg3609
(lp4008
sg3627
I00
sg3628
I1
sg3629
F10
sg3623
g4002
sg3630
S'Natter On'
p4009
sbsS'GOSSIP'
p4010
g1
(g10
g3
NtRp4011
(dp4012
g3595
I0
sg3596
F3
sg3597
S'asdf'
p4013
sg3599
I1
sg3600
F10
sg3601
F2
sg3602
S'Wit'
p4014
sg3604
I00
sg3605
S'AllEnemy'
p4015
sg3607
F2
sg3608
F2
sg3609
(lp4016
g3800
asg3627
I00
sg3628
I1
sg3629
F6
sg3623
g4010
sg3630
S'Gossip'
p4017
sbsS'MISSTURN'
p4018
g1
(g10
g3
NtRp4019
(dp4020
g3595
I0
sg3596
F0
sg3597
S'asdf'
p4021
sg3599
I1
sg3600
F0
sg3601
F0
sg3602
S''
sg3604
I00
sg3605
S'AllEnemy'
p4022
sg3607
F0
sg3608
I0
sg3609
(lp4023
sg3627
I00
sg3628
I1
sg3629
F0
sg3623
g4018
sg3630
S'Miss Turn'
p4024
sbsS'BIELECTION'
p4025
g1
(g10
g3
NtRp4026
(dp4027
g3595
I0
sg3596
F4
sg3597
S'Redistribute votes amongst targets'
p4028
sg3599
I1
sg3600
F0
sg3601
F0
sg3602
S'Wit'
p4029
sg3604
I00
sg3605
S'All'
p4030
sg3607
F-4
sg3608
F4
sg3609
(lp4031
sg3627
I00
sg3628
I8
sg3629
F0
sg3623
g4025
sg3630
S'Bielection'
p4032
sbsS'RUNAD'
p4033
g1
(g10
g3
NtRp4034
(dp4035
g3595
F15
sg3596
F0
sg3597
S'Gets back up to 15 votes by running an ad'
p4036
sg3599
I1
sg3600
F0
sg3601
F0
sg3602
S''
sg3604
I00
sg3605
S'AllFriendly'
p4037
sg3607
F0
sg3608
I0
sg3609
(lp4038
g1
(g3611
g3
NtRp4039
(dp4040
g3614
S'add_permanent'
p4041
sg3616
S''
sg3618
S'votes'
p4042
sg3620
F15
sg3621
F1
sg3622
F1
sg3623
S'Votes Restore Ad'
p4043
sg3625
S''
sbasg3627
I00
sg3628
I1
sg3629
F0
sg3623
g4033
sg3630
S'Run Advertisement'
p4044
sbsS'PAYOFF'
p4045
g1
(g10
g3
NtRp4046
(dp4047
g3595
I0
sg3596
F8
sg3597
S'Causes them to miss a number of turns'
p4048
sg3599
I1
sg3600
F8
sg3601
F2
sg3602
S'Wit'
p4049
sg3604
I00
sg3605
S'AllEnemy'
p4050
sg3607
F4
sg3608
F4
sg3609
(lp4051
g1
(g3611
g3
NtRp4052
(dp4053
g3614
S'miss_turn'
p4054
sg3616
S'(MISS)'
p4055
sg3618
S''
sg3620
F0
sg3621
F1
sg3622
F3
sg3623
S'Miss Turn Pay Off'
p4056
sg3625
S''
sbasg3627
I00
sg3628
I1
sg3629
F10
sg3623
g4045
sg3630
S'Pay Off'
p4057
sbsS'BUREAUCRACY'
p4058
g1
(g10
g3
NtRp4059
(dp4060
g3595
I0
sg3596
F5
sg3597
S'asdf'
p4061
sg3599
F6
sg3600
F10
sg3601
F2
sg3602
S'Cunning'
p4062
sg3604
I00
sg3605
S'AllEnemy'
p4063
sg3607
F2
sg3608
I0
sg3609
(lp4064
sg3627
I00
sg3628
I1
sg3629
F8
sg3623
g4058
sg3630
S'Bureaucracy'
p4065
sbsS'RALLYAUDIENCE'
p4066
g1
(g10
g3
NtRp4067
(dp4068
g3595
I0
sg3596
F8
sg3597
S'asdf'
p4069
sg3599
I1
sg3600
F0
sg3601
F0
sg3602
S'Wit'
p4070
sg3604
I00
sg3605
S'AllFriendly'
p4071
sg3607
F4
sg3608
F3
sg3609
(lp4072
g1
(g3611
g3
NtRp4073
(dp4074
g3614
S'add'
p4075
sg3616
S'(INCR CH)'
p4076
sg3618
S'charisma'
p4077
sg3620
F2
sg3621
F1
sg3622
F4
sg3623
S'Increase Charisma'
p4078
sg3625
S'TRUE'
p4079
sbasg3627
I00
sg3628
I1
sg3629
F0
sg3623
g4066
sg3630
S'Rally Audience'
p4080
sbsS'PORKBARREL'
p4081
g1
(g10
g3
NtRp4082
(dp4083
g3595
I0
sg3596
F8
sg3597
S'Do something that benefits them specifically. Not advised against politicians.'
p4084
sg3599
I1
sg3600
F0
sg3601
F0
sg3602
S'Wit'
p4085
sg3604
I00
sg3605
S'AllEnemy'
p4086
sg3607
F4
sg3608
F2
sg3609
(lp4087
sg3627
I00
sg3628
I1
sg3629
F0
sg3623
g4081
sg3630
S'Pork Barrel'
p4088
sbsS'INSPIRE'
p4089
g1
(g10
g3
NtRp4090
(dp4091
g3595
I0
sg3596
F0
sg3597
S'asdf'
p4092
sg3599
I1
sg3600
F0
sg3601
F0
sg3602
S'Wit'
p4093
sg3604
I00
sg3605
S'AllFriendly'
p4094
sg3607
F0
sg3608
F3
sg3609
(lp4095
g3612
asg3627
I00
sg3628
I4
sg3629
F0
sg3623
g4089
sg3630
S'Inspire'
p4096
sbsS'JOKE'
p4097
g1
(g10
g3
NtRp4098
(dp4099
g3595
I0
sg3596
F6
sg3597
S"Ha, ha, ha...what were we talking about? Diffuse the situation with some humour. High chance of critical hit. Knock 'em dead!"
p4100
sg3599
F3
sg3600
F20
sg3601
F10
sg3602
S'Cunning'
p4101
sg3604
I00
sg3605
S'AllEnemy'
p4102
sg3607
F2
sg3608
I0
sg3609
(lp4103
sg3627
I00
sg3628
I1
sg3629
F12
sg3623
g4097
sg3630
S'Joke'
p4104
sbsS'PRAYFORSOULS'
p4105
g1
(g10
g3
NtRp4106
(dp4107
g3595
I0
sg3596
F6
sg3597
S'asdf'
p4108
sg3599
F2
sg3600
F10
sg3601
F2
sg3602
S'Cunning'
p4109
sg3604
I00
sg3605
S'None'
p4110
sg3607
F3
sg3608
I0
sg3609
(lp4111
sg3627
I00
sg3628
I1
sg3629
F10
sg3623
g4105
sg3630
S'Pray'
p4112
sbsS'REVIVE'
p4113
g1
(g10
g3
NtRp4114
(dp4115
g3595
I0
sg3596
F0
sg3597
S'Revive a defeated comrade to half votes'
p4116
sg3599
I1
sg3600
F0
sg3601
F0
sg3602
S''
sg3604
I00
sg3605
S'DeadFriendly'
p4117
sg3607
F0
sg3608
F5
sg3609
(lp4118
g3893
asg3627
I01
sg3628
I1
sg3629
F0
sg3623
g4113
sg3630
S'Revive'
p4119
sbsS'HUMANSHIELD'
p4120
g1
(g10
g3
NtRp4121
(dp4122
g3595
I0
sg3596
F8
sg3597
S'No further questions. Step back, please. Causes all targets to miss their next turn.'
p4123
sg3599
I1
sg3600
F5
sg3601
F2
sg3602
S'Wit'
p4124
sg3604
I00
sg3605
S'AllEnemy'
p4125
sg3607
F4
sg3608
F5
sg3609
(lp4126
g3759
asg3627
I00
sg3628
I2
sg3629
F11
sg3623
g4120
sg3630
S'Human Shield'
p4127
sbsS'MAKEDEMANDS'
p4128
g1
(g10
g3
NtRp4129
(dp4130
g3595
I0
sg3596
F8
sg3597
S'asdf'
p4131
sg3599
I1
sg3600
F0
sg3601
F0
sg3602
S'Cunning'
p4132
sg3604
I00
sg3605
S'AllEnemy'
p4133
sg3607
F0
sg3608
I0
sg3609
(lp4134
g3647
asg3627
I00
sg3628
I1
sg3629
F0
sg3623
g4128
sg3630
S'Make Outrageous Demands'
p4135
sbsS'DEFENSE'
p4136
g1
(g10
g3
NtRp4137
(dp4138
g3595
I0
sg3596
F0
sg3597
S'Gather strenth; -50% to all incoming attacks'
p4139
sg3599
I1
sg3600
F0
sg3601
F0
sg3602
S''
sg3604
I00
sg3605
S'None'
p4140
sg3607
F0
sg3608
I0
sg3609
(lp4141
g1
(g3611
g3
NtRp4142
(dp4143
g3614
S'add'
p4144
sg3616
S'(DEFEND)'
p4145
sg3618
S'resistance'
p4146
sg3620
F0.5
sg3621
F1
sg3622
F1
sg3623
S'Defense'
p4147
sg3625
S'TRUE'
p4148
sbasg3627
I00
sg3628
I1
sg3629
F0
sg3623
g4136
sg3630
S'Defense'
p4149
sbsS'MISCONSTRUE'
p4150
g1
(g10
g3
NtRp4151
(dp4152
g3595
I0
sg3596
F8
sg3597
S'asdf'
p4153
sg3599
I1
sg3600
F0
sg3601
F0
sg3602
S'Cunning'
p4154
sg3604
I00
sg3605
S'AllEnemy'
p4155
sg3607
F0
sg3608
I0
sg3609
(lp4156
g3647
asg3627
I00
sg3628
I1
sg3629
F0
sg3623
g4150
sg3630
S'Misconstrue'
p4157
sbsS'RIGVOTES'
p4158
g1
(g10
g3
NtRp4159
(dp4160
g3595
I0
sg3596
F9
sg3597
S'asdf'
p4161
sg3599
I1
sg3600
F20
sg3601
F10
sg3602
S''
sg3604
I00
sg3605
S'AllEnemy'
p4162
sg3607
F4
sg3608
F5
sg3609
(lp4163
sg3627
I00
sg3628
I4
sg3629
F12
sg3623
g4158
sg3630
S'Rig Voting System'
p4164
sbsS'NATIONALSECURITY'
p4165
g1
(g10
g3
NtRp4166
(dp4167
g3595
I0
sg3596
F7
sg3597
S"This is a matter of national security and they don't have codeword clearance Solid basic attack."
p4168
sg3599
I1
sg3600
F10
sg3601
F2
sg3602
S'Cunning'
p4169
sg3604
I00
sg3605
S'AllEnemy'
p4170
sg3607
F5
sg3608
I0
sg3609
(lp4171
sg3627
I00
sg3628
I1
sg3629
F9
sg3623
g4165
sg3630
S'National Security'
p4172
sbsS'RALLY'
p4173
g1
(g10
g3
NtRp4174
(dp4175
g3595
F20
sg3596
F0
sg3597
S'Get back some votes by rallying supporters'
p4176
sg3599
I1
sg3600
F0
sg3601
F0
sg3602
S'Wit'
p4177
sg3604
I00
sg3605
S'AllFriendly'
p4178
sg3607
F0
sg3608
F3
sg3609
(lp4179
g1
(g3611
g3
NtRp4180
(dp4181
g3614
S'add_permanent'
p4182
sg3616
S''
sg3618
S'votes'
p4183
sg3620
F20
sg3621
F1
sg3622
F1
sg3623
S'Votes Restore Rally'
p4184
sg3625
S''
sbasg3627
I00
sg3628
I1
sg3629
F0
sg3623
g4173
sg3630
S'Rally Constituents'
p4185
sbsS'MESSAGE'
p4186
g1
(g10
g3
NtRp4187
(dp4188
g3595
I0
sg3596
F6
sg3597
S'You can certainly wear them down by repeating your party line over and over and over...if you want'
p4189
sg3599
F6
sg3600
F10
sg3601
F5
sg3602
S'Cunning'
p4190
sg3604
I00
sg3605
S'AllEnemy'
p4191
sg3607
F3
sg3608
I0
sg3609
(lp4192
sg3627
I00
sg3628
I1
sg3629
F10
sg3623
g4186
sg3630
S'Stay On Message'
p4193
sbsS'APPEALTOGOD'
p4194
g1
(g10
g3
NtRp4195
(dp4196
g3595
I0
sg3596
F10
sg3597
S'asdf'
p4197
sg3599
F3
sg3600
F5
sg3601
F2
sg3602
S'Wit'
p4198
sg3604
I00
sg3605
S'AllEnemy'
p4199
sg3607
F4
sg3608
F7
sg3609
(lp4200
sg3627
I00
sg3628
I4
sg3629
F13
sg3623
g4194
sg3630
S'Appeal To God'
p4201
sbssS'levels'
p4202
(lp4203
g1
(g10
g3
NtRp4204
(dp4205
S'votes'
p4206
F20
sS'level'
p4207
F1
sS'spin'
p4208
F5
sS'xp'
p4209
F0
sS'skill_points'
p4210
F0
sbag1
(g10
g3
NtRp4211
(dp4212
g4206
F23
sg4207
F2
sg4208
F5
sg4209
F100
sg4210
F2
sbag1
(g10
g3
NtRp4213
(dp4214
g4206
F25
sg4207
F3
sg4208
F6
sg4209
F200
sg4210
F2
sbag1
(g10
g3
NtRp4215
(dp4216
g4206
F30
sg4207
F4
sg4208
F6
sg4209
F500
sg4210
F2
sbag1
(g10
g3
NtRp4217
(dp4218
g4206
F35
sg4207
F5
sg4208
F7
sg4209
F1000
sg4210
F2
sbag1
(g10
g3
NtRp4219
(dp4220
g4206
F40
sg4207
F6
sg4208
F7
sg4209
F2000
sg4210
F2
sbag1
(g10
g3
NtRp4221
(dp4222
g4206
F45
sg4207
F7
sg4208
F8
sg4209
F3000
sg4210
F2
sbag1
(g10
g3
NtRp4223
(dp4224
g4206
F100
sg4207
F8
sg4208
F8
sg4209
F4000
sg4210
F2
sbag1
(g10
g3
NtRp4225
(dp4226
g4206
F200
sg4207
F9
sg4208
F9
sg4209
F5000
sg4210
F2
sbag1
(g10
g3
NtRp4227
(dp4228
g4206
F300
sg4207
F10
sg4208
F9
sg4209
F10000
sg4210
F2
sbag1
(g10
g3
NtRp4229
(dp4230
g4206
F500
sg4207
F11
sg4208
F10
sg4209
F20000
sg4210
F2
sbag1
(g10
g3
NtRp4231
(dp4232
g4206
F500
sg4207
F12
sg4208
F10
sg4209
F50000
sg4210
F2
sbag1
(g10
g3
NtRp4233
(dp4234
g4206
F500
sg4207
F13
sg4208
F10
sg4209
F60000
sg4210
F2
sbag1
(g10
g3
NtRp4235
(dp4236
g4206
F500
sg4207
F14
sg4208
F10
sg4209
F80000
sg4210
F2
sbag1
(g10
g3
NtRp4237
(dp4238
g4206
F500
sg4207
F15
sg4208
F10
sg4209
F10000
sg4210
F2
sbag1
(g10
g3
NtRp4239
(dp4240
g4206
F500
sg4207
F16
sg4208
F10
sg4209
F12000
sg4210
F2
sbag1
(g10
g3
NtRp4241
(dp4242
g4206
F500
sg4207
F17
sg4208
F10
sg4209
F15000
sg4210
F2
sbag1
(g10
g3
NtRp4243
(dp4244
g4206
F500
sg4207
F18
sg4208
F10
sg4209
F20000
sg4210
F2
sbag1
(g10
g3
NtRp4245
(dp4246
g4206
F500
sg4207
F19
sg4208
F10
sg4209
F25000
sg4210
F2
sbag1
(g10
g3
NtRp4247
(dp4248
g4206
F500
sg4207
F20
sg4208
F10
sg4209
F40000
sg4210
F2
sbag1
(g10
g3
NtRp4249
(dp4250
g4206
S''
sg4207
F21
sg4208
S''
sg4209
S''
sg4210
S''
sbag1
(g10
g3
NtRp4251
(dp4252
g4206
S''
sg4207
F22
sg4208
S''
sg4209
S''
sg4210
S''
sbag1
(g10
g3
NtRp4253
(dp4254
g4206
S''
sg4207
F23
sg4208
S''
sg4209
S''
sg4210
S''
sbag1
(g10
g3
NtRp4255
(dp4256
g4206
S''
sg4207
F24
sg4208
S''
sg4209
S''
sg4210
S''
sbag1
(g10
g3
NtRp4257
(dp4258
g4206
S''
sg4207
F25
sg4208
S''
sg4209
S''
sg4210
S''
sbag1
(g10
g3
NtRp4259
(dp4260
g4206
S''
sg4207
F26
sg4208
S''
sg4209
S''
sg4210
S''
sbag1
(g10
g3
NtRp4261
(dp4262
g4206
S''
sg4207
F27
sg4208
S''
sg4209
S''
sg4210
S''
sbag1
(g10
g3
NtRp4263
(dp4264
g4206
S''
sg4207
F28
sg4208
S''
sg4209
S''
sg4210
S''
sbag1
(g10
g3
NtRp4265
(dp4266
g4206
S''
sg4207
F29
sg4208
S''
sg4209
S''
sg4210
S''
sbasg3609
(dp4267
g3624
g3612
sg3726
g3722
sg3825
g3821
sg4078
g4073
sg3763
g3759
sg3915
g3911
sg3839
g3835
sg4043
g4039
sg4056
g4052
sg3984
g3980
sg3783
g3779
sg3896
g3893
sg3805
g3800
sg3853
g3848
sg4147
g4142
sg3651
g3647
sS'Increase Flair'
p4268
g1
(g3611
g3
NtRp4269
(dp4270
g3614
S'add'
p4271
sg3616
S'(INCR FL)'
p4272
sg3618
S'flair'
p4273
sg3620
F2
sg3621
F1
sg3622
F4
sg3623
g4268
sg3625
S'TRUE'
p4274
sbsg3713
g3709
sg4184
g4180
ssS'characters'
p4275
(dp4276
S'Teacher001'
p4277
(lp4278
g1
(g10
g3
NtRp4279
(dp4280
S'flair_base'
p4281
F1
sS'spin_base'
p4282
F4
sS'flair_lvl'
p4283
F0.10000000000000001
sS'wit_base'
p4284
F2
sS'resistance'
p4285
(lp4286
sS'wit_lvl'
p4287
F0.10000000000000001
sS'cunning_base'
p4288
F1
sg3623
g4277
sS'votes_base'
p4289
F15
sS'speed_lvl'
p4290
F0.080000000000000002
sS'standard_attacks'
p4291
(lp4292
g4137
ag3864
asS'cunning_lvl'
p4293
F0.90000000000000002
sS'charisma_lvl'
p4294
F0.20000000000000001
sS'spin_attacks'
p4295
(lp4296
g3987
ag3974
asS'spin_lvl'
p4297
F0.25
sS'charisma_base'
p4298
F1
sS'weaknesses'
p4299
(lp4300
sS'attack_group'
p4301
S'Teacher'
p4302
sS'votes_lvl'
p4303
F0.050000000000000003
sg3630
S'Teacher'
p4304
sS'speed_base'
p4305
F1
sS'immunities'
p4306
(lp4307
sbasS'Politician001'
p4308
(lp4309
g1
(g10
g3
NtRp4310
(dp4311
g4281
F1
sg4282
F4
sg4283
F0.10000000000000001
sg4284
F1
sg4285
(lp4312
g3641
asg4287
F0.10000000000000001
sg4288
F1
sg3623
g4308
sg4289
F10
sg4290
F0.080000000000000002
sg4291
(lp4313
g4187
ag3995
ag3641
ag4098
ag4137
asg4293
F0.90000000000000002
sg4294
F0.11
sg4295
(lp4314
g4026
ag3786
ag4114
asg4297
F0.25
sg4298
F1
sg4299
(lp4315
g3729
asg4301
S'Politician'
p4316
sg4303
F0.089999999999999997
sg3630
S'Politician'
p4317
sg4305
F1
sg4306
(lp4318
g4082
asbasS'SecretAgent'
p4319
(lp4320
g1
(g10
g3
NtRp4321
(dp4322
g4281
F2
sg4282
F4
sg4283
F0.10000000000000001
sg4284
F4
sg4285
(lp4323
sg4287
F0
sg4288
F4
sg3623
g4319
sg4289
F18
sg4290
F0
sg4291
(lp4324
g4166
ag3950
asg4293
F0
sg4294
F0
sg4295
(lp4325
g4121
ag3926
asg4297
F0
sg4298
F2
sg4299
(lp4326
sg4301
S'SecretAgent'
p4327
sg4303
F0.050000000000000003
sg3630
S'Agent Kawalski'
p4328
sg4305
F3
sg4306
(lp4329
sbasS'Bumpkin001'
p4330
(lp4331
g1
(g10
g3
NtRp4332
(dp4333
g4281
F1
sg4282
F4
sg4283
F0.10000000000000001
sg4284
F1
sg4285
(lp4334
sg4287
F0.10000000000000001
sg4288
F1
sg3623
g4330
sg4289
F10
sg4290
F0.080000000000000002
sg4291
(lp4335
g4098
ag3808
asg4293
F0.90000000000000002
sg4294
F0.20000000000000001
sg4295
(lp4336
g3745
ag3872
asg4297
F0.25
sg4298
F1
sg4299
(lp4337
g3641
ag3995
ag3856
asg4301
S'Bumpkin'
p4338
sg4303
F0.050000000000000003
sg3630
S'Bumpkin'
p4339
sg4305
F1
sg4306
(lp4340
sbasS'WarVet001'
p4341
(lp4342
g1
(g10
g3
NtRp4343
(dp4344
g4281
F1
sg4282
F4
sg4283
F0.10000000000000001
sg4284
F1
sg4285
(lp4345
sg4287
F0.10000000000000001
sg4288
F1
sg3623
g4341
sg4289
F10
sg4290
F0.080000000000000002
sg4291
(lp4346
g4129
ag4137
asg4293
F0.90000000000000002
sg4294
F0.20000000000000001
sg4295
(lp4347
g4090
ag3974
asg4297
F0.25
sg4298
F1
sg4299
(lp4348
sg4301
S'WarVet'
p4349
sg4303
F0.050000000000000003
sg3630
S'War Veteran'
p4350
sg4305
F1
sg4306
(lp4351
sbasS'Receptionist001'
p4352
(lp4353
g1
(g10
g3
NtRp4354
(dp4355
g4281
F1
sg4282
F4
sg4283
F0.10000000000000001
sg4284
F1
sg4285
(lp4356
sg4287
F0.10000000000000001
sg4288
F1
sg3623
g4352
sg4289
F10
sg4290
F0.080000000000000002
sg4291
(lp4357
g4059
ag4003
asg4293
F0.90000000000000002
sg4294
F0.20000000000000001
sg4295
(lp4358
g4011
ag3716
asg4297
F0.25
sg4298
F0
sg4299
(lp4359
sg4301
S'Receptionist'
p4360
sg4303
F0.050000000000000003
sg3630
S'Receptionist'
p4361
sg4305
F1
sg4306
(lp4362
sbasS'DeepThroat'
p4363
(lp4364
g1
(g10
g3
NtRp4365
(dp4366
g4281
F1
sg4282
F4
sg4283
F0.10000000000000001
sg4284
F1
sg4285
(lp4367
g4098
asg4287
F0.10000000000000001
sg4288
F1
sg3623
g4363
sg4289
F12
sg4290
F0.080000000000000002
sg4291
(lp4368
g3995
ag4137
ag4129
asg4293
F0.90000000000000002
sg4294
F0.20000000000000001
sg4295
(lp4369
g3842
asg4297
F0.25
sg4298
F1
sg4299
(lp4370
sg4301
S'DeepThroat'
p4371
sg4303
F0.10000000000000001
sg3630
S'Mr Er...?'
p4372
sg4305
F1
sg4306
(lp4373
sbasS'Leo'
p4374
(lp4375
g1
(g10
g3
NtRp4376
(dp4377
g4281
F2
sg4282
F4
sg4283
F0.10000000000000001
sg4284
F4
sg4285
(lp4378
sg4287
F0
sg4288
F2
sg3623
g4374
sg4289
F14
sg4290
F0
sg4291
(lp4379
g4187
ag3995
ag3641
ag4098
ag3729
asg4293
F0
sg4294
F0
sg4295
(lp4380
g4026
ag3786
ag4082
ag3918
asg4297
F0
sg4298
F2
sg4299
(lp4381
sg4301
S'Theo'
p4382
sg4303
F0.050000000000000003
sg3630
S'Theo'
p4383
sg4305
F2
sg4306
(lp4384
sbasS'HippyGirl001'
p4385
(lp4386
g1
(g10
g3
NtRp4387
(dp4388
g4281
F1
sg4282
F4
sg4283
F0.10000000000000001
sg4284
F2
sg4285
(lp4389
sg4287
F0.089999999999999997
sg4288
F2
sg3623
g4385
sg4289
F10
sg4290
F0.080000000000000002
sg4291
(lp4390
g3737
ag3864
ag3934
asg4293
F0.90000000000000002
sg4294
F0.20000000000000001
sg4295
(lp4391
g3958
ag3974
ag4114
asg4297
F0.25
sg4298
F1
sg4299
(lp4392
g4098
asg4301
S'Hippy'
p4393
sg4303
F0.050000000000000003
sg3630
S'Hippy Girl'
p4394
sg4305
F1
sg4306
(lp4395
sbasS'President'
p4396
(lp4397
g1
(g10
g3
NtRp4398
(dp4399
g4281
F1
sg4282
F6
sg4283
F0.10000000000000001
sg4284
F1
sg4285
(lp4400
sg4287
F0.10000000000000001
sg4288
F2
sg3623
g4396
sg4289
F18
sg4290
F0.080000000000000002
sg4291
(lp4401
g4187
ag3995
ag3641
ag4098
ag4137
asg4293
F0.90000000000000002
sg4294
F0.20000000000000001
sg4295
(lp4402
g4026
ag3786
ag4114
asg4297
F0.29999999999999999
sg4298
F1
sg4299
(lp4403
sg4301
S'Politician'
p4404
sg4303
F0.070000000000000007
sg3630
S'President Allen'
p4405
sg4305
F1
sg4306
(lp4406
sbasS'Unionist001'
p4407
(lp4408
g1
(g10
g3
NtRp4409
(dp4410
g4281
F1
sg4282
F4
sg4283
F0.10000000000000001
sg4284
F1
sg4285
(lp4411
sg4287
F0.10000000000000001
sg4288
F1
sg3623
g4407
sg4289
F10
sg4290
F0.080000000000000002
sg4291
(lp4412
g4129
ag4137
ag3864
asg4293
F0.90000000000000002
sg4294
F0.20000000000000001
sg4295
(lp4413
g3987
asg4297
F0.25
sg4298
F1
sg4299
(lp4414
sg4301
S'Unionist'
p4415
sg4303
F0.050000000000000003
sg3630
S'Unionist'
p4416
sg4305
F1
sg4306
(lp4417
sbasS'Wife'
p4418
(lp4419
g1
(g10
g3
NtRp4420
(dp4421
g4281
F1
sg4282
F4
sg4283
F0.10000000000000001
sg4284
F3
sg4285
(lp4422
sg4287
F0
sg4288
F1
sg3623
g4418
sg4289
F12
sg4290
F0
sg4291
(lp4423
g4187
ag3641
ag4098
asg4293
F0
sg4294
F0
sg4295
(lp4424
g4174
ag4114
ag3794
asg4297
F0
sg4298
F1
sg4299
(lp4425
sg4301
S'Wife'
p4426
sg4303
F0.050000000000000003
sg3630
S'Sarah Mossman'
p4427
sg4305
F3
sg4306
(lp4428
sbasS'PresidentAlien'
p4429
(lp4430
g1
(g10
g3
NtRp4431
(dp4432
g4281
F1
sg4282
F6
sg4283
F0.10000000000000001
sg4284
F2
sg4285
(lp4433
sg4287
F0.10000000000000001
sg4288
F2
sg3623
g4429
sg4289
F30
sg4290
F0.080000000000000002
sg4291
(lp4434
g3995
ag3641
ag4137
asg4293
F0.90000000000000002
sg4294
F0.20000000000000001
sg4295
(lp4435
g3753
ag3703
ag4114
asg4297
F0.29999999999999999
sg4298
F1
sg4299
(lp4436
sg4301
S'Alien'
p4437
sg4303
F0.070000000000000007
sg3630
S'President Alien'
p4438
sg4305
F1
sg4306
(lp4439
sbasS'Governor'
p4440
(lp4441
g1
(g10
g3
NtRp4442
(dp4443
g4281
F1
sg4282
F4
sg4283
F0.10000000000000001
sg4284
F1
sg4285
(lp4444
sg4287
F0.10000000000000001
sg4288
F1
sg3623
g4440
sg4289
F18
sg4290
F0.080000000000000002
sg4291
(lp4445
g4187
ag3995
ag3641
ag4098
ag4137
asg4293
F0.90000000000000002
sg4294
F0.20000000000000001
sg4295
(lp4446
g4026
ag3786
ag4114
asg4297
F0.25
sg4298
F1
sg4299
(lp4447
sg4301
S'Politician'
p4448
sg4303
F0.050000000000000003
sg3630
g4440
sg4305
F1
sg4306
(lp4449
sbasS'Lobbyist001'
p4450
(lp4451
g1
(g10
g3
NtRp4452
(dp4453
g4281
F1
sg4282
F4
sg4283
F0.10000000000000001
sg4284
F1
sg4285
(lp4454
sg4287
F0.10000000000000001
sg4288
F1
sg3623
g4450
sg4289
F10
sg4290
F0.080000000000000002
sg4291
(lp4455
g3880
ag4129
asg4293
F0.90000000000000002
sg4294
F0.20000000000000001
sg4295
(lp4456
g4046
ag3842
asg4297
F0.25
sg4298
F1
sg4299
(lp4457
g4082
asg4301
S'Lobbyist'
p4458
sg4303
F0.050000000000000003
sg3630
S'Lobbyist'
p4459
sg4305
F1
sg4306
(lp4460
g3729
asbasS'Journalist001'
p4461
(lp4462
g1
(g10
g3
NtRp4463
(dp4464
g4281
F1
sg4282
F4
sg4283
F0.10000000000000001
sg4284
F1
sg4285
(lp4465
sg4287
F0.80000000000000004
sg4288
F1
sg3623
g4461
sg4289
F16
sg4290
F0.01
sg4291
(lp4466
g3687
ag4151
asg4293
F0.90000000000000002
sg4294
F0.20000000000000001
sg4295
(lp4467
g3942
ag3593
ag3663
asg4297
F0.34999999999999998
sg4298
F1
sg4299
(lp4468
sg4301
S'Journalist'
p4469
sg4303
F0.050000000000000003
sg3630
S'Journalist'
p4470
sg4305
F1
sg4306
(lp4471
sbasS'ReligiousNut001'
p4472
(lp4473
g1
(g10
g3
NtRp4474
(dp4475
g4281
F1
sg4282
F6
sg4283
F0.050000000000000003
sg4284
F3
sg4285
(lp4476
sg4287
F0.089999999999999997
sg4288
F1
sg3623
g4472
sg4289
F10
sg4290
F0.01
sg4291
(lp4477
g3671
ag4106
ag4137
asg4293
F0.050000000000000003
sg4294
F0.050000000000000003
sg4295
(lp4478
g4195
ag3829
asg4297
F0.25
sg4298
F1
sg4299
(lp4479
sg4301
S'Religious'
p4480
sg4303
F0.089999999999999997
sg3630
S'Religious Nut'
p4481
sg4305
F1
sg4306
(lp4482
g4098
asbasS'JointChief001'
p4483
(lp4484
g1
(g10
g3
NtRp4485
(dp4486
g4281
F2
sg4282
F6
sg4283
F0.10000000000000001
sg4284
F3
sg4285
(lp4487
sg4287
F0.10000000000000001
sg4288
F3
sg3623
g4483
sg4289
F18
sg4290
F0.080000000000000002
sg4291
(lp4488
g4129
ag4137
ag4166
ag3766
asg4293
F0.90000000000000002
sg4294
F0.20000000000000001
sg4295
(lp4489
g3926
asg4297
F0.25
sg4298
F2
sg4299
(lp4490
sg4301
S'JointChief'
p4491
sg4303
F0.050000000000000003
sg3630
S'Joint Chief'
p4492
sg4305
F3
sg4306
(lp4493
sbasS'Protester001'
p4494
(lp4495
g1
(g10
g3
NtRp4496
(dp4497
g4281
F0.5
sg4282
F4
sg4283
F0.050000000000000003
sg4284
F1
sg4285
(lp4498
g4098
asg4287
F0.10000000000000001
sg4288
F1
sg3623
g4494
sg4289
F8
sg4290
F0.01
sg4291
(lp4499
g3864
ag3679
ag3737
asg4293
F0.5
sg4294
F0.20000000000000001
sg4295
(lp4500
g3974
asg4297
F0.20000000000000001
sg4298
F1
sg4299
(lp4501
sg4301
S'Protestor'
p4502
sg4303
F0.5
sg3630
S'Protester'
p4503
sg4305
F1
sg4306
(lp4504
sbasS'TVPersonality001'
p4505
(lp4506
g1
(g10
g3
NtRp4507
(dp4508
g4281
F1
sg4282
F4
sg4283
F0.10000000000000001
sg4284
F1
sg4285
(lp4509
sg4287
F0.10000000000000001
sg4288
F1
sg3623
g4505
sg4289
F12
sg4290
F0.080000000000000002
sg4291
(lp4510
g4098
ag3687
asg4293
F0.90000000000000002
sg4294
F0.20000000000000001
sg4295
(lp4511
g3663
ag3655
asg4297
F0.25
sg4298
F1
sg4299
(lp4512
sg4301
S'TVPersonality'
p4513
sg4303
F0.050000000000000003
sg3630
S"Hecules O'Grady"
p4514
sg4305
F1
sg4306
(lp4515
g3918
asbasS'Player'
p4516
(lp4517
g1
(g10
g3
NtRp4518
(dp4519
g4281
F1
sg4282
F5
sg4283
F0.10000000000000001
sg4284
F1
sg4285
(lp4520
sg4287
F0.10000000000000001
sg4288
F1
sg3623
g4516
sg4289
F15
sg4290
F0.080000000000000002
sg4291
(lp4521
g4187
ag3641
ag4098
asg4293
F0.90000000000000002
sg4294
F0.20000000000000001
sg4295
(lp4522
g3786
asg4297
F0.25
sg4298
F1
sg4299
(lp4523
sg4301
S'Player'
p4524
sg4303
F0.20000000000000001
sg3630
S'Phillip Mossman'
p4525
sg4305
F2
sg4306
(lp4526
sbasS'Computer'
p4527
(lp4528
g1
(g10
g3
NtRp4529
(dp4530
g4281
F1
sg4282
F6
sg4283
F0.10000000000000001
sg4284
F6
sg4285
(lp4531
sg4287
F0.10000000000000001
sg4288
F6
sg3623
g4527
sg4289
F50
sg4290
F0.10000000000000001
sg4291
(lp4532
g4166
ag3695
ag4129
ag3995
ag3766
asg4293
F0.90000000000000002
sg4294
F0.20000000000000001
sg4295
(lp4533
g3926
ag3842
ag4159
asg4297
F0.5
sg4298
F1
sg4299
(lp4534
sg4301
S'Computer'
p4535
sg4303
F0.5
sg3630
S'N.O.T.B.A.D'
p4536
sg4305
F5
sg4306
(lp4537
sbasS'CabinetPolitician001'
p4538
(lp4539
g1
(g10
g3
NtRp4540
(dp4541
g4281
F1
sg4282
F5
sg4283
F0.10000000000000001
sg4284
F2
sg4285
(lp4542
sg4287
F0.10000000000000001
sg4288
F2
sg3623
g4538
sg4289
F18
sg4290
F0.080000000000000002
sg4291
(lp4543
g4187
ag3995
ag3641
ag4098
ag4137
asg4293
F0.90000000000000002
sg4294
F0.20000000000000001
sg4295
(lp4544
g4026
ag3786
ag4114
asg4297
F0.25
sg4298
F2
sg4299
(lp4545
sg4301
S'Politician'
p4546
sg4303
F0.050000000000000003
sg3630
S'Cabinet Politician'
p4547
sg4305
F1
sg4306
(lp4548
sbasS'Constituent001'
p4549
(lp4550
g1
(g10
g3
NtRp4551
(dp4552
g4281
F1
sg4282
F4
sg4283
F0.10000000000000001
sg4284
F1
sg4285
(lp4553
sg4287
F0.80000000000000004
sg4288
F1
sg3623
g4549
sg4289
F10
sg4290
F0.10000000000000001
sg4291
(lp4554
g3864
ag3880
ag4129
asg4293
F0.90000000000000002
sg4294
F0.20000000000000001
sg4295
(lp4555
g4114
asg4297
F0.25
sg4298
F1
sg4299
(lp4556
sg4301
S'Constituent'
p4557
sg4303
F0.050000000000000003
sg3630
S'Constituent'
p4558
sg4305
F2
sg4306
(lp4559
sbasS'Mayor'
p4560
(lp4561
g1
(g10
g3
NtRp4562
(dp4563
g4281
F1
sg4282
F4
sg4283
F0.10000000000000001
sg4284
F1
sg4285
(lp4564
sg4287
F0.10000000000000001
sg4288
F1
sg3623
g4560
sg4289
F12
sg4290
F0.080000000000000002
sg4291
(lp4565
g4187
ag3995
ag3641
ag4098
ag4137
asg4293
F0.90000000000000002
sg4294
F0.20000000000000001
sg4295
(lp4566
g4026
ag3786
ag4114
asg4297
F0.25
sg4298
F1
sg4299
(lp4567
sg4301
S'Politician'
p4568
sg4303
F0.050000000000000003
sg3630
S'Mayor Goodman'
p4569
sg4305
F1
sg4306
(lp4570
sbassS'quest_items'
p4571
(dp4572
S'SOUTHWINGDOORKEY'
p4573
g1
(g10
g3
NtRp4574
(dp4575
g3597
S'It looks old.'
p4576
sg3623
g4573
sg3630
S'Key to the South Wing'
p4577
sbsS'NOTBADKEY'
p4578
g1
(g10
g3
NtRp4579
(dp4580
g3597
S'The key is imprinted with the seal of the President.'
p4581
sg3623
g4578
sg3630
S'Key to the Situation Room'
p4582
sbsS'BILLOFRIGHTS'
p4583
g1
(g10
g3
NtRp4584
(dp4585
g3597
S''
sg3623
g4583
sg3630
S"Citizens' Bill of Rights"
p4586
sbsS'PEN'
p4587
g1
(g10
g3
NtRp4588
(dp4589
g3597
S'Ink flows freely... into your shirt pocket.'
p4590
sg3623
g4587
sg3630
S'A pen'
p4591
sbsS'INCRIMINATINGEVIDENCE'
p4592
g1
(g10
g3
NtRp4593
(dp4594
g3597
S'Very incriminating proof that something troubling is going on in the White House.'
p4595
sg3623
g4592
sg3630
S'Incriminating Evidence'
p4596
sbsS'WARVETROOMKEY'
p4597
g1
(g10
g3
NtRp4598
(dp4599
g3597
S'The key is imprinted with the seal of the President.'
p4600
sg3623
g4597
sg3630
S'Key to the West Room'
p4601
sbsS'CABINETROOMKEY'
p4602
g1
(g10
g3
NtRp4603
(dp4604
g3597
S'The key is imprinted with the seal of the President.'
p4605
sg3623
g4602
sg3630
S'Key to the Cabinet Room'
p4606
sbsS'TEACHERROOMKEY'
p4607
g1
(g10
g3
NtRp4608
(dp4609
g3597
S'The key is imprinted with the seal of the President.'
p4610
sg3623
g4607
sg3630
S'Key to the East Room'
p4611
sbssg4291
(dp4612
S'Theo'
p4613
(lp4614
g4187
ag3995
ag3641
ag4098
ag3729
ag4026
ag3786
ag4082
ag3918
asS'JointChief'
p4615
(lp4616
g4129
ag4137
ag4166
ag3926
ag3766
asS'Politician'
p4617
(lp4618
g4187
ag3995
ag3641
ag4098
ag4026
ag3786
ag4114
ag4137
asS'Bumpkin'
p4619
(lp4620
g4098
ag3745
ag3872
ag3808
asS'Wife'
p4621
(lp4622
g4187
ag3641
ag4098
ag4174
ag4114
ag3794
asS'Lobbyist'
p4623
(lp4624
g3880
ag4046
ag3842
ag4129
asS'DeepThroat'
p4625
(lp4626
g3995
ag4137
ag3842
ag4129
asS'Protestor'
p4627
(lp4628
g3974
ag3864
ag3679
ag3737
asS'SecretAgent'
p4629
(lp4630
g4121
ag4166
ag3926
ag3950
asS'Teacher'
p4631
(lp4632
g3987
ag4137
ag3864
ag3974
asS'Alien'
p4633
(lp4634
g3995
ag3641
ag3753
ag3703
ag4114
ag4137
asS'Player'
p4635
(lp4636
g4187
ag3641
ag4098
ag3786
asS'Computer'
p4637
(lp4638
g3926
ag4166
ag3695
ag3842
ag4129
ag3995
ag3766
ag4159
asS'Receptionist'
p4639
(lp4640
g4059
ag4003
ag4011
ag3716
asS'Hippy'
p4641
(lp4642
g3737
ag3864
ag3934
ag3958
ag3974
ag4114
asS'Constituent'
p4643
(lp4644
g3864
ag4114
ag3880
ag4129
asS'TVPersonality'
p4645
(lp4646
g4098
ag3663
ag3687
ag3655
asS'WarVet'
p4647
(lp4648
g4129
ag4137
ag4090
ag3974
asS'Religious'
p4649
(lp4650
g3671
ag4195
ag3829
ag4106
ag4137
asS'Unionist'
p4651
(lp4652
g4129
ag4137
ag3864
ag3987
asS'Journalist'
p4653
(lp4654
g3687
ag4151
ag3942
ag3593
ag3663
assS'shops'
p4655
(dp4656
S'SHOP1'
p4657
(lp4658
g1
(g10
g3
NtRp4659
(dp4660
S'price'
p4661
F20
sS'shop_id'
p4662
g4657
sS'item_attack'
p4663
g3816
sbag1
(g10
g3
NtRp4664
(dp4665
g4661
F20
sg4662
S'SHOP1'
p4666
sg4663
g4034
sbasS'SHOP2P2'
p4667
(lp4668
g1
(g10
g3
NtRp4669
(dp4670
g4661
F20
sg4662
g4667
sg4663
g3816
sbag1
(g10
g3
NtRp4671
(dp4672
g4661
F20
sg4662
S'SHOP2P2'
p4673
sg4663
g3966
sbag1
(g10
g3
NtRp4674
(dp4675
g4661
F20
sg4662
S'SHOP2P2'
p4676
sg4663
g4034
sbag1
(g10
g3
NtRp4677
(dp4678
g4661
F50
sg4662
S'SHOP2P2'
p4679
sg4663
g3888
sbag1
(g10
g3
NtRp4680
(dp4681
g4661
F40
sg4662
S'SHOP2P2'
p4682
sg4663
g3774
sbasS'SHOP2'
p4683
(lp4684
g1
(g10
g3
NtRp4685
(dp4686
g4661
F20
sg4662
g4683
sg4663
g3816
sbag1
(g10
g3
NtRp4687
(dp4688
g4661
F20
sg4662
S'SHOP2'
p4689
sg4663
g4034
sbag1
(g10
g3
NtRp4690
(dp4691
g4661
F50
sg4662
S'SHOP2'
p4692
sg4663
g3888
sbag1
(g10
g3
NtRp4693
(dp4694
g4661
F40
sg4662
S'SHOP2'
p4695
sg4663
g3774
sbasS'SHOP3'
p4696
(lp4697
g1
(g10
g3
NtRp4698
(dp4699
g4661
F20
sg4662
g4696
sg4663
g3816
sbag1
(g10
g3
NtRp4700
(dp4701
g4661
F20
sg4662
S'SHOP3'
p4702
sg4663
g4034
sbag1
(g10
g3
NtRp4703
(dp4704
g4661
F50
sg4662
S'SHOP3'
p4705
sg4663
g3888
sbag1
(g10
g3
NtRp4706
(dp4707
g4661
F40
sg4662
S'SHOP3'
p4708
sg4663
g3774
sbag1
(g10
g3
NtRp4709
(dp4710
g4661
F70
sg4662
S'SHOP3'
p4711
sg4663
g3899
sbasS'SHOP3P2'
p4712
(lp4713
g1
(g10
g3
NtRp4714
(dp4715
g4661
F20
sg4662
g4712
sg4663
g3816
sbag1
(g10
g3
NtRp4716
(dp4717
g4661
F20
sg4662
S'SHOP3P2'
p4718
sg4663
g4034
sbag1
(g10
g3
NtRp4719
(dp4720
g4661
F50
sg4662
S'SHOP3P2'
p4721
sg4663
g3888
sbag1
(g10
g3
NtRp4722
(dp4723
g4661
F40
sg4662
S'SHOP3P2'
p4724
sg4663
g3774
sbag1
(g10
g3
NtRp4725
(dp4726
g4661
F70
sg4662
S'SHOP3P2'
p4727
sg4663
g3899
sbag1
(g10
g3
NtRp4728
(dp4729
g4661
F100
sg4662
S'SHOP3P2'
p4730
sg4663
g3906
sbassS'encounters'
p4731
(dp4732
S'P-hard-14'
p4733
g1
(g10
g3
NtRp4734
(dp4735
S'item_attack_drops'
p4736
(lp4737
sS'item_attacks'
p4738
(lp4739
sg3630
S''
sS'money'
p4740
F100
sg4209
F400
sS'monster2_lvl'
p4741
F7
sS'bribe_cost'
p4742
F200
sS'monster3'
p4743
S'Computer'
p4744
sS'monster1_lvl'
p4745
F7
sS'monster3_lvl'
p4746
F7
sS'monster4_lvl'
p4747
S''
sS'monster4'
p4748
S''
sS'monster2'
p4749
S'Computer'
p4750
sg3623
g4733
sS'monster1'
p4751
S'Computer'
p4752
sbsS'P-hard-11'
p4753
g1
(g10
g3
NtRp4754
(dp4755
g4736
(lp4756
sg4738
(lp4757
sg3630
S''
sg4740
F100
sg4209
F270
sg4741
F7
sg4742
F150
sg4743
S'JointChief001'
p4758
sg4745
F7
sg4746
F7
sg4747
S''
sg4748
S''
sg4749
S'JointChief001'
p4759
sg3623
g4753
sg4751
S'JointChief001'
p4760
sbsS'P-hard-10'
p4761
g1
(g10
g3
NtRp4762
(dp4763
g4736
(lp4764
sg4738
(lp4765
sg3630
S''
sg4740
F100
sg4209
F360
sg4741
F7
sg4742
F120
sg4743
S'CabinetPolitician001'
p4766
sg4745
F7
sg4746
F7
sg4747
F7
sg4748
S'CabinetPolitician001'
p4767
sg4749
S'CabinetPolitician001'
p4768
sg3623
g4761
sg4751
S'CabinetPolitician001'
p4769
sbsS'P-hard-13'
p4770
g1
(g10
g3
NtRp4771
(dp4772
g4736
(lp4773
sg4738
(lp4774
sg3630
S''
sg4740
F100
sg4209
F360
sg4741
F7
sg4742
F150
sg4743
S'JointChief001'
p4775
sg4745
F7
sg4746
F7
sg4747
F7
sg4748
S'JointChief001'
p4776
sg4749
S'JointChief001'
p4777
sg3623
g4770
sg4751
S'JointChief001'
p4778
sbsS'P-hard-12'
p4779
g1
(g10
g3
NtRp4780
(dp4781
g4736
(lp4782
sg4738
(lp4783
sg3630
S''
sg4740
F100
sg4209
F270
sg4741
F7
sg4742
F150
sg4743
S'JointChief001'
p4784
sg4745
F7
sg4746
F7
sg4747
S''
sg4748
S''
sg4749
S'JointChief001'
p4785
sg3623
g4779
sg4751
S'JointChief001'
p4786
sbsS'P-easy-05'
p4787
g1
(g10
g3
NtRp4788
(dp4789
g4736
(lp4790
g1
(c__main__
ItemAttack
p4791
g3
NtRp4792
(dp4793
S'attack'
p4794
g3966
sS'quantity'
p4795
I1
sbasg4738
(lp4796
sg3630
S''
sg4740
F0
sg4209
F20
sg4741
S''
sg4742
F20
sg4743
S''
sg4745
F2
sg4746
S''
sg4747
S''
sg4748
S''
sg4749
S''
sg3623
g4787
sg4751
S'Journalist001'
p4797
sbsS'P-easy-04'
p4798
g1
(g10
g3
NtRp4799
(dp4800
g4736
(lp4801
g1
(g4791
g3
NtRp4802
(dp4803
g4794
g3816
sg4795
I1
sbasg4738
(lp4804
sg3630
S''
sg4740
F0
sg4209
F30
sg4741
F1
sg4742
F20
sg4743
S''
sg4745
F1
sg4746
S''
sg4747
S''
sg4748
S''
sg4749
S'Protester001'
p4805
sg3623
g4798
sg4751
S'Protester001'
p4806
sbsS'P-easy-07'
p4807
g1
(g10
g3
NtRp4808
(dp4809
g4736
(lp4810
g1
(g4791
g3
NtRp4811
(dp4812
g4794
g3816
sg4795
I1
sbasg4738
(lp4813
sg3630
S''
sg4740
F15
sg4209
F40
sg4741
F2
sg4742
F20
sg4743
S''
sg4745
F2
sg4746
S''
sg4747
S''
sg4748
S''
sg4749
S'Protester001'
p4814
sg3623
g4807
sg4751
S'Constituent001'
p4815
sbsS'P-easy-06'
p4816
g1
(g10
g3
NtRp4817
(dp4818
g4736
(lp4819
g1
(g4791
g3
NtRp4820
(dp4821
g4794
g3888
sg4795
I1
sbasg4738
(lp4822
sg3630
S''
sg4740
F0
sg4209
F40
sg4741
F2
sg4742
F20
sg4743
S''
sg4745
F2
sg4746
S''
sg4747
S''
sg4748
S''
sg4749
S'Lobbyist001'
p4823
sg3623
g4816
sg4751
S'Lobbyist001'
p4824
sbsS'P-easy-01'
p4825
g1
(g10
g3
NtRp4826
(dp4827
g4736
(lp4828
g1
(g4791
g3
NtRp4829
(dp4830
g4794
g4034
sg4795
I1
sbasg4738
(lp4831
g1
(g4791
g3
NtRp4832
(dp4833
g4794
g3966
sg4795
I1
sbasg3630
S'The quest for pen'
p4834
sg4740
F0
sg4209
F10
sg4741
S''
sg4742
F20
sg4743
S''
sg4745
F1
sg4746
S''
sg4747
S''
sg4748
S''
sg4749
S''
sg3623
g4825
sg4751
S'Receptionist001'
p4835
sbsS'P-easy-03'
p4836
g1
(g10
g3
NtRp4837
(dp4838
g4736
(lp4839
g1
(g4791
g3
NtRp4840
(dp4841
g4794
g4034
sg4795
I1
sbasg4738
(lp4842
g1
(g4791
g3
NtRp4843
(dp4844
g4794
g3966
sg4795
I1
sbasg3630
S''
sg4740
F0
sg4209
F30
sg4741
F1
sg4742
F20
sg4743
S''
sg4745
F1
sg4746
S''
sg4747
S''
sg4748
S''
sg4749
S'Protester001'
p4845
sg3623
g4836
sg4751
S'Protester001'
p4846
sbsS'P-easy-02'
p4847
g1
(g10
g3
NtRp4848
(dp4849
g4736
(lp4850
sg4738
(lp4851
sg3630
S''
sg4740
F0
sg4209
F30
sg4741
F1
sg4742
F20
sg4743
S''
sg4745
F1
sg4746
S''
sg4747
S''
sg4748
S''
sg4749
S'Protester001'
p4852
sg3623
g4847
sg4751
S'Protester001'
p4853
sbsS'P-easy-09'
p4854
g1
(g10
g3
NtRp4855
(dp4856
g4736
(lp4857
g1
(g4791
g3
NtRp4858
(dp4859
g4794
g4034
sg4795
I1
sbasg4738
(lp4860
sg3630
S''
sg4740
F15
sg4209
F60
sg4741
F2
sg4742
F20
sg4743
S''
sg4745
F2
sg4746
S''
sg4747
S''
sg4748
S''
sg4749
S'Constituent001'
p4861
sg3623
g4854
sg4751
S'Constituent001'
p4862
sbsS'P-easy-08'
p4863
g1
(g10
g3
NtRp4864
(dp4865
g4736
(lp4866
sg4738
(lp4867
sg3630
S''
sg4740
F15
sg4209
F40
sg4741
F2
sg4742
F20
sg4743
S'Constituent001'
p4868
sg4745
F2
sg4746
F2
sg4747
S''
sg4748
S''
sg4749
S'Constituent001'
p4869
sg3623
g4863
sg4751
S'Protester001'
p4870
sbsS'P-hard-08'
p4871
g1
(g10
g3
NtRp4872
(dp4873
g4736
(lp4874
sg4738
(lp4875
sg3630
S''
sg4740
F100
sg4209
F270
sg4741
F7
sg4742
F120
sg4743
S'CabinetPolitician001'
p4876
sg4745
F7
sg4746
F7
sg4747
S''
sg4748
S''
sg4749
S'CabinetPolitician001'
p4877
sg3623
g4871
sg4751
S'CabinetPolitician001'
p4878
sbsS'P-hard-09'
p4879
g1
(g10
g3
NtRp4880
(dp4881
g4736
(lp4882
sg4738
(lp4883
sg3630
S''
sg4740
F100
sg4209
F360
sg4741
F7
sg4742
F120
sg4743
S'CabinetPolitician001'
p4884
sg4745
F7
sg4746
F7
sg4747
F7
sg4748
S'CabinetPolitician001'
p4885
sg4749
S'CabinetPolitician001'
p4886
sg3623
g4879
sg4751
S'CabinetPolitician001'
p4887
sbsS'P-med-08'
p4888
g1
(g10
g3
NtRp4889
(dp4890
g4736
(lp4891
g1
(g4791
g3
NtRp4892
(dp4893
g4794
g3774
sg4795
I1
sbasg4738
(lp4894
sg3630
S''
sg4740
F0
sg4209
F180
sg4741
F4
sg4742
F60
sg4743
S'Politician001'
p4895
sg4745
F4
sg4746
F4
sg4747
S''
sg4748
S''
sg4749
S'Politician001'
p4896
sg3623
g4888
sg4751
S'Protester001'
p4897
sbsS'P-med-09'
p4898
g1
(g10
g3
NtRp4899
(dp4900
g4736
(lp4901
sg4738
(lp4902
sg3630
S''
sg4740
F50
sg4209
F180
sg4741
F4
sg4742
F60
sg4743
S'Politician001'
p4903
sg4745
F4
sg4746
F4
sg4747
S''
sg4748
S''
sg4749
S'ReligiousNut001'
p4904
sg3623
g4898
sg4751
S'Politician001'
p4905
sbsS'P-med-02'
p4906
g1
(g10
g3
NtRp4907
(dp4908
g4736
(lp4909
g1
(g4791
g3
NtRp4910
(dp4911
g4794
g3774
sg4795
I1
sbasg4738
(lp4912
g1
(g4791
g3
NtRp4913
(dp4914
g4794
g3633
sg4795
I1
sbasg3630
S''
sg4740
F25
sg4209
F90
sg4741
F3
sg4742
F40
sg4743
S''
sg4745
F3
sg4746
S''
sg4747
S''
sg4748
S''
sg4749
S'Politician001'
p4915
sg3623
g4906
sg4751
S'Politician001'
p4916
sbsS'P-med-03'
p4917
g1
(g10
g3
NtRp4918
(dp4919
g4736
(lp4920
sg4738
(lp4921
g1
(g4791
g3
NtRp4922
(dp4923
g4794
g3633
sg4795
I1
sbasg3630
S''
sg4740
F25
sg4209
F90
sg4741
F3
sg4742
F40
sg4743
S''
sg4745
F3
sg4746
S''
sg4747
S''
sg4748
S''
sg4749
S'Bumpkin001'
p4924
sg3623
g4917
sg4751
S'Bumpkin001'
p4925
sbsS'P-med-01'
p4926
g1
(g10
g3
NtRp4927
(dp4928
g4736
(lp4929
sg4738
(lp4930
sg3630
S''
sg4740
F30
sg4209
F90
sg4741
F3
sg4742
F40
sg4743
S''
sg4745
F3
sg4746
S''
sg4747
S''
sg4748
S''
sg4749
S'Politician001'
p4931
sg3623
g4926
sg4751
S'Politician001'
p4932
sbsS'P-med-06'
p4933
g1
(g10
g3
NtRp4934
(dp4935
g4736
(lp4936
sg4738
(lp4937
sg3630
S''
sg4740
F50
sg4209
F220
sg4741
F5
sg4742
F70
sg4743
S'Politician001'
p4938
sg4745
F4
sg4746
F4
sg4747
S''
sg4748
S''
sg4749
S'Governor'
p4939
sg3623
g4933
sg4751
S'Politician001'
p4940
sbsS'P-med-07'
p4941
g1
(g10
g3
NtRp4942
(dp4943
g4736
(lp4944
sg4738
(lp4945
sg3630
S''
sg4740
F0
sg4209
F120
sg4741
F5
sg4742
F60
sg4743
S''
sg4745
F5
sg4746
S''
sg4747
S''
sg4748
S''
sg4749
S'Journalist001'
p4946
sg3623
g4941
sg4751
S'Politician001'
p4947
sbsS'P-med-04'
p4948
g1
(g10
g3
NtRp4949
(dp4950
g4736
(lp4951
sg4738
(lp4952
sg3630
S''
sg4740
F30
sg4209
F135
sg4741
F3
sg4742
F40
sg4743
S'Protester001'
p4953
sg4745
F3
sg4746
F3
sg4747
S''
sg4748
S''
sg4749
S'Bumpkin001'
p4954
sg3623
g4948
sg4751
S'HippyGirl001'
p4955
sbsS'P-med-05'
p4956
g1
(g10
g3
NtRp4957
(dp4958
g4736
(lp4959
sg4738
(lp4960
sg3630
S''
sg4740
F30
sg4209
F135
sg4741
F3
sg4742
F40
sg4743
S'Politician001'
p4961
sg4745
F3
sg4746
F3
sg4747
S''
sg4748
S''
sg4749
S'Journalist001'
p4962
sg3623
g4956
sg4751
S'Journalist001'
p4963
sbsS'P-med-24'
p4964
g1
(g10
g3
NtRp4965
(dp4966
g4736
(lp4967
sg4738
(lp4968
sg3630
S''
sg4740
F70
sg4209
F800
sg4741
F9
sg4742
F100
sg4743
S'Politician001'
p4969
sg4745
F7
sg4746
F7
sg4747
S''
sg4748
S''
sg4749
S'PresidentAlien'
p4970
sg3623
g4964
sg4751
S'Politician001'
p4971
sbsS'P-med-20'
p4972
g1
(g10
g3
NtRp4973
(dp4974
g4736
(lp4975
sg4738
(lp4976
sg3630
S''
sg4740
F80
sg4209
F225
sg4741
F5
sg4742
F100
sg4743
S'Journalist001'
p4977
sg4745
F5
sg4746
F5
sg4747
S''
sg4748
S''
sg4749
S'TVPersonality001'
p4978
sg3623
g4972
sg4751
S'Journalist001'
p4979
sbsS'P-med-21'
p4980
g1
(g10
g3
NtRp4981
(dp4982
g4736
(lp4983
sg4738
(lp4984
sg3630
S''
sg4740
F80
sg4209
F300
sg4741
F7
sg4742
F100
sg4743
S'Politician001'
p4985
sg4745
F6
sg4746
F6
sg4747
S''
sg4748
S''
sg4749
S'President'
p4986
sg3623
g4980
sg4751
S'Politician001'
p4987
sbsS'P-med-22'
p4988
g1
(g10
g3
NtRp4989
(dp4990
g4736
(lp4991
sg4738
(lp4992
sg3630
S''
sg4740
F70
sg4209
F180
sg4741
F6
sg4742
F80
sg4743
S''
sg4745
F6
sg4746
S''
sg4747
S''
sg4748
S''
sg4749
S'DeepThroat'
p4993
sg3623
g4988
sg4751
S'DeepThroat'
p4994
sbsS'P-med-23'
p4995
g1
(g10
g3
NtRp4996
(dp4997
g4736
(lp4998
g1
(g4791
g3
NtRp4999
(dp5000
g4794
g3774
sg4795
I1
sbasg4738
(lp5001
sg3630
S''
sg4740
F80
sg4209
F0
sg4741
F8
sg4742
F100
sg4743
S'Politician001'
p5002
sg4745
F6
sg4746
F6
sg4747
F6
sg4748
S'Politician001'
p5003
sg4749
S'President'
p5004
sg3623
g4995
sg4751
S'Politician001'
p5005
sbsS'P-hard-06'
p5006
g1
(g10
g3
NtRp5007
(dp5008
g4736
(lp5009
sg4738
(lp5010
sg3630
S''
sg4740
F70
sg4209
F270
sg4741
F7
sg4742
F90
sg4743
S'Teacher001'
p5011
sg4745
F7
sg4746
F7
sg4747
S''
sg4748
S''
sg4749
S'Teacher001'
p5012
sg3623
g5006
sg4751
S'Teacher001'
p5013
sbsS'P-hard-07'
p5014
g1
(g10
g3
NtRp5015
(dp5016
g4736
(lp5017
g1
(g4791
g3
NtRp5018
(dp5019
g4794
g3888
sg4795
I1
sbasg4738
(lp5020
sg3630
S''
sg4740
F0
sg4209
F360
sg4741
F7
sg4742
F90
sg4743
S'Teacher001'
p5021
sg4745
F7
sg4746
F7
sg4747
F7
sg4748
S'Teacher001'
p5022
sg4749
S'Teacher001'
p5023
sg3623
g5014
sg4751
S'Teacher001'
p5024
sbsS'P-hard-04'
p5025
g1
(g10
g3
NtRp5026
(dp5027
g4736
(lp5028
sg4738
(lp5029
sg3630
S''
sg4740
F0
sg4209
F270
sg4741
F6
sg4742
F90
sg4743
S'WarVet001'
p5030
sg4745
F6
sg4746
F6
sg4747
S''
sg4748
S''
sg4749
S'WarVet001'
p5031
sg3623
g5025
sg4751
S'WarVet001'
p5032
sbsS'P-hard-05'
p5033
g1
(g10
g3
NtRp5034
(dp5035
g4736
(lp5036
sg4738
(lp5037
sg3630
S''
sg4740
F0
sg4209
F360
sg4741
F6
sg4742
F90
sg4743
S'WarVet001'
p5038
sg4745
F6
sg4746
F6
sg4747
F6
sg4748
S'WarVet001'
p5039
sg4749
S'WarVet001'
p5040
sg3623
g5033
sg4751
S'WarVet001'
p5041
sbsS'P-hard-02'
p5042
g1
(g10
g3
NtRp5043
(dp5044
g4736
(lp5045
sg4738
(lp5046
sg3630
S''
sg4740
F70
sg4209
F270
sg4741
F6
sg4742
F80
sg4743
S'Journalist001'
p5047
sg4745
F6
sg4746
F6
sg4747
S''
sg4748
S''
sg4749
S'TVPersonality001'
p5048
sg3623
g5042
sg4751
S'Journalist001'
p5049
sbsS'P-hard-03'
p5050
g1
(g10
g3
NtRp5051
(dp5052
g4736
(lp5053
g1
(g4791
g3
NtRp5054
(dp5055
g4794
g3774
sg4795
I1
sbasg4738
(lp5056
sg3630
S''
sg4740
F0
sg4209
F270
sg4741
F6
sg4742
F80
sg4743
S'Journalist001'
p5057
sg4745
F6
sg4746
F6
sg4747
S''
sg4748
S''
sg4749
S'Journalist001'
p5058
sg3623
g5050
sg4751
S'TVPersonality001'
p5059
sbsS'P-hard-01'
p5060
g1
(g10
g3
NtRp5061
(dp5062
g4736
(lp5063
sg4738
(lp5064
sg3630
S''
sg4740
F0
sg4209
F270
sg4741
F6
sg4742
F80
sg4743
S'Journalist001'
p5065
sg4745
F6
sg4746
F6
sg4747
S''
sg4748
S''
sg4749
S'Journalist001'
p5066
sg3623
g5060
sg4751
S'Journalist001'
p5067
sbsS'P-easy-10'
p5068
g1
(g10
g3
NtRp5069
(dp5070
g4736
(lp5071
sg4738
(lp5072
sg3630
S''
sg4740
F40
sg4209
F80
sg4741
F3
sg4742
F50
sg4743
S'Politician001'
p5073
sg4745
F2
sg4746
F3
sg4747
S''
sg4748
S''
sg4749
S'Mayor'
p5074
sg3623
g5068
sg4751
S'Politician001'
p5075
sbsS'P-med-19'
p5076
g1
(g10
g3
NtRp5077
(dp5078
g4736
(lp5079
g1
(g4791
g3
NtRp5080
(dp5081
g4794
g3888
sg4795
I1
sbasg4738
(lp5082
sg3630
S''
sg4740
F80
sg4209
F150
sg4741
F5
sg4742
F100
sg4743
S''
sg4745
F5
sg4746
S''
sg4747
S''
sg4748
S''
sg4749
S'DeepThroat'
p5083
sg3623
g5076
sg4751
S'DeepThroat'
p5084
sbsS'P-med-18'
p5085
g1
(g10
g3
NtRp5086
(dp5087
g4736
(lp5088
sg4738
(lp5089
sg3630
S''
sg4740
F70
sg4209
F300
sg4741
F5
sg4742
F60
sg4743
S'ReligiousNut001'
p5090
sg4745
F5
sg4746
F5
sg4747
F5
sg4748
S'ReligiousNut001'
p5091
sg4749
S'Constituent001'
p5092
sg3623
g5085
sg4751
S'HippyGirl001'
p5093
sbsS'P-med-15'
p5094
g1
(g10
g3
NtRp5095
(dp5096
g4736
(lp5097
g1
(g4791
g3
NtRp5098
(dp5099
g4794
g3888
sg4795
I1
sbasg4738
(lp5100
sg3630
S''
sg4740
F0
sg4209
F180
sg4741
F6
sg4742
F60
sg4743
S''
sg4745
F5
sg4746
S''
sg4747
S''
sg4748
S''
sg4749
S'ReligiousNut001'
p5101
sg3623
g5094
sg4751
S'ReligiousNut001'
p5102
sbsS'P-med-14'
p5103
g1
(g10
g3
NtRp5104
(dp5105
g4736
(lp5106
sg4738
(lp5107
sg3630
S''
sg4740
F0
sg4209
F240
sg4741
F4
sg4742
F60
sg4743
S'Constituent001'
p5108
sg4745
F4
sg4746
F4
sg4747
F5
sg4748
S'Lobbyist001'
p5109
sg4749
S'Lobbyist001'
p5110
sg3623
g5103
sg4751
S'Constituent001'
p5111
sbsS'P-med-17'
p5112
g1
(g10
g3
NtRp5113
(dp5114
g4736
(lp5115
sg4738
(lp5116
sg3630
S''
sg4740
F70
sg4209
F225
sg4741
F5
sg4742
F60
sg4743
S'ReligiousNut001'
p5117
sg4745
F5
sg4746
F5
sg4747
S''
sg4748
S''
sg4749
S'HippyGirl001'
p5118
sg3623
g5112
sg4751
S'ReligiousNut001'
p5119
sbsS'P-med-16'
p5120
g1
(g10
g3
NtRp5121
(dp5122
g4736
(lp5123
sg4738
(lp5124
sg3630
S''
sg4740
F0
sg4209
F225
sg4741
F5
sg4742
F60
sg4743
S'HippyGirl001'
p5125
sg4745
F5
sg4746
F5
sg4747
S''
sg4748
S''
sg4749
S'ReligiousNut001'
p5126
sg3623
g5120
sg4751
S'ReligiousNut001'
p5127
sbsS'P-med-11'
p5128
g1
(g10
g3
NtRp5129
(dp5130
g4736
(lp5131
g1
(g4791
g3
NtRp5132
(dp5133
g4794
g4034
sg4795
I1
sbasg4738
(lp5134
sg3630
S''
sg4740
F0
sg4209
F240
sg4741
F4
sg4742
F60
sg4743
S'Constituent001'
p5135
sg4745
F4
sg4746
F4
sg4747
F5
sg4748
S'Politician001'
p5136
sg4749
S'Politician001'
p5137
sg3623
g5128
sg4751
S'Constituent001'
p5138
sbsS'P-med-10'
p5139
g1
(g10
g3
NtRp5140
(dp5141
g4736
(lp5142
sg4738
(lp5143
sg3630
S''
sg4740
F0
sg4209
F180
sg4741
F4
sg4742
F60
sg4743
S'ReligiousNut001'
p5144
sg4745
F4
sg4746
F4
sg4747
S''
sg4748
S''
sg4749
S'Politician001'
p5145
sg3623
g5139
sg4751
S'Politician001'
p5146
sbsS'P-med-13'
p5147
g1
(g10
g3
NtRp5148
(dp5149
g4736
(lp5150
sg4738
(lp5151
sg3630
S''
sg4740
F50
sg4209
F180
sg4741
F4
sg4742
F60
sg4743
S'Lobbyist001'
p5152
sg4745
F4
sg4746
F4
sg4747
S''
sg4748
S''
sg4749
S'Constituent001'
p5153
sg3623
g5147
sg4751
S'Lobbyist001'
p5154
sbsS'P-med-12'
p5155
g1
(g10
g3
NtRp5156
(dp5157
g4736
(lp5158
sg4738
(lp5159
sg3630
S''
sg4740
F0
sg4209
F180
sg4741
F4
sg4742
F60
sg4743
S'Lobbyist001'
p5160
sg4745
F4
sg4746
F4
sg4747
S''
sg4748
S''
sg4749
S'Lobbyist001'
p5161
sg3623
g5155
sg4751
S'HippyGirl001'
p5162
sbssb.