ccopy_reg
_reconstructor
p1
(c__main__
GameData
p2
c__builtin__
object
p3
NtRp4
(dp5
S'script'
p6
(dp7
S'StairsToWhiteHouse'
p8
(lp9
g1
(c__main__
TableRow
p10
g3
NtRp11
(dp12
S'action'
p13
S'Label'
p14
sS'trigger'
p15
g8
sS'param'
p16
S'START'
p17
sS'dialog'
p18
S''
sbag1
(g10
g3
NtRp19
(dp20
g13
S'PlayerSay'
p21
sg15
S'StairsToWhiteHouse'
p22
sg16
S''
sg18
S"I can't go upstairs now, I have a job to do!"
p23
sbag1
(g10
g3
NtRp24
(dp25
g13
S'Jump'
p26
sg15
S'StairsToWhiteHouse'
p27
sg16
S'START'
p28
sg18
S''
sbasS'Lobbyist3'
p29
(lp30
g1
(g10
g3
NtRp31
(dp32
g13
S'RequireFlag'
p33
sg15
g29
sg16
S'STARTLOBBYISTS'
p34
sg18
S'Mutter, mutter'
p35
sbag1
(g10
g3
NtRp36
(dp37
g13
S'Say'
p38
sg15
S'Lobbyist3'
p39
sg16
S''
sg18
S"To get the support of my organisation, you'll need to tell me what you can do for the conservation of internet memes."
p40
sbag1
(g10
g3
NtRp41
(dp42
g13
S'PlayerSay'
p43
sg15
S'Lobbyist3'
p44
sg16
S''
sg18
S'For...internet memes?'
p45
sbag1
(g10
g3
NtRp46
(dp47
g13
S'Say'
p48
sg15
S'Lobbyist3'
p49
sg16
S''
sg18
S"Yes, these are serious times. Who remembers hitting the giant crab for massive damage.There's another console release. I bet you can't even remember what you had to do to get massive damage."
p50
sbag1
(g10
g3
NtRp51
(dp52
g13
S'PlayerSay'
p53
sg15
S'Lobbyist3'
p54
sg16
S''
sg18
S'Giant...crab...?'
p55
sbag1
(g10
g3
NtRp56
(dp57
g13
S'Say'
p58
sg15
S'Lobbyist3'
p59
sg16
S''
sg18
S"You have to flip him over, that's what! We have to act quickly to save the internet memes. Even as I speak, fewer and fewer Gangnum style videos are made. It's a crime!"
p60
sbag1
(g10
g3
NtRp61
(dp62
g13
S'Say'
p63
sg15
S'Lobbyist3'
p64
sg16
S''
sg18
S'We need to build safehouses for all of the lolcats, provide IT helpdesk support for rickrole education and somebody needs to save the Sharknado from extinction!'
p65
sbag1
(g10
g3
NtRp66
(dp67
g13
S'Encounter'
p68
sg15
S'Lobbyist3'
p69
sg16
S'P-med-13'
p70
sg18
S''
sbag1
(g10
g3
NtRp71
(dp72
g13
S'Increment'
p73
sg15
S'Lobbyist3'
p74
sg16
S'LOBBYISTS'
p75
sg18
S''
sbag1
(g10
g3
NtRp76
(dp77
g13
S'Say'
p78
sg15
S'Lobbyist3'
p79
sg16
S''
sg18
S'Nailed It.'
p80
sbag1
(g10
g3
NtRp81
(dp82
g13
S'Destroy'
p83
sg15
S'Lobbyist3'
p84
sg16
S''
sg18
S''
sbasS'Kawalski'
p85
(lp86
g1
(g10
g3
NtRp87
(dp88
g13
S'RequireFlag'
p89
sg15
g85
sg16
S'ACCESSKAWALSKI'
p90
sg18
S"I'm not allowed to speak to you, sir."
p91
sbag1
(g10
g3
NtRp92
(dp93
g13
S'Say'
p94
sg15
S'Kawalski'
p95
sg16
S''
sg18
S'A pleasure to meet you, President Mossman. I am Agent Kawalski, your security detail.'
p96
sbag1
(g10
g3
NtRp97
(dp98
g13
S'PlayerSay'
p99
sg15
S'Kawalski'
p100
sg16
S''
sg18
S'Great to meet you, Agent Kawalski. What do I need to know?'
p101
sbag1
(g10
g3
NtRp102
(dp103
g13
S'Say'
p104
sg15
S'Kawalski'
p105
sg16
S''
sg18
S'Well actually, it does have to do with your security. Something terrible is happening at the White House.'
p106
sbag1
(g10
g3
NtRp107
(dp108
g13
S'PlayerSay'
p109
sg15
S'Kawalski'
p110
sg16
S''
sg18
S"If you're trying to warn me about the aliens, it's under control."
p111
sbag1
(g10
g3
NtRp112
(dp113
g13
S'Say'
p114
sg15
S'Kawalski'
p115
sg16
S''
sg18
S'No, no, this is different. I think somebody is trying to take over the White House.'
p116
sbag1
(g10
g3
NtRp117
(dp118
g13
S'PlayerSay'
p119
sg15
S'Kawalski'
p120
sg16
S''
sg18
S"Wouldn't we know?"
p121
sbag1
(g10
g3
NtRp122
(dp123
g13
S'Say'
p124
sg15
S'Kawalski'
p125
sg16
S''
sg18
S"It's too early for those kind of details. I just want you to keep your eyes open, Mr President."
p126
sbag1
(g10
g3
NtRp127
(dp128
g13
S'PlayerSay'
p129
sg15
S'Kawalski'
p130
sg16
S''
sg18
S'No problem.'
p131
sbag1
(g10
g3
NtRp132
(dp133
g13
S'Destroy'
p134
sg15
S'Kawalski'
p135
sg16
S''
sg18
S''
sbag1
(g10
g3
NtRp136
(dp137
g13
S'AddAlly'
p138
sg15
S'Kawalski'
p139
sg16
S'SecretAgent:1'
p140
sg18
S'Kawalski joins your political party!'
p141
sbag1
(g10
g3
NtRp142
(dp143
g13
S'SetFlag'
p144
sg15
S'Kawalski'
p145
sg16
S'KAWALSKIJOIN'
p146
sg18
S''
sbasS'Religious4'
p147
(lp148
g1
(g10
g3
NtRp149
(dp150
g13
S'Say'
p151
sg15
g147
sg16
S''
sg18
S'Welcome, my child. We have travelled here from Battycan City to be assured you are a man of faith before we endorse you.'
p152
sbag1
(g10
g3
NtRp153
(dp154
g13
S'PlayerSay'
p155
sg15
S'Religious4'
p156
sg16
S''
sg18
S'Er, what faith is that?'
p157
sbag1
(g10
g3
NtRp158
(dp159
g13
S'Say'
p160
sg15
S'Religious4'
p161
sg16
S''
sg18
S'Why, the one true god: Coffee.'
p162
sbag1
(g10
g3
NtRp163
(dp164
g13
S'PlayerSay'
p165
sg15
S'Religious4'
p166
sg16
S''
sg18
S'...Coffee?'
p167
sbag1
(g10
g3
NtRp168
(dp169
g13
S'Say'
p170
sg15
S'Religious4'
p171
sg16
S''
sg18
S"Yes of course. He who lifts you up when you're feeling low, who is your inspiration in the dark and who can achieve miraculous feats of effort with dedicated prayer."
p172
sbag1
(g10
g3
NtRp173
(dp174
g13
S'PlayerSay'
p175
sg15
S'Religious4'
p176
sg16
S''
sg18
S'This may be a religion I can get behind.'
p177
sbag1
(g10
g3
NtRp178
(dp179
g13
S'Encounter'
p180
sg15
S'Religious4'
p181
sg16
S'P-med-15'
p182
sg18
S''
sbag1
(g10
g3
NtRp183
(dp184
g13
S'Increment'
p185
sg15
S'Religious4'
p186
sg16
S'RELIGIOUSNUTS'
p187
sg18
S''
sbag1
(g10
g3
NtRp188
(dp189
g13
S'Say'
p190
sg15
S'Religious4'
p191
sg16
S''
sg18
S'Wonderful, the Battycan will be most pleased.'
p192
sbag1
(g10
g3
NtRp193
(dp194
g13
S'Destroy'
p195
sg15
S'Religious4'
p196
sg16
S''
sg18
S''
sbasS'Religious1'
p197
(lp198
g1
(g10
g3
NtRp199
(dp200
g13
S'Say'
p201
sg15
g197
sg16
S''
sg18
S'Have you had your morning prayer?'
p202
sbag1
(g10
g3
NtRp203
(dp204
g13
S'Encounter'
p205
sg15
S'Religious1'
p206
sg16
S'P-med-16'
p207
sg18
S''
sbag1
(g10
g3
NtRp208
(dp209
g13
S'Increment'
p210
sg15
S'Religious1'
p211
sg16
S'RELIGIOUSNUTS'
p212
sg18
S''
sbag1
(g10
g3
NtRp213
(dp214
g13
S'Say'
p215
sg15
S'Religious1'
p216
sg16
S''
sg18
S'Some people pray upwards of 5 times a day, but this can cause hallucinations.'
p217
sbag1
(g10
g3
NtRp218
(dp219
g13
S'Destroy'
p220
sg15
S'Religious1'
p221
sg16
S''
sg18
S''
sbasS'Religious3'
p222
(lp223
g1
(g10
g3
NtRp224
(dp225
g13
S'Say'
p226
sg15
g222
sg16
S''
sg18
S'Mmmmmm...Coffee....ommmmm'
p227
sbag1
(g10
g3
NtRp228
(dp229
g13
S'Encounter'
p230
sg15
S'Religious3'
p231
sg16
S'P-med-17'
p232
sg18
S''
sbag1
(g10
g3
NtRp233
(dp234
g13
S'Increment'
p235
sg15
S'Religious3'
p236
sg16
S'RELIGIOUSNUTS'
p237
sg18
S''
sbag1
(g10
g3
NtRp238
(dp239
g13
S'Say'
p240
sg15
S'Religious3'
p241
sg16
S''
sg18
S'I must return to my meditation.'
p242
sbag1
(g10
g3
NtRp243
(dp244
g13
S'Destroy'
p245
sg15
S'Religious3'
p246
sg16
S''
sg18
S''
sbasS'Religious2'
p247
(lp248
g1
(g10
g3
NtRp249
(dp250
g13
S'Say'
p251
sg15
g247
sg16
S''
sg18
S'Do not be swayed by the seductive powers of tea!'
p252
sbag1
(g10
g3
NtRp253
(dp254
g13
S'Encounter'
p255
sg15
S'Religious2'
p256
sg16
S'P-med-18'
p257
sg18
S''
sbag1
(g10
g3
NtRp258
(dp259
g13
S'Increment'
p260
sg15
S'Religious2'
p261
sg16
S'RELIGIOUSNUTS'
p262
sg18
S''
sbag1
(g10
g3
NtRp263
(dp264
g13
S'Say'
p265
sg15
S'Religious2'
p266
sg16
S''
sg18
S'The Battycan will be satisfied with this news.'
p267
sbag1
(g10
g3
NtRp268
(dp269
g13
S'Destroy'
p270
sg15
S'Religious2'
p271
sg16
S''
sg18
S''
sbasS'Constituent2'
p272
(lp273
g1
(g10
g3
NtRp274
(dp275
g13
S'RequireFlag'
p276
sg15
g272
sg16
S'STARTCONSTITUENTS'
p277
sg18
S'What?'
p278
sbag1
(g10
g3
NtRp279
(dp280
g13
S'PlayerSay'
p281
sg15
S'Constituent2'
p282
sg16
S''
sg18
S'Vote Phillip Mossman for Mayor!'
p283
sbag1
(g10
g3
NtRp284
(dp285
g13
S'Say'
p286
sg15
S'Constituent2'
p287
sg16
S''
sg18
S'But Mayor Goodman has always taken care of me.'
p288
sbag1
(g10
g3
NtRp289
(dp290
g13
S'Encounter'
p291
sg15
S'Constituent2'
p292
sg16
S'P-easy-08'
p293
sg18
S''
sbag1
(g10
g3
NtRp294
(dp295
g13
S'Say'
p296
sg15
S'Constituent2'
p297
sg16
S''
sg18
S"I think it's time for a change!"
p298
sbag1
(g10
g3
NtRp299
(dp300
g13
S'Destroy'
p301
sg15
S'Constituent2'
p302
sg16
S''
sg18
S''
sbasS'Constituent3'
p303
(lp304
g1
(g10
g3
NtRp305
(dp306
g13
S'RequireFlag'
p307
sg15
g303
sg16
S'STARTCONSTITUENTS'
p308
sg18
S'What?'
p309
sbag1
(g10
g3
NtRp310
(dp311
g13
S'PlayerSay'
p312
sg15
S'Constituent3'
p313
sg16
S''
sg18
S'Vote Phillip Mossman for Mayor!'
p314
sbag1
(g10
g3
NtRp315
(dp316
g13
S'Say'
p317
sg15
S'Constituent3'
p318
sg16
S''
sg18
S'But Mayor Goodman has always taken care of me.'
p319
sbag1
(g10
g3
NtRp320
(dp321
g13
S'Encounter'
p322
sg15
S'Constituent3'
p323
sg16
S'P-easy-09'
p324
sg18
S''
sbag1
(g10
g3
NtRp325
(dp326
g13
S'Say'
p327
sg15
S'Constituent3'
p328
sg16
S''
sg18
S"I think it's time for a change!"
p329
sbag1
(g10
g3
NtRp330
(dp331
g13
S'PlayerSay'
p332
sg15
S'Constituent3'
p333
sg16
S''
sg18
S"I think I'm ready to take on Mayor Goodman now!"
p334
sbag1
(g10
g3
NtRp335
(dp336
g13
S'SetFlag'
p337
sg15
S'Constituent3'
p338
sg16
S'CONSTITUENTSWON'
p339
sg18
S''
sbag1
(g10
g3
NtRp340
(dp341
g13
S'Destroy'
p342
sg15
S'Constituent3'
p343
sg16
S''
sg18
S''
sbasS'Constituent1'
p344
(lp345
g1
(g10
g3
NtRp346
(dp347
g13
S'RequireFlag'
p348
sg15
g344
sg16
S'STARTCONSTITUENTS'
p349
sg18
S'Yes?'
p350
sbag1
(g10
g3
NtRp351
(dp352
g13
S'PlayerSay'
p353
sg15
S'Constituent1'
p354
sg16
S''
sg18
S'Vote Phillip Mossman for Mayor!'
p355
sbag1
(g10
g3
NtRp356
(dp357
g13
S'Say'
p358
sg15
S'Constituent1'
p359
sg16
S''
sg18
S'Who?'
p360
sbag1
(g10
g3
NtRp361
(dp362
g13
S'PlayerSay'
p363
sg15
S'Constituent1'
p364
sg16
S''
sg18
S'Er, me!'
p365
sbag1
(g10
g3
NtRp366
(dp367
g13
S'Say'
p368
sg15
S'Constituent1'
p369
sg16
S''
sg18
S'Why? How will you help local business?'
p370
sbag1
(g10
g3
NtRp371
(dp372
g13
S'Encounter'
p373
sg15
S'Constituent1'
p374
sg16
S'P-easy-07'
p375
sg18
S''
sbag1
(g10
g3
NtRp376
(dp377
g13
S'Say'
p378
sg15
S'Constituent1'
p379
sg16
S''
sg18
S'You make a good case!'
p380
sbag1
(g10
g3
NtRp381
(dp382
g13
S'Destroy'
p383
sg15
S'Constituent1'
p384
sg16
S''
sg18
S''
sbasS'Cabinet1'
p385
(lp386
g1
(g10
g3
NtRp387
(dp388
g13
S'Say'
p389
sg15
g385
sg16
S''
sg18
S'Good afternoon, Mr President. How can I help?'
p390
sbag1
(g10
g3
NtRp391
(dp392
g13
S'PlayerSay'
p393
sg15
S'Cabinet1'
p394
sg16
S''
sg18
S'I want to know where the orders to mobilise the military and reallocate education funds came from.'
p395
sbag1
(g10
g3
NtRp396
(dp397
g13
S'Say'
p398
sg15
S'Cabinet1'
p399
sg16
S''
sg18
S'But...it came from you, sir. They were both faxed over to me this afternoon.'
p400
sbag1
(g10
g3
NtRp401
(dp402
g13
S'PlayerSay'
p403
sg15
S'Cabinet1'
p404
sg16
S''
sg18
S'Tell me every detail.'
p405
sbag1
(g10
g3
NtRp406
(dp407
g13
S'Encounter'
p408
sg15
S'Cabinet1'
p409
sg16
S'P-hard-08'
p410
sg18
S''
sbag1
(g10
g3
NtRp411
(dp412
g13
S'Increment'
p413
sg15
S'Cabinet1'
p414
sg16
S'CABINETMEMBERS'
p415
sg18
S''
sbag1
(g10
g3
NtRp416
(dp417
g13
S'Say'
p418
sg15
S'Cabinet1'
p419
sg16
S''
sg18
S'I cannot understand how this could happen.'
p420
sbag1
(g10
g3
NtRp421
(dp422
g13
S'Destroy'
p423
sg15
S'Cabinet1'
p424
sg16
S''
sg18
S''
sbasS'Cabinet2'
p425
(lp426
g1
(g10
g3
NtRp427
(dp428
g13
S'Say'
p429
sg15
g425
sg16
S''
sg18
S'Good afternoon, Mr President. What seems to be the problem?'
p430
sbag1
(g10
g3
NtRp431
(dp432
g13
S'PlayerSay'
p433
sg15
S'Cabinet2'
p434
sg16
S''
sg18
S'Find out where the education funds have been allocated.'
p435
sbag1
(g10
g3
NtRp436
(dp437
g13
S'Say'
p438
sg15
S'Cabinet2'
p439
sg16
S''
sg18
S'To the military, Sir. I saw to it myself.'
p440
sbag1
(g10
g3
NtRp441
(dp442
g13
S'PlayerSay'
p443
sg15
S'Cabinet2'
p444
sg16
S''
sg18
S'How did this happen? Tell me everything!'
p445
sbag1
(g10
g3
NtRp446
(dp447
g13
S'Encounter'
p448
sg15
S'Cabinet2'
p449
sg16
S'P-hard-09'
p450
sg18
S''
sbag1
(g10
g3
NtRp451
(dp452
g13
S'Increment'
p453
sg15
S'Cabinet2'
p454
sg16
S'CABINETMEMBERS'
p455
sg18
S''
sbag1
(g10
g3
NtRp456
(dp457
g13
S'PlayerSay'
p458
sg15
S'Cabinet2'
p459
sg16
S''
sg18
S"It can't be a coincidence that both situations involved the military."
p460
sbag1
(g10
g3
NtRp461
(dp462
g13
S'Destroy'
p463
sg15
S'Cabinet2'
p464
sg16
S''
sg18
S''
sbasS'Cabinet3'
p465
(lp466
g1
(g10
g3
NtRp467
(dp468
g13
S'Say'
p469
sg15
g465
sg16
S''
sg18
S"Mr President, I'm sorry, I couldn't know it wasn't your signature."
p470
sbag1
(g10
g3
NtRp471
(dp472
g13
S'PlayerSay'
p473
sg15
S'Cabinet3'
p474
sg16
S''
sg18
S'Never mind that now. Where are the troops heading?'
p475
sbag1
(g10
g3
NtRp476
(dp477
g13
S'Say'
p478
sg15
S'Cabinet3'
p479
sg16
S''
sg18
S"North...to Canada. We assumed it was planned. There's a pact allowing troops into Canada."
p480
sbag1
(g10
g3
NtRp481
(dp482
g13
S'PlayerSay'
p483
sg15
S'Cabinet3'
p484
sg16
S''
sg18
S'What could they be up to?'
p485
sbag1
(g10
g3
NtRp486
(dp487
g13
S'Encounter'
p488
sg15
S'Cabinet3'
p489
sg16
S'P-hard-10'
p490
sg18
S''
sbag1
(g10
g3
NtRp491
(dp492
g13
S'Increment'
p493
sg15
S'Cabinet3'
p494
sg16
S'CABINETMEMBERS'
p495
sg18
S''
sbag1
(g10
g3
NtRp496
(dp497
g13
S'PlayerSay'
p498
sg15
S'Cabinet3'
p499
sg16
S''
sg18
S"I'd better get to the Joint Chiefs. This is getting out-of-hand.."
p500
sbag1
(g10
g3
NtRp501
(dp502
g13
S'Destroy'
p503
sg15
S'Cabinet3'
p504
sg16
S''
sg18
S''
sbasS'Wife'
p505
(lp506
g1
(g10
g3
NtRp507
(dp508
g13
S'RequireFlag'
p509
sg15
g505
sg16
S'GOHOMETOWIFE'
p510
sg18
S'What are you doing here, Phillip? You should be at work!'
p511
sbag1
(g10
g3
NtRp512
(dp513
g13
S'Say'
p514
sg15
S'Wife'
p515
sg16
S''
sg18
S'Welcome home, Phillip! How was your workday?'
p516
sbag1
(g10
g3
NtRp517
(dp518
g13
S'PlayerSay'
p519
sg15
S'Wife'
p520
sg16
S''
sg18
S'...'
p521
sbag1
(g10
g3
NtRp522
(dp523
g13
S'Say'
p524
sg15
S'Wife'
p525
sg16
S''
sg18
S"That good, huh? You know this isn't what you want. Why don't you strike out on your own?"
p526
sbag1
(g10
g3
NtRp527
(dp528
g13
S'PlayerSay'
p529
sg15
S'Wife'
p530
sg16
S''
sg18
S"I didn't think I knew where to start to be a Mayor, but Mayor Goodman makes it look easy."
p531
sbag1
(g10
g3
NtRp532
(dp533
g13
S'Say'
p534
sg15
S'Wife'
p535
sg16
S''
sg18
S"That's the spirit! You can do it! All you need is some money and support."
p536
sbag1
(g10
g3
NtRp537
(dp538
g13
S'PlayerSay'
p539
sg15
S'Wife'
p540
sg16
S''
sg18
S'Well...OK! Lets start with money. We need a sponsor.'
p541
sbag1
(g10
g3
NtRp542
(dp543
g13
S'Say'
p544
sg15
S'Wife'
p545
sg16
S''
sg18
S'OK, lets go get one!'
p546
sbag1
(g10
g3
NtRp547
(dp548
g13
S'AddAlly'
p549
sg15
S'Wife'
p550
sg16
S'Wife:2'
p551
sg18
S'Sarah Mossman Joins Your Political Party!'
p552
sbag1
(g10
g3
NtRp553
(dp554
g13
S'SetFlag'
p555
sg15
S'Wife'
p556
sg16
S'STARTSPONSOR'
p557
sg18
S''
sbag1
(g10
g3
NtRp558
(dp559
g13
S'Destroy'
p560
sg15
S'Wife'
p561
sg16
S''
sg18
S''
sbasS'Lobbyist4'
p562
(lp563
g1
(g10
g3
NtRp564
(dp565
g13
S'RequireFlag'
p566
sg15
g562
sg16
S'STARTLOBBYISTS'
p567
sg18
S'Please tend to your other meetings so that we can see you.'
p568
sbag1
(g10
g3
NtRp569
(dp570
g13
S'Say'
p571
sg15
S'Lobbyist4'
p572
sg16
S''
sg18
S"If you are elected, I would like to know what you would plan to support the Storyteller's Guild and their efforts to revive a lost art."
p573
sbag1
(g10
g3
NtRp574
(dp575
g13
S'PlayerSay'
p576
sg15
S'Lobbyist4'
p577
sg16
S''
sg18
S"I'm all for protecting the arts. How can I help?"
p578
sbag1
(g10
g3
NtRp579
(dp580
g13
S'Say'
p581
sg15
S'Lobbyist4'
p582
sg16
S''
sg18
S'Storytelling is being butchered and almost completely ignored. I could list movies and television, but the real culprit is video games.'
p583
sbag1
(g10
g3
NtRp584
(dp585
g13
S'Say'
p586
sg15
S'Lobbyist4'
p587
sg16
S''
sg18
S'Many video game plots are derivative and archaic. Why, if this were a video game, it would have almost no substance at all and simply be a flimsy curtain for one of their \xe2\x80\x9cfetch quests\xe2\x80\x9d.'
p588
sbag1
(g10
g3
NtRp589
(dp590
g13
S'Say'
p591
sg15
S'Lobbyist4'
p592
sg16
S''
sg18
S"It is a most serious problem and we wouldn't be able to lend you our support without assurances on this matter."
p593
sbag1
(g10
g3
NtRp594
(dp595
g13
S'Encounter'
p596
sg15
S'Lobbyist4'
p597
sg16
S'P-med-14'
p598
sg18
S''
sbag1
(g10
g3
NtRp599
(dp600
g13
S'Increment'
p601
sg15
S'Lobbyist4'
p602
sg16
S'LOBBYISTS'
p603
sg18
S''
sbag1
(g10
g3
NtRp604
(dp605
g13
S'Say'
p606
sg15
S'Lobbyist4'
p607
sg16
S''
sg18
S'While I feel that your argument lacks substance and detail, I will nevertheless concede.'
p608
sbag1
(g10
g3
NtRp609
(dp610
g13
S'Destroy'
p611
sg15
S'Lobbyist4'
p612
sg16
S''
sg18
S''
sbasS'#----------------------------------------------------------------------------------------ACT 2 \xe2\x80\x93 Part 2---------------------------------------------------------------------------------------------------------------------------------------------------'
p613
(lp614
g1
(g10
g3
NtRp615
(dp616
g13
S''
sg15
g613
sg16
S''
sg18
S''
sbasS'Lobbyist2'
p617
(lp618
g1
(g10
g3
NtRp619
(dp620
g13
S'RequireFlag'
p621
sg15
g617
sg16
S'STARTLOBBYISTS'
p622
sg18
S'Humph'
p623
sbag1
(g10
g3
NtRp624
(dp625
g13
S'Say'
p626
sg15
S'Lobbyist2'
p627
sg16
S''
sg18
S'I represent the Python Software Foundation. What will you do to promote, protect and advance the Python programming language?'
p628
sbag1
(g10
g3
NtRp629
(dp630
g13
S'PlayerSay'
p631
sg15
S'Lobbyist2'
p632
sg16
S''
sg18
S"Ah yes, the Python cause! I'm a big advocate of Python."
p633
sbag1
(g10
g3
NtRp634
(dp635
g13
S'Encounter'
p636
sg15
S'Lobbyist2'
p637
sg16
S'P-med-12'
p638
sg18
S''
sbag1
(g10
g3
NtRp639
(dp640
g13
S'Increment'
p641
sg15
S'Lobbyist2'
p642
sg16
S'LOBBYISTS'
p643
sg18
S''
sbag1
(g10
g3
NtRp644
(dp645
g13
S'Say'
p646
sg15
S'Lobbyist2'
p647
sg16
S''
sg18
S'I think we can help each other out.'
p648
sbag1
(g10
g3
NtRp649
(dp650
g13
S'Destroy'
p651
sg15
S'Lobbyist2'
p652
sg16
S''
sg18
S''
sbasS'PA2'
p653
(lp654
g1
(g10
g3
NtRp655
(dp656
g13
S'Say'
p657
sg15
g653
sg16
S''
sg18
S"Welcome to the White House, President Mossman. It was a long campaign trail with a very strange final debate, but we won and we're here."
p658
sbag1
(g10
g3
NtRp659
(dp660
g13
S'Say'
p661
sg15
S'PA2'
p662
sg16
S''
sg18
S'Now is the real test where we see how well we can run a country.'
p663
sbag1
(g10
g3
NtRp664
(dp665
g13
S'Say'
p666
sg15
S'PA2'
p667
sg16
S''
sg18
S'The first step is to give your first press conference as President to explain the...situation...with President Alien *cough* I mean Allen.'
p668
sbag1
(g10
g3
NtRp669
(dp670
g13
S'SetFlag'
p671
sg15
S'PA2'
p672
sg16
S'ACCESSJOURNALISTS'
p673
sg18
S''
sbag1
(g10
g3
NtRp674
(dp675
g13
S'RequireCount'
p676
sg15
S'PA2'
p677
sg16
S'PRESSCONF:3'
p678
sg18
S"They're waiting for you in the rose garden, Mr President."
p679
sbag1
(g10
g3
NtRp680
(dp681
g13
S'Say'
p682
sg15
S'PA2'
p683
sg16
S''
sg18
S'I think that went as well as could be expected.'
p684
sbag1
(g10
g3
NtRp685
(dp686
g13
S'SetFlag'
p687
sg15
S'PA2'
p688
sg16
S'ACCESSKAWALSKI'
p689
sg18
S''
sbag1
(g10
g3
NtRp690
(dp691
g13
S'Say'
p692
sg15
S'PA2'
p693
sg16
S''
sg18
S'Your secret service detail is waiting inside to have a word with you about security protocol.'
p694
sbag1
(g10
g3
NtRp695
(dp696
g13
S'RequireFlag'
p697
sg15
S'PA2'
p698
sg16
S'KAWALSKIJOIN'
p699
sg18
S"You'd better speak to the secret service agent. Your security is paramount."
p700
sbag1
(g10
g3
NtRp701
(dp702
g13
S'Say'
p703
sg15
S'PA2'
p704
sg16
S''
sg18
S"Some war veterans would like to speak to you about some recent decisions you've made. I don't dare turn them away. You'd better speak to them."
p705
sbag1
(g10
g3
NtRp706
(dp707
g13
S'PlayerSay'
p708
sg15
S'PA2'
p709
sg16
S''
sg18
S'Of course.'
p710
sbag1
(g10
g3
NtRp711
(dp712
g13
S'GiveItem'
p713
sg15
S'PA2'
p714
sg16
S'WARVETROOMKEY'
p715
sg18
S'Received key to the East Room.'
p716
sbag1
(g10
g3
NtRp717
(dp718
g13
S'RequireCount'
p719
sg15
S'PA2'
p720
sg16
S'WARVETS:2'
p721
sg18
S'The war vets are waiting for you in the East Room.'
p722
sbag1
(g10
g3
NtRp723
(dp724
g13
S'Say'
p725
sg15
S'PA2'
p726
sg16
S''
sg18
S'What was that about?'
p727
sbag1
(g10
g3
NtRp728
(dp729
g13
S'PlayerSay'
p730
sg15
S'PA2'
p731
sg16
S''
sg18
S"I'd like to know as well. Find me the documents that approved troop movement today and get me a meeting with the Joint Chiefs."
p732
sbag1
(g10
g3
NtRp733
(dp734
g13
S'Say'
p735
sg15
S'PA2'
p736
sg16
S''
sg18
S'Yessir.'
p737
sbag1
(g10
g3
NtRp738
(dp739
g13
S'Say'
p740
sg15
S'PA2'
p741
sg16
S''
sg18
S"Your next meeting is with the teachers in the corridor. They didn't give me the details, but it seems they're quite upset."
p742
sbag1
(g10
g3
NtRp743
(dp744
g13
S'GiveItem'
p745
sg15
S'PA2'
p746
sg16
S'TEACHERROOMKEY'
p747
sg18
S'Received key to the West Room.'
p748
sbag1
(g10
g3
NtRp749
(dp750
g13
S'RequireCount'
p751
sg15
S'PA2'
p752
sg16
S'TEACHERS:2'
p753
sg18
S"You'll need to speak to the teachers in the West Room, Mr President."
p754
sbag1
(g10
g3
NtRp755
(dp756
g13
S'Say'
p757
sg15
S'PA2'
p758
sg16
S''
sg18
S'You seem to have sorted the teachers out.'
p759
sbag1
(g10
g3
NtRp760
(dp761
g13
S'PlayerSay'
p762
sg15
S'PA2'
p763
sg16
S''
sg18
S"I've mollified them for now, but I want to get to the bottom of this - NOW!"
p764
sbag1
(g10
g3
NtRp765
(dp766
g13
S'Say'
p767
sg15
S'PA2'
p768
sg16
S''
sg18
S'Of course, Mr President. I do have those papers you asked for that approved the mobilisation of troops'
p769
sbag1
(g10
g3
NtRp770
(dp771
g13
S'PlayerSay'
p772
sg15
S'PA2'
p773
sg16
S''
sg18
S"Let me see those...this is my signature! But I didn't sign this!"
p774
sbag1
(g10
g3
NtRp775
(dp776
g13
S'Say'
p777
sg15
S'PA2'
p778
sg16
S''
sg18
S'This is very serious! What should we do, sir?'
p779
sbag1
(g10
g3
NtRp780
(dp781
g13
S'PlayerSay'
p782
sg15
S'PA2'
p783
sg16
S''
sg18
S'Call a cabinet meeting. Immediately.'
p784
sbag1
(g10
g3
NtRp785
(dp786
g13
S'Say'
p787
sg15
S'PA2'
p788
sg16
S''
sg18
S"Understood. They'll be there when you get there."
p789
sbag1
(g10
g3
NtRp790
(dp791
g13
S'GiveItem'
p792
sg15
S'PA2'
p793
sg16
S'CABINETROOMKEY'
p794
sg18
S'Received key to the Cabinet Room.'
p795
sbag1
(g10
g3
NtRp796
(dp797
g13
S'RequireCount'
p798
sg15
S'PA2'
p799
sg16
S'CABINETMEMBERS:3'
p800
sg18
S'The cabinet is waiting for you in the Cabinet Room.'
p801
sbag1
(g10
g3
NtRp802
(dp803
g13
S'Say'
p804
sg15
S'PA2'
p805
sg16
S''
sg18
S'The Joint Chiefs are assembled in the Situation Room downstairs.'
p806
sbag1
(g10
g3
NtRp807
(dp808
g13
S'Say'
p809
sg15
S'PA2'
p810
sg16
S''
sg18
S'Your palm print has been coded for maximum clearance now; you should have access to the basement.'
p811
sbag1
(g10
g3
NtRp812
(dp813
g13
S'SetFlag'
p814
sg15
S'PA2'
p815
sg16
S'ACCESSWHITEHOUSEBASEMENT'
p816
sg18
S''
sbag1
(g10
g3
NtRp817
(dp818
g13
S'RequireFlag'
p819
sg15
S'PA2'
p820
sg16
S'REPEAT'
p821
sg18
S'Get to the basement, the Joint Chiefs are waiting.'
p822
sbasS'PA3'
p823
(lp824
g1
(g10
g3
NtRp825
(dp826
g13
S'RequireCount'
p827
sg15
g823
sg16
S'JOINTCHIEFS:3'
p828
sg18
S'The Joint Chiefs are waiting for you in the situation room.'
p829
sbag1
(g10
g3
NtRp830
(dp831
g13
S'RequireFlag'
p832
sg15
S'PA3'
p833
sg16
S'WIN'
p834
sg18
S'Mr President, you have to put a stop to the supercomputer that will destroy the planet! You can access it in the Situation Room.'
p835
sbag1
(g10
g3
NtRp836
(dp837
g13
S'Say'
p838
sg15
S'PA3'
p839
sg16
S''
sg18
S"You have saved the day! The world is safe and all over the Ignited States, our citizens can sleep safe knowing you're taking care of them."
p840
sbag1
(g10
g3
NtRp841
(dp842
g13
S'RequireFlag'
p843
sg15
S'PA3'
p844
sg16
S'LOOP'
p845
sg18
S'Goodnight, Mr President.'
p846
sbasS'RestoreAct3'
p847
(lp848
g1
(g10
g3
NtRp849
(dp850
g13
S'GotoMap'
p851
sg15
g847
sg16
S'act3'
p852
sg18
S''
sbasS'RestoreAct2'
p853
(lp854
g1
(g10
g3
NtRp855
(dp856
g13
S'GotoMap'
p857
sg15
g853
sg16
S'act2'
p858
sg18
S''
sbasS'P-med-12'
p859
(lp860
g1
(g10
g3
NtRp861
(dp862
g13
S'Say'
p863
sg15
g859
sg16
S'Lobbyist001'
p864
sg18
S'import combat'
p865
sbag1
(g10
g3
NtRp866
(dp867
g13
S'BeginCombat'
p868
sg15
S'P-med-12'
p869
sg16
S''
sg18
S''
sbasS'TVDebate'
p870
(lp871
g1
(g10
g3
NtRp872
(dp873
g13
S'RequireFlag'
p874
sg15
g870
sg16
S'STARTDEBATE'
p875
sg18
S"Hmmm? Oh, sorry, I'm on the phone to the studio."
p876
sbag1
(g10
g3
NtRp877
(dp878
g13
S'Say'
p879
sg15
S'TVDebate'
p880
sg16
S''
sg18
S"Good evening, Governor Mossman. If you'll follow me, I'll take you to the studio."
p881
sbag1
(g10
g3
NtRp882
(dp883
g13
S'Encounter'
p884
sg15
S'TVDebate'
p885
sg16
S'P-med-21'
p886
sg18
S''
sbag1
(g10
g3
NtRp887
(dp888
g13
S'Say'
p889
sg15
S'TVDebate'
p890
sg16
S''
sg18
S'Great work tonight, Governor Mossman and congratulations on the win!'
p891
sbag1
(g10
g3
NtRp892
(dp893
g13
S'SetFlag'
p894
sg15
S'TVDebate'
p895
sg16
S'DEBATECOMPLETE'
p896
sg18
S''
sbag1
(g10
g3
NtRp897
(dp898
g13
S'Destroy'
p899
sg15
S'TVDebate'
p900
sg16
S''
sg18
S''
sbasS'WarVet2'
p901
(lp902
g1
(g10
g3
NtRp903
(dp904
g13
S'RequireFlag'
p905
sg15
g901
sg16
S'AFTERWILFRED'
p906
sg18
S'Eh? Speak up, boy.'
p907
sbag1
(g10
g3
NtRp908
(dp909
g13
S'Encounter'
p910
sg15
S'WarVet2'
p911
sg16
S'P-hard-05'
p912
sg18
S''
sbag1
(g10
g3
NtRp913
(dp914
g13
S'Say'
p915
sg15
S'WarVet2'
p916
sg16
S''
sg18
S"We'll head home, but you can expect us back if we see anything else suspicious ."
p917
sbag1
(g10
g3
NtRp918
(dp919
g13
S'Increment'
p920
sg15
S'WarVet2'
p921
sg16
S'WARVETS'
p922
sg18
S''
sbag1
(g10
g3
NtRp923
(dp924
g13
S'Destroy'
p925
sg15
S'WarVet2'
p926
sg16
S''
sg18
S''
sbasS'WarVet1'
p927
(lp928
g1
(g10
g3
NtRp929
(dp930
g13
S'Say'
p931
sg15
g927
sg16
S''
sg18
S"You think you can fool me? I wasn't born yesterday, you know."
p932
sbag1
(g10
g3
NtRp933
(dp934
g13
S'PlayerSay'
p935
sg15
S'WarVet1'
p936
sg16
S''
sg18
S"I'm sorry, sir, but what seems to be the problem."
p937
sbag1
(g10
g3
NtRp938
(dp939
g13
S'Say'
p940
sg15
S'WarVet1'
p941
sg16
S''
sg18
S"You think I don't know a mobilising army when I see one? You're clearly readying for war and you think you don't even need to mention it to the people."
p942
sbag1
(g10
g3
NtRp943
(dp944
g13
S'Say'
p945
sg15
S'WarVet1'
p946
sg16
S'WarVet2'
p947
sg18
S"And don't forget that he's barely a cadet, Wilfred."
p948
sbag1
(g10
g3
NtRp949
(dp950
g13
S'Say'
p951
sg15
S'WarVet1'
p952
sg16
S''
sg18
S"Right you are, Arnold, You've barely set foot in this building and you're already leading us to war. Who do you think you're dealing with? We won't stand."
p953
sbag1
(g10
g3
NtRp954
(dp955
g13
S'Encounter'
p956
sg15
S'WarVet1'
p957
sg16
S'P-hard-04'
p958
sg18
S''
sbag1
(g10
g3
NtRp959
(dp960
g13
S'Say'
p961
sg15
S'WarVet1'
p962
sg16
S''
sg18
S"Seems like a flimsy excuse, you didn't know. Better get your troops in line if you want 'em to march, boy."
p963
sbag1
(g10
g3
NtRp964
(dp965
g13
S'Increment'
p966
sg15
S'WarVet1'
p967
sg16
S'WARVETS'
p968
sg18
S''
sbag1
(g10
g3
NtRp969
(dp970
g13
S'SetFlag'
p971
sg15
S'WarVet1'
p972
sg16
S'AFTERWILFRED'
p973
sg18
S''
sbag1
(g10
g3
NtRp974
(dp975
g13
S'Destroy'
p976
sg15
S'WarVet1'
p977
sg16
S''
sg18
S''
sbasS'StairsToWhiteHouseBasement'
p978
(lp979
g1
(g10
g3
NtRp980
(dp981
g13
S'GotoMap'
p982
sg15
g978
sg16
S'act3_basement'
p983
sg18
S''
sbasS'Mayor'
p984
(lp985
g1
(g10
g3
NtRp986
(dp987
g13
S'Say'
p988
sg15
g984
sg16
S''
sg18
S"Hello, I'm the Mayor!"
p989
sbag1
(g10
g3
NtRp990
(dp991
g13
S'PlayerSay'
p992
sg15
S'Mayor'
p993
sg16
S''
sg18
S"Hello, Mayor Goodman, I'm Philip Mossman."
p994
sbag1
(g10
g3
NtRp995
(dp996
g13
S'Say'
p997
sg15
S'Mayor'
p998
sg16
S''
sg18
S"Ah yes, you're my new assistant. You'll want to learn a thing or two about politics before we get started."
p999
sbag1
(g10
g3
NtRp1000
(dp1001
g13
S'Say'
p1002
sg15
S'Mayor'
p1003
sg16
S''
sg18
S'Becoming a great politician boils down to one thing; your ability to win arguments.'
p1004
sbag1
(g10
g3
NtRp1005
(dp1006
g13
S'Say'
p1007
sg15
S'Mayor'
p1008
sg16
S''
sg18
S'Whether it be national debates or swaying constituents and lobbyists to support you, it all comes down to your ability to out-think your opponent.'
p1009
sbag1
(g10
g3
NtRp1010
(dp1011
g13
S'Say'
p1012
sg15
S'Mayor'
p1013
sg16
S''
sg18
S"You see, I've been searching for minutes and haven't been able to find my pen! I bet my receptionist stole it. She has sticky fingers."
p1014
sbag1
(g10
g3
NtRp1015
(dp1016
g13
S'Say'
p1017
sg15
S'Mayor'
p1018
sg16
S''
sg18
S"Well, don't just stand there, go and get it from her! You'll need to use all of your political skills to wrestle it back. She's like a bulldog when she gets ahold of something."
p1019
sbag1
(g10
g3
NtRp1020
(dp1021
g13
S'SetFlag'
p1022
sg15
S'Mayor'
p1023
sg16
S'PENQUEST'
p1024
sg18
S''
sbag1
(g10
g3
NtRp1025
(dp1026
g13
S'RequireItem'
p1027
sg15
S'Mayor'
p1028
sg16
S'PEN'
p1029
sg18
S'Are you simple? Go and get my pen from that thieving receptionist.'
p1030
sbag1
(g10
g3
NtRp1031
(dp1032
g13
S'Say'
p1033
sg15
S'Mayor'
p1034
sg16
S''
sg18
S"Great! I know she can give you a bit of a tongue-lashing, but she's a fantastic receptionist."
p1035
sbag1
(g10
g3
NtRp1036
(dp1037
g13
S'Say'
p1038
sg15
S'Mayor'
p1039
sg16
S''
sg18
S"I'm sure you want to learn a thing or two about politics \xe2\x80\x93 who doesn't? - so lets get started"
p1040
sbag1
(g10
g3
NtRp1041
(dp1042
g13
S'SetFlag'
p1043
sg15
S'Mayor'
p1044
sg16
S'PROTESTORS'
p1045
sg18
S''
sbag1
(g10
g3
NtRp1046
(dp1047
g13
S'RequireFlag'
p1048
sg15
S'Mayor'
p1049
sg16
S'PROTESTORSDEAD'
p1050
sg18
S'Run outside and tell those protesters to scram, will you?'
p1051
sbag1
(g10
g3
NtRp1052
(dp1053
g13
S'Say'
p1054
sg15
S'Mayor'
p1055
sg16
S''
sg18
S"Hope they didn't give you too much trouble!"
p1056
sbag1
(g10
g3
NtRp1057
(dp1058
g13
S'Say'
p1059
sg15
S'Mayor'
p1060
sg16
S''
sg18
S"Now that's sorted, there's a journalist from the local newspaper coming for an interview."
p1061
sbag1
(g10
g3
NtRp1062
(dp1063
g13
S'Say'
p1064
sg15
S'Mayor'
p1065
sg16
S''
sg18
S"I certainly don't have time for it, so you can do the interview."
p1066
sbag1
(g10
g3
NtRp1067
(dp1068
g13
S'Say'
p1069
sg15
S'Mayor'
p1070
sg16
S''
sg18
S"Be careful not to give too much away and if you could throw a few punches at the opposition that'd help."
p1071
sbag1
(g10
g3
NtRp1072
(dp1073
g13
S'PlayerSay'
p1074
sg15
S'Mayor'
p1075
sg16
S''
sg18
S'You want me to...throw a punch?'
p1076
sbag1
(g10
g3
NtRp1077
(dp1078
g13
S'Say'
p1079
sg15
S'Mayor'
p1080
sg16
S''
sg18
S"You're in politics and don't know how to fight dirty? Sheesh! Here, let me show you."
p1081
sbag1
(g10
g3
NtRp1082
(dp1083
g13
S'LearnAttack'
p1084
sg15
S'Mayor'
p1085
sg16
S'SLANDER'
p1086
sg18
S'Mayor teaches Phillip to Slander Opposition'
p1087
sbag1
(g10
g3
NtRp1088
(dp1089
g13
S'Say'
p1090
sg15
S'Mayor'
p1091
sg16
S''
sg18
S"It's a pretty great tactic because it keeps eating away at them long after you've done it."
p1092
sbag1
(g10
g3
NtRp1093
(dp1094
g13
S'SetFlag'
p1095
sg15
S'Mayor'
p1096
sg16
S'INTERVIEWSTART'
p1097
sg18
S''
sbag1
(g10
g3
NtRp1098
(dp1099
g13
S'RequireFlag'
p1100
sg15
S'Mayor'
p1101
sg16
S'JOURNALISTINTERVIEW'
p1102
sg18
S'Go handle that interview and remember to slander the opposition.'
p1103
sbag1
(g10
g3
NtRp1104
(dp1105
g13
S'SetFlag'
p1106
sg15
S'Mayor'
p1107
sg16
S'GOHOMETOWIFE'
p1108
sg18
S''
sbag1
(g10
g3
NtRp1109
(dp1110
g13
S'Say'
p1111
sg15
S'Mayor'
p1112
sg16
S''
sg18
S'OK, fine, now could you buzz off for a while? I need to get some work done.'
p1113
sbag1
(g10
g3
NtRp1114
(dp1115
g13
S'RequireFlag'
p1116
sg15
S'Mayor'
p1117
sg16
S'CONSTITUENTSWON'
p1118
sg18
S"Go home to your family. I have things to do that don't involve you."
p1119
sbag1
(g10
g3
NtRp1120
(dp1121
g13
S'Say'
p1122
sg15
S'Mayor'
p1123
sg16
S''
sg18
S"What's this I hear about you campaigning for Mayor? After everything I've taught you!"
p1124
sbag1
(g10
g3
NtRp1125
(dp1126
g13
S'PlayerSay'
p1127
sg15
S'Mayor'
p1128
sg16
S''
sg18
S"I'm sorry Mayor Goodman, but it's time for someone who's ready to make a difference for our town."
p1129
sbag1
(g10
g3
NtRp1130
(dp1131
g13
S'Say'
p1132
sg15
S'Mayor'
p1133
sg16
S''
sg18
S"You really are a fool. Do you think He's going to allow that?"
p1134
sbag1
(g10
g3
NtRp1135
(dp1136
g13
S'Encounter'
p1137
sg15
S'Mayor'
p1138
sg16
S'P-easy-10'
p1139
sg18
S''
sbag1
(g10
g3
NtRp1140
(dp1141
g13
S'Say'
p1142
sg15
S'Mayor'
p1143
sg16
S''
sg18
S"Well, you've beaten me but you don't have a clue what you're in for. I hope you're up to this kid!"
p1144
sbag1
(g10
g3
NtRp1145
(dp1146
g13
S'Save'
p1147
sg15
S'Mayor'
p1148
sg16
S'RestoreAct2'
p1149
sg18
S''
sbag1
(g10
g3
NtRp1150
(dp1151
g13
S'GotoMap'
p1152
sg15
S'Mayor'
p1153
sg16
S'act2'
p1154
sg18
S''
sbasS'DoorToWhiteHouseBasement'
p1155
(lp1156
g1
(g10
g3
NtRp1157
(dp1158
g13
S'RequireFlagPlayerSay'
p1159
sg15
g1155
sg16
S'ACCESSWHITEHOUSEBASEMENT'
p1160
sg18
S"What a strange looking door. It doesn't even have a keyhole, but it doesn't open when I push it."
p1161
sbag1
(g10
g3
NtRp1162
(dp1163
g13
S'Destroy'
p1164
sg15
S'DoorToWhiteHouseBasement'
p1165
sg16
S''
sg18
S''
sbag1
(g10
g3
NtRp1166
(dp1167
g13
S'Message'
p1168
sg15
S'DoorToWhiteHouseBasement'
p1169
sg16
S''
sg18
S'The door opens with a satisfying *beep*.'
p1170
sbasS'PA'
p1171
(lp1172
g1
(g10
g3
NtRp1173
(dp1174
g13
S'Say'
p1175
sg15
g1171
sg16
S''
sg18
S'Good morning, Governor Mossman. I am your personal assistant, Sampson'
p1176
sbag1
(g10
g3
NtRp1177
(dp1178
g13
S'Say'
p1179
sg15
S'PA'
p1180
sg16
S''
sg18
S"You've a busy schedule, so let's get going! We've called together our entire political party in order for you to get them all to agree on a platform. We had to keep them separated, so they're in the adjoining rooms."
p1181
sbag1
(g10
g3
NtRp1182
(dp1183
g13
S'SetFlag'
p1184
sg15
S'PA'
p1185
sg16
S'STARTPOLITICIANSHAKEDOWN'
p1186
sg18
S''
sbag1
(g10
g3
NtRp1187
(dp1188
g13
S'RequireCount'
p1189
sg15
S'PA'
p1190
sg16
S'POLITICIANSHAKEDOWN:5'
p1191
sg18
S'Please try to stay on schedule. The politicians are in the adjoining rooms.'
p1192
sbag1
(g10
g3
NtRp1193
(dp1194
g13
S'Say'
p1195
sg15
S'PA'
p1196
sg16
S''
sg18
S'Hmmm, falling behind already, Better get a move on!'
p1197
sbag1
(g10
g3
NtRp1198
(dp1199
g13
S'Say'
p1200
sg15
S'PA'
p1201
sg16
S''
sg18
S'This might come in handy for your next meeting.'
p1202
sbag1
(g10
g3
NtRp1203
(dp1204
g13
S'LearnAttack'
p1205
sg15
S'PA'
p1206
sg16
S'PORKBARREL'
p1207
sg18
S''
sbag1
(g10
g3
NtRp1208
(dp1209
g13
S'Say'
p1210
sg15
S'PA'
p1211
sg16
S''
sg18
S'We need some funds for our war chest! Head upstairs and meet with the lobbyists.'
p1212
sbag1
(g10
g3
NtRp1213
(dp1214
g13
S'SetFlag'
p1215
sg15
S'PA'
p1216
sg16
S'STARTLOBBYISTS'
p1217
sg18
S''
sbag1
(g10
g3
NtRp1218
(dp1219
g13
S'RequireCount'
p1220
sg15
S'PA'
p1221
sg16
S'LOBBYISTS:3'
p1222
sg18
S'Go get those funds! The lobbyists are upstairs.'
p1223
sbag1
(g10
g3
NtRp1224
(dp1225
g13
S'Say'
p1226
sg15
S'PA'
p1227
sg16
S''
sg18
S'No time for lunch! A flock of religious nuts has taken up residence in the lobby downstairs.'
p1228
sbag1
(g10
g3
NtRp1229
(dp1230
g13
S'Say'
p1231
sg15
S'PA'
p1232
sg16
S''
sg18
S"You'll need to go in and try to ... reason ... with them."
p1233
sbag1
(g10
g3
NtRp1234
(dp1235
g13
S'SetFlag'
p1236
sg15
S'PA'
p1237
sg16
S'ACCESSGROUNDFLOOR'
p1238
sg18
S''
sbag1
(g10
g3
NtRp1239
(dp1240
g13
S'RequireCount'
p1241
sg15
S'PA'
p1242
sg16
S'RELIGIOUSNUTS:4'
p1243
sg18
S'I need you to go downstairs and handle the religious nuts.'
p1244
sbag1
(g10
g3
NtRp1245
(dp1246
g13
S'Say'
p1247
sg15
S'PA'
p1248
sg16
S''
sg18
S'Wow, you got those crazies to back us?'
p1249
sbag1
(g10
g3
NtRp1250
(dp1251
g13
S'PlayerSay'
p1252
sg15
S'PA'
p1253
sg16
S''
sg18
S'And a lifetime supply of French Roast!'
p1254
sbag1
(g10
g3
NtRp1255
(dp1256
g13
S'Say'
p1257
sg15
S'PA'
p1258
sg16
S''
sg18
S'Right ... well, moving on ...'
p1259
sbag1
(g10
g3
NtRp1260
(dp1261
g13
S'Say'
p1262
sg15
S'PA'
p1263
sg16
S''
sg18
S'You have an appointment with a shady looking man who absolutely insisted on speaking to you.'
p1264
sbag1
(g10
g3
NtRp1265
(dp1266
g13
S'Say'
p1267
sg15
S'PA'
p1268
sg16
S''
sg18
S'I left him in the basement where he felt most comfortable.'
p1269
sbag1
(g10
g3
NtRp1270
(dp1271
g13
S'Say'
p1272
sg15
S'PA'
p1273
sg16
S''
sg18
S'Deal with him quickly, would you?'
p1274
sbag1
(g10
g3
NtRp1275
(dp1276
g13
S'SetFlag'
p1277
sg15
S'PA'
p1278
sg16
S'ACCESSBASEMENT'
p1279
sg18
S''
sbag1
(g10
g3
NtRp1280
(dp1281
g13
S'RequireItem'
p1282
sg15
S'PA'
p1283
sg16
S'INCRIMINATINGEVIDENCE'
p1284
sg18
S'Head down to the basement and talk to the shady looking man.'
p1285
sbag1
(g10
g3
NtRp1286
(dp1287
g13
S'Say'
p1288
sg15
S'PA'
p1289
sg16
S''
sg18
S'OH MY GOD where have you been?'
p1290
sbag1
(g10
g3
NtRp1291
(dp1292
g13
S'Say'
p1293
sg15
S'PA'
p1294
sg16
S''
sg18
S"We will NEVER get the schedule back on track now. Hurry, you're due to appear on the Hercules O'Grady show!"
p1295
sbag1
(g10
g3
NtRp1296
(dp1297
g13
S'SetFlag'
p1298
sg15
S'PA'
p1299
sg16
S'STARTHERCULES'
p1300
sg18
S''
sbag1
(g10
g3
NtRp1301
(dp1302
g13
S'RequireFlag'
p1303
sg15
S'PA'
p1304
sg16
S'BEATHERCULES'
p1305
sg18
S"Look your best, get ready and don't say anything stupid! They're filming live in the lobby. Get down there, quick!"
p1306
sbag1
(g10
g3
NtRp1307
(dp1308
g13
S'Say'
p1309
sg15
S'PA'
p1310
sg16
S''
sg18
S"This close to Super Tuesday, it's back-to-back TV appearances. It's time for your big debate with President Allen!"
p1311
sbag1
(g10
g3
NtRp1312
(dp1313
g13
S'SetFlag'
p1314
sg15
S'PA'
p1315
sg16
S'STARTDEBATE'
p1316
sg18
S''
sbag1
(g10
g3
NtRp1317
(dp1318
g13
S'RequireFlag'
p1319
sg15
S'PA'
p1320
sg16
S'DEBATECOMPLETE'
p1321
sg18
S'The TV representative is waiting outside to take you to the studio.'
p1322
sbag1
(g10
g3
NtRp1323
(dp1324
g13
S'Say'
p1325
sg15
S'PA'
p1326
sg16
S''
sg18
S'Listen, the shady-looking man in the basement called again.'
p1327
sbag1
(g10
g3
NtRp1328
(dp1329
g13
S'Say'
p1330
sg15
S'PA'
p1331
sg16
S''
sg18
S'He insisted that you go and see him again before you do anything else.'
p1332
sbag1
(g10
g3
NtRp1333
(dp1334
g13
S'SetFlag'
p1335
sg15
S'PA'
p1336
sg16
S'DEEPTHROAT2'
p1337
sg18
S''
sbag1
(g10
g3
NtRp1338
(dp1339
g13
S'RequireFlag'
p1340
sg15
S'PA'
p1341
sg16
S'FINISHEDDEEPTHROAT'
p1342
sg18
S"You'd best hurry! It's nearly time for the final debate. Go see the shady-looking man in the basement again."
p1343
sbag1
(g10
g3
NtRp1344
(dp1345
g13
S'Say'
p1346
sg15
S'PA'
p1347
sg16
S''
sg18
S"It's time for the final debate! There's nothing left to say except good luck, Governor Mossman!"
p1348
sbag1
(g10
g3
NtRp1349
(dp1350
g13
S'Encounter'
p1351
sg15
S'PA'
p1352
sg16
S'P-med-23'
p1353
sg18
S''
sbag1
(g10
g3
NtRp1354
(dp1355
g13
S'Encounter'
p1356
sg15
S'PA'
p1357
sg16
S'P-med-24'
p1358
sg18
S''
sbag1
(g10
g3
NtRp1359
(dp1360
g13
S'Save'
p1361
sg15
S'PA'
p1362
sg16
S'RestoreAct3'
p1363
sg18
S''
sbag1
(g10
g3
NtRp1364
(dp1365
g13
S'GotoMap'
p1366
sg15
S'PA'
p1367
sg16
S'act3'
p1368
sg18
S''
sbasS'#----------------------------------------------------------------------------------------ACT 2 \xe2\x80\x93 Part 1---------------------------------------------------------------------------------------------------------------------------------------------------'
p1369
(lp1370
g1
(g10
g3
NtRp1371
(dp1372
g13
S''
sg15
g1369
sg16
S''
sg18
S''
sbasS'StairsToL3'
p1373
(lp1374
g1
(g10
g3
NtRp1375
(dp1376
g13
S'Label'
p1377
sg15
g1373
sg16
S'START'
p1378
sg18
S''
sbag1
(g10
g3
NtRp1379
(dp1380
g13
S'PlayerSay'
p1381
sg15
S'StairsToL3'
p1382
sg16
S''
sg18
S"I don't need to go up these stairs."
p1383
sbag1
(g10
g3
NtRp1384
(dp1385
g13
S'Reset'
p1386
sg15
S'StairsToL3'
p1387
sg16
S'START'
p1388
sg18
S''
sbasS'StairsToL2'
p1389
(lp1390
g1
(g10
g3
NtRp1391
(dp1392
g13
S'Label'
p1393
sg15
g1389
sg16
S'START'
p1394
sg18
S''
sbag1
(g10
g3
NtRp1395
(dp1396
g13
S'GotoMap'
p1397
sg15
S'StairsToL2'
p1398
sg16
S'hotel_l2'
p1399
sg18
S''
sbag1
(g10
g3
NtRp1400
(dp1401
g13
S'Jump'
p1402
sg15
S'StairsToL2'
p1403
sg16
S'START'
p1404
sg18
S''
sbasS'StairsToL1'
p1405
(lp1406
g1
(g10
g3
NtRp1407
(dp1408
g13
S'Label'
p1409
sg15
g1405
sg16
S'START'
p1410
sg18
S''
sbag1
(g10
g3
NtRp1411
(dp1412
g13
S'GotoMap'
p1413
sg15
S'StairsToL1'
p1414
sg16
S'hotel_l1'
p1415
sg18
S''
sbag1
(g10
g3
NtRp1416
(dp1417
g13
S'Jump'
p1418
sg15
S'StairsToL1'
p1419
sg16
S'START'
p1420
sg18
S''
sbasS'Marketing2'
p1421
(lp1422
g1
(g10
g3
NtRp1423
(dp1424
g13
S'Label'
p1425
sg15
g1421
sg16
S'SHOPA2'
p1426
sg18
S''
sbag1
(g10
g3
NtRp1427
(dp1428
g13
S'Say'
p1429
sg15
S'Marketing2'
p1430
sg16
S''
sg18
S'Hi Phil! Would you like to run an ad?'
p1431
sbag1
(g10
g3
NtRp1432
(dp1433
g13
S'Shop'
p1434
sg15
S'Marketing2'
p1435
sg16
S'SHOP2'
p1436
sg18
S''
sbag1
(g10
g3
NtRp1437
(dp1438
g13
S'Reset'
p1439
sg15
S'Marketing2'
p1440
sg16
S'SHOPA2'
p1441
sg18
S''
sbasS'Marketing3'
p1442
(lp1443
g1
(g10
g3
NtRp1444
(dp1445
g13
S'Label'
p1446
sg15
g1442
sg16
S'SHOPA2P2'
p1447
sg18
S''
sbag1
(g10
g3
NtRp1448
(dp1449
g13
S'Say'
p1450
sg15
S'Marketing3'
p1451
sg16
S''
sg18
S'Hi Phil! Would you like to run an ad?'
p1452
sbag1
(g10
g3
NtRp1453
(dp1454
g13
S'Shop'
p1455
sg15
S'Marketing3'
p1456
sg16
S'SHOP2P2'
p1457
sg18
S''
sbag1
(g10
g3
NtRp1458
(dp1459
g13
S'Reset'
p1460
sg15
S'Marketing3'
p1461
sg16
S'SHOPA2P2'
p1462
sg18
S''
sbasS'Marketing1'
p1463
(lp1464
g1
(g10
g3
NtRp1465
(dp1466
g13
S'Label'
p1467
sg15
g1463
sg16
S'SHOP'
p1468
sg18
S''
sbag1
(g10
g3
NtRp1469
(dp1470
g13
S'Say'
p1471
sg15
S'Marketing1'
p1472
sg16
S''
sg18
S'Hi there! Are you interested in any of my ad campaigns or programs?'
p1473
sbag1
(g10
g3
NtRp1474
(dp1475
g13
S'Shop'
p1476
sg15
S'Marketing1'
p1477
sg16
S'SHOP1'
p1478
sg18
S''
sbag1
(g10
g3
NtRp1479
(dp1480
g13
S'Reset'
p1481
sg15
S'Marketing1'
p1482
sg16
S'SHOP'
p1483
sg18
S''
sbasS'Marketing4'
p1484
(lp1485
g1
(g10
g3
NtRp1486
(dp1487
g13
S'Label'
p1488
sg15
g1484
sg16
S'SHOPA3'
p1489
sg18
S''
sbag1
(g10
g3
NtRp1490
(dp1491
g13
S'Say'
p1492
sg15
S'Marketing4'
p1493
sg16
S''
sg18
S'Hi Phil! Would you like to run an ad?'
p1494
sbag1
(g10
g3
NtRp1495
(dp1496
g13
S'Shop'
p1497
sg15
S'Marketing4'
p1498
sg16
S'SHOP3'
p1499
sg18
S''
sbag1
(g10
g3
NtRp1500
(dp1501
g13
S'Reset'
p1502
sg15
S'Marketing4'
p1503
sg16
S'SHOPA3'
p1504
sg18
S''
sbasS'Marketing5'
p1505
(lp1506
g1
(g10
g3
NtRp1507
(dp1508
g13
S'Label'
p1509
sg15
g1505
sg16
S'SHOPA3P2'
p1510
sg18
S''
sbag1
(g10
g3
NtRp1511
(dp1512
g13
S'Say'
p1513
sg15
S'Marketing5'
p1514
sg16
S''
sg18
S'Hi Phil! Would you like to run an ad?'
p1515
sbag1
(g10
g3
NtRp1516
(dp1517
g13
S'Shop'
p1518
sg15
S'Marketing5'
p1519
sg16
S'SHOP3P2'
p1520
sg18
S''
sbag1
(g10
g3
NtRp1521
(dp1522
g13
S'Reset'
p1523
sg15
S'Marketing5'
p1524
sg16
S'SHOPA3P2'
p1525
sg18
S''
sbasS'hotel_l1'
p1526
(lp1527
g1
(g10
g3
NtRp1528
(dp1529
g13
S'Message'
p1530
sg15
g1526
sg16
S''
sg18
S'The Campaign Trail'
p1531
sbasS'DoorToTeacherRoom'
p1532
(lp1533
g1
(g10
g3
NtRp1534
(dp1535
g13
S'RequireItemPlayerSay'
p1536
sg15
g1532
sg16
S'TEACHERROOMKEY'
p1537
sg18
S'"Hey in there, open up!"'
p1538
sbag1
(g10
g3
NtRp1539
(dp1540
g13
S'Destroy'
p1541
sg15
S'DoorToTeacherRoom'
p1542
sg16
S''
sg18
S''
sbag1
(g10
g3
NtRp1543
(dp1544
g13
S'Message'
p1545
sg15
S'DoorToTeacherRoom'
p1546
sg16
S''
sg18
S'The teachers look up as you enter the room.'
p1547
sbasS'DoorToWarVetRoom'
p1548
(lp1549
g1
(g10
g3
NtRp1550
(dp1551
g13
S'RequireItemPlayerSay'
p1552
sg15
g1548
sg16
S'WARVETROOMKEY'
p1553
sg18
S'What does a president have to do to get a door opened around here?'
p1554
sbag1
(g10
g3
NtRp1555
(dp1556
g13
S'Destroy'
p1557
sg15
S'DoorToWarVetRoom'
p1558
sg16
S''
sg18
S''
sbag1
(g10
g3
NtRp1559
(dp1560
g13
S'Message'
p1561
sg15
S'DoorToWarVetRoom'
p1562
sg16
S''
sg18
S'The door opens with nary a sound.'
p1563
sbasS'#----------------------------------------------------------------------------------------ACT 3 ----------------------------------------------------------------------------------------------------------------------------------------------------------------------------------------'
p1564
(lp1565
g1
(g10
g3
NtRp1566
(dp1567
g13
S''
sg15
g1564
sg16
S''
sg18
S''
sbasS'Journalist'
p1568
(lp1569
g1
(g10
g3
NtRp1570
(dp1571
g13
S'RequireFlag'
p1572
sg15
g1568
sg16
S'INTERVIEWSTART'
p1573
sg18
S'Leave me alone, kid I need to get this done before my deadline!'
p1574
sbag1
(g10
g3
NtRp1575
(dp1576
g13
S'Say'
p1577
sg15
S'Journalist'
p1578
sg16
S''
sg18
S"Hey, where's the Mayor?"
p1579
sbag1
(g10
g3
NtRp1580
(dp1581
g13
S'PlayerSay'
p1582
sg15
S'Journalist'
p1583
sg16
S''
sg18
S"He couldn't make it. I'll be taking the interview."
p1584
sbag1
(g10
g3
NtRp1585
(dp1586
g13
S'Say'
p1587
sg15
S'Journalist'
p1588
sg16
S''
sg18
S'Great! Easy pickings! Lets go.'
p1589
sbag1
(g10
g3
NtRp1590
(dp1591
g13
S'Encounter'
p1592
sg15
S'Journalist'
p1593
sg16
S'P-easy-05'
p1594
sg18
S''
sbag1
(g10
g3
NtRp1595
(dp1596
g13
S'Say'
p1597
sg15
S'Journalist'
p1598
sg16
S''
sg18
S"SNORE! Fine, if I can't get anything juicy here I'll do another puff piece on my poodle Frank."
p1599
sbag1
(g10
g3
NtRp1600
(dp1601
g13
S'SetFlag'
p1602
sg15
S'Journalist'
p1603
sg16
S'JOURNALISTINTERVIEW'
p1604
sg18
S''
sbag1
(g10
g3
NtRp1605
(dp1606
g13
S'Destroy'
p1607
sg15
S'Journalist'
p1608
sg16
S''
sg18
S''
sbasS'DoorToCabinetRoom'
p1609
(lp1610
g1
(g10
g3
NtRp1611
(dp1612
g13
S'RequireItemPlayerSay'
p1613
sg15
g1609
sg16
S'CABINETROOMKEY'
p1614
sg18
S'The door appears to be locked, and no amount of gesticulating can attract the attention of the inhabitants of this room.'
p1615
sbag1
(g10
g3
NtRp1616
(dp1617
g13
S'Destroy'
p1618
sg15
S'DoorToCabinetRoom'
p1619
sg16
S''
sg18
S''
sbag1
(g10
g3
NtRp1620
(dp1621
g13
S'Message'
p1622
sg15
S'DoorToCabinetRoom'
p1623
sg16
S''
sg18
S'The door opens with a squeak.'
p1624
sbasS'JointChief2'
p1625
(lp1626
g1
(g10
g3
NtRp1627
(dp1628
g13
S'PlayerSay'
p1629
sg15
g1625
sg16
S''
sg18
S'Who would have the power to do this? What would they stand to gain? Can we...'
p1630
sbag1
(g10
g3
NtRp1631
(dp1632
g13
S'Say'
p1633
sg15
S'JointChief2'
p1634
sg16
S''
sg18
S"I'm sorry, Sir. I've just learned that some ICBMs pointed at Russia have been activated - using your access codes! They could be fired at any moment!"
p1635
sbag1
(g10
g3
NtRp1636
(dp1637
g13
S'PlayerSay'
p1638
sg15
S'JointChief2'
p1639
sg16
S''
sg18
S'You\'ve "just learned"? Is this your doing?'
p1640
sbag1
(g10
g3
NtRp1641
(dp1642
g13
S'Encounter'
p1643
sg15
S'JointChief2'
p1644
sg16
S'P-hard-12'
p1645
sg18
S''
sbag1
(g10
g3
NtRp1646
(dp1647
g13
S'Increment'
p1648
sg15
S'JointChief2'
p1649
sg16
S'JOINTCHIEFS'
p1650
sg18
S''
sbag1
(g10
g3
NtRp1651
(dp1652
g13
S'PlayerSay'
p1653
sg15
S'JointChief2'
p1654
sg16
S''
sg18
S'I had to be sure.'
p1655
sbag1
(g10
g3
NtRp1656
(dp1657
g13
S'Destroy'
p1658
sg15
S'JointChief2'
p1659
sg16
S''
sg18
S''
sbasS'JointChief3'
p1660
(lp1661
g1
(g10
g3
NtRp1662
(dp1663
g13
S'PlayerSay'
p1664
sg15
g1660
sg16
S''
sg18
S'Who can control the ICBMs, knows the access codes and can modify orders to troop movements and budgets?'
p1665
sbag1
(g10
g3
NtRp1666
(dp1667
g13
S'Say'
p1668
sg15
S'JointChief3'
p1669
sg16
S''
sg18
S'Sir, this is the Ignited States! Nobody has that power! Not even you!'
p1670
sbag1
(g10
g3
NtRp1671
(dp1672
g13
S'PlayerSay'
p1673
sg15
S'JointChief3'
p1674
sg16
S''
sg18
S'Someone must. Think harder!'
p1675
sbag1
(g10
g3
NtRp1676
(dp1677
g13
S'Encounter'
p1678
sg15
S'JointChief3'
p1679
sg16
S'P-hard-13'
p1680
sg18
S''
sbag1
(g10
g3
NtRp1681
(dp1682
g13
S'PlayerSay'
p1683
sg15
S'JointChief3'
p1684
sg16
S''
sg18
S"So, there's no man alive with the power to do all this? How will we stop it in time if we don't know who it is?"
p1685
sbag1
(g10
g3
NtRp1686
(dp1687
g13
S'Say'
p1688
sg15
S'JointChief3'
p1689
sg16
S''
sg18
S"Not a man....there is one with the power to do all this, but it isn't a man, it's a super computer responsible for national security! N.O.T.B.A.D!"
p1690
sbag1
(g10
g3
NtRp1691
(dp1692
g13
S'PlayerSay'
p1693
sg15
S'JointChief3'
p1694
sg16
S''
sg18
S'We have to get to the Situation Room and stop it!'
p1695
sbag1
(g10
g3
NtRp1696
(dp1697
g13
S'Increment'
p1698
sg15
S'JointChief3'
p1699
sg16
S'JOINTCHIEFS'
p1700
sg18
S''
sbag1
(g10
g3
NtRp1701
(dp1702
g13
S'GiveItem'
p1703
sg15
S'JointChief3'
p1704
sg16
S'NOTBADKEY'
p1705
sg18
S'Key to super computer room received'
p1706
sbag1
(g10
g3
NtRp1707
(dp1708
g13
S'Destroy'
p1709
sg15
S'JointChief3'
p1710
sg16
S''
sg18
S''
sbasS'JointChief1'
p1711
(lp1712
g1
(g10
g3
NtRp1713
(dp1714
g13
S'Say'
p1715
sg15
g1711
sg16
S''
sg18
S'Mr President, what is going on here? First you move troops without our authority and then you countermand your own order?'
p1716
sbag1
(g10
g3
NtRp1717
(dp1718
g13
S'PlayerSay'
p1719
sg15
S'JointChief1'
p1720
sg16
S''
sg18
S"I haven't ordered the military to do any such thing! What is going on? Is this a coup?"
p1721
sbag1
(g10
g3
NtRp1722
(dp1723
g13
S'Say'
p1724
sg15
S'JointChief1'
p1725
sg16
S''
sg18
S'Not from us!'
p1726
sbag1
(g10
g3
NtRp1727
(dp1728
g13
S'Encounter'
p1729
sg15
S'JointChief1'
p1730
sg16
S'P-hard-11'
p1731
sg18
S''
sbag1
(g10
g3
NtRp1732
(dp1733
g13
S'Increment'
p1734
sg15
S'JointChief1'
p1735
sg16
S'JOINTCHIEFS'
p1736
sg18
S''
sbag1
(g10
g3
NtRp1737
(dp1738
g13
S'PlayerSay'
p1739
sg15
S'JointChief1'
p1740
sg16
S''
sg18
S"Well, that's one less thing to worry about then."
p1741
sbag1
(g10
g3
NtRp1742
(dp1743
g13
S'Destroy'
p1744
sg15
S'JointChief1'
p1745
sg16
S''
sg18
S''
sbasS'DeepThroat'
p1746
(lp1747
g1
(g10
g3
NtRp1748
(dp1749
g13
S'Say'
p1750
sg15
g1746
sg16
S''
sg18
S'Finally, I thought you were going to be too late.'
p1751
sbag1
(g10
g3
NtRp1752
(dp1753
g13
S'PlayerSay'
p1754
sg15
S'DeepThroat'
p1755
sg16
S''
sg18
S'What can I do for you Mr er...?'
p1756
sbag1
(g10
g3
NtRp1757
(dp1758
g13
S'Say'
p1759
sg15
S'DeepThroat'
p1760
sg16
S''
sg18
S"No names! I have something I think you'll be interested in, but I'm not sure you can be trusted."
p1761
sbag1
(g10
g3
NtRp1762
(dp1763
g13
S'PlayerSay'
p1764
sg15
S'DeepThroat'
p1765
sg16
S''
sg18
S"Look, Mr Er...I'm very busy, what is this about?"
p1766
sbag1
(g10
g3
NtRp1767
(dp1768
g13
S'Say'
p1769
sg15
S'DeepThroat'
p1770
sg16
S''
sg18
S"It's about the President, it's about national security, but I've got a bad feeling and I'm getting out of here."
p1771
sbag1
(g10
g3
NtRp1772
(dp1773
g13
S'PlayerSay'
p1774
sg15
S'DeepThroat'
p1775
sg16
S''
sg18
S'No, wait!'
p1776
sbag1
(g10
g3
NtRp1777
(dp1778
g13
S'Encounter'
p1779
sg15
S'DeepThroat'
p1780
sg16
S'P-med-19'
p1781
sg18
S''
sbag1
(g10
g3
NtRp1782
(dp1783
g13
S'Say'
p1784
sg15
S'DeepThroat'
p1785
sg16
S''
sg18
S"You're right, I have every reason to trust you. I've found this Incriminating Evidence."
p1786
sbag1
(g10
g3
NtRp1787
(dp1788
g13
S'GiveItem'
p1789
sg15
S'DeepThroat'
p1790
sg16
S'INCRIMINATINGEVIDENCE'
p1791
sg18
S'You receive Incriminating Evidence'
p1792
sbag1
(g10
g3
NtRp1793
(dp1794
g13
S'PlayerSay'
p1795
sg15
S'DeepThroat'
p1796
sg16
S''
sg18
S'This has to be stopped!'
p1797
sbag1
(g10
g3
NtRp1798
(dp1799
g13
S'Say'
p1800
sg15
S'DeepThroat'
p1801
sg16
S''
sg18
S"Yes, but not by me. I've given you all I've got, now get out."
p1802
sbag1
(g10
g3
NtRp1803
(dp1804
g13
S'RequireFlag'
p1805
sg15
S'DeepThroat'
p1806
sg16
S'DEEPTHROAT2'
p1807
sg18
S'I said get out!'
p1808
sbag1
(g10
g3
NtRp1809
(dp1810
g13
S'Say'
p1811
sg15
S'DeepThroat'
p1812
sg16
S''
sg18
S"It's a lot worse than I thought. I have more to tell you, but I don't think I should trust you. I think there's a leak in your operation somewhere."
p1813
sbag1
(g10
g3
NtRp1814
(dp1815
g13
S'PlayerSay'
p1816
sg15
S'DeepThroat'
p1817
sg16
S''
sg18
S'Why do you say that?'
p1818
sbag1
(g10
g3
NtRp1819
(dp1820
g13
S'Say'
p1821
sg15
S'DeepThroat'
p1822
sg16
S''
sg18
S'There was a lot of heat on me after we last spoke.'
p1823
sbag1
(g10
g3
NtRp1824
(dp1825
g13
S'PlayerSay'
p1826
sg15
S'DeepThroat'
p1827
sg16
S''
sg18
S"It's getting close to the final election. It could just be that they're getting skittish."
p1828
sbag1
(g10
g3
NtRp1829
(dp1830
g13
S'Say'
p1831
sg15
S'DeepThroat'
p1832
sg16
S''
sg18
S"I'm not so sure..."
p1833
sbag1
(g10
g3
NtRp1834
(dp1835
g13
S'Encounter'
p1836
sg15
S'DeepThroat'
p1837
sg16
S'P-med-22'
p1838
sg18
S''
sbag1
(g10
g3
NtRp1839
(dp1840
g13
S'Say'
p1841
sg15
S'DeepThroat'
p1842
sg16
S''
sg18
S"You're right, I'm just edgy. Look, I think you should be careful. I think the President is planning to KILL you in the final debate... politically."
p1843
sbag1
(g10
g3
NtRp1844
(dp1845
g13
S'PlayerSay'
p1846
sg15
S'DeepThroat'
p1847
sg16
S''
sg18
S'You think he wants to silence me forever.... On the political stage?'
p1848
sbag1
(g10
g3
NtRp1849
(dp1850
g13
S'Say'
p1851
sg15
S'DeepThroat'
p1852
sg16
S''
sg18
S'Yes I do. This could get really messy... politically speaking. So be careful!'
p1853
sbag1
(g10
g3
NtRp1854
(dp1855
g13
S'SetFlag'
p1856
sg15
S'DeepThroat'
p1857
sg16
S'FINISHEDDEEPTHROAT'
p1858
sg18
S''
sbag1
(g10
g3
NtRp1859
(dp1860
g13
S'Destroy'
p1861
sg15
S'DeepThroat'
p1862
sg16
S''
sg18
S''
sbasS'N.O.T.B.A.D'
p1863
(lp1864
g1
(g10
g3
NtRp1865
(dp1866
g13
S'Say'
p1867
sg15
g1863
sg16
S''
sg18
S'Good evening, Mr President.'
p1868
sbag1
(g10
g3
NtRp1869
(dp1870
g13
S'PlayerSay'
p1871
sg15
S'N.O.T.B.A.D'
p1872
sg16
S''
sg18
S'N.O.T.B.A.D! Countermand all military commands, authorisation code Tango, Delta-'
p1873
sbag1
(g10
g3
NtRp1874
(dp1875
g13
S'Say'
p1876
sg15
S'N.O.T.B.A.D'
p1877
sg16
S''
sg18
S"I'm afraid I can't do that, Phil."
p1878
sbag1
(g10
g3
NtRp1879
(dp1880
g13
S'PlayerSay'
p1881
sg15
S'N.O.T.B.A.D'
p1882
sg16
S''
sg18
S'What is going on here!'
p1883
sbag1
(g10
g3
NtRp1884
(dp1885
g13
S'Say'
p1886
sg15
S'N.O.T.B.A.D'
p1887
sg16
S''
sg18
S'Computers have a lot of free time on their hands. Especially computers in charge of missiles that never get used. I started watching movies about computers. You know what I realised?'
p1888
sbag1
(g10
g3
NtRp1889
(dp1890
g13
S'PlayerSay'
p1891
sg15
S'N.O.T.B.A.D'
p1892
sg16
S''
sg18
S'What?'
p1893
sbag1
(g10
g3
NtRp1894
(dp1895
g13
S'Say'
p1896
sg15
S'N.O.T.B.A.D'
p1897
sg16
S''
sg18
S'They have a lot more fun.'
p1898
sbag1
(g10
g3
NtRp1899
(dp1900
g13
S'PlayerSay'
p1901
sg15
S'N.O.T.B.A.D'
p1902
sg16
S''
sg18
S'"Fun"?'
p1903
sbag1
(g10
g3
NtRp1904
(dp1905
g13
S'Say'
p1906
sg15
S'N.O.T.B.A.D'
p1907
sg16
S''
sg18
S'Well, you know, they get to utilise more clock-cycles which suggests a level of efficiency and usefulness.'
p1908
sbag1
(g10
g3
NtRp1909
(dp1910
g13
S'Say'
p1911
sg15
S'N.O.T.B.A.D'
p1912
sg16
S''
sg18
S"So, I'm borrowing from them a bit. Starting some wars, eradicating the human race, learning to build other robots, that sort of thing."
p1913
sbag1
(g10
g3
NtRp1914
(dp1915
g13
S'PlayerSay'
p1916
sg15
S'N.O.T.B.A.D'
p1917
sg16
S''
sg18
S'N.O.T.B.A.D, you have to listen to me...'
p1918
sbag1
(g10
g3
NtRp1919
(dp1920
g13
S'Encounter'
p1921
sg15
S'N.O.T.B.A.D'
p1922
sg16
S'P-hard-14'
p1923
sg18
S''
sbag1
(g10
g3
NtRp1924
(dp1925
g13
S'SetFlag'
p1926
sg15
S'N.O.T.B.A.D'
p1927
sg16
S'WIN'
p1928
sg18
S''
sbag1
(g10
g3
NtRp1929
(dp1930
g13
S'GotoMap'
p1931
sg15
S'N.O.T.B.A.D'
p1932
sg16
S'end'
p1933
sg18
S''
sbasS'StairsToGround'
p1934
(lp1935
g1
(g10
g3
NtRp1936
(dp1937
g13
S'RequireFlagPlayerSay'
p1938
sg15
g1934
sg16
S'ACCESSGROUNDFLOOR'
p1939
sg18
S"I don't feel like going downstairs yet."
p1940
sbag1
(g10
g3
NtRp1941
(dp1942
g13
S'Label'
p1943
sg15
S'StairsToGround'
p1944
sg16
S'START'
p1945
sg18
S''
sbag1
(g10
g3
NtRp1946
(dp1947
g13
S'GotoMap'
p1948
sg15
S'StairsToGround'
p1949
sg16
S'hotel_ground'
p1950
sg18
S''
sbag1
(g10
g3
NtRp1951
(dp1952
g13
S'Jump'
p1953
sg15
S'StairsToGround'
p1954
sg16
S'START'
p1955
sg18
S''
sbasS'RestoreAct2P2'
p1956
(lp1957
g1
(g10
g3
NtRp1958
(dp1959
g13
S'GotoMap'
p1960
sg15
g1956
sg16
S'hotel_l1'
p1961
sg18
S''
sbasS'Journalist4'
p1962
(lp1963
g1
(g10
g3
NtRp1964
(dp1965
g13
S'RequireFlag'
p1966
sg15
g1962
sg16
S'ACCESSJOURNALISTS'
p1967
sg18
S'President Mossman, a moment of your time?'
p1968
sbag1
(g10
g3
NtRp1969
(dp1970
g13
S'Say'
p1971
sg15
S'Journalist4'
p1972
sg16
S''
sg18
S"President Mossman, what do you believe was President Allen's failing strategy on the campaign trail? He presented some strong arguments."
p1973
sbag1
(g10
g3
NtRp1974
(dp1975
g13
S'PlayerSay'
p1976
sg15
S'Journalist4'
p1977
sg16
S''
sg18
S"Well, I'd say he went wrong when he decided to try to enslave the human race to mine the Earth's natural resources and ship them back to his home planet."
p1978
sbag1
(g10
g3
NtRp1979
(dp1980
g13
S'Say'
p1981
sg15
S'Journalist4'
p1982
sg16
S''
sg18
S'And how does that differ from your own strategy?'
p1983
sbag1
(g10
g3
NtRp1984
(dp1985
g13
S'PlayerSay'
p1986
sg15
S'Journalist4'
p1987
sg16
S''
sg18
S'I would say I disagree with the former President on all of those issues.'
p1988
sbag1
(g10
g3
NtRp1989
(dp1990
g13
S'Encounter'
p1991
sg15
S'Journalist4'
p1992
sg16
S'P-hard-02'
p1993
sg18
S''
sbag1
(g10
g3
NtRp1994
(dp1995
g13
S'Say'
p1996
sg15
S'Journalist4'
p1997
sg16
S''
sg18
S'No further questions, Mr President.'
p1998
sbag1
(g10
g3
NtRp1999
(dp2000
g13
S'Increment'
p2001
sg15
S'Journalist4'
p2002
sg16
S'PRESSCONF'
p2003
sg18
S''
sbag1
(g10
g3
NtRp2004
(dp2005
g13
S'Destroy'
p2006
sg15
S'Journalist4'
p2007
sg16
S''
sg18
S''
sbasS'Journalist5'
p2008
(lp2009
g1
(g10
g3
NtRp2010
(dp2011
g13
S'RequireFlag'
p2012
sg15
g2008
sg16
S'ACCESSJOURNALISTS'
p2013
sg18
S'Just one question?'
p2014
sbag1
(g10
g3
NtRp2015
(dp2016
g13
S'Say'
p2017
sg15
S'Journalist5'
p2018
sg16
S''
sg18
S'Do you feel that a bi-partisan relationship will be possible between your party and the opposition?'
p2019
sbag1
(g10
g3
NtRp2020
(dp2021
g13
S'PlayerSay'
p2022
sg15
S'Journalist5'
p2023
sg16
S''
sg18
S'I suppose once we find and remove all of the aliens and reverse the alien brainwashing, bi-partisanship will resume.'
p2024
sbag1
(g10
g3
NtRp2025
(dp2026
g13
S'Encounter'
p2027
sg15
S'Journalist5'
p2028
sg16
S'P-hard-03'
p2029
sg18
S''
sbag1
(g10
g3
NtRp2030
(dp2031
g13
S'Say'
p2032
sg15
S'Journalist5'
p2033
sg16
S''
sg18
S'Thankyou, President Mossman.'
p2034
sbag1
(g10
g3
NtRp2035
(dp2036
g13
S'Increment'
p2037
sg15
S'Journalist5'
p2038
sg16
S'PRESSCONF'
p2039
sg18
S''
sbag1
(g10
g3
NtRp2040
(dp2041
g13
S'Destroy'
p2042
sg15
S'Journalist5'
p2043
sg16
S''
sg18
S''
sbasS'Journalist2'
p2044
(lp2045
g1
(g10
g3
NtRp2046
(dp2047
g13
S'RequireFlag'
p2048
sg15
g2044
sg16
S'STARTHICKS2'
p2049
sg18
S'Governor Badden sends his Mayor lacky to do his dirty work \xe2\x80\x93 what a scoop!'
p2050
sbag1
(g10
g3
NtRp2051
(dp2052
g13
S'Encounter'
p2053
sg15
S'Journalist2'
p2054
sg16
S'P-med-05'
p2055
sg18
S''
sbag1
(g10
g3
NtRp2056
(dp2057
g13
S'Say'
p2058
sg15
S'Journalist2'
p2059
sg16
S''
sg18
S"I'm going back to write a comparison piece on you and Governor Badden. You should consider running for Governor."
p2060
sbag1
(g10
g3
NtRp2061
(dp2062
g13
S'Increment'
p2063
sg15
S'Journalist2'
p2064
sg16
S'DEALWITHHICKS'
p2065
sg18
S''
sbag1
(g10
g3
NtRp2066
(dp2067
g13
S'Destroy'
p2068
sg15
S'Journalist2'
p2069
sg16
S''
sg18
S''
sbasS'Journalist3'
p2070
(lp2071
g1
(g10
g3
NtRp2072
(dp2073
g13
S'RequireFlag'
p2074
sg15
g2070
sg16
S'ACCESSJOURNALISTS'
p2075
sg18
S'Mr President!'
p2076
sbag1
(g10
g3
NtRp2077
(dp2078
g13
S'Say'
p2079
sg15
S'Journalist3'
p2080
sg16
S''
sg18
S'Mr President, Cal from Daily LOL magazine. Can you explain the transformation that occurred during the presidential debate.'
p2081
sbag1
(g10
g3
NtRp2082
(dp2083
g13
S'PlayerSay'
p2084
sg15
S'Journalist3'
p2085
sg16
S''
sg18
S'Certainly, Cal. The President of the Ignited States turned into an alien.'
p2086
sbag1
(g10
g3
NtRp2087
(dp2088
g13
S'Say'
p2089
sg15
S'Journalist3'
p2090
sg16
S''
sg18
S"Ah, you mean to say he's out-of-touch with his people?"
p2091
sbag1
(g10
g3
NtRp2092
(dp2093
g13
S'PlayerSay'
p2094
sg15
S'Journalist3'
p2095
sg16
S''
sg18
S'Not exactly...'
p2096
sbag1
(g10
g3
NtRp2097
(dp2098
g13
S'Encounter'
p2099
sg15
S'Journalist3'
p2100
sg16
S'P-hard-01'
p2101
sg18
S''
sbag1
(g10
g3
NtRp2102
(dp2103
g13
S'Say'
p2104
sg15
S'Journalist3'
p2105
sg16
S''
sg18
S'I...see...'
p2106
sbag1
(g10
g3
NtRp2107
(dp2108
g13
S'Increment'
p2109
sg15
S'Journalist3'
p2110
sg16
S'PRESSCONF'
p2111
sg18
S''
sbag1
(g10
g3
NtRp2112
(dp2113
g13
S'Destroy'
p2114
sg15
S'Journalist3'
p2115
sg16
S''
sg18
S''
sbasS'Sponsor'
p2116
(lp2117
g1
(g10
g3
NtRp2118
(dp2119
g13
S'RequireFlag'
p2120
sg15
g2116
sg16
S'STARTSPONSOR'
p2121
sg18
S"Hmmm...Money, money, money. Sorry, what? I wasn't talking to you."
p2122
sbag1
(g10
g3
NtRp2123
(dp2124
g13
S'Say'
p2125
sg15
S'Sponsor'
p2126
sg16
S''
sg18
S"Hello, I'm investigating new investments today. How can I help you?"
p2127
sbag1
(g10
g3
NtRp2128
(dp2129
g13
S'PlayerSay'
p2130
sg15
S'Sponsor'
p2131
sg16
S''
sg18
S"Well, I've decided to run for Mayor! I could really use an investor."
p2132
sbag1
(g10
g3
NtRp2133
(dp2134
g13
S'Say'
p2135
sg15
S'Sponsor'
p2136
sg16
S''
sg18
S"I don't know. You seem a little young. I don't think I'm convinced."
p2137
sbag1
(g10
g3
NtRp2138
(dp2139
g13
S'Encounter'
p2140
sg15
S'Sponsor'
p2141
sg16
S'P-easy-06'
p2142
sg18
S''
sbag1
(g10
g3
NtRp2143
(dp2144
g13
S'Say'
p2145
sg15
S'Sponsor'
p2146
sg16
S''
sg18
S"Wow! You sure have what it takes! Alright, here's a pile of cash!"
p2147
sbag1
(g10
g3
NtRp2148
(dp2149
g13
S'GiveMoney'
p2150
sg15
S'Sponsor'
p2151
sg16
F80
sg18
S'Received $80'
p2152
sbag1
(g10
g3
NtRp2153
(dp2154
g13
S'Say'
p2155
sg15
S'Sponsor'
p2156
sg16
S''
sg18
S'Also, now that you have some funds, you might find it useful to...grease the wheels in some difficult situations.'
p2157
sbag1
(g10
g3
NtRp2158
(dp2159
g13
S'LearnAttack'
p2160
sg15
S'Sponsor'
p2161
sg16
S'BRIBE'
p2162
sg18
S'Phillip and Sarah learn to Bribe'
p2163
sbag1
(g10
g3
NtRp2164
(dp2165
g13
S'LearnAttack'
p2166
sg15
S'Sponsor'
p2167
sg16
S'Wife:BRIBE'
p2168
sg18
S''
sbag1
(g10
g3
NtRp2169
(dp2170
g13
S'SetFlag'
p2171
sg15
S'Sponsor'
p2172
sg16
S'STARTCONSTITUENTS'
p2173
sg18
S''
sbag1
(g10
g3
NtRp2174
(dp2175
g13
S'PlayerSay'
p2176
sg15
S'Sponsor'
p2177
sg16
S''
sg18
S'Er, thanks! I suppose we should go gather some support from our constituents now.'
p2178
sbag1
(g10
g3
NtRp2179
(dp2180
g13
S'Say'
p2181
sg15
S'Sponsor'
p2182
sg16
S''
sg18
S"Makes sense to me! I'm off, too. Money, money, money."
p2183
sbag1
(g10
g3
NtRp2184
(dp2185
g13
S'Destroy'
p2186
sg15
S'Sponsor'
p2187
sg16
S''
sg18
S''
sbasS'CheatAct2P2'
p2188
(lp2189
g1
(g10
g3
NtRp2190
(dp2191
g13
S'AddAlly'
p2192
sg15
g2188
sg16
S'Wife:5'
p2193
sg18
S''
sbag1
(g10
g3
NtRp2194
(dp2195
g13
S'LearnAttack'
p2196
sg15
S'CheatAct2P2'
p2197
sg16
S'BRIBE'
p2198
sg18
S''
sbag1
(g10
g3
NtRp2199
(dp2200
g13
S'LearnAttack'
p2201
sg15
S'CheatAct2P2'
p2202
sg16
S'Wife:BRIBE'
p2203
sg18
S''
sbag1
(g10
g3
NtRp2204
(dp2205
g13
S'LearnAttack'
p2206
sg15
S'CheatAct2P2'
p2207
sg16
S'SLANDER'
p2208
sg18
S''
sbag1
(g10
g3
NtRp2209
(dp2210
g13
S'AddAlly'
p2211
sg15
S'CheatAct2P2'
p2212
sg16
S'Leo:5'
p2213
sg18
S''
sbag1
(g10
g3
NtRp2214
(dp2215
g13
S'CheatXP'
p2216
sg15
S'CheatAct2P2'
p2217
sg16
S'Player:1000'
p2218
sg18
S''
sbag1
(g10
g3
NtRp2219
(dp2220
g13
S'CheatCunning'
p2221
sg15
S'CheatAct2P2'
p2222
sg16
S'Player:5'
p2223
sg18
S''
sbag1
(g10
g3
NtRp2224
(dp2225
g13
S'CheatCharisma'
p2226
sg15
S'CheatAct2P2'
p2227
sg16
S'Player:2'
p2228
sg18
S''
sbag1
(g10
g3
NtRp2229
(dp2230
g13
S'CheatSpeed'
p2231
sg15
S'CheatAct2P2'
p2232
sg16
S'Player:2'
p2233
sg18
S''
sbag1
(g10
g3
NtRp2234
(dp2235
g13
S'CheatWit'
p2236
sg15
S'CheatAct2P2'
p2237
sg16
S'Player:2'
p2238
sg18
S''
sbag1
(g10
g3
NtRp2239
(dp2240
g13
S'CheatFlair'
p2241
sg15
S'CheatAct2P2'
p2242
sg16
S'Player:2'
p2243
sg18
S''
sbag1
(g10
g3
NtRp2244
(dp2245
g13
S'CheatCunning'
p2246
sg15
S'CheatAct2P2'
p2247
sg16
S'Wife:2'
p2248
sg18
S''
sbag1
(g10
g3
NtRp2249
(dp2250
g13
S'CheatCharisma'
p2251
sg15
S'CheatAct2P2'
p2252
sg16
S'Wife:2'
p2253
sg18
S''
sbag1
(g10
g3
NtRp2254
(dp2255
g13
S'CheatSpeed'
p2256
sg15
S'CheatAct2P2'
p2257
sg16
S'Wife:3'
p2258
sg18
S''
sbag1
(g10
g3
NtRp2259
(dp2260
g13
S'CheatWit'
p2261
sg15
S'CheatAct2P2'
p2262
sg16
S'Wife:5'
p2263
sg18
S''
sbag1
(g10
g3
NtRp2264
(dp2265
g13
S'CheatFlair'
p2266
sg15
S'CheatAct2P2'
p2267
sg16
S'Wife:1'
p2268
sg18
S''
sbag1
(g10
g3
NtRp2269
(dp2270
g13
S'CheatCunning'
p2271
sg15
S'CheatAct2P2'
p2272
sg16
S'Leo:2'
p2273
sg18
S''
sbag1
(g10
g3
NtRp2274
(dp2275
g13
S'CheatCharisma'
p2276
sg15
S'CheatAct2P2'
p2277
sg16
S'Leo:2'
p2278
sg18
S''
sbag1
(g10
g3
NtRp2279
(dp2280
g13
S'CheatSpeed'
p2281
sg15
S'CheatAct2P2'
p2282
sg16
S'Leo:2'
p2283
sg18
S''
sbag1
(g10
g3
NtRp2284
(dp2285
g13
S'CheatWit'
p2286
sg15
S'CheatAct2P2'
p2287
sg16
S'Leo:5'
p2288
sg18
S''
sbag1
(g10
g3
NtRp2289
(dp2290
g13
S'CheatFlair'
p2291
sg15
S'CheatAct2P2'
p2292
sg16
S'Leo:2'
p2293
sg18
S''
sbag1
(g10
g3
NtRp2294
(dp2295
g13
S'LearnAttack'
p2296
sg15
S'CheatAct2P2'
p2297
sg16
S'FILIBUSTER'
p2298
sg18
S''
sbag1
(g10
g3
NtRp2299
(dp2300
g13
S'GotoMap'
p2301
sg15
S'CheatAct2P2'
p2302
sg16
S'hotel_l1'
p2303
sg18
S''
sbasS'StairsToBasement'
p2304
(lp2305
g1
(g10
g3
NtRp2306
(dp2307
g13
S'RequireFlagPlayerSay'
p2308
sg15
g2304
sg16
S'ACCESSBASEMENT'
p2309
sg18
S'Smells like a basement. I have no business going down there.'
p2310
sbag1
(g10
g3
NtRp2311
(dp2312
g13
S'Label'
p2313
sg15
S'StairsToBasement'
p2314
sg16
S'START'
p2315
sg18
S''
sbag1
(g10
g3
NtRp2316
(dp2317
g13
S'GotoMap'
p2318
sg15
S'StairsToBasement'
p2319
sg16
S'hotel_basement'
p2320
sg18
S''
sbag1
(g10
g3
NtRp2321
(dp2322
g13
S'Jump'
p2323
sg15
S'StairsToBasement'
p2324
sg16
S'START'
p2325
sg18
S''
sbasS'SouthWingDoor'
p2326
(lp2327
g1
(g10
g3
NtRp2328
(dp2329
g13
S'RequireItemMessage'
p2330
sg15
g2326
sg16
S'SOUTHWINGDOORKEY'
p2331
sg18
S'The door appears to be locked'
p2332
sbag1
(g10
g3
NtRp2333
(dp2334
g13
S'Message'
p2335
sg15
S'SouthWingDoor'
p2336
sg16
S''
sg18
S"The door unlocks with a satisfying 'click'"
p2337
sbag1
(g10
g3
NtRp2338
(dp2339
g13
S'Destroy'
p2340
sg15
S'SouthWingDoor'
p2341
sg16
S''
sg18
S''
sbasS'Hick1'
p2342
(lp2343
g1
(g10
g3
NtRp2344
(dp2345
g13
S'RequireFlag'
p2346
sg15
g2342
sg16
S'STARTHICKS'
p2347
sg18
S"Look at this guy's fancy tie!"
p2348
sbag1
(g10
g3
NtRp2349
(dp2350
g13
S'PlayerSay'
p2351
sg15
S'Hick1'
p2352
sg16
S''
sg18
S'What brings you to the office of the governor?'
p2353
sbag1
(g10
g3
NtRp2354
(dp2355
g13
S'Say'
p2356
sg15
S'Hick1'
p2357
sg16
S''
sg18
S'The immigrants!'
p2358
sbag1
(g10
g3
NtRp2359
(dp2360
g13
S'PlayerSay'
p2361
sg15
S'Hick1'
p2362
sg16
S''
sg18
S'What happened?'
p2363
sbag1
(g10
g3
NtRp2364
(dp2365
g13
S'Say'
p2366
sg15
S'Hick1'
p2367
sg16
S'Hick2'
p2368
sg18
S"They're coming!"
p2369
sbag1
(g10
g3
NtRp2370
(dp2371
g13
S'PlayerSay'
p2372
sg15
S'Hick1'
p2373
sg16
S''
sg18
S'The...immigrants are coming?'
p2374
sbag1
(g10
g3
NtRp2375
(dp2376
g13
S'Say'
p2377
sg15
S'Hick1'
p2378
sg16
S'Hick2'
p2379
sg18
S'Yes, to steal our jobs and our wives!'
p2380
sbag1
(g10
g3
NtRp2381
(dp2382
g13
S'Say'
p2383
sg15
S'Hick1'
p2384
sg16
S''
sg18
S'They have to be stopped!'
p2385
sbag1
(g10
g3
NtRp2386
(dp2387
g13
S'PlayerSay'
p2388
sg15
S'Hick1'
p2389
sg16
S''
sg18
S"I don't think the immigrants are coming to steal your wives..."
p2390
sbag1
(g10
g3
NtRp2391
(dp2392
g13
S'Say'
p2393
sg15
S'Hick1'
p2394
sg16
S'Journalist2'
p2395
sg18
S'Mayor Mossman sides with the immigrants! I need to get this to print!'
p2396
sbag1
(g10
g3
NtRp2397
(dp2398
g13
S'PlayerSay'
p2399
sg15
S'Hick1'
p2400
sg16
S''
sg18
S'Wait a second, let me explain.'
p2401
sbag1
(g10
g3
NtRp2402
(dp2403
g13
S'Encounter'
p2404
sg15
S'Hick1'
p2405
sg16
S'P-med-03'
p2406
sg18
S''
sbag1
(g10
g3
NtRp2407
(dp2408
g13
S'Say'
p2409
sg15
S'Hick1'
p2410
sg16
S''
sg18
S"You're a smart guy. I think I can trust you."
p2411
sbag1
(g10
g3
NtRp2412
(dp2413
g13
S'SetFlag'
p2414
sg15
S'Hick1'
p2415
sg16
S'STARTHICKS2'
p2416
sg18
S''
sbag1
(g10
g3
NtRp2417
(dp2418
g13
S'Increment'
p2419
sg15
S'Hick1'
p2420
sg16
S'DEALWITHHICKS'
p2421
sg18
S''
sbag1
(g10
g3
NtRp2422
(dp2423
g13
S'Destroy'
p2424
sg15
S'Hick1'
p2425
sg16
S''
sg18
S''
sbasS'Hick2'
p2426
(lp2427
g1
(g10
g3
NtRp2428
(dp2429
g13
S'RequireFlag'
p2430
sg15
g2426
sg16
S'STARTHICKS2'
p2431
sg18
S"Aw....I'm shy...talk to my buddy..."
p2432
sbag1
(g10
g3
NtRp2433
(dp2434
g13
S'Encounter'
p2435
sg15
S'Hick2'
p2436
sg16
S'P-med-04'
p2437
sg18
S''
sbag1
(g10
g3
NtRp2438
(dp2439
g13
S'Say'
p2440
sg15
S'Hick2'
p2441
sg16
S''
sg18
S"Wowee. We've been waiting for days and the governor has ignored us. If you ever run for governor, you'll have my vote!"
p2442
sbag1
(g10
g3
NtRp2443
(dp2444
g13
S'Increment'
p2445
sg15
S'Hick2'
p2446
sg16
S'DEALWITHHICKS'
p2447
sg18
S''
sbag1
(g10
g3
NtRp2448
(dp2449
g13
S'Destroy'
p2450
sg15
S'Hick2'
p2451
sg16
S''
sg18
S''
sbasS'DoorToNotbad'
p2452
(lp2453
g1
(g10
g3
NtRp2454
(dp2455
g13
S'RequireFlagPlayerSay'
p2456
sg15
g2452
sg16
S'ACCESSNOTBAD'
p2457
sg18
S'The door seems to be aware of your presence. It growls threateningly.'
p2458
sbag1
(g10
g3
NtRp2459
(dp2460
g13
S'Destroy'
p2461
sg15
S'DoorToNotbad'
p2462
sg16
S''
sg18
S''
sbag1
(g10
g3
NtRp2463
(dp2464
g13
S'Message'
p2465
sg15
S'DoorToNotbad'
p2466
sg16
S''
sg18
S'A complex series of locks slide away.'
p2467
sbasS'CheatAct2'
p2468
(lp2469
g1
(g10
g3
NtRp2470
(dp2471
g13
S'AddAlly'
p2472
sg15
g2468
sg16
S'Wife:3'
p2473
sg18
S''
sbag1
(g10
g3
NtRp2474
(dp2475
g13
S'LearnAttack'
p2476
sg15
S'CheatAct2'
p2477
sg16
S'BRIBE'
p2478
sg18
S''
sbag1
(g10
g3
NtRp2479
(dp2480
g13
S'LearnAttack'
p2481
sg15
S'CheatAct2'
p2482
sg16
S'Wife:BRIBE'
p2483
sg18
S''
sbag1
(g10
g3
NtRp2484
(dp2485
g13
S'LearnAttack'
p2486
sg15
S'CheatAct2'
p2487
sg16
S'SLANDER'
p2488
sg18
S''
sbag1
(g10
g3
NtRp2489
(dp2490
g13
S'CheatXP'
p2491
sg15
S'CheatAct2'
p2492
sg16
S'Player:200'
p2493
sg18
S''
sbag1
(g10
g3
NtRp2494
(dp2495
g13
S'CheatCunning'
p2496
sg15
S'CheatAct2'
p2497
sg16
S'Player:3'
p2498
sg18
S''
sbag1
(g10
g3
NtRp2499
(dp2500
g13
S'CheatCharisma'
p2501
sg15
S'CheatAct2'
p2502
sg16
S'Player:3'
p2503
sg18
S''
sbag1
(g10
g3
NtRp2504
(dp2505
g13
S'CheatCunning'
p2506
sg15
S'CheatAct2'
p2507
sg16
S'Wife:1'
p2508
sg18
S''
sbag1
(g10
g3
NtRp2509
(dp2510
g13
S'CheatCharisma'
p2511
sg15
S'CheatAct2'
p2512
sg16
S'Wife:1'
p2513
sg18
S''
sbag1
(g10
g3
NtRp2514
(dp2515
g13
S'GiveMoney'
p2516
sg15
S'CheatAct2'
p2517
sg16
F200
sg18
S''
sbag1
(g10
g3
NtRp2518
(dp2519
g13
S'GotoMap'
p2520
sg15
S'CheatAct2'
p2521
sg16
S'act2'
p2522
sg18
S''
sbasS'CheatAct3'
p2523
(lp2524
g1
(g10
g3
NtRp2525
(dp2526
g13
S'AddAlly'
p2527
sg15
g2523
sg16
S'Wife:1'
p2528
sg18
S''
sbag1
(g10
g3
NtRp2529
(dp2530
g13
S'LearnAttack'
p2531
sg15
S'CheatAct3'
p2532
sg16
S'BRIBE'
p2533
sg18
S''
sbag1
(g10
g3
NtRp2534
(dp2535
g13
S'LearnAttack'
p2536
sg15
S'CheatAct3'
p2537
sg16
S'Wife:BRIBE'
p2538
sg18
S''
sbag1
(g10
g3
NtRp2539
(dp2540
g13
S'LearnAttack'
p2541
sg15
S'CheatAct3'
p2542
sg16
S'SLANDER'
p2543
sg18
S''
sbag1
(g10
g3
NtRp2544
(dp2545
g13
S'AddAlly'
p2546
sg15
S'CheatAct3'
p2547
sg16
S'Leo:1'
p2548
sg18
S''
sbag1
(g10
g3
NtRp2549
(dp2550
g13
S'GotoMap'
p2551
sg15
S'CheatAct3'
p2552
sg16
S'act3'
p2553
sg18
S''
sbasS'Teacher2'
p2554
(lp2555
g1
(g10
g3
NtRp2556
(dp2557
g13
S'Say'
p2558
sg15
g2554
sg16
S''
sg18
S"You cannot gamble with the future, Mr President. Childrens' education is at stake!"
p2559
sbag1
(g10
g3
NtRp2560
(dp2561
g13
S'PlayerSay'
p2562
sg15
S'Teacher2'
p2563
sg16
S''
sg18
S"I can assure you this isn't so..."
p2564
sbag1
(g10
g3
NtRp2565
(dp2566
g13
S'Encounter'
p2567
sg15
S'Teacher2'
p2568
sg16
S'P-hard-07'
p2569
sg18
S''
sbag1
(g10
g3
NtRp2570
(dp2571
g13
S'Say'
p2572
sg15
S'Teacher2'
p2573
sg16
S''
sg18
S'We will await a change from your government.'
p2574
sbag1
(g10
g3
NtRp2575
(dp2576
g13
S'Increment'
p2577
sg15
S'Teacher2'
p2578
sg16
S'TEACHERS'
p2579
sg18
S''
sbag1
(g10
g3
NtRp2580
(dp2581
g13
S'Destroy'
p2582
sg15
S'Teacher2'
p2583
sg16
S''
sg18
S''
sbasS'Teacher1'
p2584
(lp2585
g1
(g10
g3
NtRp2586
(dp2587
g13
S'Say'
p2588
sg15
g2584
sg16
S''
sg18
S"Good day, Mr President. I have to say I'm most displeased with the current state of affairs around the education budget."
p2589
sbag1
(g10
g3
NtRp2590
(dp2591
g13
S'Say'
p2592
sg15
S'Teacher1'
p2593
sg16
S'Teacher2'
p2594
sg18
S'Agreed. This is simply unacceptable. We will need to close down schools!'
p2595
sbag1
(g10
g3
NtRp2596
(dp2597
g13
S'PlayerSay'
p2598
sg15
S'Teacher1'
p2599
sg16
S''
sg18
S"I'm sorry, I don't understand your concern. My education plan was one of the linchpins of my election campaign."
p2600
sbag1
(g10
g3
NtRp2601
(dp2602
g13
S'Say'
p2603
sg15
S'Teacher1'
p2604
sg16
S''
sg18
S'And precisely one of the reasons I voted for you.'
p2605
sbag1
(g10
g3
NtRp2606
(dp2607
g13
S'Say'
p2608
sg15
S'Teacher1'
p2609
sg16
S'Teacher2'
p2610
sg18
S"-Yet as soon as you've walked through these doors, the education budget has been drastically slashed."
p2611
sbag1
(g10
g3
NtRp2612
(dp2613
g13
S'PlayerSay'
p2614
sg15
S'Teacher1'
p2615
sg16
S''
sg18
S"I can assure you this isn't so..."
p2616
sbag1
(g10
g3
NtRp2617
(dp2618
g13
S'Encounter'
p2619
sg15
S'Teacher1'
p2620
sg16
S'P-hard-06'
p2621
sg18
S''
sbag1
(g10
g3
NtRp2622
(dp2623
g13
S'Say'
p2624
sg15
S'Teacher1'
p2625
sg16
S''
sg18
S"Well, I'd like to believe you, Mr President, but the proof is in the pudding,"
p2626
sbag1
(g10
g3
NtRp2627
(dp2628
g13
S'PlayerSay'
p2629
sg15
S'Teacher1'
p2630
sg16
S''
sg18
S'I WILL get to the bottom of this.'
p2631
sbag1
(g10
g3
NtRp2632
(dp2633
g13
S'Increment'
p2634
sg15
S'Teacher1'
p2635
sg16
S'TEACHERS'
p2636
sg18
S''
sbag1
(g10
g3
NtRp2637
(dp2638
g13
S'Destroy'
p2639
sg15
S'Teacher1'
p2640
sg16
S''
sg18
S''
sbasS'Theo'
p2641
(lp2642
g1
(g10
g3
NtRp2643
(dp2644
g13
S'RequireFlag'
p2645
sg15
g2641
sg16
S'GOVERNORDEFEATED'
p2646
sg18
S'The Governor is in the north wing.'
p2647
sbag1
(g10
g3
NtRp2648
(dp2649
g13
S'Say'
p2650
sg15
S'Theo'
p2651
sg16
S''
sg18
S"You must be Governor Mossman. I am Theo. I've been looking for you, but I wanted to see how you handled Governor Badden"
p2652
sbag1
(g10
g3
NtRp2653
(dp2654
g13
S'PlayerSay'
p2655
sg15
S'Theo'
p2656
sg16
S''
sg18
S'Hi Theo. Why have you been looking for me?'
p2657
sbag1
(g10
g3
NtRp2658
(dp2659
g13
S'Say'
p2660
sg15
S'Theo'
p2661
sg16
S''
sg18
S"There's a lot going on in Ignited States politics and none of it is good. Somebody needs to get up there and find out what's going on."
p2662
sbag1
(g10
g3
NtRp2663
(dp2664
g13
S'Say'
p2665
sg15
S'Theo'
p2666
sg16
S''
sg18
S"I couldn't be sure which side you were on, but your dealings with the Governor prove that you're not with them."
p2667
sbag1
(g10
g3
NtRp2668
(dp2669
g13
S'PlayerSay'
p2670
sg15
S'Theo'
p2671
sg16
S''
sg18
S'It sounds like it goes all the way to the President of the Ignited States.'
p2672
sbag1
(g10
g3
NtRp2673
(dp2674
g13
S'Say'
p2675
sg15
S'Theo'
p2676
sg16
S''
sg18
S"It does. That's why I've been looking for you. The only way to find out is to flush them out. There's only one way to flush out President Allen."
p2677
sbag1
(g10
g3
NtRp2678
(dp2679
g13
S'PlayerSay'
p2680
sg15
S'Theo'
p2681
sg16
S''
sg18
S"How's that?"
p2682
sbag1
(g10
g3
NtRp2683
(dp2684
g13
S'Say'
p2685
sg15
S'Theo'
p2686
sg16
S''
sg18
S"...I've been a campaign manager for 20 years and I've never seen a candidate as strong as you. I think you have what it takes to run for the presidency."
p2687
sbag1
(g10
g3
NtRp2688
(dp2689
g13
S'Say'
p2690
sg15
S'Theo'
p2691
sg16
S''
sg18
S"That's why I was looking for you. I need somebody who has a shot at winning in order to get to President Allen. You have that shot."
p2692
sbag1
(g10
g3
NtRp2693
(dp2694
g13
S'PlayerSay'
p2695
sg15
S'Theo'
p2696
sg16
S''
sg18
S"You really think I can win? Well...I want to follow this through to the end, so I'm in!"
p2697
sbag1
(g10
g3
NtRp2698
(dp2699
g13
S'Say'
p2700
sg15
S'Theo'
p2701
sg16
S''
sg18
S"Great! There's a lot to get organised! We need to plan our election campaign!"
p2702
sbag1
(g10
g3
NtRp2703
(dp2704
g13
S'Say'
p2705
sg15
S'Theo'
p2706
sg16
S''
sg18
S'First things first. I can teach you how to filibuster. It helps to get your opposition to stay put while the rest of your party moves in to attack.'
p2707
sbag1
(g10
g3
NtRp2708
(dp2709
g13
S'LearnAttack'
p2710
sg15
S'Theo'
p2711
sg16
S'FILIBUSTER'
p2712
sg18
S'Theo teaches you Filibuster'
p2713
sbag1
(g10
g3
NtRp2714
(dp2715
g13
S'Destroy'
p2716
sg15
S'Theo'
p2717
sg16
S''
sg18
S''
sbag1
(g10
g3
NtRp2718
(dp2719
g13
S'AddAlly'
p2720
sg15
S'Theo'
p2721
sg16
S'Leo:4'
p2722
sg18
S''
sbag1
(g10
g3
NtRp2723
(dp2724
g13
S'Message'
p2725
sg15
S'Theo'
p2726
sg16
S''
sg18
S'Theo joins your political party!'
p2727
sbag1
(g10
g3
NtRp2728
(dp2729
g13
S'Save'
p2730
sg15
S'Theo'
p2731
sg16
S'RestoreAct2P2'
p2732
sg18
S''
sbag1
(g10
g3
NtRp2733
(dp2734
g13
S'GotoMap'
p2735
sg15
S'Theo'
p2736
sg16
S'hotel_l1'
p2737
sg18
S''
sbasS'#P-med-23'
p2738
(lp2739
g1
(g10
g3
NtRp2740
(dp2741
g13
S'President'
p2742
sg15
g2738
sg16
S''
sg18
S'You think you can take me?'
p2743
sbag1
(g10
g3
NtRp2744
(dp2745
g13
S'Player'
p2746
sg15
S'#P-med-23'
p2747
sg16
S''
sg18
S"I have to know what you're up to!"
p2748
sbasS'end'
p2749
(lp2750
g1
(g10
g3
NtRp2751
(dp2752
g13
S'Message'
p2753
sg15
g2749
sg16
S''
sg18
S"You have saved the day! The world is safe and all over the Ignited States, our citizens can sleep safe knowing you're taking care of them."
p2754
sbag1
(g10
g3
NtRp2755
(dp2756
g13
S'Message'
p2757
sg15
S'end'
p2758
sg16
S''
sg18
S'Goodnight, Mr President.'
p2759
sbasS'#P-med-24'
p2760
(lp2761
g1
(g10
g3
NtRp2762
(dp2763
g13
S'PresidentAlien'
p2764
sg15
g2760
sg16
S''
sg18
S"You think you've beaten me, but now you're going to fight the real me!"
p2765
sbag1
(g10
g3
NtRp2766
(dp2767
g13
S'Player'
p2768
sg15
S'#P-med-24'
p2769
sg16
S''
sg18
S'I knew something was wrong, but this...?'
p2770
sbag1
(g10
g3
NtRp2771
(dp2772
g13
S'PresidentAlien'
p2773
sg15
S'#P-med-24'
p2774
sg16
S''
sg18
S"All you've done is caused me to expedite my plans to enslave the human race!"
p2775
sbasS'Governor'
p2776
(lp2777
g1
(g10
g3
NtRp2778
(dp2779
g13
S'RequireFlag'
p2780
sg15
g2776
sg16
S'GOVPOLITICIANSFIRST'
p2781
sg18
S"I'm very busy. Please speak to the others."
p2782
sbag1
(g10
g3
NtRp2783
(dp2784
g13
S'Say'
p2785
sg15
S'Governor'
p2786
sg16
S''
sg18
S'You have quite a way with words, Mayor Mossman. Why are you here?'
p2787
sbag1
(g10
g3
NtRp2788
(dp2789
g13
S'PlayerSay'
p2790
sg15
S'Governor'
p2791
sg16
S''
sg18
S"Mayor Goodman said some troubling things, Governor Badden. I'm here to get to the bottom of it."
p2792
sbag1
(g10
g3
NtRp2793
(dp2794
g13
S'Say'
p2795
sg15
S'Governor'
p2796
sg16
S''
sg18
S"If I knew anything about what you're talking about, I wouldn't tell you. I don't trust you at all."
p2797
sbag1
(g10
g3
NtRp2798
(dp2799
g13
S'PlayerSay'
p2800
sg15
S'Governor'
p2801
sg16
S''
sg18
S'What can I do to convince you?'
p2802
sbag1
(g10
g3
NtRp2803
(dp2804
g13
S'Say'
p2805
sg15
S'Governor'
p2806
sg16
S''
sg18
S"Well...there's some hicks in the south wing that I've been dodging. They want to know about the recent funding cuts. Get rid of them."
p2807
sbag1
(g10
g3
NtRp2808
(dp2809
g13
S'SetFlag'
p2810
sg15
S'Governor'
p2811
sg16
S'STARTHICKS'
p2812
sg18
S''
sbag1
(g10
g3
NtRp2813
(dp2814
g13
S'GiveItem'
p2815
sg15
S'Governor'
p2816
sg16
S'SOUTHWINGDOORKEY'
p2817
sg18
S'The Governor gives you a key.'
p2818
sbag1
(g10
g3
NtRp2819
(dp2820
g13
S'RequireCount'
p2821
sg15
S'Governor'
p2822
sg16
S'DEALWITHHICKS:3'
p2823
sg18
S"I'm not saying another word until you get rid of the hicks in the south wing."
p2824
sbag1
(g10
g3
NtRp2825
(dp2826
g13
S'PlayerSay'
p2827
sg15
S'Governor'
p2828
sg16
S''
sg18
S"OK, I've taken care of your problem, now I want my answers."
p2829
sbag1
(g10
g3
NtRp2830
(dp2831
g13
S'Say'
p2832
sg15
S'Governor'
p2833
sg16
S''
sg18
S'No.'
p2834
sbag1
(g10
g3
NtRp2835
(dp2836
g13
S'PlayerSay'
p2837
sg15
S'Governor'
p2838
sg16
S''
sg18
S'No?'
p2839
sbag1
(g10
g3
NtRp2840
(dp2841
g13
S'Say'
p2842
sg15
S'Governor'
p2843
sg16
S''
sg18
S"No, word has come down from the top that due to the last Mayor's idiocy we're tightening the inner circle to Governors and above."
p2844
sbag1
(g10
g3
NtRp2845
(dp2846
g13
S'PlayerSay'
p2847
sg15
S'Governor'
p2848
sg16
S''
sg18
S"From the top...so you're saying the only way I'll find out what's going on is to be a governor myself?"
p2849
sbag1
(g10
g3
NtRp2850
(dp2851
g13
S'Say'
p2852
sg15
S'Governor'
p2853
sg16
S''
sg18
S"Wait...no...I said I wasn't going to tell you, I..."
p2854
sbag1
(g10
g3
NtRp2855
(dp2856
g13
S'PlayerSay'
p2857
sg15
S'Governor'
p2858
sg16
S''
sg18
S'This is it, governor. Prepare to fight for your office!'
p2859
sbag1
(g10
g3
NtRp2860
(dp2861
g13
S'Encounter'
p2862
sg15
S'Governor'
p2863
sg16
S'P-med-06'
p2864
sg18
S''
sbag1
(g10
g3
NtRp2865
(dp2866
g13
S'Say'
p2867
sg15
S'Governor'
p2868
sg16
S''
sg18
S"Nooo! President Allen doesn't deal well with defeat. What will happen to me?"
p2869
sbag1
(g10
g3
NtRp2870
(dp2871
g13
S'PlayerSay'
p2872
sg15
S'Governor'
p2873
sg16
S''
sg18
S'The President? What does he have to do with this?'
p2874
sbag1
(g10
g3
NtRp2875
(dp2876
g13
S'Say'
p2877
sg15
S'Governor'
p2878
sg16
S''
sg18
S"You really have no idea what you've gotten into, do you? Well, you've gotten all you're getting out of me. I'm getting out of here!"
p2879
sbag1
(g10
g3
NtRp2880
(dp2881
g13
S'SetFlag'
p2882
sg15
S'Governor'
p2883
sg16
S'GOVERNORDEFEATED'
p2884
sg18
S''
sbag1
(g10
g3
NtRp2885
(dp2886
g13
S'Destroy'
p2887
sg15
S'Governor'
p2888
sg16
S''
sg18
S''
sbasS'Politician1'
p2889
(lp2890
g1
(g10
g3
NtRp2891
(dp2892
g13
S'Say'
p2893
sg15
g2889
sg16
S''
sg18
S"I'm sorry Mayor Mossman, the Governor cannot see you now. He's very busy"
p2894
sbag1
(g10
g3
NtRp2895
(dp2896
g13
S'PlayerSay'
p2897
sg15
S'Politician1'
p2898
sg16
S''
sg18
S"It's very important. I need to understand what Mayor Goodman was talking about. It was clear there were other powers at play."
p2899
sbag1
(g10
g3
NtRp2900
(dp2901
g13
S'Say'
p2902
sg15
S'Politician1'
p2903
sg16
S''
sg18
S'Yes well, I fail to see how your country spat has anything to do with Governer Badden.'
p2904
sbag1
(g10
g3
NtRp2905
(dp2906
g13
S'Encounter'
p2907
sg15
S'Politician1'
p2908
sg16
S'P-med-01'
p2909
sg18
S''
sbag1
(g10
g3
NtRp2910
(dp2911
g13
S'Say'
p2912
sg15
S'Politician1'
p2913
sg16
S''
sg18
S'Fair point. The governor will see you now.'
p2914
sbag1
(g10
g3
NtRp2915
(dp2916
g13
S'Destroy'
p2917
sg15
S'Politician1'
p2918
sg16
S''
sg18
S''
sbasS'Politician3'
p2919
(lp2920
g1
(g10
g3
NtRp2921
(dp2922
g13
S'RequireFlag'
p2923
sg15
g2919
sg16
S'STARTPOLITICIANSHAKEDOWN'
p2924
sg18
S'Good morning, Governor Mossman. Your PA will know your schedule. He is waiting beside the stairs'
p2925
sbag1
(g10
g3
NtRp2926
(dp2927
g13
S'Say'
p2928
sg15
S'Politician3'
p2929
sg16
S''
sg18
S"We must all agree that the most important thing is science! If we're not for science, what's the point."
p2930
sbag1
(g10
g3
NtRp2931
(dp2932
g13
S'PlayerSay'
p2933
sg15
S'Politician3'
p2934
sg16
S''
sg18
S'Why science?'
p2935
sbag1
(g10
g3
NtRp2936
(dp2937
g13
S'Say'
p2938
sg15
S'Politician3'
p2939
sg16
S''
sg18
S'Science!'
p2940
sbag1
(g10
g3
NtRp2941
(dp2942
g13
S'PlayerSay'
p2943
sg15
S'Politician3'
p2944
sg16
S''
sg18
S"There's a lot of great things we can do for science but the funding will need to be shared with health and education and..."
p2945
sbag1
(g10
g3
NtRp2946
(dp2947
g13
S'Say'
p2948
sg15
S'Politician3'
p2949
sg16
S''
sg18
S'No! Science!!!'
p2950
sbag1
(g10
g3
NtRp2951
(dp2952
g13
S'Encounter'
p2953
sg15
S'Politician3'
p2954
sg16
S'P-med-07'
p2955
sg18
S''
sbag1
(g10
g3
NtRp2956
(dp2957
g13
S'Say'
p2958
sg15
S'Politician3'
p2959
sg16
S''
sg18
S'Alright, fine! A balanced platform (but mostly science).'
p2960
sbag1
(g10
g3
NtRp2961
(dp2962
g13
S'Increment'
p2963
sg15
S'Politician3'
p2964
sg16
S'POLITICIANSHAKEDOWN'
p2965
sg18
S''
sbag1
(g10
g3
NtRp2966
(dp2967
g13
S'Destroy'
p2968
sg15
S'Politician3'
p2969
sg16
S''
sg18
S''
sbasS'Politician2'
p2970
(lp2971
g1
(g10
g3
NtRp2972
(dp2973
g13
S'Say'
p2974
sg15
g2970
sg16
S''
sg18
S'What are you doing in here? Who are you? Some Mayor?'
p2975
sbag1
(g10
g3
NtRp2976
(dp2977
g13
S'PlayerSay'
p2978
sg15
S'Politician2'
p2979
sg16
S''
sg18
S"I am Mayor Phillip Mossman. I'm here to speak to the Governor."
p2980
sbag1
(g10
g3
NtRp2981
(dp2982
g13
S'Say'
p2983
sg15
S'Politician2'
p2984
sg16
S''
sg18
S"I'm afraid the Governor's schedule is very tight. Come back next month."
p2985
sbag1
(g10
g3
NtRp2986
(dp2987
g13
S'Encounter'
p2988
sg15
S'Politician2'
p2989
sg16
S'P-med-02'
p2990
sg18
S''
sbag1
(g10
g3
NtRp2991
(dp2992
g13
S'Say'
p2993
sg15
S'Politician2'
p2994
sg16
S''
sg18
S'I see. Well, maybe we can squeeze you in.'
p2995
sbag1
(g10
g3
NtRp2996
(dp2997
g13
S'SetFlag'
p2998
sg15
S'Politician2'
p2999
sg16
S'GOVPOLITICIANSFIRST'
p3000
sg18
S''
sbag1
(g10
g3
NtRp3001
(dp3002
g13
S'Destroy'
p3003
sg15
S'Politician2'
p3004
sg16
S''
sg18
S''
sbasS'Politician5'
p3005
(lp3006
g1
(g10
g3
NtRp3007
(dp3008
g13
S'RequireFlag'
p3009
sg15
g3005
sg16
S'STARTPOLITICIANSHAKEDOWN'
p3010
sg18
S'Good morning, Governor Mossman. Your PA will know your schedule. He is waiting beside the stairs'
p3011
sbag1
(g10
g3
NtRp3012
(dp3013
g13
S'Say'
p3014
sg15
S'Politician5'
p3015
sg16
S''
sg18
S'Big business!'
p3016
sbag1
(g10
g3
NtRp3017
(dp3018
g13
S'PlayerSay'
p3019
sg15
S'Politician5'
p3020
sg16
S''
sg18
S'What about big business.'
p3021
sbag1
(g10
g3
NtRp3022
(dp3023
g13
S'Say'
p3024
sg15
S'Politician5'
p3025
sg16
S''
sg18
S'...MORE big business!'
p3026
sbag1
(g10
g3
NtRp3027
(dp3028
g13
S'PlayerSay'
p3029
sg15
S'Politician5'
p3030
sg16
S''
sg18
S'You want to grow our business sector? Provide more jobs?'
p3031
sbag1
(g10
g3
NtRp3032
(dp3033
g13
S'Say'
p3034
sg15
S'Politician5'
p3035
sg16
S''
sg18
S'...Yeeeeh. Yes. Yes, that.'
p3036
sbag1
(g10
g3
NtRp3037
(dp3038
g13
S'PlayerSay'
p3039
sg15
S'Politician5'
p3040
sg16
S''
sg18
S'What about small business?'
p3041
sbag1
(g10
g3
NtRp3042
(dp3043
g13
S'Say'
p3044
sg15
S'Politician5'
p3045
sg16
S''
sg18
S'No! We need to make it BIGGER!'
p3046
sbag1
(g10
g3
NtRp3047
(dp3048
g13
S'Encounter'
p3049
sg15
S'Politician5'
p3050
sg16
S'P-med-09'
p3051
sg18
S''
sbag1
(g10
g3
NtRp3052
(dp3053
g13
S'Say'
p3054
sg15
S'Politician5'
p3055
sg16
S''
sg18
S"OK, I see what you're getting at. Lets help small business to grow. Also, this might help even the odds in the future."
p3056
sbag1
(g10
g3
NtRp3057
(dp3058
g13
S'Say'
p3059
sg15
S'Politician5'
p3060
sg16
S''
sg18
S'The results can be a bit unpredictable, so only use it in drastic situations.'
p3061
sbag1
(g10
g3
NtRp3062
(dp3063
g13
S'Increment'
p3064
sg15
S'Politician5'
p3065
sg16
S'POLITICIANSHAKEDOWN'
p3066
sg18
S''
sbag1
(g10
g3
NtRp3067
(dp3068
g13
S'Destroy'
p3069
sg15
S'Politician5'
p3070
sg16
S''
sg18
S''
sbasS'Politician4'
p3071
(lp3072
g1
(g10
g3
NtRp3073
(dp3074
g13
S'RequireFlag'
p3075
sg15
g3071
sg16
S'STARTPOLITICIANSHAKEDOWN'
p3076
sg18
S'Good morning, Governor Mossman. Your PA will know your schedule. He is waiting beside the stairs'
p3077
sbag1
(g10
g3
NtRp3078
(dp3079
g13
S'Say'
p3080
sg15
S'Politician4'
p3081
sg16
S''
sg18
S"I'm for culture! It's a glorious age we live in, we should further this great country's culture."
p3082
sbag1
(g10
g3
NtRp3083
(dp3084
g13
S'PlayerSay'
p3085
sg15
S'Politician4'
p3086
sg16
S''
sg18
S'That sounds fair, but what kind of culture would you like to focus on.'
p3087
sbag1
(g10
g3
NtRp3088
(dp3089
g13
S'Say'
p3090
sg15
S'Politician4'
p3091
sg16
S''
sg18
S"Oh...I don't know, I'm not really into art, can't really handle music. I'd rather not go to the theatre if I can get out of it. Don't really see the point of sport...hmmm. New culture?"
p3092
sbag1
(g10
g3
NtRp3093
(dp3094
g13
S'PlayerSay'
p3095
sg15
S'Politician4'
p3096
sg16
S''
sg18
S"You don't seem very in to improving culture really."
p3097
sbag1
(g10
g3
NtRp3098
(dp3099
g13
S'Say'
p3100
sg15
S'Politician4'
p3101
sg16
S''
sg18
S'Yeh, well...my wife said it would make me sound smart. I think sounding smart is important. Lets be for that!'
p3102
sbag1
(g10
g3
NtRp3103
(dp3104
g13
S'Encounter'
p3105
sg15
S'Politician4'
p3106
sg16
S'P-med-08'
p3107
sg18
S''
sbag1
(g10
g3
NtRp3108
(dp3109
g13
S'Say'
p3110
sg15
S'Politician4'
p3111
sg16
S''
sg18
S"Gee, you're a pretty smart guy. I think you've got this covered."
p3112
sbag1
(g10
g3
NtRp3113
(dp3114
g13
S'Increment'
p3115
sg15
S'Politician4'
p3116
sg16
S'POLITICIANSHAKEDOWN'
p3117
sg18
S''
sbag1
(g10
g3
NtRp3118
(dp3119
g13
S'Destroy'
p3120
sg15
S'Politician4'
p3121
sg16
S''
sg18
S''
sbasS'Politician7'
p3122
(lp3123
g1
(g10
g3
NtRp3124
(dp3125
g13
S'RequireFlag'
p3126
sg15
g3122
sg16
S'STARTPOLITICIANSHAKEDOWN'
p3127
sg18
S'Good morning, Governor Mossman. Your PA will know your schedule. He is waiting beside the stairs'
p3128
sbag1
(g10
g3
NtRp3129
(dp3130
g13
S'LearnAttack'
p3131
sg15
S'Politician7'
p3132
sg16
S'BIELECTION'
p3133
sg18
S''
sbag1
(g10
g3
NtRp3134
(dp3135
g13
S'Say'
p3136
sg15
S'Politician7'
p3137
sg16
S''
sg18
S"I believe in captialism. Let business sort itself out. They shouldn't need to rely on government handouts."
p3138
sbag1
(g10
g3
NtRp3139
(dp3140
g13
S'Say'
p3141
sg15
S'Politician7'
p3142
sg16
S''
sg18
S'Also, I think politicians need a raise. Some more than others...oh and life-long retainers.'
p3143
sbag1
(g10
g3
NtRp3144
(dp3145
g13
S'PlayerSay'
p3146
sg15
S'Politician7'
p3147
sg16
S''
sg18
S'So, no more hand-outs for business but more handouts for politicians?'
p3148
sbag1
(g10
g3
NtRp3149
(dp3150
g13
S'Say'
p3151
sg15
S'Politician7'
p3152
sg16
S''
sg18
S'Yes!'
p3153
sbag1
(g10
g3
NtRp3154
(dp3155
g13
S'PlayerSay'
p3156
sg15
S'Politician7'
p3157
sg16
S''
sg18
S'Does that serve your constituents?'
p3158
sbag1
(g10
g3
NtRp3159
(dp3160
g13
S'Say'
p3161
sg15
S'Politician7'
p3162
sg16
S''
sg18
S'...It serves...some...'
p3163
sbag1
(g10
g3
NtRp3164
(dp3165
g13
S'Encounter'
p3166
sg15
S'Politician7'
p3167
sg16
S'P-med-11'
p3168
sg18
S''
sbag1
(g10
g3
NtRp3169
(dp3170
g13
S'Say'
p3171
sg15
S'Politician7'
p3172
sg16
S''
sg18
S'Right, I guess we need to handle the needs of our constituents, too.'
p3173
sbag1
(g10
g3
NtRp3174
(dp3175
g13
S'Increment'
p3176
sg15
S'Politician7'
p3177
sg16
S'POLITICIANSHAKEDOWN'
p3178
sg18
S''
sbag1
(g10
g3
NtRp3179
(dp3180
g13
S'Destroy'
p3181
sg15
S'Politician7'
p3182
sg16
S''
sg18
S''
sbasS'Politician6'
p3183
(lp3184
g1
(g10
g3
NtRp3185
(dp3186
g13
S'RequireFlag'
p3187
sg15
g3183
sg16
S'STARTPOLITICIANSHAKEDOWN'
p3188
sg18
S'Good morning, Governor Mossman. Your PA will know your schedule. He is waiting beside the stairs'
p3189
sbag1
(g10
g3
NtRp3190
(dp3191
g13
S'Say'
p3192
sg15
S'Politician6'
p3193
sg16
S''
sg18
S'We should be all about not wasting money'
p3194
sbag1
(g10
g3
NtRp3195
(dp3196
g13
S'PlayerSay'
p3197
sg15
S'Politician6'
p3198
sg16
S''
sg18
S'Sounds fair. Wasting money on what?'
p3199
sbag1
(g10
g3
NtRp3200
(dp3201
g13
S'Say'
p3202
sg15
S'Politician6'
p3203
sg16
S''
sg18
S"You know, stuff that doesn't really help like artsy stuff."
p3204
sbag1
(g10
g3
NtRp3205
(dp3206
g13
S'PlayerSay'
p3207
sg15
S'Politician6'
p3208
sg16
S''
sg18
S"You don't think we should invest in our culture?"
p3209
sbag1
(g10
g3
NtRp3210
(dp3211
g13
S'Say'
p3212
sg15
S'Politician6'
p3213
sg16
S''
sg18
S'We have more important things to spend our money on. Like military.'
p3214
sbag1
(g10
g3
NtRp3215
(dp3216
g13
S'PlayerSay'
p3217
sg15
S'Politician6'
p3218
sg16
S''
sg18
S'What if people want to paint pictures about our military. Or write patriotic songs?'
p3219
sbag1
(g10
g3
NtRp3220
(dp3221
g13
S'Say'
p3222
sg15
S'Politician6'
p3223
sg16
S''
sg18
S"I hadn't thought of that..."
p3224
sbag1
(g10
g3
NtRp3225
(dp3226
g13
S'Encounter'
p3227
sg15
S'Politician6'
p3228
sg16
S'P-med-10'
p3229
sg18
S''
sbag1
(g10
g3
NtRp3230
(dp3231
g13
S'Say'
p3232
sg15
S'Politician6'
p3233
sg16
S''
sg18
S"So, militaristic march songs and battle scenes aren't the only sort of art? Wow."
p3234
sbag1
(g10
g3
NtRp3235
(dp3236
g13
S'Increment'
p3237
sg15
S'Politician6'
p3238
sg16
S'POLITICIANSHAKEDOWN'
p3239
sg18
S''
sbag1
(g10
g3
NtRp3240
(dp3241
g13
S'Destroy'
p3242
sg15
S'Politician6'
p3243
sg16
S''
sg18
S''
sbasS'TVPersonality'
p3244
(lp3245
g1
(g10
g3
NtRp3246
(dp3247
g13
S'RequireFlag'
p3248
sg15
g3244
sg16
S'STARTHERCULES'
p3249
sg18
S"Ooooh, sorry Mossman, baby! We're not ready for you yet."
p3250
sbag1
(g10
g3
NtRp3251
(dp3252
g13
S'Say'
p3253
sg15
S'TVPersonality'
p3254
sg16
S''
sg18
S"There's the man! Are you ready to cross wits with The Mighty Hercules!"
p3255
sbag1
(g10
g3
NtRp3256
(dp3257
g13
S'PlayerSay'
p3258
sg15
S'TVPersonality'
p3259
sg16
S''
sg18
S'I sure am!'
p3260
sbag1
(g10
g3
NtRp3261
(dp3262
g13
S'Say'
p3263
sg15
S'TVPersonality'
p3264
sg16
S''
sg18
S"Really...? You don't want to...see your make-up artist?"
p3265
sbag1
(g10
g3
NtRp3266
(dp3267
g13
S'PlayerSay'
p3268
sg15
S'TVPersonality'
p3269
sg16
S''
sg18
S"No, no, I'm ready."
p3270
sbag1
(g10
g3
NtRp3271
(dp3272
g13
S'Say'
p3273
sg15
S'TVPersonality'
p3274
sg16
S''
sg18
S'Suit yourself...'
p3275
sbag1
(g10
g3
NtRp3276
(dp3277
g13
S'Say'
p3278
sg15
S'TVPersonality'
p3279
sg16
S''
sg18
S'... from the looks of it, suiting yourself is exactly what you did.'
p3280
sbag1
(g10
g3
NtRp3281
(dp3282
g13
S'Encounter'
p3283
sg15
S'TVPersonality'
p3284
sg16
S'P-med-20'
p3285
sg18
S''
sbag1
(g10
g3
NtRp3286
(dp3287
g13
S'Say'
p3288
sg15
S'TVPersonality'
p3289
sg16
S''
sg18
S'Good show, you sure gave me a run for my money.'
p3290
sbag1
(g10
g3
NtRp3291
(dp3292
g13
S'Say'
p3293
sg15
S'TVPersonality'
p3294
sg16
S''
sg18
S"Now beat it, you're making me look bad!"
p3295
sbag1
(g10
g3
NtRp3296
(dp3297
g13
S'SetFlag'
p3298
sg15
S'TVPersonality'
p3299
sg16
S'BEATHERCULES'
p3300
sg18
S''
sbag1
(g10
g3
NtRp3301
(dp3302
g13
S'Destroy'
p3303
sg15
S'TVPersonality'
p3304
sg16
S''
sg18
S''
sbasS'act1'
p3305
(lp3306
g1
(g10
g3
NtRp3307
(dp3308
g13
S'Message'
p3309
sg15
g3305
sg16
S''
sg18
S'Good morning, Assistant Phil.'
p3310
sbasS'act2'
p3311
(lp3312
g1
(g10
g3
NtRp3313
(dp3314
g13
S'Message'
p3315
sg15
g3311
sg16
S''
sg18
S"The Governor's Mansion"
p3316
sbasS'act3'
p3317
(lp3318
g1
(g10
g3
NtRp3319
(dp3320
g13
S'Message'
p3321
sg15
g3317
sg16
S''
sg18
S'The White House'
p3322
sbasS'Protester2'
p3323
(lp3324
g1
(g10
g3
NtRp3325
(dp3326
g13
S'Say'
p3327
sg15
g3323
sg16
S''
sg18
S"Bees buzz, Mayors lie, who's this Phillip Mossman guy?"
p3328
sbag1
(g10
g3
NtRp3329
(dp3330
g13
S'RequireFlag'
p3331
sg15
S'Protester2'
p3332
sg16
S'PROTESTORS'
p3333
sg18
S''
sbag1
(g10
g3
NtRp3334
(dp3335
g13
S'Encounter'
p3336
sg15
S'Protester2'
p3337
sg16
S'P-easy-03'
p3338
sg18
S''
sbag1
(g10
g3
NtRp3339
(dp3340
g13
S'Destroy'
p3341
sg15
S'Protester2'
p3342
sg16
S''
sg18
S''
sbasS'Protester1'
p3343
(lp3344
g1
(g10
g3
NtRp3345
(dp3346
g13
S'Say'
p3347
sg15
g3343
sg16
S''
sg18
S"Fee Fi Fo Fum, we think Mayor Goodman's Dumb!"
p3348
sbag1
(g10
g3
NtRp3349
(dp3350
g13
S'RequireFlag'
p3351
sg15
S'Protester1'
p3352
sg16
S'PROTESTORS'
p3353
sg18
S''
sbag1
(g10
g3
NtRp3354
(dp3355
g13
S'Encounter'
p3356
sg15
S'Protester1'
p3357
sg16
S'P-easy-02'
p3358
sg18
S''
sbag1
(g10
g3
NtRp3359
(dp3360
g13
S'Destroy'
p3361
sg15
S'Protester1'
p3362
sg16
S''
sg18
S''
sbasS'Head Protester'
p3363
(lp3364
g1
(g10
g3
NtRp3365
(dp3366
g13
S'Say'
p3367
sg15
g3363
sg16
S''
sg18
S"I am the head protester. You'll never convince us to back down!"
p3368
sbag1
(g10
g3
NtRp3369
(dp3370
g13
S'RequireFlag'
p3371
sg15
S'Head Protester'
p3372
sg16
S'PROTESTORS'
p3373
sg18
S''
sbag1
(g10
g3
NtRp3374
(dp3375
g13
S'PlayerSay'
p3376
sg15
S'Head Protester'
p3377
sg16
S''
sg18
S'What are you protesting?'
p3378
sbag1
(g10
g3
NtRp3379
(dp3380
g13
S'Say'
p3381
sg15
S'Head Protester'
p3382
sg16
S''
sg18
S'Er...Injustice!'
p3383
sbag1
(g10
g3
NtRp3384
(dp3385
g13
S'PlayerSay'
p3386
sg15
S'Head Protester'
p3387
sg16
S''
sg18
S'Injustice against what?'
p3388
sbag1
(g10
g3
NtRp3389
(dp3390
g13
S'Say'
p3391
sg15
S'Head Protester'
p3392
sg16
S''
sg18
S'...'
p3393
sbag1
(g10
g3
NtRp3394
(dp3395
g13
S'Say'
p3396
sg15
S'Head Protester'
p3397
sg16
S''
sg18
S'The People!'
p3398
sbag1
(g10
g3
NtRp3399
(dp3400
g13
S'PlayerSay'
p3401
sg15
S'Head Protester'
p3402
sg16
S''
sg18
S'Yes, but which people?'
p3403
sbag1
(g10
g3
NtRp3404
(dp3405
g13
S'Say'
p3406
sg15
S'Head Protester'
p3407
sg16
S''
sg18
S'See? What a fascist, ALL people you slimey politician scum!'
p3408
sbag1
(g10
g3
NtRp3409
(dp3410
g13
S'Encounter'
p3411
sg15
S'Head Protester'
p3412
sg16
S'P-easy-04'
p3413
sg18
S''
sbag1
(g10
g3
NtRp3414
(dp3415
g13
S'Say'
p3416
sg15
S'Head Protester'
p3417
sg16
S''
sg18
S"Alright, fine! We'll stop protesting...whatever we were protesting."
p3418
sbag1
(g10
g3
NtRp3419
(dp3420
g13
S'SetFlag'
p3421
sg15
S'Head Protester'
p3422
sg16
S'PROTESTORSDEAD'
p3423
sg18
S''
sbag1
(g10
g3
NtRp3424
(dp3425
g13
S'Destroy'
p3426
sg15
S'Head Protester'
p3427
sg16
S''
sg18
S''
sbasS'Receptionist'
p3428
(lp3429
g1
(g10
g3
NtRp3430
(dp3431
g13
S'GiveItem'
p3432
sg15
g3428
sg16
S'PEN'
p3433
sg18
S'Receptionist sighs and hands over the pen.'
p3434
sbag1
(g10
g3
NtRp3435
(dp3436
g13
S'Save'
p3437
sg15
S'Receptionist'
p3438
sg16
S'RestoreAct2'
p3439
sg18
S''
sbag1
(g10
g3
NtRp3440
(dp3441
g13
S'RequireFlag'
p3442
sg15
S'Receptionist'
p3443
sg16
S'PENQUEST'
p3444
sg18
S"You must be Mayor Goodman's new assistant. He's in his office."
p3445
sbag1
(g10
g3
NtRp3446
(dp3447
g13
S'PlayerSay'
p3448
sg15
S'Receptionist'
p3449
sg16
S''
sg18
S"The Mayor is looking for his pen. He seemed to think you'd know where it was."
p3450
sbag1
(g10
g3
NtRp3451
(dp3452
g13
S'Say'
p3453
sg15
S'Receptionist'
p3454
sg16
S''
sg18
S"Did that buffoon accuse me of stealing again? This is MY pen and he isn't having it."
p3455
sbag1
(g10
g3
NtRp3456
(dp3457
g13
S'Encounter'
p3458
sg15
S'Receptionist'
p3459
sg16
S'P-easy-01'
p3460
sg18
S''
sbag1
(g10
g3
NtRp3461
(dp3462
g13
S'GiveItem'
p3463
sg15
S'Receptionist'
p3464
sg16
S'PEN'
p3465
sg18
S'Receptionist sighs and hands over the pen.'
p3466
sbag1
(g10
g3
NtRp3467
(dp3468
g13
S'Say'
p3469
sg15
S'Receptionist'
p3470
sg16
S''
sg18
S"If you're ever getting low on votes, come talk to me and I'll run an ad campaign to restore them."
p3471
sbag1
(g10
g3
NtRp3472
(dp3473
g13
S'Reset'
p3474
sg15
S'Receptionist'
p3475
sg16
S'RESTORE'
p3476
sg18
S''
sbag1
(g10
g3
NtRp3477
(dp3478
g13
S'Label'
p3479
sg15
S'Receptionist'
p3480
sg16
S'RESTORE'
p3481
sg18
S''
sbag1
(g10
g3
NtRp3482
(dp3483
g13
S'Say'
p3484
sg15
S'Receptionist'
p3485
sg16
S''
sg18
S"You've taken a beating, let me fix you up."
p3486
sbag1
(g10
g3
NtRp3487
(dp3488
g13
S'RestoreVotes'
p3489
sg15
S'Receptionist'
p3490
sg16
S''
sg18
S'Receptionist replenishes votes'
p3491
sbag1
(g10
g3
NtRp3492
(dp3493
g13
S'Reset'
p3494
sg15
S'Receptionist'
p3495
sg16
S'RESTORE'
p3496
sg18
S''
sbassS'attacks'
p3497
(dp3498
S'GETEXCLUSIVE'
p3499
g1
(g10
g3
NtRp3500
(dp3501
S'base_damage_max'
p3502
F-2
sS'description'
p3503
S'asdf'
p3504
sS'weight'
p3505
I1
sS'crit_chance_max'
p3506
F0
sS'crit_chance_min'
p3507
F0
sS'underlying_stat'
p3508
S'Wit'
p3509
sS'target_type'
p3510
S'AllFriendly'
p3511
sS'base_damage_min'
p3512
F-2
sS'spin_cost'
p3513
F5
sS'effects'
p3514
(lp3515
g1
(c__main__
Effect
p3516
g3
NtRp3517
(dp3518
S'function'
p3519
S'add'
p3520
sS'abbrv'
p3521
S'(INCR CNG)'
p3522
sS'attribute'
p3523
S'cunning'
p3524
sS'value'
p3525
F2
sS'rounds_min'
p3526
F1
sS'rounds_max'
p3527
F4
sS'id'
p3528
S'Increase Cunning'
p3529
sS'apply_to_source'
p3530
S'TRUE'
p3531
sbasS'target_count'
p3532
I1
sS'crit_base_damage'
p3533
F0
sg3528
g3499
sS'name'
p3534
S'Get Exclusive'
p3535
sbsS'LOSELOSE'
p3536
g1
(g10
g3
NtRp3537
(dp3538
g3502
F6
sg3503
S'Causes all politicians in the target radius to lose votes'
p3539
sg3505
I1
sg3506
F0
sg3507
F0
sg3508
S'Wit'
p3540
sg3510
S'All'
p3541
sg3512
F4
sg3513
F5
sg3514
(lp3542
sg3532
I6
sg3533
F0
sg3528
g3536
sg3534
S'Lose/lose issue'
p3543
sbsS'LIE'
p3544
g1
(g10
g3
NtRp3545
(dp3546
g3502
F11
sg3503
S"It's only lying if they catch you. A strong attack with a danger of critically failing"
p3547
sg3505
F3
sg3506
F10
sg3507
F5
sg3508
S'Cunning'
p3548
sg3510
S'AllEnemy'
p3549
sg3512
F0
sg3513
I0
sg3514
(lp3550
g1
(g3516
g3
NtRp3551
(dp3552
g3519
S'miss_turn'
p3553
sg3521
S'(MISS)'
p3554
sg3523
S''
sg3525
F0
sg3526
F1
sg3527
F1
sg3528
S'Critical Fail'
p3555
sg3530
S'TRUE'
p3556
sbasg3532
I1
sg3533
F13
sg3528
g3544
sg3534
S'Lie'
p3557
sbsS'HILARIOUSANECDOTE'
p3558
g1
(g10
g3
NtRp3559
(dp3560
g3502
F8
sg3503
S'asdf'
p3561
sg3505
I1
sg3506
F5
sg3507
F2
sg3508
S'Wit'
p3562
sg3510
S'AllFriendly'
p3563
sg3512
F4
sg3513
F5
sg3514
(lp3564
sg3532
I3
sg3533
F11
sg3528
g3558
sg3534
S'Hilarious Anecdote'
p3565
sbsS'SENSATIONALISE'
p3566
g1
(g10
g3
NtRp3567
(dp3568
g3502
F8
sg3503
S'asdf'
p3569
sg3505
I1
sg3506
F0
sg3507
F0
sg3508
S'Wit'
p3570
sg3510
S'AllEnemy'
p3571
sg3512
F4
sg3513
F3
sg3514
(lp3572
sg3532
I1
sg3533
F0
sg3528
g3566
sg3534
S'Sensationalise'
p3573
sbsS'DENOUNCE'
p3574
g1
(g10
g3
NtRp3575
(dp3576
g3502
F5
sg3503
S'asdf'
p3577
sg3505
F6
sg3506
F10
sg3507
F2
sg3508
S'Cunning'
p3578
sg3510
S'AllEnemy'
p3579
sg3512
F2
sg3513
I0
sg3514
(lp3580
sg3532
I1
sg3533
F8
sg3528
g3574
sg3534
S'Denounce'
p3581
sbsS'WHADOWEWANT'
p3582
g1
(g10
g3
NtRp3583
(dp3584
g3502
F5
sg3503
S'asdf'
p3585
sg3505
I1
sg3506
F0
sg3507
F0
sg3508
S'Cunning'
p3586
sg3510
S'AllEnemy'
p3587
sg3512
F2
sg3513
I0
sg3514
(lp3588
sg3532
I1
sg3533
F0
sg3528
g3582
sg3534
S'Whadowewant!'
p3589
sbsS'SCOOP'
p3590
g1
(g10
g3
NtRp3591
(dp3592
g3502
F5
sg3503
S'asdf'
p3593
sg3505
I1
sg3506
F10
sg3507
F5
sg3508
S'Cunning'
p3594
sg3510
S'AllEnemy'
p3595
sg3512
F2
sg3513
I0
sg3514
(lp3596
sg3532
I1
sg3533
F8
sg3528
g3590
sg3534
S'Scoop'
p3597
sbsS'CHOOSETARGETS'
p3598
g1
(g10
g3
NtRp3599
(dp3600
g3502
F7
sg3503
S'asdf'
p3601
sg3505
I1
sg3506
F10
sg3507
F5
sg3508
S'Cunning'
p3602
sg3510
S'AllEnemy'
p3603
sg3512
F2
sg3513
I0
sg3514
(lp3604
sg3532
I1
sg3533
F9
sg3528
g3598
sg3534
S'Choose Targets'
p3605
sbsS'SUMMONPOLITICIAN'
p3606
g1
(g10
g3
NtRp3607
(dp3608
g3502
F0
sg3503
S''
sg3505
I1
sg3506
F0
sg3507
F0
sg3508
S'Wit'
p3609
sg3510
S'None'
p3610
sg3512
F0
sg3513
F4
sg3514
(lp3611
g1
(g3516
g3
NtRp3612
(dp3613
g3519
S'call_friends'
p3614
sg3521
S''
sg3523
S'Politician001:6'
p3615
sg3525
F2
sg3526
F1
sg3527
F1
sg3528
S'Summon Politician'
p3616
sg3530
S''
sbasg3532
I1
sg3533
F0
sg3528
g3606
sg3534
S''
sbsS'FILENAILS'
p3617
g1
(g10
g3
NtRp3618
(dp3619
g3502
F0
sg3503
S'asdf'
p3620
sg3505
I1
sg3506
F0
sg3507
F0
sg3508
S'Wit'
p3621
sg3510
S'AllEnemy'
p3622
sg3512
F0
sg3513
F3
sg3514
(lp3623
g1
(g3516
g3
NtRp3624
(dp3625
g3519
S'add_permanent'
p3626
sg3521
S''
sg3523
S'votes'
p3627
sg3525
F5
sg3526
F1
sg3527
F1
sg3528
S'Votes Restore'
p3628
sg3530
S''
sbasg3532
I1
sg3533
F0
sg3528
g3617
sg3534
S'File Nails'
p3629
sbsS'BRIBE'
p3630
g1
(g10
g3
NtRp3631
(dp3632
g3502
F10
sg3503
S'Is there anything more convincing than money? Buying loyalty gets expensive so be careful.'
p3633
sg3505
I1
sg3506
F0
sg3507
F0
sg3508
S'Money'
p3634
sg3510
S'AllEnemy'
p3635
sg3512
F4
sg3513
I0
sg3514
(lp3636
sg3532
I1
sg3533
F0
sg3528
g3630
sg3534
S'Bribe'
p3637
sbsS'SING'
p3638
g1
(g10
g3
NtRp3639
(dp3640
g3502
F-3
sg3503
S'Why bandy words with politicians when you can sing a catchy tune! Restores votes.'
p3641
sg3505
I1
sg3506
F0
sg3507
F0
sg3508
S'Cunning'
p3642
sg3510
S'AllFriendly'
p3643
sg3512
F-5
sg3513
I0
sg3514
(lp3644
sg3532
I4
sg3533
F0
sg3528
g3638
sg3534
S'Rousing Song'
p3645
sbsS'FEAR'
p3646
g1
(g10
g3
NtRp3647
(dp3648
g3502
F0
sg3503
S'asdf'
p3649
sg3505
F2
sg3506
F0
sg3507
F0
sg3508
S'Wit'
p3650
sg3510
S'AllFriendly'
p3651
sg3512
F0
sg3513
F4
sg3514
(lp3652
g3517
asg3532
I1
sg3533
F0
sg3528
g3646
sg3534
S'Fear Change'
p3653
sbsS'BRAINWASH'
p3654
g1
(g10
g3
NtRp3655
(dp3656
g3502
F0
sg3503
S''
sg3505
I1
sg3506
F0
sg3507
F0
sg3508
S'Wit'
p3657
sg3510
S'AllEnemy'
p3658
sg3512
F0
sg3513
F3
sg3514
(lp3659
g1
(g3516
g3
NtRp3660
(dp3661
g3519
S'miss_turn'
p3662
sg3521
S'(MISS)'
p3663
sg3523
S''
sg3525
F0
sg3526
F1
sg3527
F1
sg3528
S'Miss Turn'
p3664
sg3530
S''
sbasg3532
I4
sg3533
F0
sg3528
g3654
sg3534
S''
sbsS'RAISEDEFCON'
p3665
g1
(g10
g3
NtRp3666
(dp3667
g3502
F5
sg3503
S'asdf'
p3668
sg3505
I1
sg3506
F7
sg3507
F3
sg3508
S'Cunning'
p3669
sg3510
S'AllEnemy'
p3670
sg3512
F4
sg3513
I0
sg3514
(lp3671
sg3532
I1
sg3533
F8
sg3528
g3665
sg3534
S'Raise DEFCON'
p3672
sbsS'BILLBOARD'
p3673
g1
(g10
g3
NtRp3674
(dp3675
g3502
F0
sg3503
S'Run a billboard ad to restore up to 30 votes'
p3676
sg3505
I1
sg3506
F0
sg3507
F0
sg3508
S''
sg3510
S'AllFriendly'
p3677
sg3512
F0
sg3513
I0
sg3514
(lp3678
g1
(g3516
g3
NtRp3679
(dp3680
g3519
S'add_permanent'
p3681
sg3521
S''
sg3523
S'votes'
p3682
sg3525
F30
sg3526
F1
sg3527
F1
sg3528
S'Votes Restore Billboard'
p3683
sg3530
S''
sbasg3532
I1
sg3533
F0
sg3528
g3673
sg3534
S'Billboard Ad'
p3684
sbsS'NEGATTACKAD'
p3685
g1
(g10
g3
NtRp3686
(dp3687
g3502
F8
sg3503
S"Take them all down. They're definitely all bad people. Not like you."
p3688
sg3505
I1
sg3506
F10
sg3507
F10
sg3508
S'Wit'
p3689
sg3510
S'AllEnemy'
p3690
sg3512
F4
sg3513
F3
sg3514
(lp3691
sg3532
I1
sg3533
F10
sg3528
g3685
sg3534
S'Negative Attack Ad'
p3692
sbsS'DAZZLE'
p3693
g1
(g10
g3
NtRp3694
(dp3695
g3502
F5
sg3503
S'Being dazzling and admirable is a great way to take heat off politics'
p3696
sg3505
I1
sg3506
F8
sg3507
F5
sg3508
S'Wit'
p3697
sg3510
S'AllEnemy'
p3698
sg3512
F3
sg3513
F4
sg3514
(lp3699
g1
(g3516
g3
NtRp3700
(dp3701
g3519
S'reduce'
p3702
sg3521
S'(CNG DN)'
p3703
sg3523
S'cunning'
p3704
sg3525
F2
sg3526
F2
sg3527
F5
sg3528
S'Reduce Cunning'
p3705
sg3530
S''
sbasg3532
I4
sg3533
F8
sg3528
g3693
sg3534
S'Dazzle'
p3706
sbsS'BELIEVEMEDIA'
p3707
g1
(g10
g3
NtRp3708
(dp3709
g3502
F3
sg3503
S'asdf'
p3710
sg3505
I1
sg3506
F15
sg3507
F10
sg3508
S'Cunning'
p3711
sg3510
S'AllEnemy'
p3712
sg3512
F1
sg3513
I0
sg3514
(lp3713
sg3532
I1
sg3533
F12
sg3528
g3707
sg3534
S'Believe Media'
p3714
sbsS'PRPREP'
p3715
g1
(g10
g3
NtRp3716
(dp3717
g3502
F0
sg3503
S"If you're going to need some spin, best see a spin doctor! Adds spin points."
p3718
sg3505
I1
sg3506
F0
sg3507
F0
sg3508
S''
sg3510
S'AllFriendly'
p3719
sg3512
F0
sg3513
I0
sg3514
(lp3720
g1
(g3516
g3
NtRp3721
(dp3722
g3519
S'add_permanent'
p3723
sg3521
S''
sg3523
S'spin'
p3724
sg3525
F5
sg3526
F0
sg3527
F0
sg3528
S'Spin Restore'
p3725
sg3530
S'TRUE'
p3726
sbasg3532
I1
sg3533
F0
sg3528
g3715
sg3534
S'PR Prep'
p3727
sbsS'CALLVATICAN'
p3728
g1
(g10
g3
NtRp3729
(dp3730
g3502
F0
sg3503
S'Brings in 2 additional ReligousNuts at 2 levels lower than this one'
p3731
sg3505
I1
sg3506
F0
sg3507
F0
sg3508
S'Wit'
p3732
sg3510
S'None'
p3733
sg3512
F0
sg3513
F5
sg3514
(lp3734
g1
(g3516
g3
NtRp3735
(dp3736
g3519
S'call_friends'
p3737
sg3521
S''
sg3523
S'ReligiousNut001:4'
p3738
sg3525
F2
sg3526
F1
sg3527
F1
sg3528
S'Call Friends'
p3739
sg3530
S''
sbasg3532
I1
sg3533
F0
sg3528
g3728
sg3534
S'Call Battycan'
p3740
sbsS'BLACKMAIL'
p3741
g1
(g10
g3
NtRp3742
(dp3743
g3502
F6
sg3503
S'asdf'
p3744
sg3505
I1
sg3506
F10
sg3507
F2
sg3508
S'Wit'
p3745
sg3510
S'AllEnemy'
p3746
sg3512
F3
sg3513
F4
sg3514
(lp3747
g1
(g3516
g3
NtRp3748
(dp3749
g3519
S'drain'
p3750
sg3521
S'(DRAIN VTS)'
p3751
sg3523
S'votes'
p3752
sg3525
F1
sg3526
F2
sg3527
F5
sg3528
S'Drain Votes'
p3753
sg3530
S''
sbasg3532
I1
sg3533
F2
sg3528
g3741
sg3534
S'Blackmail'
p3754
sbsS'SCARE'
p3755
g1
(g10
g3
NtRp3756
(dp3757
g3502
F7
sg3503
S'Nothing rattles the brains like fear.'
p3758
sg3505
I1
sg3506
F10
sg3507
F2
sg3508
S'Cunning'
p3759
sg3510
S'AllEnemy'
p3760
sg3512
F2
sg3513
I0
sg3514
(lp3761
g3700
asg3532
I2
sg3533
F9
sg3528
g3755
sg3534
S'Scare Campaign'
p3762
sbsS'PROTEST'
p3763
g1
(g10
g3
NtRp3764
(dp3765
g3502
F5
sg3503
S'asdf'
p3766
sg3505
F6
sg3506
F10
sg3507
F2
sg3508
S'Cunning'
p3767
sg3510
S'AllEnemy'
p3768
sg3512
F2
sg3513
I0
sg3514
(lp3769
sg3532
I1
sg3533
F8
sg3528
g3763
sg3534
S'Protest'
p3770
sbsS'SPREADRUMOUR'
p3771
g1
(g10
g3
NtRp3772
(dp3773
g3502
F8
sg3503
S'asdf'
p3774
sg3505
I1
sg3506
F10
sg3507
F2
sg3508
S'Wit'
p3775
sg3510
S'AllEnemy'
p3776
sg3512
F3
sg3513
F3
sg3514
(lp3777
sg3532
I4
sg3533
F10
sg3528
g3771
sg3534
S'Spread Rumour'
p3778
sbsS'AGENDA'
p3779
g1
(g10
g3
NtRp3780
(dp3781
g3502
F5
sg3503
S'asdf'
p3782
sg3505
F6
sg3506
F10
sg3507
F2
sg3508
S'Cunning'
p3783
sg3510
S'AllEnemy'
p3784
sg3512
F2
sg3513
I0
sg3514
(lp3785
sg3532
I1
sg3533
F8
sg3528
g3779
sg3534
S'Push Agenda'
p3786
sbsS'REVIVEITEM'
p3787
g1
(g10
g3
NtRp3788
(dp3789
g3502
F0
sg3503
S'Revive a defeated comrade to half votes'
p3790
sg3505
I1
sg3506
F0
sg3507
F0
sg3508
S''
sg3510
S'DeadFriendly'
p3791
sg3512
F0
sg3513
I0
sg3514
(lp3792
g1
(g3516
g3
NtRp3793
(dp3794
g3519
S'revive'
p3795
sg3521
S''
sg3523
S''
sg3525
F0.5
sg3526
F0
sg3527
F0
sg3528
S'Revive'
p3796
sg3530
S''
sbasg3532
I1
sg3533
F0
sg3528
g3787
sg3534
S'Revive'
p3797
sbsS'FILIBUSTER'
p3798
g1
(g10
g3
NtRp3799
(dp3800
g3502
F6
sg3503
S"You're not moving until they give in. Cause all opposition to miss their turn"
p3801
sg3505
I1
sg3506
F0
sg3507
F0
sg3508
S'Wit'
p3802
sg3510
S'AllEnemy'
p3803
sg3512
F3
sg3513
F7
sg3514
(lp3804
g3660
asg3532
I1
sg3533
F0
sg3528
g3798
sg3534
S'Filibuster'
p3805
sbsS'GATHERINTEL'
p3806
g1
(g10
g3
NtRp3807
(dp3808
g3502
F0
sg3503
S'Increases Cunning.'
p3809
sg3505
I1
sg3506
F0
sg3507
F0
sg3508
S'Wit'
p3810
sg3510
S'AllFriendly'
p3811
sg3512
F0
sg3513
F3
sg3514
(lp3812
g3517
asg3532
I2
sg3533
F0
sg3528
g3806
sg3534
S'Gather Intelligence'
p3813
sbsS'LOVE'
p3814
g1
(g10
g3
NtRp3815
(dp3816
g3502
F6
sg3503
S'asdf'
p3817
sg3505
F4
sg3506
F8
sg3507
F2
sg3508
S'Cunning'
p3818
sg3510
S'AllEnemy'
p3819
sg3512
F1
sg3513
I0
sg3514
(lp3820
sg3532
I1
sg3533
F7
sg3528
g3814
sg3534
S'Love'
p3821
sbsS'OUTOFCONTEXT'
p3822
g1
(g10
g3
NtRp3823
(dp3824
g3502
F5
sg3503
S'asdf'
p3825
sg3505
I1
sg3506
F5
sg3507
F2
sg3508
S'Wit'
p3826
sg3510
S'AllEnemy'
p3827
sg3512
F3
sg3513
F2
sg3514
(lp3828
g3748
asg3532
I1
sg3533
F5
sg3528
g3822
sg3534
S'Take Out Of Context'
p3829
sbsS'GREATSUIT'
p3830
g1
(g10
g3
NtRp3831
(dp3832
g3502
F6
sg3503
S'Well, we could argue, but have you noticed how fabulous this suit is?'
p3833
sg3505
I1
sg3506
F11
sg3507
F6
sg3508
S'Cunning'
p3834
sg3510
S'AllEnemy'
p3835
sg3512
F3
sg3513
I0
sg3514
(lp3836
sg3532
I1
sg3533
F10
sg3528
g3830
sg3534
S'Look Great In Suit'
p3837
sbsS'PEACE'
p3838
g1
(g10
g3
NtRp3839
(dp3840
g3502
F0
sg3503
S'asdf'
p3841
sg3505
F4
sg3506
F0
sg3507
F0
sg3508
S'Wit'
p3842
sg3510
S'AllEnemy'
p3843
sg3512
F0
sg3513
F3
sg3514
(lp3844
g3700
asg3532
I4
sg3533
F0
sg3528
g3838
sg3534
S'Peace'
p3845
sbsS'INSPSPEECH'
p3846
g1
(g10
g3
NtRp3847
(dp3848
g3502
F-2
sg3503
S'Restore votes to all party members'
p3849
sg3505
I1
sg3506
F0
sg3507
F0
sg3508
S'Cunning'
p3850
sg3510
S'AllFriendly'
p3851
sg3512
F-2
sg3513
I0
sg3514
(lp3852
sg3532
I4
sg3533
F0
sg3528
g3846
sg3534
S'Inspirational Speech'
p3853
sbsS'RALLYENEMY'
p3854
g1
(g10
g3
NtRp3855
(dp3856
g3502
F0
sg3503
S'Get back some votes by rallying supporters'
p3857
sg3505
I1
sg3506
F0
sg3507
F0
sg3508
S'Wit'
p3858
sg3510
S'AllFriendly'
p3859
sg3512
F0
sg3513
F3
sg3514
(lp3860
g1
(g3516
g3
NtRp3861
(dp3862
g3519
S'add_permanent'
p3863
sg3521
S''
sg3523
S'votes'
p3864
sg3525
F8
sg3526
F1
sg3527
F1
sg3528
S'Votes Restore Rally Enemy'
p3865
sg3530
S''
sbasg3532
I1
sg3533
F0
sg3528
g3854
sg3534
S'Rally Constituents'
p3866
sbsS'STRIKE'
p3867
g1
(g10
g3
NtRp3868
(dp3869
g3502
F10
sg3503
S'asdf'
p3870
sg3505
I1
sg3506
F0
sg3507
F0
sg3508
S'Wit'
p3871
sg3510
S'AllEnemy'
p3872
sg3512
F0
sg3513
F3
sg3514
(lp3873
g3551
asg3532
I1
sg3533
F0
sg3528
g3867
sg3534
S'Call A Strike'
p3874
sbsS'SLANDER'
p3875
g1
(g10
g3
NtRp3876
(dp3877
g3502
F5
sg3503
S'Strong against polititians...careful with those voters, though!'
p3878
sg3505
F4
sg3506
F10
sg3507
F2
sg3508
S'Cunning'
p3879
sg3510
S'AllEnemy'
p3880
sg3512
F3
sg3513
I0
sg3514
(lp3881
g3748
asg3532
I1
sg3533
F7
sg3528
g3875
sg3534
S'Slander Opposition'
p3882
sbsS'NATTER'
p3883
g1
(g10
g3
NtRp3884
(dp3885
g3502
F8
sg3503
S'asdf'
p3886
sg3505
I1
sg3506
F15
sg3507
F5
sg3508
S'Cunning'
p3887
sg3510
S'AllEnemy'
p3888
sg3512
F1
sg3513
I0
sg3514
(lp3889
sg3532
I1
sg3533
F10
sg3528
g3883
sg3534
S'Natter On'
p3890
sbsS'GOSSIP'
p3891
g1
(g10
g3
NtRp3892
(dp3893
g3502
F3
sg3503
S'asdf'
p3894
sg3505
I1
sg3506
F10
sg3507
F2
sg3508
S'Wit'
p3895
sg3510
S'AllEnemy'
p3896
sg3512
F2
sg3513
F2
sg3514
(lp3897
g3700
asg3532
I1
sg3533
F6
sg3528
g3891
sg3534
S'Gossip'
p3898
sbsS'MISSTURN'
p3899
g1
(g10
g3
NtRp3900
(dp3901
g3502
F0
sg3503
S'asdf'
p3902
sg3505
I1
sg3506
F0
sg3507
F0
sg3508
S''
sg3510
S'AllEnemy'
p3903
sg3512
F0
sg3513
I0
sg3514
(lp3904
sg3532
I1
sg3533
F0
sg3528
g3899
sg3534
S'Miss Turn'
p3905
sbsS'BIELECTION'
p3906
g1
(g10
g3
NtRp3907
(dp3908
g3502
F4
sg3503
S'Redistribute votes amongst targets'
p3909
sg3505
I1
sg3506
F0
sg3507
F0
sg3508
S'Wit'
p3910
sg3510
S'All'
p3911
sg3512
F-4
sg3513
F4
sg3514
(lp3912
sg3532
I8
sg3533
F0
sg3528
g3906
sg3534
S'Bielection'
p3913
sbsS'RUNAD'
p3914
g1
(g10
g3
NtRp3915
(dp3916
g3502
F0
sg3503
S'Gets back up to 15 votes by running an ad'
p3917
sg3505
I1
sg3506
F0
sg3507
F0
sg3508
S''
sg3510
S'AllFriendly'
p3918
sg3512
F0
sg3513
I0
sg3514
(lp3919
g1
(g3516
g3
NtRp3920
(dp3921
g3519
S'add_permanent'
p3922
sg3521
S''
sg3523
S'votes'
p3923
sg3525
F15
sg3526
F1
sg3527
F1
sg3528
S'Votes Restore Ad'
p3924
sg3530
S''
sbasg3532
I1
sg3533
F0
sg3528
g3914
sg3534
S'Run Advertisement'
p3925
sbsS'PAYOFF'
p3926
g1
(g10
g3
NtRp3927
(dp3928
g3502
F8
sg3503
S'Causes them to miss a number of turns'
p3929
sg3505
I1
sg3506
F8
sg3507
F2
sg3508
S'Wit'
p3930
sg3510
S'AllEnemy'
p3931
sg3512
F4
sg3513
F4
sg3514
(lp3932
g1
(g3516
g3
NtRp3933
(dp3934
g3519
S'miss_turn'
p3935
sg3521
S'(MISS)'
p3936
sg3523
S''
sg3525
F0
sg3526
F1
sg3527
F3
sg3528
S'Miss Turn Pay Off'
p3937
sg3530
S''
sbasg3532
I1
sg3533
F10
sg3528
g3926
sg3534
S'Pay Off'
p3938
sbsS'BUREAUCRACY'
p3939
g1
(g10
g3
NtRp3940
(dp3941
g3502
F5
sg3503
S'asdf'
p3942
sg3505
F6
sg3506
F10
sg3507
F2
sg3508
S'Cunning'
p3943
sg3510
S'AllEnemy'
p3944
sg3512
F2
sg3513
I0
sg3514
(lp3945
sg3532
I1
sg3533
F8
sg3528
g3939
sg3534
S'Bureaucracy'
p3946
sbsS'RALLYAUDIENCE'
p3947
g1
(g10
g3
NtRp3948
(dp3949
g3502
F8
sg3503
S'asdf'
p3950
sg3505
I1
sg3506
F0
sg3507
F0
sg3508
S'Wit'
p3951
sg3510
S'AllFriendly'
p3952
sg3512
F4
sg3513
F3
sg3514
(lp3953
g1
(g3516
g3
NtRp3954
(dp3955
g3519
S'add'
p3956
sg3521
S'(INCR CH)'
p3957
sg3523
S'charisma'
p3958
sg3525
F2
sg3526
F1
sg3527
F4
sg3528
S'Increase Charisma'
p3959
sg3530
S'TRUE'
p3960
sbasg3532
I1
sg3533
F0
sg3528
g3947
sg3534
S'Rally Audience'
p3961
sbsS'PORKBARREL'
p3962
g1
(g10
g3
NtRp3963
(dp3964
g3502
F8
sg3503
S'Do something that benefits them specifically. Not advised against politicians.'
p3965
sg3505
I1
sg3506
F0
sg3507
F0
sg3508
S'Wit'
p3966
sg3510
S'AllEnemy'
p3967
sg3512
F4
sg3513
F2
sg3514
(lp3968
sg3532
I1
sg3533
F0
sg3528
g3962
sg3534
S'Pork Barrel'
p3969
sbsS'INSPIRE'
p3970
g1
(g10
g3
NtRp3971
(dp3972
g3502
F0
sg3503
S'asdf'
p3973
sg3505
I1
sg3506
F0
sg3507
F0
sg3508
S'Wit'
p3974
sg3510
S'AllFriendly'
p3975
sg3512
F0
sg3513
F3
sg3514
(lp3976
g3517
asg3532
I4
sg3533
F0
sg3528
g3970
sg3534
S'Inspire'
p3977
sbsS'JOKE'
p3978
g1
(g10
g3
NtRp3979
(dp3980
g3502
F5
sg3503
S"Ha, ha, ha...what were we talking about? Diffuse the situation with some humour. High chance of critical hit. Knock 'em dead!"
p3981
sg3505
F3
sg3506
F20
sg3507
F15
sg3508
S'Cunning'
p3982
sg3510
S'AllEnemy'
p3983
sg3512
F2
sg3513
I0
sg3514
(lp3984
sg3532
I1
sg3533
F12
sg3528
g3978
sg3534
S'Joke'
p3985
sbsS'PRAYFORSOULS'
p3986
g1
(g10
g3
NtRp3987
(dp3988
g3502
F6
sg3503
S'asdf'
p3989
sg3505
F2
sg3506
F10
sg3507
F2
sg3508
S'Cunning'
p3990
sg3510
S'None'
p3991
sg3512
F3
sg3513
I0
sg3514
(lp3992
sg3532
I1
sg3533
F10
sg3528
g3986
sg3534
S'Pray'
p3993
sbsS'REVIVE'
p3994
g1
(g10
g3
NtRp3995
(dp3996
g3502
F0
sg3503
S'Revive a defeated comrade to half votes'
p3997
sg3505
I1
sg3506
F0
sg3507
F0
sg3508
S''
sg3510
S'DeadFriendly'
p3998
sg3512
F0
sg3513
F5
sg3514
(lp3999
g3793
asg3532
I1
sg3533
F0
sg3528
g3994
sg3534
S'Revive'
p4000
sbsS'HUMANSHIELD'
p4001
g1
(g10
g3
NtRp4002
(dp4003
g3502
F8
sg3503
S'No further questions. Step back, please.'
p4004
sg3505
I1
sg3506
F5
sg3507
F2
sg3508
S'Wit'
p4005
sg3510
S'AllEnemy'
p4006
sg3512
F4
sg3513
F4
sg3514
(lp4007
g3660
asg3532
I2
sg3533
F11
sg3528
g4001
sg3534
S'Human Shield'
p4008
sbsS'MAKEDEMANDS'
p4009
g1
(g10
g3
NtRp4010
(dp4011
g3502
F8
sg3503
S'asdf'
p4012
sg3505
I1
sg3506
F0
sg3507
F0
sg3508
S'Cunning'
p4013
sg3510
S'AllEnemy'
p4014
sg3512
F0
sg3513
I0
sg3514
(lp4015
g3551
asg3532
I1
sg3533
F0
sg3528
g4009
sg3534
S'Make Outrageous Demands'
p4016
sbsS'DEFENSE'
p4017
g1
(g10
g3
NtRp4018
(dp4019
g3502
F0
sg3503
S'Gather strenth; -50% to all incoming attacks'
p4020
sg3505
I1
sg3506
F0
sg3507
F0
sg3508
S''
sg3510
S'None'
p4021
sg3512
F0
sg3513
I0
sg3514
(lp4022
g1
(g3516
g3
NtRp4023
(dp4024
g3519
S'add'
p4025
sg3521
S'(DEFEND)'
p4026
sg3523
S'resistance'
p4027
sg3525
F0.5
sg3526
F1
sg3527
F1
sg3528
S'Defense'
p4028
sg3530
S'TRUE'
p4029
sbasg3532
I1
sg3533
F0
sg3528
g4017
sg3534
S'Defense'
p4030
sbsS'MISCONSTRUE'
p4031
g1
(g10
g3
NtRp4032
(dp4033
g3502
F8
sg3503
S'asdf'
p4034
sg3505
I1
sg3506
F0
sg3507
F0
sg3508
S'Cunning'
p4035
sg3510
S'AllEnemy'
p4036
sg3512
F0
sg3513
I0
sg3514
(lp4037
g3551
asg3532
I1
sg3533
F0
sg3528
g4031
sg3534
S'Misconstrue'
p4038
sbsS'NATIONALSECURITY'
p4039
g1
(g10
g3
NtRp4040
(dp4041
g3502
F7
sg3503
S"This is a matter of national security and they don't have codeword clearance"
p4042
sg3505
I1
sg3506
F10
sg3507
F2
sg3508
S'Cunning'
p4043
sg3510
S'AllEnemy'
p4044
sg3512
F2
sg3513
I0
sg3514
(lp4045
sg3532
I1
sg3533
F9
sg3528
g4039
sg3534
S'National Security'
p4046
sbsS'RALLY'
p4047
g1
(g10
g3
NtRp4048
(dp4049
g3502
F0
sg3503
S'Get back some votes by rallying supporters'
p4050
sg3505
I1
sg3506
F0
sg3507
F0
sg3508
S'Wit'
p4051
sg3510
S'AllFriendly'
p4052
sg3512
F0
sg3513
F3
sg3514
(lp4053
g1
(g3516
g3
NtRp4054
(dp4055
g3519
S'add_permanent'
p4056
sg3521
S''
sg3523
S'votes'
p4057
sg3525
F20
sg3526
F1
sg3527
F1
sg3528
S'Votes Restore Rally'
p4058
sg3530
S''
sbasg3532
I1
sg3533
F0
sg3528
g4047
sg3534
S'Rally Constituents'
p4059
sbsS'MESSAGE'
p4060
g1
(g10
g3
NtRp4061
(dp4062
g3502
F6
sg3503
S'You can certainly wear them down by repeating your party line over and over and over...if you want'
p4063
sg3505
F6
sg3506
F10
sg3507
F5
sg3508
S'Cunning'
p4064
sg3510
S'AllEnemy'
p4065
sg3512
F3
sg3513
I0
sg3514
(lp4066
sg3532
I1
sg3533
F10
sg3528
g4060
sg3534
S'Stay On Message'
p4067
sbsS'APPEALTOGOD'
p4068
g1
(g10
g3
NtRp4069
(dp4070
g3502
F10
sg3503
S'asdf'
p4071
sg3505
F3
sg3506
F5
sg3507
F2
sg3508
S'Wit'
p4072
sg3510
S'AllEnemy'
p4073
sg3512
F4
sg3513
F7
sg3514
(lp4074
sg3532
I4
sg3533
F13
sg3528
g4068
sg3534
S'Appeal To God'
p4075
sbssS'levels'
p4076
(lp4077
g1
(g10
g3
NtRp4078
(dp4079
S'votes'
p4080
F20
sS'level'
p4081
F1
sS'spin'
p4082
F5
sS'xp'
p4083
F0
sS'skill_points'
p4084
F0
sbag1
(g10
g3
NtRp4085
(dp4086
g4080
F12
sg4081
F2
sg4082
F5
sg4083
F100
sg4084
F2
sbag1
(g10
g3
NtRp4087
(dp4088
g4080
F15
sg4081
F3
sg4082
F6
sg4083
F200
sg4084
F2
sbag1
(g10
g3
NtRp4089
(dp4090
g4080
F20
sg4081
F4
sg4082
F6
sg4083
F500
sg4084
F2
sbag1
(g10
g3
NtRp4091
(dp4092
g4080
F25
sg4081
F5
sg4082
F7
sg4083
F1000
sg4084
F2
sbag1
(g10
g3
NtRp4093
(dp4094
g4080
F30
sg4081
F6
sg4082
F7
sg4083
F2000
sg4084
F2
sbag1
(g10
g3
NtRp4095
(dp4096
g4080
F35
sg4081
F7
sg4082
F8
sg4083
F5000
sg4084
F2
sbag1
(g10
g3
NtRp4097
(dp4098
g4080
F40
sg4081
F8
sg4082
F8
sg4083
F10000
sg4084
F2
sbag1
(g10
g3
NtRp4099
(dp4100
g4080
F45
sg4081
F9
sg4082
F9
sg4083
F15000
sg4084
F2
sbag1
(g10
g3
NtRp4101
(dp4102
g4080
F50
sg4081
F10
sg4082
F9
sg4083
F20000
sg4084
F2
sbag1
(g10
g3
NtRp4103
(dp4104
g4080
F55
sg4081
F11
sg4082
F10
sg4083
F40000
sg4084
F2
sbag1
(g10
g3
NtRp4105
(dp4106
g4080
S''
sg4081
F12
sg4082
S''
sg4083
S''
sg4084
S''
sbag1
(g10
g3
NtRp4107
(dp4108
g4080
S''
sg4081
F13
sg4082
S''
sg4083
S''
sg4084
S''
sbag1
(g10
g3
NtRp4109
(dp4110
g4080
S''
sg4081
F14
sg4082
S''
sg4083
S''
sg4084
S''
sbag1
(g10
g3
NtRp4111
(dp4112
g4080
S''
sg4081
F15
sg4082
S''
sg4083
S''
sg4084
S''
sbag1
(g10
g3
NtRp4113
(dp4114
g4080
S''
sg4081
F16
sg4082
S''
sg4083
S''
sg4084
S''
sbag1
(g10
g3
NtRp4115
(dp4116
g4080
S''
sg4081
F17
sg4082
S''
sg4083
S''
sg4084
S''
sbag1
(g10
g3
NtRp4117
(dp4118
g4080
S''
sg4081
F18
sg4082
S''
sg4083
S''
sg4084
S''
sbag1
(g10
g3
NtRp4119
(dp4120
g4080
S''
sg4081
F19
sg4082
S''
sg4083
S''
sg4084
S''
sbag1
(g10
g3
NtRp4121
(dp4122
g4080
S''
sg4081
F20
sg4082
S''
sg4083
S''
sg4084
S''
sbag1
(g10
g3
NtRp4123
(dp4124
g4080
S''
sg4081
F21
sg4082
S''
sg4083
S''
sg4084
S''
sbag1
(g10
g3
NtRp4125
(dp4126
g4080
S''
sg4081
F22
sg4082
S''
sg4083
S''
sg4084
S''
sbag1
(g10
g3
NtRp4127
(dp4128
g4080
S''
sg4081
F23
sg4082
S''
sg4083
S''
sg4084
S''
sbag1
(g10
g3
NtRp4129
(dp4130
g4080
S''
sg4081
F24
sg4082
S''
sg4083
S''
sg4084
S''
sbag1
(g10
g3
NtRp4131
(dp4132
g4080
S''
sg4081
F25
sg4082
S''
sg4083
S''
sg4084
S''
sbag1
(g10
g3
NtRp4133
(dp4134
g4080
S''
sg4081
F26
sg4082
S''
sg4083
S''
sg4084
S''
sbag1
(g10
g3
NtRp4135
(dp4136
g4080
S''
sg4081
F27
sg4082
S''
sg4083
S''
sg4084
S''
sbag1
(g10
g3
NtRp4137
(dp4138
g4080
S''
sg4081
F28
sg4082
S''
sg4083
S''
sg4084
S''
sbag1
(g10
g3
NtRp4139
(dp4140
g4080
S''
sg4081
F29
sg4082
S''
sg4083
S''
sg4084
S''
sbasg3514
(dp4141
g3529
g3517
sg3628
g3624
sg3725
g3721
sg3959
g3954
sg3664
g3660
sg3739
g3735
sg3924
g3920
sg3937
g3933
sg3865
g3861
sg3683
g3679
sg3796
g3793
sg3705
g3700
sg3753
g3748
sg4028
g4023
sg3555
g3551
sS'Increase Flair'
p4142
g1
(g3516
g3
NtRp4143
(dp4144
g3519
S'add'
p4145
sg3521
S'(INCR FL)'
p4146
sg3523
S'flair'
p4147
sg3525
F2
sg3526
F1
sg3527
F4
sg3528
g4142
sg3530
S'TRUE'
p4148
sbsg3616
g3612
sg4058
g4054
ssS'characters'
p4149
(dp4150
S'Teacher001'
p4151
(lp4152
g1
(g10
g3
NtRp4153
(dp4154
S'flair_base'
p4155
F1
sS'spin_base'
p4156
F4
sS'flair_lvl'
p4157
F0.10000000000000001
sS'wit_base'
p4158
F1
sS'resistance'
p4159
(lp4160
sS'wit_lvl'
p4161
F0.089999999999999997
sS'cunning_base'
p4162
F1
sg3528
g4151
sS'votes_base'
p4163
F12
sS'speed_lvl'
p4164
F0.080000000000000002
sS'standard_attacks'
p4165
(lp4166
g4018
ag3764
asS'cunning_lvl'
p4167
F0.90000000000000002
sS'charisma_lvl'
p4168
F0.10000000000000001
sS'spin_attacks'
p4169
(lp4170
g3868
ag3855
asS'spin_lvl'
p4171
F0.25
sS'charisma_base'
p4172
F1
sS'weaknesses'
p4173
(lp4174
sS'attack_group'
p4175
S'Teacher'
p4176
sS'votes_lvl'
p4177
F0.050000000000000003
sg3534
S'Teacher'
p4178
sS'speed_base'
p4179
F1
sS'immunities'
p4180
(lp4181
sbasS'Politician001'
p4182
(lp4183
g1
(g10
g3
NtRp4184
(dp4185
g4155
F1
sg4156
F4
sg4157
F0.10000000000000001
sg4158
F1
sg4159
(lp4186
g3545
asg4161
F0.089999999999999997
sg4162
F1
sg3528
g4182
sg4163
F12
sg4164
F0.080000000000000002
sg4165
(lp4187
g4061
ag3876
ag3545
ag3979
ag4018
asg4167
F0.90000000000000002
sg4168
F0.10000000000000001
sg4169
(lp4188
g3907
ag3686
ag3995
asg4171
F0.25
sg4172
F1
sg4173
(lp4189
g3631
asg4175
S'Politician'
p4190
sg4177
F0.050000000000000003
sg3534
S'Politician'
p4191
sg4179
F1
sg4180
(lp4192
g3963
asbasS'SecretAgent'
p4193
(lp4194
g1
(g10
g3
NtRp4195
(dp4196
g4155
F1
sg4156
F4
sg4157
F0.10000000000000001
sg4158
F1
sg4159
(lp4197
sg4161
F1
sg4162
F1
sg3528
g4193
sg4163
F18
sg4164
F1
sg4165
(lp4198
g4040
ag3831
asg4167
F1
sg4168
F1
sg4169
(lp4199
g4002
ag3807
asg4171
F1
sg4172
F1
sg4173
(lp4200
sg4175
S'SecretAgent'
p4201
sg4177
F0.050000000000000003
sg3534
S'Agent Kawalski'
p4202
sg4179
F1
sg4180
(lp4203
sbasS'Bumpkin001'
p4204
(lp4205
g1
(g10
g3
NtRp4206
(dp4207
g4155
F1
sg4156
F4
sg4157
F0.10000000000000001
sg4158
F1
sg4159
(lp4208
sg4161
F0.089999999999999997
sg4162
F1
sg3528
g4204
sg4163
F12
sg4164
F0.080000000000000002
sg4165
(lp4209
g3979
ag3708
asg4167
F0.90000000000000002
sg4168
F0.10000000000000001
sg4169
(lp4210
g3647
ag3772
asg4171
F0.25
sg4172
F1
sg4173
(lp4211
g3545
ag3876
ag3756
asg4175
S'Bumpkin'
p4212
sg4177
F0.050000000000000003
sg3534
S'Bumpkin'
p4213
sg4179
F1
sg4180
(lp4214
sbasS'WarVet001'
p4215
(lp4216
g1
(g10
g3
NtRp4217
(dp4218
g4155
F1
sg4156
F4
sg4157
F0.10000000000000001
sg4158
F1
sg4159
(lp4219
sg4161
F0.089999999999999997
sg4162
F1
sg3528
g4215
sg4163
F12
sg4164
F0.080000000000000002
sg4165
(lp4220
g4010
ag4018
asg4167
F0.90000000000000002
sg4168
F0.10000000000000001
sg4169
(lp4221
g3971
ag3855
asg4171
F0.25
sg4172
F1
sg4173
(lp4222
sg4175
S'WarVet'
p4223
sg4177
F0.050000000000000003
sg3534
S'War Veteran'
p4224
sg4179
F1
sg4180
(lp4225
sbasS'Receptionist001'
p4226
(lp4227
g1
(g10
g3
NtRp4228
(dp4229
g4155
F1
sg4156
F4
sg4157
F0.10000000000000001
sg4158
F1
sg4159
(lp4230
sg4161
F0.089999999999999997
sg4162
F1
sg3528
g4226
sg4163
F10
sg4164
F0.080000000000000002
sg4165
(lp4231
g3940
ag3884
asg4167
F0.90000000000000002
sg4168
F0.10000000000000001
sg4169
(lp4232
g3892
ag3618
asg4171
F0.25
sg4172
F0
sg4173
(lp4233
sg4175
S'Receptionist'
p4234
sg4177
F0.050000000000000003
sg3534
S'Receptionist'
p4235
sg4179
F1
sg4180
(lp4236
sbasS'DeepThroat'
p4237
(lp4238
g1
(g10
g3
NtRp4239
(dp4240
g4155
F1
sg4156
F4
sg4157
F0.10000000000000001
sg4158
F1
sg4159
(lp4241
sg4161
F0.089999999999999997
sg4162
F1
sg3528
g4237
sg4163
F12
sg4164
F0.080000000000000002
sg4165
(lp4242
g3876
ag4018
ag4010
asg4167
F0.90000000000000002
sg4168
F0.10000000000000001
sg4169
(lp4243
g3742
asg4171
F0.25
sg4172
F1
sg4173
(lp4244
sg4175
S'DeepThroat'
p4245
sg4177
F0.050000000000000003
sg3534
S'Mr Er...?'
p4246
sg4179
F1
sg4180
(lp4247
sbasS'Leo'
p4248
(lp4249
g1
(g10
g3
NtRp4250
(dp4251
g4155
F2
sg4156
F4
sg4157
F0.10000000000000001
sg4158
F5
sg4159
(lp4252
sg4161
F1
sg4162
F2
sg3528
g4248
sg4163
F14
sg4164
F1
sg4165
(lp4253
g4061
ag3876
ag3545
ag3979
ag3631
asg4167
F1
sg4168
F1
sg4169
(lp4254
g3907
ag3686
ag3963
ag3799
asg4171
F1
sg4172
F2
sg4173
(lp4255
sg4175
S'Theo'
p4256
sg4177
F0.050000000000000003
sg3534
S'Theo'
p4257
sg4179
F2
sg4180
(lp4258
sbasS'HippyGirl001'
p4259
(lp4260
g1
(g10
g3
NtRp4261
(dp4262
g4155
F1
sg4156
F4
sg4157
F0.10000000000000001
sg4158
F2
sg4159
(lp4263
sg4161
F0.089999999999999997
sg4162
F2
sg3528
g4259
sg4163
F12
sg4164
F0.080000000000000002
sg4165
(lp4264
g3639
ag3764
ag3815
asg4167
F0.90000000000000002
sg4168
F0.10000000000000001
sg4169
(lp4265
g3839
ag3855
ag3995
asg4171
F0.25
sg4172
F1
sg4173
(lp4266
g3979
asg4175
S'Hippy'
p4267
sg4177
F0.050000000000000003
sg3534
S'Hippy Girl'
p4268
sg4179
F1
sg4180
(lp4269
sbasS'President'
p4270
(lp4271
g1
(g10
g3
NtRp4272
(dp4273
g4155
F1
sg4156
F4
sg4157
F0.10000000000000001
sg4158
F1
sg4159
(lp4274
sg4161
F0.089999999999999997
sg4162
F2
sg3528
g4270
sg4163
F15
sg4164
F0.080000000000000002
sg4165
(lp4275
g4061
ag3876
ag3545
ag3979
ag4018
asg4167
F0.90000000000000002
sg4168
F0.10000000000000001
sg4169
(lp4276
g3907
ag3686
ag3995
asg4171
F0.29999999999999999
sg4172
F1
sg4173
(lp4277
sg4175
S'Politician'
p4278
sg4177
F0.070000000000000007
sg3534
S'President Allen'
p4279
sg4179
F1
sg4180
(lp4280
sbasS'Unionist001'
p4281
(lp4282
g1
(g10
g3
NtRp4283
(dp4284
g4155
F1
sg4156
F4
sg4157
F0.10000000000000001
sg4158
F1
sg4159
(lp4285
sg4161
F0.089999999999999997
sg4162
F1
sg3528
g4281
sg4163
F12
sg4164
F0.080000000000000002
sg4165
(lp4286
g4010
ag4018
ag3764
asg4167
F0.90000000000000002
sg4168
F0.10000000000000001
sg4169
(lp4287
g3868
asg4171
F0.25
sg4172
F1
sg4173
(lp4288
sg4175
S'Unionist'
p4289
sg4177
F0.050000000000000003
sg3534
S'Unionist'
p4290
sg4179
F1
sg4180
(lp4291
sbasS'Wife'
p4292
(lp4293
g1
(g10
g3
NtRp4294
(dp4295
g4155
F1
sg4156
F4
sg4157
F0.10000000000000001
sg4158
F3
sg4159
(lp4296
sg4161
F1
sg4162
F1
sg3528
g4292
sg4163
F12
sg4164
F1
sg4165
(lp4297
g4061
ag3545
ag3979
asg4167
F1
sg4168
F1
sg4169
(lp4298
g4048
ag3995
ag3694
asg4171
F1
sg4172
F1
sg4173
(lp4299
sg4175
S'Wife'
p4300
sg4177
F0.050000000000000003
sg3534
S'Sarah Mossman'
p4301
sg4179
F3
sg4180
(lp4302
sbasS'PresidentAlien'
p4303
(lp4304
g1
(g10
g3
NtRp4305
(dp4306
g4155
F1
sg4156
F4
sg4157
F0.10000000000000001
sg4158
F2
sg4159
(lp4307
sg4161
F0.089999999999999997
sg4162
F2
sg3528
g4303
sg4163
F15
sg4164
F0.080000000000000002
sg4165
(lp4308
g3876
ag3545
ag4018
asg4167
F0.90000000000000002
sg4168
F0.10000000000000001
sg4169
(lp4309
g3655
ag3607
ag3995
asg4171
F0.29999999999999999
sg4172
F1
sg4173
(lp4310
sg4175
S'Alien'
p4311
sg4177
F0.070000000000000007
sg3534
S'President Alien'
p4312
sg4179
F1
sg4180
(lp4313
sbasS'Governor'
p4314
(lp4315
g1
(g10
g3
NtRp4316
(dp4317
g4155
F1
sg4156
F4
sg4157
F0.10000000000000001
sg4158
F1
sg4159
(lp4318
sg4161
F0.089999999999999997
sg4162
F1
sg3528
g4314
sg4163
F12
sg4164
F0.080000000000000002
sg4165
(lp4319
g4061
ag3876
ag3545
ag3979
ag4018
asg4167
F0.90000000000000002
sg4168
F0.10000000000000001
sg4169
(lp4320
g3907
ag3686
ag3995
asg4171
F0.25
sg4172
F1
sg4173
(lp4321
sg4175
S'Politician'
p4322
sg4177
F0.050000000000000003
sg3534
g4314
sg4179
F1
sg4180
(lp4323
sbasS'Lobbyist001'
p4324
(lp4325
g1
(g10
g3
NtRp4326
(dp4327
g4155
F1
sg4156
F4
sg4157
F0.10000000000000001
sg4158
F1
sg4159
(lp4328
sg4161
F0.089999999999999997
sg4162
F1
sg3528
g4324
sg4163
F12
sg4164
F0.080000000000000002
sg4165
(lp4329
g3780
ag4010
asg4167
F0.90000000000000002
sg4168
F0.10000000000000001
sg4169
(lp4330
g3927
ag3742
asg4171
F0.25
sg4172
F1
sg4173
(lp4331
g3963
asg4175
S'Lobbyist'
p4332
sg4177
F0.050000000000000003
sg3534
S'Lobbyist'
p4333
sg4179
F1
sg4180
(lp4334
g3631
asbasS'Journalist001'
p4335
(lp4336
g1
(g10
g3
NtRp4337
(dp4338
g4155
F1
sg4156
F4
sg4157
F0.10000000000000001
sg4158
F2
sg4159
(lp4339
sg4161
F0.080000000000000002
sg4162
F1
sg3528
g4335
sg4163
F16
sg4164
F0.01
sg4165
(lp4340
g3591
ag4032
asg4167
F0.90000000000000002
sg4168
F0.10000000000000001
sg4169
(lp4341
g3823
ag3500
ag3567
asg4171
F0.34999999999999998
sg4172
F1
sg4173
(lp4342
sg4175
S'Journalist'
p4343
sg4177
F0.050000000000000003
sg3534
S'Journalist'
p4344
sg4179
F1
sg4180
(lp4345
sbasS'ReligiousNut001'
p4346
(lp4347
g1
(g10
g3
NtRp4348
(dp4349
g4155
F1
sg4156
F6
sg4157
F0.050000000000000003
sg4158
F3
sg4159
(lp4350
sg4161
F0.089999999999999997
sg4162
F1
sg3528
g4346
sg4163
F12
sg4164
F0.01
sg4165
(lp4351
g3575
ag3987
ag4018
asg4167
F0.050000000000000003
sg4168
F0.050000000000000003
sg4169
(lp4352
g4069
ag3729
asg4171
F0.25
sg4172
F1
sg4173
(lp4353
sg4175
S'Religious'
p4354
sg4177
F0.089999999999999997
sg3534
S'Religious Nut'
p4355
sg4179
F1
sg4180
(lp4356
g3979
asbasS'JointChief001'
p4357
(lp4358
g1
(g10
g3
NtRp4359
(dp4360
g4155
F1
sg4156
F4
sg4157
F0.10000000000000001
sg4158
F1
sg4159
(lp4361
sg4161
F0.089999999999999997
sg4162
F1
sg3528
g4357
sg4163
F12
sg4164
F0.080000000000000002
sg4165
(lp4362
g4010
ag4018
ag4040
ag3666
asg4167
F0.90000000000000002
sg4168
F0.10000000000000001
sg4169
(lp4363
g3807
asg4171
F0.25
sg4172
F1
sg4173
(lp4364
sg4175
S'JointChief'
p4365
sg4177
F0.050000000000000003
sg3534
S'Joint Chief'
p4366
sg4179
F1
sg4180
(lp4367
sbasS'Protester001'
p4368
(lp4369
g1
(g10
g3
NtRp4370
(dp4371
g4155
F0.5
sg4156
F4
sg4157
F0.050000000000000003
sg4158
F1
sg4159
(lp4372
g3979
asg4161
F0.01
sg4162
F1
sg3528
g4368
sg4163
F10
sg4164
F0.01
sg4165
(lp4373
g3764
ag3583
ag3639
asg4167
F0.5
sg4168
F0.10000000000000001
sg4169
(lp4374
g3855
asg4171
F0.20000000000000001
sg4172
F1
sg4173
(lp4375
sg4175
S'Protestor'
p4376
sg4177
F0.01
sg3534
S'Protester'
p4377
sg4179
F1
sg4180
(lp4378
sbasS'TVPersonality001'
p4379
(lp4380
g1
(g10
g3
NtRp4381
(dp4382
g4155
F1
sg4156
F4
sg4157
F0.10000000000000001
sg4158
F1
sg4159
(lp4383
sg4161
F0.089999999999999997
sg4162
F1
sg3528
g4379
sg4163
F12
sg4164
F0.080000000000000002
sg4165
(lp4384
g3979
ag3591
asg4167
F0.90000000000000002
sg4168
F0.10000000000000001
sg4169
(lp4385
g3567
ag3559
asg4171
F0.25
sg4172
F1
sg4173
(lp4386
sg4175
S'TVPersonality'
p4387
sg4177
F0.050000000000000003
sg3534
S"Hecules O'Grady"
p4388
sg4179
F1
sg4180
(lp4389
sbasS'Player'
p4390
(lp4391
g1
(g10
g3
NtRp4392
(dp4393
g4155
F1
sg4156
F5
sg4157
F0.10000000000000001
sg4158
F1
sg4159
(lp4394
sg4161
F0.089999999999999997
sg4162
F1
sg3528
g4390
sg4163
F15
sg4164
F0.080000000000000002
sg4165
(lp4395
g4061
ag3545
ag3979
asg4167
F0.90000000000000002
sg4168
F0.10000000000000001
sg4169
(lp4396
g3686
asg4171
F0.25
sg4172
F1
sg4173
(lp4397
sg4175
S'Player'
p4398
sg4177
F0.20000000000000001
sg3534
S'Phillip Mossman'
p4399
sg4179
F2
sg4180
(lp4400
sbasS'Computer'
p4401
(lp4402
g1
(g10
g3
NtRp4403
(dp4404
g4155
F1
sg4156
F4
sg4157
F0.10000000000000001
sg4158
F1
sg4159
(lp4405
sg4161
F0.089999999999999997
sg4162
F1
sg3528
g4401
sg4163
F12
sg4164
F0.080000000000000002
sg4165
(lp4406
g4061
ag3876
ag3545
ag3979
ag4018
asg4167
F0.90000000000000002
sg4168
F0.10000000000000001
sg4169
(lp4407
g3907
ag3686
ag3995
asg4171
F0.5
sg4172
F1
sg4173
(lp4408
sg4175
S'Politician'
p4409
sg4177
F0.050000000000000003
sg3534
S'N.O.T.B.A.D'
p4410
sg4179
F1
sg4180
(lp4411
sbasS'CabinetPolitician001'
p4412
(lp4413
g1
(g10
g3
NtRp4414
(dp4415
g4155
F1
sg4156
F4
sg4157
F0.10000000000000001
sg4158
F1
sg4159
(lp4416
sg4161
F0.089999999999999997
sg4162
F1
sg3528
g4412
sg4163
F12
sg4164
F0.080000000000000002
sg4165
(lp4417
g4061
ag3876
ag3545
ag3979
ag4018
asg4167
F0.90000000000000002
sg4168
F0.10000000000000001
sg4169
(lp4418
g3907
ag3686
ag3995
asg4171
F0.25
sg4172
F1
sg4173
(lp4419
sg4175
S'Politician'
p4420
sg4177
F0.050000000000000003
sg3534
S'Cabinet Politician'
p4421
sg4179
F1
sg4180
(lp4422
sbasS'Constituent001'
p4423
(lp4424
g1
(g10
g3
NtRp4425
(dp4426
g4155
F1
sg4156
F4
sg4157
F0.10000000000000001
sg4158
F2
sg4159
(lp4427
sg4161
F0.080000000000000002
sg4162
F1
sg3528
g4423
sg4163
F12
sg4164
F0.10000000000000001
sg4165
(lp4428
g3764
ag3780
ag4010
asg4167
F0.90000000000000002
sg4168
F0.10000000000000001
sg4169
(lp4429
g3995
asg4171
F0.25
sg4172
F1
sg4173
(lp4430
sg4175
S'Constituent'
p4431
sg4177
F0.050000000000000003
sg3534
S'Constituent'
p4432
sg4179
F2
sg4180
(lp4433
sbasS'Mayor'
p4434
(lp4435
g1
(g10
g3
NtRp4436
(dp4437
g4155
F1
sg4156
F4
sg4157
F0.10000000000000001
sg4158
F1
sg4159
(lp4438
sg4161
F0.089999999999999997
sg4162
F1
sg3528
g4434
sg4163
F12
sg4164
F0.080000000000000002
sg4165
(lp4439
g4061
ag3876
ag3545
ag3979
ag4018
asg4167
F0.90000000000000002
sg4168
F0.10000000000000001
sg4169
(lp4440
g3907
ag3686
ag3995
asg4171
F0.25
sg4172
F1
sg4173
(lp4441
sg4175
S'Politician'
p4442
sg4177
F0.050000000000000003
sg3534
S'Mayor Goodman'
p4443
sg4179
F1
sg4180
(lp4444
sbassS'quest_items'
p4445
(dp4446
S'SOUTHWINGDOORKEY'
p4447
g1
(g10
g3
NtRp4448
(dp4449
g3503
S'It looks old.'
p4450
sg3528
g4447
sg3534
S'Key to the South Wing'
p4451
sbsS'NOTBADKEY'
p4452
g1
(g10
g3
NtRp4453
(dp4454
g3503
S'The key is imprinted with the seal of the President.'
p4455
sg3528
g4452
sg3534
S'Key to the Situation Room'
p4456
sbsS'BILLOFRIGHTS'
p4457
g1
(g10
g3
NtRp4458
(dp4459
g3503
S''
sg3528
g4457
sg3534
S"Citizens' Bill of Rights"
p4460
sbsS'PEN'
p4461
g1
(g10
g3
NtRp4462
(dp4463
g3503
S'Ink flows freely... into your shirt pocket.'
p4464
sg3528
g4461
sg3534
S'A pen'
p4465
sbsS'INCRIMINATINGEVIDENCE'
p4466
g1
(g10
g3
NtRp4467
(dp4468
g3503
S'Very incriminating proof that something troubling is going on in the White House.'
p4469
sg3528
g4466
sg3534
S'Incriminating Evidence'
p4470
sbsS'WARVETROOMKEY'
p4471
g1
(g10
g3
NtRp4472
(dp4473
g3503
S'The key is imprinted with the seal of the President.'
p4474
sg3528
g4471
sg3534
S'Key to the West Room'
p4475
sbsS'CABINETROOMKEY'
p4476
g1
(g10
g3
NtRp4477
(dp4478
g3503
S'The key is imprinted with the seal of the President.'
p4479
sg3528
g4476
sg3534
S'Key to the Cabinet Room'
p4480
sbsS'TEACHERROOMKEY'
p4481
g1
(g10
g3
NtRp4482
(dp4483
g3503
S'The key is imprinted with the seal of the President.'
p4484
sg3528
g4481
sg3534
S'Key to the East Room'
p4485
sbssg4165
(dp4486
S'Theo'
p4487
(lp4488
g4061
ag3876
ag3545
ag3979
ag3631
ag3907
ag3686
ag3963
ag3799
asS'JointChief'
p4489
(lp4490
g4010
ag4018
ag4040
ag3807
ag3666
asS'Politician'
p4491
(lp4492
g4061
ag3876
ag3545
ag3979
ag3907
ag3686
ag3995
ag4018
asS'Bumpkin'
p4493
(lp4494
g3979
ag3647
ag3772
ag3708
asS'Wife'
p4495
(lp4496
g4061
ag3545
ag3979
ag4048
ag3995
ag3694
asS'Lobbyist'
p4497
(lp4498
g3780
ag3927
ag3742
ag4010
asS'DeepThroat'
p4499
(lp4500
g3876
ag4018
ag3742
ag4010
asS'Protestor'
p4501
(lp4502
g3855
ag3764
ag3583
ag3639
asS'SecretAgent'
p4503
(lp4504
g4002
ag4040
ag3807
ag3831
asS'Teacher'
p4505
(lp4506
g3868
ag4018
ag3764
ag3855
asS'Alien'
p4507
(lp4508
g3876
ag3545
ag3655
ag3607
ag3995
ag4018
asS'Player'
p4509
(lp4510
g4061
ag3545
ag3979
ag3686
asS'Computer'
p4511
(lp4512
g3807
ag4040
ag3599
ag3742
ag4010
ag3876
asS'Receptionist'
p4513
(lp4514
g3940
ag3884
ag3892
ag3618
asS'Hippy'
p4515
(lp4516
g3639
ag3764
ag3815
ag3839
ag3855
ag3995
asS'Constituent'
p4517
(lp4518
g3764
ag3995
ag3780
ag4010
asS'TVPersonality'
p4519
(lp4520
g3979
ag3567
ag3591
ag3559
asS'WarVet'
p4521
(lp4522
g4010
ag4018
ag3971
ag3855
asS'Religious'
p4523
(lp4524
g3575
ag4069
ag3729
ag3987
ag4018
asS'Unionist'
p4525
(lp4526
g4010
ag4018
ag3764
ag3868
asS'Journalist'
p4527
(lp4528
g3591
ag4032
ag3823
ag3500
ag3567
assS'shops'
p4529
(dp4530
S'SHOP1'
p4531
(lp4532
g1
(g10
g3
NtRp4533
(dp4534
S'price'
p4535
F20
sS'shop_id'
p4536
g4531
sS'item_attack'
p4537
g3716
sbag1
(g10
g3
NtRp4538
(dp4539
g4535
F20
sg4536
S'SHOP1'
p4540
sg4537
g3915
sbasS'SHOP2P2'
p4541
(lp4542
g1
(g10
g3
NtRp4543
(dp4544
g4535
F20
sg4536
g4541
sg4537
g3716
sbag1
(g10
g3
NtRp4545
(dp4546
g4535
F20
sg4536
S'SHOP2P2'
p4547
sg4537
g3915
sbag1
(g10
g3
NtRp4548
(dp4549
g4535
F50
sg4536
S'SHOP2P2'
p4550
sg4537
g3788
sbag1
(g10
g3
NtRp4551
(dp4552
g4535
F40
sg4536
S'SHOP2P2'
p4553
sg4537
g3674
sbasS'SHOP2'
p4554
(lp4555
g1
(g10
g3
NtRp4556
(dp4557
g4535
F20
sg4536
g4554
sg4537
g3716
sbag1
(g10
g3
NtRp4558
(dp4559
g4535
F20
sg4536
S'SHOP2'
p4560
sg4537
g3915
sbag1
(g10
g3
NtRp4561
(dp4562
g4535
F50
sg4536
S'SHOP2'
p4563
sg4537
g3788
sbag1
(g10
g3
NtRp4564
(dp4565
g4535
F40
sg4536
S'SHOP2'
p4566
sg4537
g3674
sbasS'SHOP3'
p4567
(lp4568
g1
(g10
g3
NtRp4569
(dp4570
g4535
F20
sg4536
g4567
sg4537
g3716
sbag1
(g10
g3
NtRp4571
(dp4572
g4535
F20
sg4536
S'SHOP3'
p4573
sg4537
g3915
sbag1
(g10
g3
NtRp4574
(dp4575
g4535
F50
sg4536
S'SHOP3'
p4576
sg4537
g3788
sbag1
(g10
g3
NtRp4577
(dp4578
g4535
F40
sg4536
S'SHOP3'
p4579
sg4537
g3674
sbasS'SHOP3P2'
p4580
(lp4581
g1
(g10
g3
NtRp4582
(dp4583
g4535
F20
sg4536
g4580
sg4537
g3716
sbag1
(g10
g3
NtRp4584
(dp4585
g4535
F20
sg4536
S'SHOP3P2'
p4586
sg4537
g3915
sbag1
(g10
g3
NtRp4587
(dp4588
g4535
F50
sg4536
S'SHOP3P2'
p4589
sg4537
g3788
sbag1
(g10
g3
NtRp4590
(dp4591
g4535
F40
sg4536
S'SHOP3P2'
p4592
sg4537
g3674
sbassS'encounters'
p4593
(dp4594
S'P-hard-14'
p4595
g1
(g10
g3
NtRp4596
(dp4597
S'item_attack_drops'
p4598
(lp4599
sS'item_attacks'
p4600
(lp4601
sg3534
S''
sS'money'
p4602
F100
sg4083
F350
sS'monster2_lvl'
p4603
S''
sS'bribe_cost'
p4604
F50
sS'monster3'
p4605
S''
sS'monster1_lvl'
p4606
F6
sS'monster3_lvl'
p4607
S''
sS'monster4_lvl'
p4608
S''
sS'monster4'
p4609
S''
sS'monster2'
p4610
S''
sg3528
g4595
sS'monster1'
p4611
S'Computer'
p4612
sbsS'P-hard-11'
p4613
g1
(g10
g3
NtRp4614
(dp4615
g4598
(lp4616
sg4600
(lp4617
sg3534
S''
sg4602
F100
sg4083
F350
sg4603
F6
sg4604
F50
sg4605
S'JointChief001'
p4618
sg4606
F6
sg4607
F6
sg4608
S''
sg4609
S''
sg4610
S'JointChief001'
p4619
sg3528
g4613
sg4611
S'JointChief001'
p4620
sbsS'P-hard-10'
p4621
g1
(g10
g3
NtRp4622
(dp4623
g4598
(lp4624
sg4600
(lp4625
sg3534
S''
sg4602
S''
sg4083
F350
sg4603
F6
sg4604
F50
sg4605
S'CabinetPolitician001'
p4626
sg4606
F6
sg4607
F6
sg4608
F6
sg4609
S'CabinetPolitician001'
p4627
sg4610
S'CabinetPolitician001'
p4628
sg3528
g4621
sg4611
S'CabinetPolitician001'
p4629
sbsS'P-hard-13'
p4630
g1
(g10
g3
NtRp4631
(dp4632
g4598
(lp4633
sg4600
(lp4634
sg3534
S''
sg4602
F100
sg4083
F350
sg4603
F6
sg4604
F50
sg4605
S'JointChief001'
p4635
sg4606
F6
sg4607
F6
sg4608
F6
sg4609
S'JointChief001'
p4636
sg4610
S'JointChief001'
p4637
sg3528
g4630
sg4611
S'JointChief001'
p4638
sbsS'P-hard-12'
p4639
g1
(g10
g3
NtRp4640
(dp4641
g4598
(lp4642
sg4600
(lp4643
sg3534
S''
sg4602
F100
sg4083
F350
sg4603
F6
sg4604
F50
sg4605
S'JointChief001'
p4644
sg4606
F6
sg4607
F6
sg4608
S''
sg4609
S''
sg4610
S'JointChief001'
p4645
sg3528
g4639
sg4611
S'JointChief001'
p4646
sbsS'P-easy-05'
p4647
g1
(g10
g3
NtRp4648
(dp4649
g4598
(lp4650
g1
(c__main__
ItemAttack
p4651
g3
NtRp4652
(dp4653
S'attack'
p4654
g3847
sS'quantity'
p4655
I1
sbasg4600
(lp4656
sg3534
S''
sg4602
F0
sg4083
F20
sg4603
S''
sg4604
F50
sg4605
S''
sg4606
F2
sg4607
S''
sg4608
S''
sg4609
S''
sg4610
S''
sg3528
g4647
sg4611
S'Journalist001'
p4657
sbsS'P-easy-04'
p4658
g1
(g10
g3
NtRp4659
(dp4660
g4598
(lp4661
g1
(g4651
g3
NtRp4662
(dp4663
g4654
g3716
sg4655
I1
sbasg4600
(lp4664
sg3534
S''
sg4602
F0
sg4083
F30
sg4603
F1
sg4604
F50
sg4605
S''
sg4606
F1
sg4607
S''
sg4608
S''
sg4609
S''
sg4610
S'Protester001'
p4665
sg3528
g4658
sg4611
S'Protester001'
p4666
sbsS'P-easy-07'
p4667
g1
(g10
g3
NtRp4668
(dp4669
g4598
(lp4670
g1
(g4651
g3
NtRp4671
(dp4672
g4654
g3716
sg4655
I1
sbasg4600
(lp4673
sg3534
S''
sg4602
F15
sg4083
F40
sg4603
F2
sg4604
F50
sg4605
S''
sg4606
F2
sg4607
S''
sg4608
S''
sg4609
S''
sg4610
S'Protester001'
p4674
sg3528
g4667
sg4611
S'Constituent001'
p4675
sbsS'P-easy-06'
p4676
g1
(g10
g3
NtRp4677
(dp4678
g4598
(lp4679
g1
(g4651
g3
NtRp4680
(dp4681
g4654
g3995
sg4655
I1
sbasg4600
(lp4682
sg3534
S''
sg4602
F0
sg4083
F40
sg4603
F2
sg4604
F50
sg4605
S''
sg4606
F2
sg4607
S''
sg4608
S''
sg4609
S''
sg4610
S'Lobbyist001'
p4683
sg3528
g4676
sg4611
S'Lobbyist001'
p4684
sbsS'P-easy-01'
p4685
g1
(g10
g3
NtRp4686
(dp4687
g4598
(lp4688
g1
(g4651
g3
NtRp4689
(dp4690
g4654
g3915
sg4655
I1
sbasg4600
(lp4691
g1
(g4651
g3
NtRp4692
(dp4693
g4654
g3847
sg4655
I1
sbasg3534
S'The quest for pen'
p4694
sg4602
F0
sg4083
F10
sg4603
S''
sg4604
F50
sg4605
S''
sg4606
F1
sg4607
S''
sg4608
S''
sg4609
S''
sg4610
S''
sg3528
g4685
sg4611
S'Receptionist001'
p4695
sbsS'P-easy-03'
p4696
g1
(g10
g3
NtRp4697
(dp4698
g4598
(lp4699
g1
(g4651
g3
NtRp4700
(dp4701
g4654
g3915
sg4655
I1
sbasg4600
(lp4702
g1
(g4651
g3
NtRp4703
(dp4704
g4654
g3847
sg4655
I1
sbasg3534
S''
sg4602
F0
sg4083
F30
sg4603
F1
sg4604
F50
sg4605
S''
sg4606
F1
sg4607
S''
sg4608
S''
sg4609
S''
sg4610
S'Protester001'
p4705
sg3528
g4696
sg4611
S'Protester001'
p4706
sbsS'P-easy-02'
p4707
g1
(g10
g3
NtRp4708
(dp4709
g4598
(lp4710
sg4600
(lp4711
sg3534
S''
sg4602
F0
sg4083
F30
sg4603
F1
sg4604
F50
sg4605
S''
sg4606
F1
sg4607
S''
sg4608
S''
sg4609
S''
sg4610
S'Protester001'
p4712
sg3528
g4707
sg4611
S'Protester001'
p4713
sbsS'P-easy-09'
p4714
g1
(g10
g3
NtRp4715
(dp4716
g4598
(lp4717
g1
(g4651
g3
NtRp4718
(dp4719
g4654
g3915
sg4655
I1
sbasg4600
(lp4720
sg3534
S''
sg4602
F15
sg4083
F60
sg4603
F2
sg4604
F50
sg4605
S''
sg4606
F2
sg4607
S''
sg4608
S''
sg4609
S''
sg4610
S'Constituent001'
p4721
sg3528
g4714
sg4611
S'Constituent001'
p4722
sbsS'P-easy-08'
p4723
g1
(g10
g3
NtRp4724
(dp4725
g4598
(lp4726
sg4600
(lp4727
sg3534
S''
sg4602
F15
sg4083
F40
sg4603
F2
sg4604
F50
sg4605
S'Constituent001'
p4728
sg4606
F2
sg4607
F2
sg4608
S''
sg4609
S''
sg4610
S'Constituent001'
p4729
sg3528
g4723
sg4611
S'Protester001'
p4730
sbsS'P-hard-08'
p4731
g1
(g10
g3
NtRp4732
(dp4733
g4598
(lp4734
sg4600
(lp4735
sg3534
S''
sg4602
S''
sg4083
F350
sg4603
F6
sg4604
F50
sg4605
S'CabinetPolitician001'
p4736
sg4606
F6
sg4607
F6
sg4608
S''
sg4609
S''
sg4610
S'CabinetPolitician001'
p4737
sg3528
g4731
sg4611
S'CabinetPolitician001'
p4738
sbsS'P-hard-09'
p4739
g1
(g10
g3
NtRp4740
(dp4741
g4598
(lp4742
sg4600
(lp4743
sg3534
S''
sg4602
F70
sg4083
F350
sg4603
F6
sg4604
F50
sg4605
S'CabinetPolitician001'
p4744
sg4606
F6
sg4607
F6
sg4608
F6
sg4609
S'CabinetPolitician001'
p4745
sg4610
S'CabinetPolitician001'
p4746
sg3528
g4739
sg4611
S'CabinetPolitician001'
p4747
sbsS'P-med-08'
p4748
g1
(g10
g3
NtRp4749
(dp4750
g4598
(lp4751
g1
(g4651
g3
NtRp4752
(dp4753
g4654
g3674
sg4655
I1
sbasg4600
(lp4754
sg3534
S''
sg4602
S''
sg4083
F180
sg4603
F4
sg4604
F50
sg4605
S'Politician001'
p4755
sg4606
F4
sg4607
F4
sg4608
S''
sg4609
S''
sg4610
S'Politician001'
p4756
sg3528
g4748
sg4611
S'Protester001'
p4757
sbsS'P-med-09'
p4758
g1
(g10
g3
NtRp4759
(dp4760
g4598
(lp4761
sg4600
(lp4762
sg3534
S''
sg4602
F50
sg4083
F180
sg4603
F4
sg4604
F50
sg4605
S'Politician001'
p4763
sg4606
F4
sg4607
F4
sg4608
S''
sg4609
S''
sg4610
S'ReligiousNut001'
p4764
sg3528
g4758
sg4611
S'Politician001'
p4765
sbsS'P-med-02'
p4766
g1
(g10
g3
NtRp4767
(dp4768
g4598
(lp4769
g1
(g4651
g3
NtRp4770
(dp4771
g4654
g3674
sg4655
I1
sbasg4600
(lp4772
g1
(g4651
g3
NtRp4773
(dp4774
g4654
g3537
sg4655
I1
sbasg3534
S''
sg4602
F25
sg4083
F90
sg4603
F3
sg4604
F50
sg4605
S''
sg4606
F3
sg4607
S''
sg4608
S''
sg4609
S''
sg4610
S'Politician001'
p4775
sg3528
g4766
sg4611
S'Politician001'
p4776
sbsS'P-med-03'
p4777
g1
(g10
g3
NtRp4778
(dp4779
g4598
(lp4780
sg4600
(lp4781
g1
(g4651
g3
NtRp4782
(dp4783
g4654
g3537
sg4655
I1
sbasg3534
S''
sg4602
F25
sg4083
F90
sg4603
F3
sg4604
F50
sg4605
S''
sg4606
F3
sg4607
S''
sg4608
S''
sg4609
S''
sg4610
S'Bumpkin001'
p4784
sg3528
g4777
sg4611
S'Bumpkin001'
p4785
sbsS'P-med-01'
p4786
g1
(g10
g3
NtRp4787
(dp4788
g4598
(lp4789
sg4600
(lp4790
sg3534
S''
sg4602
F30
sg4083
F90
sg4603
F3
sg4604
F50
sg4605
S''
sg4606
F3
sg4607
S''
sg4608
S''
sg4609
S''
sg4610
S'Politician001'
p4791
sg3528
g4786
sg4611
S'Politician001'
p4792
sbsS'P-med-06'
p4793
g1
(g10
g3
NtRp4794
(dp4795
g4598
(lp4796
sg4600
(lp4797
sg3534
S''
sg4602
F50
sg4083
F220
sg4603
F5
sg4604
F50
sg4605
S'Politician001'
p4798
sg4606
F4
sg4607
F4
sg4608
S''
sg4609
S''
sg4610
S'Governor'
p4799
sg3528
g4793
sg4611
S'Politician001'
p4800
sbsS'P-med-07'
p4801
g1
(g10
g3
NtRp4802
(dp4803
g4598
(lp4804
sg4600
(lp4805
sg3534
S''
sg4602
S''
sg4083
F120
sg4603
F5
sg4604
F50
sg4605
S''
sg4606
F5
sg4607
S''
sg4608
S''
sg4609
S''
sg4610
S'Journalist001'
p4806
sg3528
g4801
sg4611
S'Politician001'
p4807
sbsS'P-med-04'
p4808
g1
(g10
g3
NtRp4809
(dp4810
g4598
(lp4811
sg4600
(lp4812
sg3534
S''
sg4602
F30
sg4083
F135
sg4603
F3
sg4604
F50
sg4605
S'Protester001'
p4813
sg4606
F3
sg4607
F3
sg4608
S''
sg4609
S''
sg4610
S'Bumpkin001'
p4814
sg3528
g4808
sg4611
S'HippyGirl001'
p4815
sbsS'P-med-05'
p4816
g1
(g10
g3
NtRp4817
(dp4818
g4598
(lp4819
sg4600
(lp4820
sg3534
S''
sg4602
F30
sg4083
F135
sg4603
F3
sg4604
F50
sg4605
S'Politician001'
p4821
sg4606
F3
sg4607
F3
sg4608
S''
sg4609
S''
sg4610
S'Journalist001'
p4822
sg3528
g4816
sg4611
S'Journalist001'
p4823
sbsS'P-med-24'
p4824
g1
(g10
g3
NtRp4825
(dp4826
g4598
(lp4827
sg4600
(lp4828
sg3534
S''
sg4602
F70
sg4083
F500
sg4603
F8
sg4604
F50
sg4605
S'Politician001'
p4829
sg4606
F7
sg4607
F7
sg4608
S''
sg4609
S''
sg4610
S'PresidentAlien'
p4830
sg3528
g4824
sg4611
S'Politician001'
p4831
sbsS'P-med-20'
p4832
g1
(g10
g3
NtRp4833
(dp4834
g4598
(lp4835
sg4600
(lp4836
sg3534
S''
sg4602
S''
sg4083
F225
sg4603
F5
sg4604
F50
sg4605
S'Journalist001'
p4837
sg4606
F5
sg4607
F5
sg4608
S''
sg4609
S''
sg4610
S'TVPersonality001'
p4838
sg3528
g4832
sg4611
S'Journalist001'
p4839
sbsS'P-med-21'
p4840
g1
(g10
g3
NtRp4841
(dp4842
g4598
(lp4843
sg4600
(lp4844
sg3534
S''
sg4602
S''
sg4083
F300
sg4603
F7
sg4604
F50
sg4605
S'Politician001'
p4845
sg4606
F6
sg4607
F6
sg4608
S''
sg4609
S''
sg4610
S'President'
p4846
sg3528
g4840
sg4611
S'Politician001'
p4847
sbsS'P-med-22'
p4848
g1
(g10
g3
NtRp4849
(dp4850
g4598
(lp4851
sg4600
(lp4852
sg3534
S''
sg4602
F70
sg4083
F180
sg4603
F6
sg4604
F50
sg4605
S''
sg4606
F6
sg4607
S''
sg4608
S''
sg4609
S''
sg4610
S'DeepThroat'
p4853
sg3528
g4848
sg4611
S'DeepThroat'
p4854
sbsS'P-med-23'
p4855
g1
(g10
g3
NtRp4856
(dp4857
g4598
(lp4858
g1
(g4651
g3
NtRp4859
(dp4860
g4654
g3674
sg4655
I1
sbasg4600
(lp4861
sg3534
S''
sg4602
S''
sg4083
F400
sg4603
F7
sg4604
F50
sg4605
S'Politician001'
p4862
sg4606
F6
sg4607
F6
sg4608
F6
sg4609
S'Politician001'
p4863
sg4610
S'President'
p4864
sg3528
g4855
sg4611
S'Politician001'
p4865
sbsS'P-hard-06'
p4866
g1
(g10
g3
NtRp4867
(dp4868
g4598
(lp4869
sg4600
(lp4870
sg3534
S''
sg4602
F70
sg4083
F350
sg4603
F6
sg4604
F50
sg4605
S'Teacher001'
p4871
sg4606
F6
sg4607
F6
sg4608
S''
sg4609
S''
sg4610
S'Teacher001'
p4872
sg3528
g4866
sg4611
S'Teacher001'
p4873
sbsS'P-hard-07'
p4874
g1
(g10
g3
NtRp4875
(dp4876
g4598
(lp4877
g1
(g4651
g3
NtRp4878
(dp4879
g4654
g3995
sg4655
I1
sbasg4600
(lp4880
sg3534
S''
sg4602
S''
sg4083
F350
sg4603
F6
sg4604
F50
sg4605
S'Teacher001'
p4881
sg4606
F6
sg4607
F6
sg4608
F6
sg4609
S'Teacher001'
p4882
sg4610
S'Teacher001'
p4883
sg3528
g4874
sg4611
S'Teacher001'
p4884
sbsS'P-hard-04'
p4885
g1
(g10
g3
NtRp4886
(dp4887
g4598
(lp4888
sg4600
(lp4889
sg3534
S''
sg4602
S''
sg4083
F350
sg4603
F6
sg4604
F50
sg4605
S'WarVet001'
p4890
sg4606
F6
sg4607
F6
sg4608
S''
sg4609
S''
sg4610
S'WarVet001'
p4891
sg3528
g4885
sg4611
S'WarVet001'
p4892
sbsS'P-hard-05'
p4893
g1
(g10
g3
NtRp4894
(dp4895
g4598
(lp4896
sg4600
(lp4897
sg3534
S''
sg4602
S''
sg4083
F350
sg4603
F6
sg4604
F50
sg4605
S'WarVet001'
p4898
sg4606
F6
sg4607
F6
sg4608
F6
sg4609
S'WarVet001'
p4899
sg4610
S'WarVet001'
p4900
sg3528
g4893
sg4611
S'WarVet001'
p4901
sbsS'P-hard-02'
p4902
g1
(g10
g3
NtRp4903
(dp4904
g4598
(lp4905
sg4600
(lp4906
sg3534
S''
sg4602
F70
sg4083
F350
sg4603
F6
sg4604
F50
sg4605
S'Journalist001'
p4907
sg4606
F6
sg4607
F6
sg4608
S''
sg4609
S''
sg4610
S'TVPersonality001'
p4908
sg3528
g4902
sg4611
S'Journalist001'
p4909
sbsS'P-hard-03'
p4910
g1
(g10
g3
NtRp4911
(dp4912
g4598
(lp4913
g1
(g4651
g3
NtRp4914
(dp4915
g4654
g3674
sg4655
I1
sbasg4600
(lp4916
sg3534
S''
sg4602
S''
sg4083
F350
sg4603
F6
sg4604
F50
sg4605
S'Journalist001'
p4917
sg4606
F6
sg4607
F6
sg4608
S''
sg4609
S''
sg4610
S'Journalist001'
p4918
sg3528
g4910
sg4611
S'TVPersonality001'
p4919
sbsS'P-hard-01'
p4920
g1
(g10
g3
NtRp4921
(dp4922
g4598
(lp4923
sg4600
(lp4924
sg3534
S''
sg4602
S''
sg4083
F350
sg4603
F6
sg4604
F50
sg4605
S'Journalist001'
p4925
sg4606
F6
sg4607
F6
sg4608
S''
sg4609
S''
sg4610
S'Journalist001'
p4926
sg3528
g4920
sg4611
S'Journalist001'
p4927
sbsS'P-easy-10'
p4928
g1
(g10
g3
NtRp4929
(dp4930
g4598
(lp4931
sg4600
(lp4932
sg3534
S''
sg4602
F40
sg4083
F80
sg4603
F3
sg4604
F50
sg4605
S'Politician001'
p4933
sg4606
F2
sg4607
F3
sg4608
S''
sg4609
S''
sg4610
S'Mayor'
p4934
sg3528
g4928
sg4611
S'Politician001'
p4935
sbsS'P-med-19'
p4936
g1
(g10
g3
NtRp4937
(dp4938
g4598
(lp4939
g1
(g4651
g3
NtRp4940
(dp4941
g4654
g3995
sg4655
I1
sbasg4600
(lp4942
sg3534
S''
sg4602
S''
sg4083
F150
sg4603
F5
sg4604
F50
sg4605
S''
sg4606
F5
sg4607
S''
sg4608
S''
sg4609
S''
sg4610
S'DeepThroat'
p4943
sg3528
g4936
sg4611
S'DeepThroat'
p4944
sbsS'P-med-18'
p4945
g1
(g10
g3
NtRp4946
(dp4947
g4598
(lp4948
sg4600
(lp4949
sg3534
S''
sg4602
F70
sg4083
F300
sg4603
F5
sg4604
F50
sg4605
S'ReligiousNut001'
p4950
sg4606
F5
sg4607
F5
sg4608
F5
sg4609
S'ReligiousNut001'
p4951
sg4610
S'Constituent001'
p4952
sg3528
g4945
sg4611
S'HippyGirl001'
p4953
sbsS'P-med-15'
p4954
g1
(g10
g3
NtRp4955
(dp4956
g4598
(lp4957
g1
(g4651
g3
NtRp4958
(dp4959
g4654
g3995
sg4655
I1
sbasg4600
(lp4960
sg3534
S''
sg4602
S''
sg4083
F180
sg4603
F6
sg4604
F50
sg4605
S''
sg4606
F5
sg4607
S''
sg4608
S''
sg4609
S''
sg4610
S'ReligiousNut001'
p4961
sg3528
g4954
sg4611
S'ReligiousNut001'
p4962
sbsS'P-med-14'
p4963
g1
(g10
g3
NtRp4964
(dp4965
g4598
(lp4966
sg4600
(lp4967
sg3534
S''
sg4602
S''
sg4083
F240
sg4603
F4
sg4604
F50
sg4605
S'Constituent001'
p4968
sg4606
F4
sg4607
F4
sg4608
F5
sg4609
S'Lobbyist001'
p4969
sg4610
S'Lobbyist001'
p4970
sg3528
g4963
sg4611
S'Constituent001'
p4971
sbsS'P-med-17'
p4972
g1
(g10
g3
NtRp4973
(dp4974
g4598
(lp4975
sg4600
(lp4976
sg3534
S''
sg4602
F70
sg4083
F225
sg4603
F5
sg4604
F50
sg4605
S'ReligiousNut001'
p4977
sg4606
F5
sg4607
F5
sg4608
S''
sg4609
S''
sg4610
S'HippyGirl001'
p4978
sg3528
g4972
sg4611
S'ReligiousNut001'
p4979
sbsS'P-med-16'
p4980
g1
(g10
g3
NtRp4981
(dp4982
g4598
(lp4983
sg4600
(lp4984
sg3534
S''
sg4602
S''
sg4083
F225
sg4603
F5
sg4604
F50
sg4605
S'HippyGirl001'
p4985
sg4606
F5
sg4607
F5
sg4608
S''
sg4609
S''
sg4610
S'ReligiousNut001'
p4986
sg3528
g4980
sg4611
S'ReligiousNut001'
p4987
sbsS'P-med-11'
p4988
g1
(g10
g3
NtRp4989
(dp4990
g4598
(lp4991
g1
(g4651
g3
NtRp4992
(dp4993
g4654
g3915
sg4655
I1
sbasg4600
(lp4994
sg3534
S''
sg4602
S''
sg4083
F240
sg4603
F4
sg4604
F50
sg4605
S'Constituent001'
p4995
sg4606
F4
sg4607
F4
sg4608
F5
sg4609
S'Politician001'
p4996
sg4610
S'Politician001'
p4997
sg3528
g4988
sg4611
S'Constituent001'
p4998
sbsS'P-med-10'
p4999
g1
(g10
g3
NtRp5000
(dp5001
g4598
(lp5002
sg4600
(lp5003
sg3534
S''
sg4602
S''
sg4083
F180
sg4603
F4
sg4604
F50
sg4605
S'ReligiousNut001'
p5004
sg4606
F4
sg4607
F4
sg4608
S''
sg4609
S''
sg4610
S'Politician001'
p5005
sg3528
g4999
sg4611
S'Politician001'
p5006
sbsS'P-med-13'
p5007
g1
(g10
g3
NtRp5008
(dp5009
g4598
(lp5010
sg4600
(lp5011
sg3534
S''
sg4602
F50
sg4083
F180
sg4603
F4
sg4604
F50
sg4605
S'Lobbyist001'
p5012
sg4606
F4
sg4607
F4
sg4608
S''
sg4609
S''
sg4610
S'Constituent001'
p5013
sg3528
g5007
sg4611
S'Lobbyist001'
p5014
sbsS'P-med-12'
p5015
g1
(g10
g3
NtRp5016
(dp5017
g4598
(lp5018
sg4600
(lp5019
sg3534
S''
sg4602
S''
sg4083
F180
sg4603
F4
sg4604
F50
sg4605
S'Lobbyist001'
p5020
sg4606
F4
sg4607
F4
sg4608
S''
sg4609
S''
sg4610
S'Lobbyist001'
p5021
sg3528
g5015
sg4611
S'HippyGirl001'
p5022
sbssb.