ccopy_reg
_reconstructor
p1
(c__main__
GameData
p2
c__builtin__
object
p3
NtRp4
(dp5
S'script'
p6
(dp7
S'Theo'
p8
(lp9
g1
(c__main__
TableRow
p10
g3
NtRp11
(dp12
S'action'
p13
S'RequireFlag'
p14
sS'trigger'
p15
g8
sS'param'
p16
S'GOVERNORDEFEATED'
p17
sS'dialog'
p18
S'The Governor is in the north wing.'
p19
sbasS'Wife'
p20
(lp21
g1
(g10
g3
NtRp22
(dp23
g13
S'RequireFlag'
p24
sg15
g20
sg16
S'GOHOMETOWIFE'
p25
sg18
S'What are you doing here, Phillip? You should be at work!'
p26
sbag1
(g10
g3
NtRp27
(dp28
g13
S'Say'
p29
sg15
S'Wife'
p30
sg16
S''
sg18
S'Welcome home, Phillip! How was your workday?'
p31
sbag1
(g10
g3
NtRp32
(dp33
g13
S'PlayerSay'
p34
sg15
S'Wife'
p35
sg16
S''
sg18
S'...'
p36
sbag1
(g10
g3
NtRp37
(dp38
g13
S'Say'
p39
sg15
S'Wife'
p40
sg16
S''
sg18
S"That good, huh? You know this isn't what you want. Why don't you strike out on your own?"
p41
sbag1
(g10
g3
NtRp42
(dp43
g13
S'PlayerSay'
p44
sg15
S'Wife'
p45
sg16
S''
sg18
S"I didn't think I knew where to start to be a Mayor, but Mayor Goodman makes it look easy."
p46
sbag1
(g10
g3
NtRp47
(dp48
g13
S'Say'
p49
sg15
S'Wife'
p50
sg16
S''
sg18
S"That's the spirit! You can do it! All you need is some money and support."
p51
sbag1
(g10
g3
NtRp52
(dp53
g13
S'PlayerSay'
p54
sg15
S'Wife'
p55
sg16
S''
sg18
S'Well...OK! Lets start with money. We need a sponsor.'
p56
sbag1
(g10
g3
NtRp57
(dp58
g13
S'Say'
p59
sg15
S'Wife'
p60
sg16
S''
sg18
S'OK, lets go get one!'
p61
sbag1
(g10
g3
NtRp62
(dp63
g13
S'AddAlly'
p64
sg15
S'Wife'
p65
sg16
S'Wife:1'
p66
sg18
S'Sarah Mossman Joins Your Political Party!'
p67
sbag1
(g10
g3
NtRp68
(dp69
g13
S'SetFlag'
p70
sg15
S'Wife'
p71
sg16
S'STARTSPONSOR'
p72
sg18
S''
sbag1
(g10
g3
NtRp73
(dp74
g13
S'Destroy'
p75
sg15
S'Wife'
p76
sg16
S''
sg18
S''
sbasS'Constituent2'
p77
(lp78
g1
(g10
g3
NtRp79
(dp80
g13
S'RequireFlag'
p81
sg15
g77
sg16
S'STARTCONSTITUENTS'
p82
sg18
S'What?'
p83
sbag1
(g10
g3
NtRp84
(dp85
g13
S'PlayerSay'
p86
sg15
S'Constituent2'
p87
sg16
S''
sg18
S'Vote Phillip Mossman for Mayor!'
p88
sbag1
(g10
g3
NtRp89
(dp90
g13
S'Say'
p91
sg15
S'Constituent2'
p92
sg16
S''
sg18
S'But Mayor Goodman has always taken care of me.'
p93
sbag1
(g10
g3
NtRp94
(dp95
g13
S'Encounter'
p96
sg15
S'Constituent2'
p97
sg16
S'P-easy-08'
p98
sg18
S''
sbag1
(g10
g3
NtRp99
(dp100
g13
S'Say'
p101
sg15
S'Constituent2'
p102
sg16
S''
sg18
S"I think it's time for a change!"
p103
sbag1
(g10
g3
NtRp104
(dp105
g13
S'Destroy'
p106
sg15
S'Constituent2'
p107
sg16
S''
sg18
S''
sbasS'Constituent3'
p108
(lp109
g1
(g10
g3
NtRp110
(dp111
g13
S'RequireFlag'
p112
sg15
g108
sg16
S'STARTCONSTITUENTS'
p113
sg18
S'What?'
p114
sbag1
(g10
g3
NtRp115
(dp116
g13
S'PlayerSay'
p117
sg15
S'Constituent3'
p118
sg16
S''
sg18
S'Vote Phillip Mossman for Mayor!'
p119
sbag1
(g10
g3
NtRp120
(dp121
g13
S'Say'
p122
sg15
S'Constituent3'
p123
sg16
S''
sg18
S'But Mayor Goodman has always taken care of me.'
p124
sbag1
(g10
g3
NtRp125
(dp126
g13
S'Encounter'
p127
sg15
S'Constituent3'
p128
sg16
S'P-easy-09'
p129
sg18
S''
sbag1
(g10
g3
NtRp130
(dp131
g13
S'Say'
p132
sg15
S'Constituent3'
p133
sg16
S''
sg18
S"I think it's time for a change!"
p134
sbag1
(g10
g3
NtRp135
(dp136
g13
S'PlayerSay'
p137
sg15
S'Constituent3'
p138
sg16
S''
sg18
S"I think I'm ready to take on Mayor Goodman now!"
p139
sbag1
(g10
g3
NtRp140
(dp141
g13
S'SetFlag'
p142
sg15
S'Constituent3'
p143
sg16
S'CONSTITUENTSWON'
p144
sg18
S''
sbag1
(g10
g3
NtRp145
(dp146
g13
S'Destroy'
p147
sg15
S'Constituent3'
p148
sg16
S''
sg18
S''
sbasS'Constituent1'
p149
(lp150
g1
(g10
g3
NtRp151
(dp152
g13
S'RequireFlag'
p153
sg15
g149
sg16
S'STARTCONSTITUENTS'
p154
sg18
S'Yes?'
p155
sbag1
(g10
g3
NtRp156
(dp157
g13
S'PlayerSay'
p158
sg15
S'Constituent1'
p159
sg16
S''
sg18
S'Vote Phillip Mossman for Mayor!'
p160
sbag1
(g10
g3
NtRp161
(dp162
g13
S'Say'
p163
sg15
S'Constituent1'
p164
sg16
S''
sg18
S'Who?'
p165
sbag1
(g10
g3
NtRp166
(dp167
g13
S'PlayerSay'
p168
sg15
S'Constituent1'
p169
sg16
S''
sg18
S'Er, me!'
p170
sbag1
(g10
g3
NtRp171
(dp172
g13
S'Say'
p173
sg15
S'Constituent1'
p174
sg16
S''
sg18
S'Why? How will you help local business?'
p175
sbag1
(g10
g3
NtRp176
(dp177
g13
S'Encounter'
p178
sg15
S'Constituent1'
p179
sg16
S'P-easy-07'
p180
sg18
S''
sbag1
(g10
g3
NtRp181
(dp182
g13
S'Say'
p183
sg15
S'Constituent1'
p184
sg16
S''
sg18
S'You make a good case!'
p185
sbag1
(g10
g3
NtRp186
(dp187
g13
S'Destroy'
p188
sg15
S'Constituent1'
p189
sg16
S''
sg18
S''
sbasS'Protester2'
p190
(lp191
g1
(g10
g3
NtRp192
(dp193
g13
S'Say'
p194
sg15
g190
sg16
S''
sg18
S"Bees buzz, Mayors lie, who's this Phillip Mossman guy?"
p195
sbag1
(g10
g3
NtRp196
(dp197
g13
S'RequireFlag'
p198
sg15
S'Protester2'
p199
sg16
S'PROTESTORS'
p200
sg18
S''
sbag1
(g10
g3
NtRp201
(dp202
g13
S'Encounter'
p203
sg15
S'Protester2'
p204
sg16
S'P-easy-03'
p205
sg18
S''
sbag1
(g10
g3
NtRp206
(dp207
g13
S'Destroy'
p208
sg15
S'Protester2'
p209
sg16
S''
sg18
S''
sbasS'CheatAct2'
p210
(lp211
g1
(g10
g3
NtRp212
(dp213
g13
S'AddAlly'
p214
sg15
g210
sg16
S'Wife:1'
p215
sg18
S''
sbag1
(g10
g3
NtRp216
(dp217
g13
S'LearnAttack'
p218
sg15
S'CheatAct2'
p219
sg16
S'BRIBE'
p220
sg18
S''
sbag1
(g10
g3
NtRp221
(dp222
g13
S'LearnAttack'
p223
sg15
S'CheatAct2'
p224
sg16
S'Wife:BRIBE'
p225
sg18
S''
sbag1
(g10
g3
NtRp226
(dp227
g13
S'LearnAttack'
p228
sg15
S'CheatAct2'
p229
sg16
S'SLANDER'
p230
sg18
S''
sbag1
(g10
g3
NtRp231
(dp232
g13
S'GotoMap'
p233
sg15
S'CheatAct2'
p234
sg16
S'act2'
p235
sg18
S''
sbasS'Protester1'
p236
(lp237
g1
(g10
g3
NtRp238
(dp239
g13
S'LearnAttack'
p240
sg15
g236
sg16
S'RUNAD'
p241
sg18
S''
sbag1
(g10
g3
NtRp242
(dp243
g13
S'Say'
p244
sg15
S'Protester1'
p245
sg16
S''
sg18
S"Fee Fi Fo Fum, we think Mayor Goodman's Dumb!"
p246
sbag1
(g10
g3
NtRp247
(dp248
g13
S'Encounter'
p249
sg15
S'Protester1'
p250
sg16
S'P-easy-02'
p251
sg18
S''
sbag1
(g10
g3
NtRp252
(dp253
g13
S'Destroy'
p254
sg15
S'Protester1'
p255
sg16
S''
sg18
S''
sbasS'Politician1'
p256
(lp257
g1
(g10
g3
NtRp258
(dp259
g13
S'Say'
p260
sg15
g256
sg16
S''
sg18
S"I'm sorry Mayor Mossman, the Governor cannot see you now. He's very busy"
p261
sbag1
(g10
g3
NtRp262
(dp263
g13
S'PlayerSay'
p264
sg15
S'Politician1'
p265
sg16
S''
sg18
S"It's very important. I need to understand what Mayor Goodman was talking about. It was clear there were other powers at play."
p266
sbag1
(g10
g3
NtRp267
(dp268
g13
S'Say'
p269
sg15
S'Politician1'
p270
sg16
S''
sg18
S'Yes well, I fail to see how your country spat has anything to do with Governer Badden.'
p271
sbag1
(g10
g3
NtRp272
(dp273
g13
S'Encounter'
p274
sg15
S'Politician1'
p275
sg16
S'P-med-01'
p276
sg18
S''
sbag1
(g10
g3
NtRp277
(dp278
g13
S'Say'
p279
sg15
S'Politician1'
p280
sg16
S''
sg18
S'Fair point. The governor will see you now.'
p281
sbag1
(g10
g3
NtRp282
(dp283
g13
S'Destroy'
p284
sg15
S'Politician1'
p285
sg16
S''
sg18
S''
sbasS'Politician2'
p286
(lp287
g1
(g10
g3
NtRp288
(dp289
g13
S'Say'
p290
sg15
g286
sg16
S''
sg18
S'What are you doing in here? Who are you? Some Mayor?'
p291
sbag1
(g10
g3
NtRp292
(dp293
g13
S'PlayerSay'
p294
sg15
S'Politician2'
p295
sg16
S''
sg18
S"I am Mayor Phillip Mossman. I'm here to speak to the Governor."
p296
sbag1
(g10
g3
NtRp297
(dp298
g13
S'Say'
p299
sg15
S'Politician2'
p300
sg16
S''
sg18
S"I'm afraid the Governor's schedule is very tight. Come back next month."
p301
sbag1
(g10
g3
NtRp302
(dp303
g13
S'Encounter'
p304
sg15
S'Politician2'
p305
sg16
S'P-med-02'
p306
sg18
S''
sbag1
(g10
g3
NtRp307
(dp308
g13
S'Say'
p309
sg15
S'Politician2'
p310
sg16
S''
sg18
S'I see. Well, maybe we can squeeze you in.'
p311
sbag1
(g10
g3
NtRp312
(dp313
g13
S'SetFlag'
p314
sg15
S'Politician2'
p315
sg16
S'GOVPOLITICIANSFIRST'
p316
sg18
S''
sbag1
(g10
g3
NtRp317
(dp318
g13
S'Destroy'
p319
sg15
S'Politician2'
p320
sg16
S''
sg18
S''
sbasS'Head Protester'
p321
(lp322
g1
(g10
g3
NtRp323
(dp324
g13
S'Say'
p325
sg15
g321
sg16
S''
sg18
S"I am the head protester. You'll never convince us to back down!"
p326
sbag1
(g10
g3
NtRp327
(dp328
g13
S'RequireFlag'
p329
sg15
S'Head Protester'
p330
sg16
S'PROTESTORS'
p331
sg18
S''
sbag1
(g10
g3
NtRp332
(dp333
g13
S'PlayerSay'
p334
sg15
S'Head Protester'
p335
sg16
S''
sg18
S'What are you protesting?'
p336
sbag1
(g10
g3
NtRp337
(dp338
g13
S'Say'
p339
sg15
S'Head Protester'
p340
sg16
S''
sg18
S'Er...Injustice!'
p341
sbag1
(g10
g3
NtRp342
(dp343
g13
S'PlayerSay'
p344
sg15
S'Head Protester'
p345
sg16
S''
sg18
S'Injustice against what?'
p346
sbag1
(g10
g3
NtRp347
(dp348
g13
S'Say'
p349
sg15
S'Head Protester'
p350
sg16
S''
sg18
S'...'
p351
sbag1
(g10
g3
NtRp352
(dp353
g13
S'Say'
p354
sg15
S'Head Protester'
p355
sg16
S''
sg18
S'The People!'
p356
sbag1
(g10
g3
NtRp357
(dp358
g13
S'PlayerSay'
p359
sg15
S'Head Protester'
p360
sg16
S''
sg18
S'Yes, but which people?'
p361
sbag1
(g10
g3
NtRp362
(dp363
g13
S'Say'
p364
sg15
S'Head Protester'
p365
sg16
S''
sg18
S'See? What a fascist, ALL people you slimey politician scum!'
p366
sbag1
(g10
g3
NtRp367
(dp368
g13
S'Encounter'
p369
sg15
S'Head Protester'
p370
sg16
S'P-easy-04'
p371
sg18
S''
sbag1
(g10
g3
NtRp372
(dp373
g13
S'Say'
p374
sg15
S'Head Protester'
p375
sg16
S''
sg18
S"Alright, fine! We'll stop protesting...whatever we were protesting."
p376
sbag1
(g10
g3
NtRp377
(dp378
g13
S'SetFlag'
p379
sg15
S'Head Protester'
p380
sg16
S'PROTESTORSDEAD'
p381
sg18
S''
sbag1
(g10
g3
NtRp382
(dp383
g13
S'Destroy'
p384
sg15
S'Head Protester'
p385
sg16
S''
sg18
S''
sbasS'Journalist'
p386
(lp387
g1
(g10
g3
NtRp388
(dp389
g13
S'RequireFlag'
p390
sg15
g386
sg16
S'INTERVIEWSTART'
p391
sg18
S'Leave me alone, kid I need to get this done before my deadline!'
p392
sbag1
(g10
g3
NtRp393
(dp394
g13
S'Say'
p395
sg15
S'Journalist'
p396
sg16
S''
sg18
S"Hey, where's the Mayor?"
p397
sbag1
(g10
g3
NtRp398
(dp399
g13
S'PlayerSay'
p400
sg15
S'Journalist'
p401
sg16
S''
sg18
S"He couldn't make it. I'll be taking the interview."
p402
sbag1
(g10
g3
NtRp403
(dp404
g13
S'Say'
p405
sg15
S'Journalist'
p406
sg16
S''
sg18
S'Great! Easy pickings! Lets go.'
p407
sbag1
(g10
g3
NtRp408
(dp409
g13
S'Encounter'
p410
sg15
S'Journalist'
p411
sg16
S'P-easy-05'
p412
sg18
S''
sbag1
(g10
g3
NtRp413
(dp414
g13
S'Say'
p415
sg15
S'Journalist'
p416
sg16
S''
sg18
S"SNORE! Fine, if I can't get anything juicy here I'll do another puff piece on my poodle Frank."
p417
sbag1
(g10
g3
NtRp418
(dp419
g13
S'SetFlag'
p420
sg15
S'Journalist'
p421
sg16
S'JOURNALISTINTERVIEW'
p422
sg18
S''
sbag1
(g10
g3
NtRp423
(dp424
g13
S'Destroy'
p425
sg15
S'Journalist'
p426
sg16
S''
sg18
S''
sbasS'Sponsor'
p427
(lp428
g1
(g10
g3
NtRp429
(dp430
g13
S'RequireFlag'
p431
sg15
g427
sg16
S'STARTSPONSOR'
p432
sg18
S"Hmmm...Money, money, money. Sorry, what? I wasn't talking to you."
p433
sbag1
(g10
g3
NtRp434
(dp435
g13
S'Say'
p436
sg15
S'Sponsor'
p437
sg16
S''
sg18
S"Hello, I'm investigating new investments today. How can I help you?"
p438
sbag1
(g10
g3
NtRp439
(dp440
g13
S'PlayerSay'
p441
sg15
S'Sponsor'
p442
sg16
S''
sg18
S"Well, I've decided to run for Mayor! I could really use an investor."
p443
sbag1
(g10
g3
NtRp444
(dp445
g13
S'Say'
p446
sg15
S'Sponsor'
p447
sg16
S''
sg18
S"I don't know. You seem a little young. I don't think I'm convinced."
p448
sbag1
(g10
g3
NtRp449
(dp450
g13
S'Encounter'
p451
sg15
S'Sponsor'
p452
sg16
S'P-easy-06'
p453
sg18
S''
sbag1
(g10
g3
NtRp454
(dp455
g13
S'Say'
p456
sg15
S'Sponsor'
p457
sg16
S''
sg18
S"Wow! You sure have what it takes! Alright, he's a pile of cash!"
p458
sbag1
(g10
g3
NtRp459
(dp460
g13
S'Say'
p461
sg15
S'Sponsor'
p462
sg16
S''
sg18
S'Also, now that you have some funds, you might find it useful to...grease the wheels in some difficult situations.'
p463
sbag1
(g10
g3
NtRp464
(dp465
g13
S'LearnAttack'
p466
sg15
S'Sponsor'
p467
sg16
S'BRIBE'
p468
sg18
S'Phillip and Sarah learn to Bribe'
p469
sbag1
(g10
g3
NtRp470
(dp471
g13
S'LearnAttack'
p472
sg15
S'Sponsor'
p473
sg16
S'Wife:BRIBE'
p474
sg18
S''
sbag1
(g10
g3
NtRp475
(dp476
g13
S'SetFlag'
p477
sg15
S'Sponsor'
p478
sg16
S'STARTCONSTITUENTS'
p479
sg18
S''
sbag1
(g10
g3
NtRp480
(dp481
g13
S'PlayerSay'
p482
sg15
S'Sponsor'
p483
sg16
S''
sg18
S'Er, thanks! I suppose we should go gather some support from our constituents now.'
p484
sbag1
(g10
g3
NtRp485
(dp486
g13
S'Say'
p487
sg15
S'Sponsor'
p488
sg16
S''
sg18
S"Makes sense to me! I'm off, too. Money, money, money."
p489
sbag1
(g10
g3
NtRp490
(dp491
g13
S'Destroy'
p492
sg15
S'Sponsor'
p493
sg16
S''
sg18
S''
sbasS'Hick'
p494
(lp495
g1
(g10
g3
NtRp496
(dp497
g13
S'Say'
p498
sg15
g494
sg16
S''
sg18
S''
sbasS'Mayor'
p499
(lp500
g1
(g10
g3
NtRp501
(dp502
g13
S'Say'
p503
sg15
g499
sg16
S''
sg18
S"Hello, I'm the Mayor!"
p504
sbag1
(g10
g3
NtRp505
(dp506
g13
S'PlayerSay'
p507
sg15
S'Mayor'
p508
sg16
S''
sg18
S"Hello, Mayor Goodman, I'm Philip Mossman."
p509
sbag1
(g10
g3
NtRp510
(dp511
g13
S'Say'
p512
sg15
S'Mayor'
p513
sg16
S''
sg18
S"Ah yes, you're my new assistant. A good thing, too."
p514
sbag1
(g10
g3
NtRp515
(dp516
g13
S'Say'
p517
sg15
S'Mayor'
p518
sg16
S''
sg18
S"I've been searching for minutes and haven't been able to find my pen! I bet my receptionist stole it. She has sticky fingers."
p519
sbag1
(g10
g3
NtRp520
(dp521
g13
S'Say'
p522
sg15
S'Mayor'
p523
sg16
S''
sg18
S"Well, don't just stand there, go and get it!"
p524
sbag1
(g10
g3
NtRp525
(dp526
g13
S'SetFlag'
p527
sg15
S'Mayor'
p528
sg16
S'PENQUEST'
p529
sg18
S''
sbag1
(g10
g3
NtRp530
(dp531
g13
S'RequireItem'
p532
sg15
S'Mayor'
p533
sg16
S'PEN'
p534
sg18
S'Are you simple? Go and get my pen from that thieving receptionist.'
p535
sbag1
(g10
g3
NtRp536
(dp537
g13
S'Say'
p538
sg15
S'Mayor'
p539
sg16
S''
sg18
S"Great! I know she can give you a bit of a tongue-lashing, but she's a fantastic receptionist."
p540
sbag1
(g10
g3
NtRp541
(dp542
g13
S'Say'
p543
sg15
S'Mayor'
p544
sg16
S''
sg18
S"I'm sure you want to learn a thing or two about politics \xe2\x80\x93 who doesn't? - so lets get started"
p545
sbag1
(g10
g3
NtRp546
(dp547
g13
S'SetFlag'
p548
sg15
S'Mayor'
p549
sg16
S'PROTESTORS'
p550
sg18
S''
sbag1
(g10
g3
NtRp551
(dp552
g13
S'RequireFlag'
p553
sg15
S'Mayor'
p554
sg16
S'PROTESTORSDEAD'
p555
sg18
S'Run outside and tell those protesters to scram, will you?'
p556
sbag1
(g10
g3
NtRp557
(dp558
g13
S'Say'
p559
sg15
S'Mayor'
p560
sg16
S''
sg18
S"Hope they didn't give you too much trouble!"
p561
sbag1
(g10
g3
NtRp562
(dp563
g13
S'Say'
p564
sg15
S'Mayor'
p565
sg16
S''
sg18
S"Now that's sorted, there's a journalist from the local newspaper coming for an interview."
p566
sbag1
(g10
g3
NtRp567
(dp568
g13
S'Say'
p569
sg15
S'Mayor'
p570
sg16
S''
sg18
S"I certainly don't have time for it, so you can do the interview."
p571
sbag1
(g10
g3
NtRp572
(dp573
g13
S'Say'
p574
sg15
S'Mayor'
p575
sg16
S''
sg18
S"Be careful not to give too much away and if you could throw a few punches at the opposition that'd help."
p576
sbag1
(g10
g3
NtRp577
(dp578
g13
S'PlayerSay'
p579
sg15
S'Mayor'
p580
sg16
S''
sg18
S'You want me to...throw a punch?'
p581
sbag1
(g10
g3
NtRp582
(dp583
g13
S'Say'
p584
sg15
S'Mayor'
p585
sg16
S''
sg18
S"You're in politics and don't know how to fight dirty? Sheesh! Here, let me show you."
p586
sbag1
(g10
g3
NtRp587
(dp588
g13
S'LearnAttack'
p589
sg15
S'Mayor'
p590
sg16
S'SLANDER'
p591
sg18
S'Mayor teaches Phillip to Slander Opposition'
p592
sbag1
(g10
g3
NtRp593
(dp594
g13
S'Say'
p595
sg15
S'Mayor'
p596
sg16
S''
sg18
S"It's a pretty great tactic because it keeps eating away at them long after you've done it."
p597
sbag1
(g10
g3
NtRp598
(dp599
g13
S'SetFlag'
p600
sg15
S'Mayor'
p601
sg16
S'INTERVIEWSTART'
p602
sg18
S''
sbag1
(g10
g3
NtRp603
(dp604
g13
S'RequireFlag'
p605
sg15
S'Mayor'
p606
sg16
S'JOURNALISTINTERVIEW'
p607
sg18
S'Go handle that interview and remember to slander the opposition.'
p608
sbag1
(g10
g3
NtRp609
(dp610
g13
S'SetFlag'
p611
sg15
S'Mayor'
p612
sg16
S'GOHOMETOWIFE'
p613
sg18
S''
sbag1
(g10
g3
NtRp614
(dp615
g13
S'Say'
p616
sg15
S'Mayor'
p617
sg16
S''
sg18
S'OK, fine, now could you buzz off for a while? I need to get some work done.'
p618
sbag1
(g10
g3
NtRp619
(dp620
g13
S'RequireFlag'
p621
sg15
S'Mayor'
p622
sg16
S'CONSTITUENTSWON'
p623
sg18
S"Go home to your family. I have things to do that don't involve you."
p624
sbag1
(g10
g3
NtRp625
(dp626
g13
S'Say'
p627
sg15
S'Mayor'
p628
sg16
S''
sg18
S"What's this I hear about you campaigning for Mayor? After everything I've taught you!"
p629
sbag1
(g10
g3
NtRp630
(dp631
g13
S'PlayerSay'
p632
sg15
S'Mayor'
p633
sg16
S''
sg18
S"I'm sorry Mayor Goodman, but it's time for someone who's ready to make a difference for our town."
p634
sbag1
(g10
g3
NtRp635
(dp636
g13
S'Say'
p637
sg15
S'Mayor'
p638
sg16
S''
sg18
S"You really are a fool. Do you think He's going to allow that?"
p639
sbag1
(g10
g3
NtRp640
(dp641
g13
S'Encounter'
p642
sg15
S'Mayor'
p643
sg16
S'P-easy-10'
p644
sg18
S''
sbag1
(g10
g3
NtRp645
(dp646
g13
S'Say'
p647
sg15
S'Mayor'
p648
sg16
S''
sg18
S"Well, you've beaten me but you don't have a clue what you're in for. I hope you're up to this kid!"
p649
sbag1
(g10
g3
NtRp650
(dp651
g13
S'Destroy'
p652
sg15
S'Mayor'
p653
sg16
S''
sg18
S''
sbasS'Governor'
p654
(lp655
g1
(g10
g3
NtRp656
(dp657
g13
S'RequireFlag'
p658
sg15
g654
sg16
S'GOVPOLITICIANSFIRST'
p659
sg18
S"I'm very busy. Please speak to the others."
p660
sbag1
(g10
g3
NtRp661
(dp662
g13
S'Say'
p663
sg15
S'Governor'
p664
sg16
S''
sg18
S'You have quite a way with words, Mayor Mossman. Why are you here?'
p665
sbag1
(g10
g3
NtRp666
(dp667
g13
S'PlayerSay'
p668
sg15
S'Governor'
p669
sg16
S''
sg18
S"Mayor Goodman said some troubling things, Governor Badden. I'm here to get to the bottom of it."
p670
sbag1
(g10
g3
NtRp671
(dp672
g13
S'Say'
p673
sg15
S'Governor'
p674
sg16
S''
sg18
S"If I knew anything about what you're talking about, I wouldn't tell you. I don't trust you at all."
p675
sbag1
(g10
g3
NtRp676
(dp677
g13
S'PlayerSay'
p678
sg15
S'Governor'
p679
sg16
S''
sg18
S'What can I do to convince you?'
p680
sbag1
(g10
g3
NtRp681
(dp682
g13
S'Say'
p683
sg15
S'Governor'
p684
sg16
S''
sg18
S"Well...there's some hicks in the south wing that I've been dodging. They want to know about the recent funding cuts. Get rid of them."
p685
sbag1
(g10
g3
NtRp686
(dp687
g13
S'RequireFlag'
p688
sg15
S'Governor'
p689
sg16
S'DEALWITHHICKS'
p690
sg18
S"I'm not saying another word until you get rid of the hicks in the south wing."
p691
sbasS'Receptionist'
p692
(lp693
g1
(g10
g3
NtRp694
(dp695
g13
S'RequireFlag'
p696
sg15
g692
sg16
S'PENQUEST'
p697
sg18
S"You must be Mayor Goodman's new assistant. He's in his office."
p698
sbag1
(g10
g3
NtRp699
(dp700
g13
S'PlayerSay'
p701
sg15
S'Receptionist'
p702
sg16
S''
sg18
S"The Mayor is looking for his pen. He seemed to think you'd know where it was."
p703
sbag1
(g10
g3
NtRp704
(dp705
g13
S'Say'
p706
sg15
S'Receptionist'
p707
sg16
S''
sg18
S"Did that buffoon accuse me of stealing again? This is MY pen and he isn't having it."
p708
sbag1
(g10
g3
NtRp709
(dp710
g13
S'Encounter'
p711
sg15
S'Receptionist'
p712
sg16
S'P-easy-01'
p713
sg18
S''
sbag1
(g10
g3
NtRp714
(dp715
g13
S'GiveItem'
p716
sg15
S'Receptionist'
p717
sg16
S'PEN'
p718
sg18
S'Receptionist sighs and hands over the pen.'
p719
sbag1
(g10
g3
NtRp720
(dp721
g13
S'Destroy'
p722
sg15
S'Receptionist'
p723
sg16
S''
sg18
S''
sbassS'attacks'
p724
(dp725
S'GETEXCLUSIVE'
p726
g1
(g10
g3
NtRp727
(dp728
S'base_damage_max'
p729
F4
sS'description'
p730
S'asdf'
p731
sS'weight'
p732
I1
sS'crit_chance_max'
p733
F5
sS'crit_chance_min'
p734
F2
sS'underlying_stat'
p735
S'Wit'
p736
sS'target_type'
p737
S'AllFriendly'
p738
sS'base_damage_min'
p739
F2
sS'spin_cost'
p740
F5
sS'effects'
p741
(lp742
g1
(c__main__
Effect
p743
g3
NtRp744
(dp745
S'function'
p746
S'add'
p747
sS'abbrv'
p748
S'(INCREASE)'
p749
sS'attribute'
p750
S'cunning'
p751
sS'value'
p752
F2
sS'rounds_min'
p753
F1
sS'rounds_max'
p754
F4
sS'id'
p755
S'Increase Cunning'
p756
sS'apply_to_source'
p757
S'TRUE'
p758
sbasS'target_count'
p759
I1
sS'crit_base_damage'
p760
F8
sg755
g726
sS'name'
p761
S'Get Exclusive'
p762
sbsS'LOSELOSE'
p763
g1
(g10
g3
NtRp764
(dp765
g729
F4
sg730
S'Causes all politicians in the target radius to lose votes'
p766
sg732
I1
sg733
F0
sg734
F0
sg735
S'Cunning'
p767
sg737
S'All'
p768
sg739
F4
sg740
I0
sg741
(lp769
sg759
I6
sg760
F0
sg755
g763
sg761
S'Lose/lose issue'
p770
sbsS'LIE'
p771
g1
(g10
g3
NtRp772
(dp773
g729
F6
sg730
S"It's only lying if they catch you. A strong attack with a danger of failing entirely and leaving you high and dry."
p774
sg732
F3
sg733
F10
sg734
F2
sg735
S'Wit'
p775
sg737
S'AllEnemy'
p776
sg739
F0
sg740
I0
sg741
(lp777
g1
(g743
g3
NtRp778
(dp779
g746
S'miss_turn'
p780
sg748
S'(MISS)'
p781
sg750
S''
sg752
F0
sg753
F1
sg754
F1
sg755
S'Critical Fail'
p782
sg757
S'TRUE'
p783
sbasg759
I1
sg760
F10
sg755
g771
sg761
S'Lie'
p784
sbsS'HILARIOUSANECDOTE'
p785
g1
(g10
g3
NtRp786
(dp787
g729
F8
sg730
S'asdf'
p788
sg732
I1
sg733
F0
sg734
F0
sg735
S'Wit'
p789
sg737
S'AllFriendly'
p790
sg739
F4
sg740
F5
sg741
(lp791
g1
(g743
g3
NtRp792
(dp793
g746
S'add'
p794
sg748
S'(INCREASE)'
p795
sg750
S'flair'
p796
sg752
F2
sg753
F1
sg754
F4
sg755
S'Increase Flair'
p797
sg757
S'TRUE'
p798
sbasg759
I1
sg760
F0
sg755
g785
sg761
S'Hilarious Anecdote'
p799
sbsS'SENSATIONALISE'
p800
g1
(g10
g3
NtRp801
(dp802
g729
F8
sg730
S'asdf'
p803
sg732
I1
sg733
F0
sg734
F0
sg735
S'Wit'
p804
sg737
S'AllEnemy'
p805
sg739
F4
sg740
F3
sg741
(lp806
sg759
I1
sg760
F0
sg755
g800
sg761
S'Sensationalise'
p807
sbsS'DENOUNCE'
p808
g1
(g10
g3
NtRp809
(dp810
g729
F5
sg730
S'asdf'
p811
sg732
F6
sg733
F10
sg734
F2
sg735
S'Cunning'
p812
sg737
S'AllEnemy'
p813
sg739
F2
sg740
I0
sg741
(lp814
sg759
I1
sg760
F8
sg755
g808
sg761
S'Denounce'
p815
sbsS'WHADOWEWANT'
p816
g1
(g10
g3
NtRp817
(dp818
g729
F6
sg730
S'asdf'
p819
sg732
I1
sg733
F0
sg734
F0
sg735
S'Cunning'
p820
sg737
S'AllEnemy'
p821
sg739
F3
sg740
I0
sg741
(lp822
sg759
I1
sg760
F0
sg755
g816
sg761
S'Whadowewant!'
p823
sbsS'SCOOP'
p824
g1
(g10
g3
NtRp825
(dp826
g729
F5
sg730
S'asdf'
p827
sg732
I1
sg733
F10
sg734
F5
sg735
S'Cunning'
p828
sg737
S'AllEnemy'
p829
sg739
F2
sg740
I0
sg741
(lp830
sg759
I1
sg760
F8
sg755
g824
sg761
S'Scoop'
p831
sbsS'CHOOSETARGETS'
p832
g1
(g10
g3
NtRp833
(dp834
g729
F7
sg730
S'asdf'
p835
sg732
I1
sg733
F10
sg734
F5
sg735
S'Cunning'
p836
sg737
S'AllEnemy'
p837
sg739
F2
sg740
I0
sg741
(lp838
sg759
I1
sg760
F9
sg755
g832
sg761
S'Choose Targets'
p839
sbsS'FILENAILS'
p840
g1
(g10
g3
NtRp841
(dp842
g729
F0
sg730
S'asdf'
p843
sg732
I1
sg733
F0
sg734
F0
sg735
S'Wit'
p844
sg737
S'AllEnemy'
p845
sg739
F0
sg740
F3
sg741
(lp846
g1
(g743
g3
NtRp847
(dp848
g746
S'add_permanent'
p849
sg748
S''
sg750
S'votes'
p850
sg752
F5
sg753
F1
sg754
F1
sg755
S'Votes Restore'
p851
sg757
S'TRUE'
p852
sbasg759
I1
sg760
F0
sg755
g840
sg761
S'File Nails'
p853
sbsS'BRIBE'
p854
g1
(g10
g3
NtRp855
(dp856
g729
F1
sg730
S'Is there anything more convincing than money? Buying loyalty gets expensive so be careful.'
p857
sg732
I1
sg733
F1
sg734
F1
sg735
S'Money'
p858
sg737
S'AllEnemy'
p859
sg739
F2
sg740
I0
sg741
(lp860
sg759
I1
sg760
F1
sg755
g854
sg761
S'Bribe'
p861
sbsS'SING'
p862
g1
(g10
g3
NtRp863
(dp864
g729
F-3
sg730
S'Why bandy words with politicians when you can sing a catchy tune! Restores votes.'
p865
sg732
I1
sg733
F0
sg734
F0
sg735
S'Wit'
p866
sg737
S'AllFriendly'
p867
sg739
F-5
sg740
I0
sg741
(lp868
sg759
I4
sg760
F0
sg755
g862
sg761
S'Rousing Song'
p869
sbsS'FEAR'
p870
g1
(g10
g3
NtRp871
(dp872
g729
F0
sg730
S'asdf'
p873
sg732
F2
sg733
F0
sg734
F0
sg735
S'Wit'
p874
sg737
S'AllFriendly'
p875
sg739
F0
sg740
F4
sg741
(lp876
g744
asg759
I1
sg760
F0
sg755
g870
sg761
S'Fear Change'
p877
sbsS'RAISEDEFCON'
p878
g1
(g10
g3
NtRp879
(dp880
g729
F5
sg730
S'asdf'
p881
sg732
I1
sg733
F7
sg734
F3
sg735
S'Cunning'
p882
sg737
S'AllEnemy'
p883
sg739
F4
sg740
I0
sg741
(lp884
sg759
I1
sg760
F8
sg755
g878
sg761
S'Raise DEFCON'
p885
sbsS'NEGATTACKAD'
p886
g1
(g10
g3
NtRp887
(dp888
g729
F8
sg730
S"Take them all down. They're definitely all bad people. Not like you."
p889
sg732
I1
sg733
F10
sg734
F10
sg735
S'Cunning'
p890
sg737
S'AllEnemy'
p891
sg739
F3
sg740
F5
sg741
(lp892
sg759
I1
sg760
F10
sg755
g886
sg761
S'Negative Attack Ad'
p893
sbsS'DAZZLE'
p894
g1
(g10
g3
NtRp895
(dp896
g729
F3
sg730
S'Being dazzling and admirable is a great way to take heat off politics'
p897
sg732
I1
sg733
F8
sg734
F5
sg735
S'Wit'
p898
sg737
S'AllEnemy'
p899
sg739
F2
sg740
F3
sg741
(lp900
g1
(g743
g3
NtRp901
(dp902
g746
S'reduce'
p903
sg748
S'(REDUCE)'
p904
sg750
S'cunning'
p905
sg752
F2
sg753
F2
sg754
F5
sg755
S'Reduce Cunning'
p906
sg757
S''
sbasg759
I4
sg760
F8
sg755
g894
sg761
S'Dazzle'
p907
sbsS'BELIEVEMEDIA'
p908
g1
(g10
g3
NtRp909
(dp910
g729
F3
sg730
S'asdf'
p911
sg732
I1
sg733
F15
sg734
F5
sg735
S'Cunning'
p912
sg737
S'AllEnemy'
p913
sg739
F1
sg740
I0
sg741
(lp914
sg759
I1
sg760
F12
sg755
g908
sg761
S'Believe Media'
p915
sbsS'PRPREP'
p916
g1
(g10
g3
NtRp917
(dp918
g729
F0
sg730
S"If you're going to need some spin, best see a spin doctor! Adds spin points."
p919
sg732
I1
sg733
F0
sg734
F0
sg735
S''
sg737
S'AllFriendly'
p920
sg739
F0
sg740
I0
sg741
(lp921
g1
(g743
g3
NtRp922
(dp923
g746
S'add_permanent'
p924
sg748
S''
sg750
S'spin'
p925
sg752
F5
sg753
F0
sg754
F0
sg755
S'Spin Restore'
p926
sg757
S'TRUE'
p927
sbasg759
I1
sg760
F0
sg755
g916
sg761
S'PR Prep'
p928
sbsS'CALLVATICAN'
p929
g1
(g10
g3
NtRp930
(dp931
g729
F0
sg730
S'Brings in 2 additional ReligousNuts at 2 levels lower than this one'
p932
sg732
I1
sg733
F0
sg734
F0
sg735
S'Wit'
p933
sg737
S'None'
p934
sg739
F0
sg740
F5
sg741
(lp935
g1
(g743
g3
NtRp936
(dp937
g746
S'call_friends'
p938
sg748
S''
sg750
S''
sg752
F2
sg753
F1
sg754
F1
sg755
S'Call Friends'
p939
sg757
S''
sbasg759
I1
sg760
F0
sg755
g929
sg761
S'Call Vatican'
p940
sbsS'BLACKMAIL'
p941
g1
(g10
g3
NtRp942
(dp943
g729
F6
sg730
S'asdf'
p944
sg732
I1
sg733
F10
sg734
F2
sg735
S'Wit'
p945
sg737
S'AllEnemy'
p946
sg739
F3
sg740
F4
sg741
(lp947
g1
(g743
g3
NtRp948
(dp949
g746
S'drain'
p950
sg748
S'(DRAIN)'
p951
sg750
S'votes'
p952
sg752
F1
sg753
F2
sg754
F5
sg755
S'Drain Votes'
p953
sg757
S''
sbasg759
I1
sg760
F2
sg755
g941
sg761
S'Blackmail'
p954
sbsS'RUNAD'
p955
g1
(g10
g3
NtRp956
(dp957
g729
F0
sg730
S'Gets back some votes by running an ad'
p958
sg732
I1
sg733
F0
sg734
F0
sg735
S''
sg737
S'AllFriendly'
p959
sg739
F0
sg740
I0
sg741
(lp960
g1
(g743
g3
NtRp961
(dp962
g746
S'add_permanent'
p963
sg748
S''
sg750
S'votes'
p964
sg752
F10
sg753
F1
sg754
F1
sg755
S'Votes Restore Ad'
p965
sg757
S'TRUE'
p966
sbasg759
I1
sg760
F0
sg755
g955
sg761
S'Run Advertisement'
p967
sbsS'PROTEST'
p968
g1
(g10
g3
NtRp969
(dp970
g729
F5
sg730
S'asdf'
p971
sg732
F6
sg733
F10
sg734
F2
sg735
S'Cunning'
p972
sg737
S'AllEnemy'
p973
sg739
F2
sg740
I0
sg741
(lp974
sg759
I1
sg760
F8
sg755
g968
sg761
S'Protest'
p975
sbsS'SPREADRUMOUR'
p976
g1
(g10
g3
NtRp977
(dp978
g729
F6
sg730
S'asdf'
p979
sg732
I1
sg733
F10
sg734
F2
sg735
S'Wit'
p980
sg737
S'AllEnemy'
p981
sg739
F2
sg740
F3
sg741
(lp982
sg759
I4
sg760
F8
sg755
g976
sg761
S'Spread Rumour'
p983
sbsS'AGENDA'
p984
g1
(g10
g3
NtRp985
(dp986
g729
F5
sg730
S'asdf'
p987
sg732
F6
sg733
F10
sg734
F2
sg735
S'Cunning'
p988
sg737
S'AllEnemy'
p989
sg739
F2
sg740
I0
sg741
(lp990
sg759
I1
sg760
F8
sg755
g984
sg761
S'Push Agenda'
p991
sbsS'FILIBUSTER'
p992
g1
(g10
g3
NtRp993
(dp994
g729
F0
sg730
S"You're not moving until they give in. Cause all opposition to miss their turn"
p995
sg732
I1
sg733
F0
sg734
F0
sg735
S'Wit'
p996
sg737
S'AllEnemy'
p997
sg739
F0
sg740
F8
sg741
(lp998
g1
(g743
g3
NtRp999
(dp1000
g746
S'miss_turn'
p1001
sg748
S'(MISS)'
p1002
sg750
S''
sg752
F0
sg753
F1
sg754
F1
sg755
S'Miss Turn'
p1003
sg757
S''
sbasg759
I1
sg760
F0
sg755
g992
sg761
S'Filibuster'
p1004
sbsS'GATHERINTEL'
p1005
g1
(g10
g3
NtRp1006
(dp1007
g729
F0
sg730
S'Increases Cunning.'
p1008
sg732
I1
sg733
F0
sg734
F0
sg735
S'Wit'
p1009
sg737
S'AllFriendly'
p1010
sg739
F0
sg740
F3
sg741
(lp1011
g744
asg759
I2
sg760
F0
sg755
g1005
sg761
S'Gather Intelligence'
p1012
sbsS'LOVE'
p1013
g1
(g10
g3
NtRp1014
(dp1015
g729
F6
sg730
S'asdf'
p1016
sg732
F2
sg733
F8
sg734
F2
sg735
S'Cunning'
p1017
sg737
S'AllEnemy'
p1018
sg739
F1
sg740
I0
sg741
(lp1019
sg759
I1
sg760
F7
sg755
g1013
sg761
S'Love'
p1020
sbsS'OUTOFCONTEXT'
p1021
g1
(g10
g3
NtRp1022
(dp1023
g729
F3
sg730
S'asdf'
p1024
sg732
I1
sg733
F5
sg734
F2
sg735
S'Wit'
p1025
sg737
S'AllEnemy'
p1026
sg739
F2
sg740
F2
sg741
(lp1027
g948
asg759
I1
sg760
F5
sg755
g1021
sg761
S'Take Out Of Context'
p1028
sbsS'GREATSUIT'
p1029
g1
(g10
g3
NtRp1030
(dp1031
g729
F6
sg730
S'Well, we could argue, but have you noticed how fabulous this suit is?'
p1032
sg732
I1
sg733
F11
sg734
F6
sg735
S'Cunning'
p1033
sg737
S'AllEnemy'
p1034
sg739
F3
sg740
I0
sg741
(lp1035
sg759
I1
sg760
F12
sg755
g1029
sg761
S'Look Great In Suit'
p1036
sbsS'PEACE'
p1037
g1
(g10
g3
NtRp1038
(dp1039
g729
F0
sg730
S'asdf'
p1040
sg732
I1
sg733
F0
sg734
F0
sg735
S'Wit'
p1041
sg737
S'AllEnemy'
p1042
sg739
F0
sg740
F3
sg741
(lp1043
g901
asg759
I4
sg760
F0
sg755
g1037
sg761
S'Peace'
p1044
sbsS'INSPSPEECH'
p1045
g1
(g10
g3
NtRp1046
(dp1047
g729
F-2
sg730
S'Restore votes to all party members'
p1048
sg732
I1
sg733
F0
sg734
F0
sg735
S'Cunning'
p1049
sg737
S'AllFriendly'
p1050
sg739
F-2
sg740
I0
sg741
(lp1051
sg759
I4
sg760
F0
sg755
g1045
sg761
S'Inspirational Speech'
p1052
sbsS'STRIKE'
p1053
g1
(g10
g3
NtRp1054
(dp1055
g729
F8
sg730
S'asdf'
p1056
sg732
I1
sg733
F0
sg734
F0
sg735
S'Wit'
p1057
sg737
S'AllEnemy'
p1058
sg739
F0
sg740
F3
sg741
(lp1059
g778
asg759
I1
sg760
F0
sg755
g1053
sg761
S'Call A Strike'
p1060
sbsS'SLANDER'
p1061
g1
(g10
g3
NtRp1062
(dp1063
g729
F3
sg730
S'Strong against polititians...careful with those voters, though!'
p1064
sg732
F4
sg733
F10
sg734
F2
sg735
S'Wit'
p1065
sg737
S'AllEnemy'
p1066
sg739
F2
sg740
I0
sg741
(lp1067
g948
asg759
I1
sg760
F5
sg755
g1061
sg761
S'Slander Opposition'
p1068
sbsS'NATTER'
p1069
g1
(g10
g3
NtRp1070
(dp1071
g729
F8
sg730
S'asdf'
p1072
sg732
I1
sg733
F15
sg734
F5
sg735
S'Cunning'
p1073
sg737
S'AllEnemy'
p1074
sg739
F1
sg740
I0
sg741
(lp1075
sg759
I1
sg760
F10
sg755
g1069
sg761
S'Natter On'
p1076
sbsS'GOSSIP'
p1077
g1
(g10
g3
NtRp1078
(dp1079
g729
F3
sg730
S'asdf'
p1080
sg732
I1
sg733
F10
sg734
F2
sg735
S'Wit'
p1081
sg737
S'AllEnemy'
p1082
sg739
F1
sg740
F2
sg741
(lp1083
g901
asg759
I1
sg760
F6
sg755
g1077
sg761
S'Gossip'
p1084
sbsS'MISSTURN'
p1085
g1
(g10
g3
NtRp1086
(dp1087
g729
F0
sg730
S'asdf'
p1088
sg732
I1
sg733
F0
sg734
F0
sg735
S''
sg737
S'AllEnemy'
p1089
sg739
F0
sg740
I0
sg741
(lp1090
sg759
I1
sg760
F0
sg755
g1085
sg761
S'Miss Turn'
p1091
sbsS'BIELECTION'
p1092
g1
(g10
g3
NtRp1093
(dp1094
g729
F4
sg730
S'Redistribute votes amongst targets'
p1095
sg732
I1
sg733
F0
sg734
F0
sg735
S'Cunning'
p1096
sg737
S'All'
p1097
sg739
F-4
sg740
F4
sg741
(lp1098
sg759
I8
sg760
F0
sg755
g1092
sg761
S'Bielection'
p1099
sbsS'SCARE'
p1100
g1
(g10
g3
NtRp1101
(dp1102
g729
F7
sg730
S'Nothing rattles the brains like fear.'
p1103
sg732
I1
sg733
F10
sg734
F2
sg735
S'Wit'
p1104
sg737
S'AllEnemy'
p1105
sg739
F2
sg740
I0
sg741
(lp1106
g901
asg759
I2
sg760
F9
sg755
g1100
sg761
S'Scare Campaign'
p1107
sbsS'PAYOFF'
p1108
g1
(g10
g3
NtRp1109
(dp1110
g729
F7
sg730
S'causes them to miss a number of turns'
p1111
sg732
I1
sg733
F8
sg734
F2
sg735
S'Wit'
p1112
sg737
S'AllEnemy'
p1113
sg739
F2
sg740
F4
sg741
(lp1114
g1
(g743
g3
NtRp1115
(dp1116
g746
S'miss_turn'
p1117
sg748
S'(MISS)'
p1118
sg750
S''
sg752
F0
sg753
F1
sg754
F3
sg755
S'Miss Turn Pay Off'
p1119
sg757
S''
sbasg759
I1
sg760
F9
sg755
g1108
sg761
S'Pay Off'
p1120
sbsS'BUREAUCRACY'
p1121
g1
(g10
g3
NtRp1122
(dp1123
g729
F5
sg730
S'asdf'
p1124
sg732
F6
sg733
F10
sg734
F2
sg735
S'Cunning'
p1125
sg737
S'AllEnemy'
p1126
sg739
F2
sg740
I0
sg741
(lp1127
sg759
I1
sg760
F8
sg755
g1121
sg761
S'Bureaucracy'
p1128
sbsS'RALLYAUDIENCE'
p1129
g1
(g10
g3
NtRp1130
(dp1131
g729
F8
sg730
S'asdf'
p1132
sg732
I1
sg733
F0
sg734
F0
sg735
S'Wit'
p1133
sg737
S'AllFriendly'
p1134
sg739
F4
sg740
F3
sg741
(lp1135
g1
(g743
g3
NtRp1136
(dp1137
g746
S'add'
p1138
sg748
S'(INCREASE)'
p1139
sg750
S'charisma'
p1140
sg752
F2
sg753
F1
sg754
F4
sg755
S'Increase Charisma'
p1141
sg757
S'TRUE'
p1142
sbasg759
I1
sg760
F0
sg755
g1129
sg761
S'Rally Audience'
p1143
sbsS'PORKBARREL'
p1144
g1
(g10
g3
NtRp1145
(dp1146
g729
F6
sg730
S'Do something that benefits them specifically. Not advised against politicians.'
p1147
sg732
I1
sg733
F0
sg734
F0
sg735
S'Wit'
p1148
sg737
S'AllEnemy'
p1149
sg739
F2
sg740
F2
sg741
(lp1150
sg759
I1
sg760
F0
sg755
g1144
sg761
S'Pork Barrel'
p1151
sbsS'INSPIRE'
p1152
g1
(g10
g3
NtRp1153
(dp1154
g729
F0
sg730
S'asdf'
p1155
sg732
I1
sg733
F0
sg734
F0
sg735
S'Wit'
p1156
sg737
S'AllFriendly'
p1157
sg739
F0
sg740
F3
sg741
(lp1158
g744
asg759
I4
sg760
F0
sg755
g1152
sg761
S'Inspire'
p1159
sbsS'JOKE'
p1160
g1
(g10
g3
NtRp1161
(dp1162
g729
F3
sg730
S"Ha, ha, ha...what were we talking about? Diffuse the situation with some humour. Not good if it falls flat, but if they get it, it'll knock 'em dead."
p1163
sg732
F3
sg733
F30
sg734
F10
sg735
S'Wit'
p1164
sg737
S'AllEnemy'
p1165
sg739
F2
sg740
I0
sg741
(lp1166
sg759
I1
sg760
F10
sg755
g1160
sg761
S'Joke'
p1167
sbsS'PRAYFORSOULS'
p1168
g1
(g10
g3
NtRp1169
(dp1170
g729
F6
sg730
S'asdf'
p1171
sg732
F2
sg733
F10
sg734
F2
sg735
S'Cunning'
p1172
sg737
S'None'
p1173
sg739
F3
sg740
I0
sg741
(lp1174
sg759
I1
sg760
F10
sg755
g1168
sg761
S'Pray'
p1175
sbsS'REVIVE'
p1176
g1
(g10
g3
NtRp1177
(dp1178
g729
F0
sg730
S'Revive a defeated comrade to half votes'
p1179
sg732
I1
sg733
F0
sg734
F0
sg735
S''
sg737
S'DeadFriendly'
p1180
sg739
F0
sg740
F3
sg741
(lp1181
g1
(g743
g3
NtRp1182
(dp1183
g746
S'revive'
p1184
sg748
S''
sg750
S''
sg752
F0.5
sg753
F0
sg754
F0
sg755
S'Revive'
p1185
sg757
S''
sbasg759
I1
sg760
F0
sg755
g1176
sg761
S'Revive'
p1186
sbsS'HUMANSHIELD'
p1187
g1
(g10
g3
NtRp1188
(dp1189
g729
F5
sg730
S'No further questions. Step back, please.'
p1190
sg732
I1
sg733
F5
sg734
F2
sg735
S'Wit'
p1191
sg737
S'AllEnemy'
p1192
sg739
F2
sg740
F4
sg741
(lp1193
g999
asg759
I2
sg760
F12
sg755
g1187
sg761
S'Human Shield'
p1194
sbsS'MAKEDEMANDS'
p1195
g1
(g10
g3
NtRp1196
(dp1197
g729
F8
sg730
S'asdf'
p1198
sg732
I1
sg733
F0
sg734
F0
sg735
S'Cunning'
p1199
sg737
S'AllEnemy'
p1200
sg739
F0
sg740
I0
sg741
(lp1201
g778
asg759
I1
sg760
F0
sg755
g1195
sg761
S'Make Outrageous Demands'
p1202
sbsS'DEFENSE'
p1203
g1
(g10
g3
NtRp1204
(dp1205
g729
F0
sg730
S'Gather strenth; -50% to all incoming attacks'
p1206
sg732
I1
sg733
F0
sg734
F0
sg735
S''
sg737
S'None'
p1207
sg739
F0
sg740
I0
sg741
(lp1208
g1
(g743
g3
NtRp1209
(dp1210
g746
S'add'
p1211
sg748
S'(DFND)'
p1212
sg750
S'resistance'
p1213
sg752
F0.5
sg753
F1
sg754
F1
sg755
S'Defense'
p1214
sg757
S'TRUE'
p1215
sbasg759
I1
sg760
F0
sg755
g1203
sg761
S'Defense'
p1216
sbsS'MISCONSTRUE'
p1217
g1
(g10
g3
NtRp1218
(dp1219
g729
F8
sg730
S'asdf'
p1220
sg732
I1
sg733
F0
sg734
F0
sg735
S'Cunning'
p1221
sg737
S'AllEnemy'
p1222
sg739
F0
sg740
I0
sg741
(lp1223
g778
asg759
I1
sg760
F0
sg755
g1217
sg761
S'Misconstrue'
p1224
sbsS'NATIONALSECURITY'
p1225
g1
(g10
g3
NtRp1226
(dp1227
g729
F7
sg730
S"This is a matter of national security and they don't have codeword clearance"
p1228
sg732
I1
sg733
F10
sg734
F2
sg735
S'Cunning'
p1229
sg737
S'AllEnemy'
p1230
sg739
F2
sg740
I0
sg741
(lp1231
sg759
I1
sg760
F9
sg755
g1225
sg761
S'National Security'
p1232
sbsS'RALLY'
p1233
g1
(g10
g3
NtRp1234
(dp1235
g729
F-2
sg730
S'Get back some votes by rallying supporters'
p1236
sg732
I1
sg733
F0
sg734
F0
sg735
S'Wit'
p1237
sg737
S'AllFriendly'
p1238
sg739
F-4
sg740
F2
sg741
(lp1239
sg759
I1
sg760
F0
sg755
g1233
sg761
S'Rally Constituents'
p1240
sbsS'MESSAGE'
p1241
g1
(g10
g3
NtRp1242
(dp1243
g729
F5
sg730
S'You can certainly wear them down by repeating your party line over and over and over...if you want'
p1244
sg732
F6
sg733
F10
sg734
F2
sg735
S'Wit'
p1245
sg737
S'AllEnemy'
p1246
sg739
F2
sg740
I0
sg741
(lp1247
sg759
I1
sg760
F8
sg755
g1241
sg761
S'Stay On Message'
p1248
sbsS'APPEALTOGOD'
p1249
g1
(g10
g3
NtRp1250
(dp1251
g729
F6
sg730
S'asdf'
p1252
sg732
F3
sg733
F0
sg734
F0
sg735
S'Wit'
p1253
sg737
S'AllEnemy'
p1254
sg739
F4
sg740
F7
sg741
(lp1255
sg759
I4
sg760
F0
sg755
g1249
sg761
S'Appeal To God'
p1256
sbssS'levels'
p1257
(lp1258
g1
(g10
g3
NtRp1259
(dp1260
S'votes'
p1261
F10
sS'level'
p1262
F1
sS'spin'
p1263
F5
sS'xp'
p1264
F0
sS'skill_points'
p1265
F0
sbag1
(g10
g3
NtRp1266
(dp1267
g1261
F12
sg1262
F2
sg1263
F5
sg1264
F100
sg1265
F2
sbag1
(g10
g3
NtRp1268
(dp1269
g1261
F15
sg1262
F3
sg1263
F6
sg1264
F200
sg1265
F2
sbag1
(g10
g3
NtRp1270
(dp1271
g1261
F20
sg1262
F4
sg1263
F6
sg1264
F500
sg1265
F2
sbag1
(g10
g3
NtRp1272
(dp1273
g1261
F25
sg1262
F5
sg1263
F7
sg1264
F1000
sg1265
F2
sbag1
(g10
g3
NtRp1274
(dp1275
g1261
F30
sg1262
F6
sg1263
F7
sg1264
F2000
sg1265
F2
sbag1
(g10
g3
NtRp1276
(dp1277
g1261
F35
sg1262
F7
sg1263
F8
sg1264
F5000
sg1265
F2
sbag1
(g10
g3
NtRp1278
(dp1279
g1261
F40
sg1262
F8
sg1263
F8
sg1264
F10000
sg1265
F2
sbag1
(g10
g3
NtRp1280
(dp1281
g1261
F45
sg1262
F9
sg1263
F9
sg1264
F15000
sg1265
F2
sbag1
(g10
g3
NtRp1282
(dp1283
g1261
F50
sg1262
F10
sg1263
F9
sg1264
F20000
sg1265
F2
sbag1
(g10
g3
NtRp1284
(dp1285
g1261
F55
sg1262
F11
sg1263
F10
sg1264
F40000
sg1265
F2
sbag1
(g10
g3
NtRp1286
(dp1287
g1261
S''
sg1262
F12
sg1263
S''
sg1264
S''
sg1265
S''
sbag1
(g10
g3
NtRp1288
(dp1289
g1261
S''
sg1262
F13
sg1263
S''
sg1264
S''
sg1265
S''
sbag1
(g10
g3
NtRp1290
(dp1291
g1261
S''
sg1262
F14
sg1263
S''
sg1264
S''
sg1265
S''
sbag1
(g10
g3
NtRp1292
(dp1293
g1261
S''
sg1262
F15
sg1263
S''
sg1264
S''
sg1265
S''
sbag1
(g10
g3
NtRp1294
(dp1295
g1261
S''
sg1262
F16
sg1263
S''
sg1264
S''
sg1265
S''
sbag1
(g10
g3
NtRp1296
(dp1297
g1261
S''
sg1262
F17
sg1263
S''
sg1264
S''
sg1265
S''
sbag1
(g10
g3
NtRp1298
(dp1299
g1261
S''
sg1262
F18
sg1263
S''
sg1264
S''
sg1265
S''
sbag1
(g10
g3
NtRp1300
(dp1301
g1261
S''
sg1262
F19
sg1263
S''
sg1264
S''
sg1265
S''
sbag1
(g10
g3
NtRp1302
(dp1303
g1261
S''
sg1262
F20
sg1263
S''
sg1264
S''
sg1265
S''
sbag1
(g10
g3
NtRp1304
(dp1305
g1261
S''
sg1262
F21
sg1263
S''
sg1264
S''
sg1265
S''
sbag1
(g10
g3
NtRp1306
(dp1307
g1261
S''
sg1262
F22
sg1263
S''
sg1264
S''
sg1265
S''
sbag1
(g10
g3
NtRp1308
(dp1309
g1261
S''
sg1262
F23
sg1263
S''
sg1264
S''
sg1265
S''
sbag1
(g10
g3
NtRp1310
(dp1311
g1261
S''
sg1262
F24
sg1263
S''
sg1264
S''
sg1265
S''
sbag1
(g10
g3
NtRp1312
(dp1313
g1261
S''
sg1262
F25
sg1263
S''
sg1264
S''
sg1265
S''
sbag1
(g10
g3
NtRp1314
(dp1315
g1261
S''
sg1262
F26
sg1263
S''
sg1264
S''
sg1265
S''
sbag1
(g10
g3
NtRp1316
(dp1317
g1261
S''
sg1262
F27
sg1263
S''
sg1264
S''
sg1265
S''
sbag1
(g10
g3
NtRp1318
(dp1319
g1261
S''
sg1262
F28
sg1263
S''
sg1264
S''
sg1265
S''
sbag1
(g10
g3
NtRp1320
(dp1321
g1261
S''
sg1262
F29
sg1263
S''
sg1264
S''
sg1265
S''
sbasg741
(dp1322
g756
g744
sg851
g847
sg926
g922
sg1141
g1136
sg1003
g999
sg939
g936
sg965
g961
sg1119
g1115
sg1185
g1182
sg906
g901
sg953
g948
sg1214
g1209
sg782
g778
sg797
g792
ssS'characters'
p1323
(dp1324
S'Teacher001'
p1325
(lp1326
g1
(g10
g3
NtRp1327
(dp1328
S'flair_base'
p1329
F1
sS'spin_base'
p1330
F4
sS'flair_lvl'
p1331
F1.1499999999999999
sS'wit_base'
p1332
F1
sS'resistance'
p1333
(lp1334
sS'wit_lvl'
p1335
F1.0900000000000001
sS'cunning_base'
p1336
F1
sg755
g1325
sS'votes_base'
p1337
F10
sS'speed_lvl'
p1338
F1.0800000000000001
sS'standard_attacks'
p1339
(lp1340
g1204
ag969
asS'cunning_lvl'
p1341
F1.1000000000000001
sS'charisma_lvl'
p1342
F1.1499999999999999
sS'spin_attacks'
p1343
(lp1344
g1054
ag1234
asS'spin_lvl'
p1345
F1.0800000000000001
sS'charisma_base'
p1346
F1
sS'weaknesses'
p1347
(lp1348
sS'attack_group'
p1349
S'Teacher'
p1350
sS'votes_lvl'
p1351
F1.2
sg761
S'Teacher'
p1352
sS'speed_base'
p1353
F1
sS'immunities'
p1354
(lp1355
sbasS'Politician001'
p1356
(lp1357
g1
(g10
g3
NtRp1358
(dp1359
g1329
F1
sg1330
F4
sg1331
F1.1499999999999999
sg1332
F1
sg1333
(lp1360
g772
asg1335
F1.0900000000000001
sg1336
F1
sg755
g1356
sg1337
F10
sg1338
F1.0800000000000001
sg1339
(lp1361
g1242
ag1062
ag772
ag1161
ag1204
asg1341
F1.1000000000000001
sg1342
F1.1499999999999999
sg1343
(lp1362
g1093
ag887
ag1177
asg1345
F1.0800000000000001
sg1346
F1
sg1347
(lp1363
g855
asg1349
S'Politician'
p1364
sg1351
F1.2
sg761
S'Politician'
p1365
sg1353
F1
sg1354
(lp1366
g1145
asbasS'SecretAgent'
p1367
(lp1368
g1
(g10
g3
NtRp1369
(dp1370
g1329
F1
sg1330
F4
sg1331
F1.1499999999999999
sg1332
F1
sg1333
(lp1371
sg1335
F1.0900000000000001
sg1336
F1
sg755
g1367
sg1337
F18
sg1338
F1.0800000000000001
sg1339
(lp1372
g1204
ag1226
ag1030
asg1341
F1.1000000000000001
sg1342
F1.1499999999999999
sg1343
(lp1373
g1188
ag1006
asg1345
F1.0800000000000001
sg1346
F1
sg1347
(lp1374
sg1349
S'SecretAgent'
p1375
sg1351
F1.2
sg761
S'Agent Kawalski'
p1376
sg1353
F1
sg1354
(lp1377
sbasS'Bumpkin001'
p1378
(lp1379
g1
(g10
g3
NtRp1380
(dp1381
g1329
F1
sg1330
F4
sg1331
F1.1499999999999999
sg1332
F1
sg1333
(lp1382
sg1335
F1.0900000000000001
sg1336
F1
sg755
g1378
sg1337
F10
sg1338
F1.0800000000000001
sg1339
(lp1383
g1161
ag909
asg1341
F1.1000000000000001
sg1342
F1.1499999999999999
sg1343
(lp1384
g871
ag977
asg1345
F1.0800000000000001
sg1346
F1
sg1347
(lp1385
g772
ag1062
ag1101
asg1349
S'Bumpkin'
p1386
sg1351
F1.2
sg761
S'Bumpkin'
p1387
sg1353
F1
sg1354
(lp1388
sbasS'WarVet001'
p1389
(lp1390
g1
(g10
g3
NtRp1391
(dp1392
g1329
F1
sg1330
F4
sg1331
F1.1499999999999999
sg1332
F1
sg1333
(lp1393
sg1335
F1.0900000000000001
sg1336
F1
sg755
g1389
sg1337
F10
sg1338
F1.0800000000000001
sg1339
(lp1394
g1196
ag1204
asg1341
F1.1000000000000001
sg1342
F1.1499999999999999
sg1343
(lp1395
g1153
ag1234
asg1345
F1.0800000000000001
sg1346
F1
sg1347
(lp1396
sg1349
S'WarVet'
p1397
sg1351
F1.2
sg761
S'War Veteran'
p1398
sg1353
F1
sg1354
(lp1399
sbasS'Receptionist001'
p1400
(lp1401
g1
(g10
g3
NtRp1402
(dp1403
g1329
F1
sg1330
F4
sg1331
F1.1499999999999999
sg1332
F1
sg1333
(lp1404
sg1335
F1.0900000000000001
sg1336
F1
sg755
g1400
sg1337
F10
sg1338
F1.0800000000000001
sg1339
(lp1405
g1122
ag1070
asg1341
F1.1000000000000001
sg1342
F1.1499999999999999
sg1343
(lp1406
g1078
ag841
asg1345
F1.0800000000000001
sg1346
F1
sg1347
(lp1407
sg1349
S'Receptionist'
p1408
sg1351
F1.2
sg761
S'Receptionist'
p1409
sg1353
F1
sg1354
(lp1410
sbasS'DeepThroat'
p1411
(lp1412
g1
(g10
g3
NtRp1413
(dp1414
g1329
F1
sg1330
F4
sg1331
F1.1499999999999999
sg1332
F1
sg1333
(lp1415
sg1335
F1.0900000000000001
sg1336
F1
sg755
g1411
sg1337
F10
sg1338
F1.0800000000000001
sg1339
(lp1416
g1062
ag1204
ag1196
asg1341
F1.1000000000000001
sg1342
F1.1499999999999999
sg1343
(lp1417
g942
asg1345
F1.0800000000000001
sg1346
F1
sg1347
(lp1418
sg1349
S'DeepThroat'
p1419
sg1351
F1.2
sg761
S'Deep Throat'
p1420
sg1353
F1
sg1354
(lp1421
sbasS'Leo'
p1422
(lp1423
g1
(g10
g3
NtRp1424
(dp1425
g1329
F1
sg1330
F4
sg1331
F1.1499999999999999
sg1332
F1
sg1333
(lp1426
sg1335
F1.0900000000000001
sg1336
F1
sg755
g1422
sg1337
F14
sg1338
F1.0800000000000001
sg1339
(lp1427
g1242
ag1062
ag772
ag1161
ag855
asg1341
F1.1000000000000001
sg1342
F1.1499999999999999
sg1343
(lp1428
g1093
ag887
ag1145
ag993
asg1345
F1.0800000000000001
sg1346
F1
sg1347
(lp1429
sg1349
S'Theo'
p1430
sg1351
F1.2
sg761
S'Theo'
p1431
sg1353
F1
sg1354
(lp1432
sbasS'HippyGirl001'
p1433
(lp1434
g1
(g10
g3
NtRp1435
(dp1436
g1329
F1
sg1330
F4
sg1331
F1.1499999999999999
sg1332
F1
sg1333
(lp1437
sg1335
F1.0900000000000001
sg1336
F1
sg755
g1433
sg1337
F10
sg1338
F1.0800000000000001
sg1339
(lp1438
g863
ag969
ag1014
asg1341
F1.1000000000000001
sg1342
F1.1499999999999999
sg1343
(lp1439
g1038
ag1234
ag1177
asg1345
F1.0800000000000001
sg1346
F1
sg1347
(lp1440
g1161
asg1349
S'Hippy'
p1441
sg1351
F1.2
sg761
S'Hippy Girl'
p1442
sg1353
F1
sg1354
(lp1443
sbasS'President'
p1444
(lp1445
g1
(g10
g3
NtRp1446
(dp1447
g1329
F1
sg1330
F4
sg1331
F1.1499999999999999
sg1332
F1
sg1333
(lp1448
sg1335
F1.0900000000000001
sg1336
F1
sg755
g1444
sg1337
F10
sg1338
F1.0800000000000001
sg1339
(lp1449
g1242
ag1062
ag772
ag1161
ag1204
asg1341
F1.1000000000000001
sg1342
F1.1499999999999999
sg1343
(lp1450
g1093
ag887
ag1177
asg1345
F1.0800000000000001
sg1346
F1
sg1347
(lp1451
sg1349
S'Politician'
p1452
sg1351
F1.2
sg761
S'President Allen'
p1453
sg1353
F1
sg1354
(lp1454
sbasS'Unionist001'
p1455
(lp1456
g1
(g10
g3
NtRp1457
(dp1458
g1329
F1
sg1330
F4
sg1331
F1.1499999999999999
sg1332
F1
sg1333
(lp1459
sg1335
F1.0900000000000001
sg1336
F1
sg755
g1455
sg1337
F10
sg1338
F1.0800000000000001
sg1339
(lp1460
g1196
ag1204
ag969
asg1341
F1.1000000000000001
sg1342
F1.1499999999999999
sg1343
(lp1461
g1054
asg1345
F1.0800000000000001
sg1346
F1
sg1347
(lp1462
sg1349
S'Unionist'
p1463
sg1351
F1.2
sg761
S'Unionist'
p1464
sg1353
F1
sg1354
(lp1465
sbasS'Wife'
p1466
(lp1467
g1
(g10
g3
NtRp1468
(dp1469
g1329
F1
sg1330
F4
sg1331
F1.1499999999999999
sg1332
F1
sg1333
(lp1470
sg1335
F1.0900000000000001
sg1336
F1
sg755
g1466
sg1337
F12
sg1338
F1.0800000000000001
sg1339
(lp1471
g1204
ag1242
asg1341
F1.1000000000000001
sg1342
F1.1499999999999999
sg1343
(lp1472
g1234
ag1177
ag895
asg1345
F1.0800000000000001
sg1346
F1
sg1347
(lp1473
sg1349
S'Wife'
p1474
sg1351
F1.2
sg761
S'Sarah Mossman'
p1475
sg1353
F1
sg1354
(lp1476
sbasS'PresidentAlien'
p1477
(lp1478
g1
(g10
g3
NtRp1479
(dp1480
g1329
F1
sg1330
F4
sg1331
F1.1499999999999999
sg1332
F1
sg1333
(lp1481
sg1335
F1.0900000000000001
sg1336
F1
sg755
g1477
sg1337
F10
sg1338
F1.0800000000000001
sg1339
(lp1482
g1242
ag1062
ag772
ag1161
ag1204
asg1341
F1.1000000000000001
sg1342
F1.1499999999999999
sg1343
(lp1483
g1093
ag887
ag1177
asg1345
F1.0800000000000001
sg1346
F1
sg1347
(lp1484
sg1349
S'Politician'
p1485
sg1351
F1.2
sg761
S'President Alien'
p1486
sg1353
F1
sg1354
(lp1487
sbasS'Governor'
p1488
(lp1489
g1
(g10
g3
NtRp1490
(dp1491
g1329
F1
sg1330
F4
sg1331
F1.1499999999999999
sg1332
F1
sg1333
(lp1492
sg1335
F1.0900000000000001
sg1336
F1
sg755
g1488
sg1337
F10
sg1338
F1.0800000000000001
sg1339
(lp1493
g1242
ag1062
ag772
ag1161
ag1204
asg1341
F1.1000000000000001
sg1342
F1.1499999999999999
sg1343
(lp1494
g1093
ag887
ag1177
asg1345
F1.0800000000000001
sg1346
F1
sg1347
(lp1495
sg1349
S'Politician'
p1496
sg1351
F1.2
sg761
g1488
sg1353
F1
sg1354
(lp1497
sbasS'Lobbyist001'
p1498
(lp1499
g1
(g10
g3
NtRp1500
(dp1501
g1329
F1
sg1330
F4
sg1331
F1.1499999999999999
sg1332
F1
sg1333
(lp1502
sg1335
F1.0900000000000001
sg1336
F1
sg755
g1498
sg1337
F10
sg1338
F1.0800000000000001
sg1339
(lp1503
g985
ag1196
asg1341
F1.1000000000000001
sg1342
F1.1499999999999999
sg1343
(lp1504
g1109
ag942
asg1345
F1.0800000000000001
sg1346
F1
sg1347
(lp1505
g1145
asg1349
S'Lobbyist'
p1506
sg1351
F1.2
sg761
S'Lobbyist'
p1507
sg1353
F1
sg1354
(lp1508
g855
asbasS'Journalist001'
p1509
(lp1510
g1
(g10
g3
NtRp1511
(dp1512
g1329
F1
sg1330
F4
sg1331
F1.1499999999999999
sg1332
F1
sg1333
(lp1513
sg1335
F1.0900000000000001
sg1336
F1
sg755
g1509
sg1337
F10
sg1338
F1.0800000000000001
sg1339
(lp1514
g825
ag1218
asg1341
F1.1000000000000001
sg1342
F1.1499999999999999
sg1343
(lp1515
g1022
ag727
ag801
asg1345
F1.0800000000000001
sg1346
F1
sg1347
(lp1516
sg1349
S'Journalist'
p1517
sg1351
F1.2
sg761
S'Journalist'
p1518
sg1353
F1
sg1354
(lp1519
sbasS'ReligiousNut001'
p1520
(lp1521
g1
(g10
g3
NtRp1522
(dp1523
g1329
F1
sg1330
F4
sg1331
F1.1499999999999999
sg1332
F1
sg1333
(lp1524
sg1335
F1.0900000000000001
sg1336
F1
sg755
g1520
sg1337
F10
sg1338
F1.0800000000000001
sg1339
(lp1525
g809
ag1169
ag1204
asg1341
F1.1000000000000001
sg1342
F1.1499999999999999
sg1343
(lp1526
g1250
ag930
asg1345
F1.0800000000000001
sg1346
F1
sg1347
(lp1527
sg1349
S'Religious'
p1528
sg1351
F1.2
sg761
S'Religious Nut'
p1529
sg1353
F1
sg1354
(lp1530
g1161
asbasS'JointChief001'
p1531
(lp1532
g1
(g10
g3
NtRp1533
(dp1534
g1329
F1
sg1330
F4
sg1331
F1.1499999999999999
sg1332
F1
sg1333
(lp1535
sg1335
F1.0900000000000001
sg1336
F1
sg755
g1531
sg1337
F10
sg1338
F1.0800000000000001
sg1339
(lp1536
g1196
ag1204
ag1226
ag879
asg1341
F1.1000000000000001
sg1342
F1.1499999999999999
sg1343
(lp1537
g1006
asg1345
F1.0800000000000001
sg1346
F1
sg1347
(lp1538
sg1349
S'JointChief'
p1539
sg1351
F1.2
sg761
S'Joint Chief'
p1540
sg1353
F1
sg1354
(lp1541
sbasS'Protester001'
p1542
(lp1543
g1
(g10
g3
NtRp1544
(dp1545
g1329
F1
sg1330
F4
sg1331
F1.1499999999999999
sg1332
F1
sg1333
(lp1546
sg1335
F1.0900000000000001
sg1336
F1
sg755
g1542
sg1337
F10
sg1338
F1.0800000000000001
sg1339
(lp1547
g969
ag817
ag863
asg1341
F1.1000000000000001
sg1342
F1.1499999999999999
sg1343
(lp1548
g1234
asg1345
F1.0800000000000001
sg1346
F1
sg1347
(lp1549
sg1349
S'Protestor'
p1550
sg1351
F1.2
sg761
S'Protester'
p1551
sg1353
F1
sg1354
(lp1552
sbasS'TVPersonality001'
p1553
(lp1554
g1
(g10
g3
NtRp1555
(dp1556
g1329
F1
sg1330
F4
sg1331
F1.1499999999999999
sg1332
F1
sg1333
(lp1557
sg1335
F1.0900000000000001
sg1336
F1
sg755
g1553
sg1337
F10
sg1338
F1.0800000000000001
sg1339
(lp1558
g1161
ag825
asg1341
F1.1000000000000001
sg1342
F1.1499999999999999
sg1343
(lp1559
g801
ag786
asg1345
F1.0800000000000001
sg1346
F1
sg1347
(lp1560
sg1349
S'TVPersonality'
p1561
sg1351
F1.2
sg761
S"Hecules O'Grady"
p1562
sg1353
F1
sg1354
(lp1563
sbasS'Player'
p1564
(lp1565
g1
(g10
g3
NtRp1566
(dp1567
g1329
F1
sg1330
F5
sg1331
F1.1499999999999999
sg1332
F1
sg1333
(lp1568
sg1335
F1.0900000000000001
sg1336
F1
sg755
g1564
sg1337
F15
sg1338
F1.0800000000000001
sg1339
(lp1569
g1242
ag772
ag1161
asg1341
F1.1000000000000001
sg1342
F1.1499999999999999
sg1343
(lp1570
g1093
ag887
ag1234
asg1345
F1.0800000000000001
sg1346
F1
sg1347
(lp1571
sg1349
S'Player'
p1572
sg1351
F1.2
sg761
S'Phillip Mossman'
p1573
sg1353
F2
sg1354
(lp1574
sbasS'Computer'
p1575
(lp1576
g1
(g10
g3
NtRp1577
(dp1578
g1329
F1
sg1330
F4
sg1331
F1.1499999999999999
sg1332
F1
sg1333
(lp1579
sg1335
F1.0900000000000001
sg1336
F1
sg755
g1575
sg1337
F10
sg1338
F1.0800000000000001
sg1339
(lp1580
g1242
ag1062
ag772
ag1161
ag1204
asg1341
F1.1000000000000001
sg1342
F1.1499999999999999
sg1343
(lp1581
g1093
ag887
ag1177
asg1345
F1.0800000000000001
sg1346
F1
sg1347
(lp1582
sg1349
S'Politician'
p1583
sg1351
F1.2
sg761
S'N.O.T.B.A.D'
p1584
sg1353
F1
sg1354
(lp1585
sbasS'CabinetPolitician001'
p1586
(lp1587
g1
(g10
g3
NtRp1588
(dp1589
g1329
F1
sg1330
F4
sg1331
F1.1499999999999999
sg1332
F1
sg1333
(lp1590
sg1335
F1.0900000000000001
sg1336
F1
sg755
g1586
sg1337
F10
sg1338
F1.0800000000000001
sg1339
(lp1591
g1242
ag1062
ag772
ag1161
ag1204
asg1341
F1.1000000000000001
sg1342
F1.1499999999999999
sg1343
(lp1592
g1093
ag887
ag1177
asg1345
F1.0800000000000001
sg1346
F1
sg1347
(lp1593
sg1349
S'Politician'
p1594
sg1351
F1.2
sg761
S'Cabinet Politician'
p1595
sg1353
F1
sg1354
(lp1596
sbasS'Constituent001'
p1597
(lp1598
g1
(g10
g3
NtRp1599
(dp1600
g1329
F1
sg1330
F4
sg1331
F1.1499999999999999
sg1332
F1
sg1333
(lp1601
sg1335
F1.0900000000000001
sg1336
F1
sg755
g1597
sg1337
F10
sg1338
F1.0800000000000001
sg1339
(lp1602
g969
ag985
ag1196
asg1341
F1.1000000000000001
sg1342
F1.1499999999999999
sg1343
(lp1603
g1177
asg1345
F1.0800000000000001
sg1346
F1
sg1347
(lp1604
sg1349
S'Constituent'
p1605
sg1351
F1.2
sg761
S'Constituent'
p1606
sg1353
F1
sg1354
(lp1607
sbasS'Mayor'
p1608
(lp1609
g1
(g10
g3
NtRp1610
(dp1611
g1329
F1
sg1330
F4
sg1331
F1.1499999999999999
sg1332
F1
sg1333
(lp1612
sg1335
F1.0900000000000001
sg1336
F1
sg755
g1608
sg1337
F10
sg1338
F1.0800000000000001
sg1339
(lp1613
g1242
ag1062
ag772
ag1161
ag1204
asg1341
F1.1000000000000001
sg1342
F1.1499999999999999
sg1343
(lp1614
g1093
ag887
ag1177
asg1345
F1.0800000000000001
sg1346
F1
sg1347
(lp1615
sg1349
S'Politician'
p1616
sg1351
F1.2
sg761
S'Mayor Goodman'
p1617
sg1353
F1
sg1354
(lp1618
sbassS'quest_items'
p1619
(dp1620
S'PEN'
p1621
g1
(g10
g3
NtRp1622
(dp1623
g761
S'A pen'
p1624
sg755
g1621
sbsS'BILLOFRIGHTS'
p1625
g1
(g10
g3
NtRp1626
(dp1627
g761
S"Citizens' Bill of Rights"
p1628
sg755
g1625
sbssg1339
(dp1629
S'Theo'
p1630
(lp1631
g1242
ag1062
ag772
ag1161
ag855
ag1093
ag887
ag1145
ag993
asS'JointChief'
p1632
(lp1633
g1196
ag1204
ag1226
ag1006
ag879
asS'Politician'
p1634
(lp1635
g1242
ag1062
ag772
ag1161
ag1093
ag887
ag1177
ag1204
asS'Bumpkin'
p1636
(lp1637
g1161
ag871
ag977
ag909
asS'TVPersonality'
p1638
(lp1639
g1161
ag801
ag825
ag786
asS'SecretAgent'
p1640
(lp1641
g1204
ag1188
ag1226
ag1006
ag1030
asS'DeepThroat'
p1642
(lp1643
g1062
ag1204
ag942
ag1196
asS'Protestor'
p1644
(lp1645
g1234
ag969
ag817
ag863
asS'Lobbyist'
p1646
(lp1647
g985
ag1109
ag942
ag1196
asS'Teacher'
p1648
(lp1649
g1054
ag1204
ag969
ag1234
asS'Player'
p1650
(lp1651
g1242
ag772
ag1161
ag1093
ag887
ag1234
asS'Computer'
p1652
(lp1653
g1006
ag1226
ag833
ag942
ag1196
ag1062
asS'Receptionist'
p1654
(lp1655
g1122
ag1070
ag1078
ag841
asS'Hippy'
p1656
(lp1657
g863
ag969
ag1014
ag1038
ag1234
ag1177
asS'Constituent'
p1658
(lp1659
g969
ag1177
ag985
ag1196
asS'Wife'
p1660
(lp1661
g1234
ag1177
ag1204
ag1242
ag895
asS'WarVet'
p1662
(lp1663
g1196
ag1204
ag1153
ag1234
asS'Religious'
p1664
(lp1665
g809
ag1250
ag930
ag1169
ag1204
asS'Unionist'
p1666
(lp1667
g1196
ag1204
ag969
ag1054
asS'Journalist'
p1668
(lp1669
g825
ag1218
ag1022
ag727
ag801
assS'encounters'
p1670
(dp1671
S'P-easy-10'
p1672
g1
(g10
g3
NtRp1673
(dp1674
S'item_attack_drops'
p1675
(lp1676
sS'item_attacks'
p1677
(lp1678
sg761
S''
sg1264
F10
sS'monster2_lvl'
p1679
F1
sS'monster3'
p1680
S'Politician001'
p1681
sS'monster1_lvl'
p1682
F1
sS'monster3_lvl'
p1683
F1
sS'monster4_lvl'
p1684
S''
sS'monster4'
p1685
S''
sS'monster2'
p1686
S'Mayor'
p1687
sg755
g1672
sS'monster1'
p1688
S'Politician001'
p1689
sbsS'P-easy-05'
p1690
g1
(g10
g3
NtRp1691
(dp1692
g1675
(lp1693
g1
(c__main__
ItemAttack
p1694
g3
NtRp1695
(dp1696
S'attack'
p1697
g1046
sS'quantity'
p1698
I1
sbasg1677
(lp1699
sg761
S''
sg1264
F10
sg1679
S''
sg1680
S''
sg1682
F1
sg1683
S''
sg1684
S''
sg1685
S''
sg1686
S''
sg755
g1690
sg1688
S'Journalist001'
p1700
sbsS'P-easy-04'
p1701
g1
(g10
g3
NtRp1702
(dp1703
g1675
(lp1704
g1
(g1694
g3
NtRp1705
(dp1706
g1697
g917
sg1698
I1
sbasg1677
(lp1707
sg761
S''
sg1264
F10
sg1679
F1
sg1680
S'Protester001'
p1708
sg1682
F1
sg1683
F1
sg1684
S''
sg1685
S''
sg1686
S'Protester001'
p1709
sg755
g1701
sg1688
S'Protester001'
p1710
sbsS'P-easy-07'
p1711
g1
(g10
g3
NtRp1712
(dp1713
g1675
(lp1714
g1
(g1694
g3
NtRp1715
(dp1716
g1697
g917
sg1698
I1
sbasg1677
(lp1717
sg761
S''
sg1264
F10
sg1679
S''
sg1680
S''
sg1682
F1
sg1683
S''
sg1684
S''
sg1685
S''
sg1686
S''
sg755
g1711
sg1688
S'Constituent001'
p1718
sbsS'P-easy-06'
p1719
g1
(g10
g3
NtRp1720
(dp1721
g1675
(lp1722
g1
(g1694
g3
NtRp1723
(dp1724
g1697
g1177
sg1698
I1
sbasg1677
(lp1725
sg761
S''
sg1264
F10
sg1679
F1
sg1680
S''
sg1682
F1
sg1683
S''
sg1684
S''
sg1685
S''
sg1686
S'Lobbyist001'
p1726
sg755
g1719
sg1688
S'Lobbyist001'
p1727
sbsS'P-easy-01'
p1728
g1
(g10
g3
NtRp1729
(dp1730
g1675
(lp1731
g1
(g1694
g3
NtRp1732
(dp1733
g1697
g956
sg1698
I1
sbasg1677
(lp1734
g1
(g1694
g3
NtRp1735
(dp1736
g1697
g1046
sg1698
I1
sbasg761
S'The quest for pen'
p1737
sg1264
F10
sg1679
S''
sg1680
S''
sg1682
F1
sg1683
S''
sg1684
S''
sg1685
S''
sg1686
S''
sg755
g1728
sg1688
S'Receptionist001'
p1738
sbsS'P-easy-03'
p1739
g1
(g10
g3
NtRp1740
(dp1741
g1675
(lp1742
g1
(g1694
g3
NtRp1743
(dp1744
g1697
g956
sg1698
I1
sbasg1677
(lp1745
sg761
S''
sg1264
F10
sg1679
F1
sg1680
S''
sg1682
F1
sg1683
S''
sg1684
S''
sg1685
S''
sg1686
S'Protester001'
p1746
sg755
g1739
sg1688
S'Protester001'
p1747
sbsS'P-easy-02'
p1748
g1
(g10
g3
NtRp1749
(dp1750
g1675
(lp1751
sg1677
(lp1752
sg761
S''
sg1264
F10
sg1679
F1
sg1680
S''
sg1682
F1
sg1683
S''
sg1684
S''
sg1685
S''
sg1686
S'Protester001'
p1753
sg755
g1748
sg1688
S'Protester001'
p1754
sbsS'P-med-02'
p1755
g1
(g10
g3
NtRp1756
(dp1757
g1675
(lp1758
sg1677
(lp1759
sg761
S''
sg1264
F10
sg1679
F1
sg1680
S''
sg1682
F1
sg1683
S''
sg1684
S''
sg1685
S''
sg1686
S'Politician001'
p1760
sg755
g1755
sg1688
S'Politician001'
p1761
sbsS'P-med-01'
p1762
g1
(g10
g3
NtRp1763
(dp1764
g1675
(lp1765
sg1677
(lp1766
sg761
S''
sg1264
F10
sg1679
F1
sg1680
S''
sg1682
F1
sg1683
S''
sg1684
S''
sg1685
S''
sg1686
S'Politician001'
p1767
sg755
g1762
sg1688
S'Politician001'
p1768
sbsS'P-easy-09'
p1769
g1
(g10
g3
NtRp1770
(dp1771
g1675
(lp1772
g1
(g1694
g3
NtRp1773
(dp1774
g1697
g956
sg1698
I1
sbasg1677
(lp1775
sg761
S''
sg1264
F10
sg1679
F1
sg1680
S'Constituent001'
p1776
sg1682
F1
sg1683
F1
sg1684
S''
sg1685
S''
sg1686
S'Constituent001'
p1777
sg755
g1769
sg1688
S'Constituent001'
p1778
sbsS'P-easy-08'
p1779
g1
(g10
g3
NtRp1780
(dp1781
g1675
(lp1782
sg1677
(lp1783
sg761
S''
sg1264
F10
sg1679
F1
sg1680
S''
sg1682
F1
sg1683
S''
sg1684
S''
sg1685
S''
sg1686
S'Constituent001'
p1784
sg755
g1779
sg1688
S'Constituent001'
p1785
sbssb.