ccopy_reg
_reconstructor
p1
(c__main__
GameData
p2
c__builtin__
object
p3
NtRp4
(dp5
S'script'
p6
(dp7
S'Theo'
p8
(lp9
g1
(c__main__
TableRow
p10
g3
NtRp11
(dp12
S'action'
p13
S'RequireFlag'
p14
sS'trigger'
p15
g8
sS'param'
p16
S'GOVERNORDEFEATED'
p17
sS'dialog'
p18
S'The Governor is in the north wing.'
p19
sbasS'_Act2'
p20
(lp21
g1
(g10
g3
NtRp22
(dp23
g13
S'Encounter'
p24
sg15
g20
sg16
S'P-easy-02'
p25
sg18
S''
sbasS'Wife'
p26
(lp27
g1
(g10
g3
NtRp28
(dp29
g13
S'RequireFlag'
p30
sg15
g26
sg16
S'GOHOMETOWIFE'
p31
sg18
S'What are you doing here, Phillip? You should be at work!'
p32
sbag1
(g10
g3
NtRp33
(dp34
g13
S'Say'
p35
sg15
S'Wife'
p36
sg16
S''
sg18
S'Welcome home, Phillip! How was your workday?'
p37
sbag1
(g10
g3
NtRp38
(dp39
g13
S'PlayerSay'
p40
sg15
S'Wife'
p41
sg16
S''
sg18
S'...'
p42
sbag1
(g10
g3
NtRp43
(dp44
g13
S'Say'
p45
sg15
S'Wife'
p46
sg16
S''
sg18
S"That good, huh? You know this isn't what you want. Why don't you strike out on your own?"
p47
sbag1
(g10
g3
NtRp48
(dp49
g13
S'PlayerSay'
p50
sg15
S'Wife'
p51
sg16
S''
sg18
S"I didn't think I knew where to start to be a Mayor, but Mayor Goodman makes it look easy."
p52
sbag1
(g10
g3
NtRp53
(dp54
g13
S'Say'
p55
sg15
S'Wife'
p56
sg16
S''
sg18
S"That's the spirit! You can do it! All you need is some money and support."
p57
sbag1
(g10
g3
NtRp58
(dp59
g13
S'PlayerSay'
p60
sg15
S'Wife'
p61
sg16
S''
sg18
S'Well...OK! Lets start with money. We need a sponsor.'
p62
sbag1
(g10
g3
NtRp63
(dp64
g13
S'Say'
p65
sg15
S'Wife'
p66
sg16
S''
sg18
S'OK, lets go get one!'
p67
sbag1
(g10
g3
NtRp68
(dp69
g13
S'AddAlly'
p70
sg15
S'Wife'
p71
sg16
S'Wife:1'
p72
sg18
S'Sarah Mossman Joins Your Political Party!'
p73
sbag1
(g10
g3
NtRp74
(dp75
g13
S'SetFlag'
p76
sg15
S'Wife'
p77
sg16
S'STARTSPONSOR'
p78
sg18
S''
sbag1
(g10
g3
NtRp79
(dp80
g13
S'Destroy'
p81
sg15
S'Wife'
p82
sg16
S''
sg18
S''
sbasS'Constituent2'
p83
(lp84
g1
(g10
g3
NtRp85
(dp86
g13
S'RequireFlag'
p87
sg15
g83
sg16
S'STARTCONSTITUENTS'
p88
sg18
S'What?'
p89
sbag1
(g10
g3
NtRp90
(dp91
g13
S'PlayerSay'
p92
sg15
S'Constituent2'
p93
sg16
S''
sg18
S'Vote Phillip Mossman for Mayor!'
p94
sbag1
(g10
g3
NtRp95
(dp96
g13
S'Say'
p97
sg15
S'Constituent2'
p98
sg16
S''
sg18
S'But Mayor Goodman has always taken care of me.'
p99
sbag1
(g10
g3
NtRp100
(dp101
g13
S'Encounter'
p102
sg15
S'Constituent2'
p103
sg16
S'P-easy-08'
p104
sg18
S''
sbag1
(g10
g3
NtRp105
(dp106
g13
S'Say'
p107
sg15
S'Constituent2'
p108
sg16
S''
sg18
S"I think it's time for a change!"
p109
sbag1
(g10
g3
NtRp110
(dp111
g13
S'Destroy'
p112
sg15
S'Constituent2'
p113
sg16
S''
sg18
S''
sbasS'Constituent3'
p114
(lp115
g1
(g10
g3
NtRp116
(dp117
g13
S'RequireFlag'
p118
sg15
g114
sg16
S'STARTCONSTITUENTS'
p119
sg18
S'What?'
p120
sbag1
(g10
g3
NtRp121
(dp122
g13
S'PlayerSay'
p123
sg15
S'Constituent3'
p124
sg16
S''
sg18
S'Vote Phillip Mossman for Mayor!'
p125
sbag1
(g10
g3
NtRp126
(dp127
g13
S'Say'
p128
sg15
S'Constituent3'
p129
sg16
S''
sg18
S'But Mayor Goodman has always taken care of me.'
p130
sbag1
(g10
g3
NtRp131
(dp132
g13
S'Encounter'
p133
sg15
S'Constituent3'
p134
sg16
S'P-easy-09'
p135
sg18
S''
sbag1
(g10
g3
NtRp136
(dp137
g13
S'Say'
p138
sg15
S'Constituent3'
p139
sg16
S''
sg18
S"I think it's time for a change!"
p140
sbag1
(g10
g3
NtRp141
(dp142
g13
S'PlayerSay'
p143
sg15
S'Constituent3'
p144
sg16
S''
sg18
S"I think I'm ready to take on Mayor Goodman now!"
p145
sbag1
(g10
g3
NtRp146
(dp147
g13
S'SetFlag'
p148
sg15
S'Constituent3'
p149
sg16
S'CONSTITUENTSWON'
p150
sg18
S''
sbag1
(g10
g3
NtRp151
(dp152
g13
S'Destroy'
p153
sg15
S'Constituent3'
p154
sg16
S''
sg18
S''
sbasS'Constituent1'
p155
(lp156
g1
(g10
g3
NtRp157
(dp158
g13
S'RequireFlag'
p159
sg15
g155
sg16
S'STARTCONSTITUENTS'
p160
sg18
S'Yes?'
p161
sbag1
(g10
g3
NtRp162
(dp163
g13
S'PlayerSay'
p164
sg15
S'Constituent1'
p165
sg16
S''
sg18
S'Vote Phillip Mossman for Mayor!'
p166
sbag1
(g10
g3
NtRp167
(dp168
g13
S'Say'
p169
sg15
S'Constituent1'
p170
sg16
S''
sg18
S'Who?'
p171
sbag1
(g10
g3
NtRp172
(dp173
g13
S'PlayerSay'
p174
sg15
S'Constituent1'
p175
sg16
S''
sg18
S'Er, me!'
p176
sbag1
(g10
g3
NtRp177
(dp178
g13
S'Say'
p179
sg15
S'Constituent1'
p180
sg16
S''
sg18
S'Why? How will you help local business?'
p181
sbag1
(g10
g3
NtRp182
(dp183
g13
S'Encounter'
p184
sg15
S'Constituent1'
p185
sg16
S'P-easy-07'
p186
sg18
S''
sbag1
(g10
g3
NtRp187
(dp188
g13
S'Say'
p189
sg15
S'Constituent1'
p190
sg16
S''
sg18
S'You make a good case!'
p191
sbag1
(g10
g3
NtRp192
(dp193
g13
S'Destroy'
p194
sg15
S'Constituent1'
p195
sg16
S''
sg18
S''
sbasS'Protester2'
p196
(lp197
g1
(g10
g3
NtRp198
(dp199
g13
S'Say'
p200
sg15
g196
sg16
S''
sg18
S"Bees buzz, Mayors lie, who's this Phillip Mossman guy?"
p201
sbag1
(g10
g3
NtRp202
(dp203
g13
S'RequireFlag'
p204
sg15
S'Protester2'
p205
sg16
S'PROTESTORS'
p206
sg18
S''
sbag1
(g10
g3
NtRp207
(dp208
g13
S'Encounter'
p209
sg15
S'Protester2'
p210
sg16
S'P-easy-03'
p211
sg18
S''
sbag1
(g10
g3
NtRp212
(dp213
g13
S'Destroy'
p214
sg15
S'Protester2'
p215
sg16
S''
sg18
S''
sbasS'CheatAct2'
p216
(lp217
g1
(g10
g3
NtRp218
(dp219
g13
S'AddAlly'
p220
sg15
g216
sg16
S'Wife:1'
p221
sg18
S''
sbag1
(g10
g3
NtRp222
(dp223
g13
S'LearnAttack'
p224
sg15
S'CheatAct2'
p225
sg16
S'BRIBE'
p226
sg18
S''
sbag1
(g10
g3
NtRp227
(dp228
g13
S'LearnAttack'
p229
sg15
S'CheatAct2'
p230
sg16
S'Wife:BRIBE'
p231
sg18
S''
sbag1
(g10
g3
NtRp232
(dp233
g13
S'LearnAttack'
p234
sg15
S'CheatAct2'
p235
sg16
S'SLANDER'
p236
sg18
S''
sbag1
(g10
g3
NtRp237
(dp238
g13
S'GotoMap'
p239
sg15
S'CheatAct2'
p240
sg16
S'act2'
p241
sg18
S''
sbasS'Protester1'
p242
(lp243
g1
(g10
g3
NtRp244
(dp245
g13
S'LearnAttack'
p246
sg15
g242
sg16
S'RUNAD'
p247
sg18
S''
sbag1
(g10
g3
NtRp248
(dp249
g13
S'Say'
p250
sg15
S'Protester1'
p251
sg16
S''
sg18
S"Fee Fi Fo Fum, we think Mayor Goodman's Dumb!"
p252
sbag1
(g10
g3
NtRp253
(dp254
g13
S'Say'
p255
sg15
S'Protester1'
p256
sg16
S'Protester2'
p257
sg18
S"Bees buzz, Mayors lie, who's this Phillip Mossman guy?"
p258
sbag1
(g10
g3
NtRp259
(dp260
g13
S'Encounter'
p261
sg15
S'Protester1'
p262
sg16
S'P-easy-02'
p263
sg18
S''
sbag1
(g10
g3
NtRp264
(dp265
g13
S'Destroy'
p266
sg15
S'Protester1'
p267
sg16
S''
sg18
S''
sbasS'Politician1'
p268
(lp269
g1
(g10
g3
NtRp270
(dp271
g13
S'Say'
p272
sg15
g268
sg16
S''
sg18
S"I'm sorry Mayor Mossman, the Governor cannot see you now. He's very busy"
p273
sbag1
(g10
g3
NtRp274
(dp275
g13
S'PlayerSay'
p276
sg15
S'Politician1'
p277
sg16
S''
sg18
S"It's very important. I need to understand what Mayor Goodman was talking about. It was clear there were other powers at play."
p278
sbag1
(g10
g3
NtRp279
(dp280
g13
S'Say'
p281
sg15
S'Politician1'
p282
sg16
S''
sg18
S'Yes well, I fail to see how your country spat has anything to do with Governer Badden.'
p283
sbag1
(g10
g3
NtRp284
(dp285
g13
S'Encounter'
p286
sg15
S'Politician1'
p287
sg16
S'P-med-01'
p288
sg18
S''
sbag1
(g10
g3
NtRp289
(dp290
g13
S'Say'
p291
sg15
S'Politician1'
p292
sg16
S''
sg18
S'Fair point. The governor will see you now.'
p293
sbag1
(g10
g3
NtRp294
(dp295
g13
S'Destroy'
p296
sg15
S'Politician1'
p297
sg16
S''
sg18
S''
sbasS'Politician2'
p298
(lp299
g1
(g10
g3
NtRp300
(dp301
g13
S'Say'
p302
sg15
g298
sg16
S''
sg18
S'What are you doing in here? Who are you? Some Mayor?'
p303
sbag1
(g10
g3
NtRp304
(dp305
g13
S'PlayerSay'
p306
sg15
S'Politician2'
p307
sg16
S''
sg18
S"I am Mayor Phillip Mossman. I'm here to speak to the Governor."
p308
sbag1
(g10
g3
NtRp309
(dp310
g13
S'Say'
p311
sg15
S'Politician2'
p312
sg16
S''
sg18
S"I'm afraid the Governor's schedule is very tight. Come back next month."
p313
sbag1
(g10
g3
NtRp314
(dp315
g13
S'Encounter'
p316
sg15
S'Politician2'
p317
sg16
S'P-med-02'
p318
sg18
S''
sbag1
(g10
g3
NtRp319
(dp320
g13
S'Say'
p321
sg15
S'Politician2'
p322
sg16
S''
sg18
S'I see. Well, maybe we can squeeze you in.'
p323
sbag1
(g10
g3
NtRp324
(dp325
g13
S'SetFlag'
p326
sg15
S'Politician2'
p327
sg16
S'GOVPOLITICIANSFIRST'
p328
sg18
S''
sbag1
(g10
g3
NtRp329
(dp330
g13
S'Destroy'
p331
sg15
S'Politician2'
p332
sg16
S''
sg18
S''
sbasS'Head Protester'
p333
(lp334
g1
(g10
g3
NtRp335
(dp336
g13
S'Say'
p337
sg15
g333
sg16
S''
sg18
S"I am the head protester. You'll never convince us to back down!"
p338
sbag1
(g10
g3
NtRp339
(dp340
g13
S'RequireFlag'
p341
sg15
S'Head Protester'
p342
sg16
S'PROTESTORS'
p343
sg18
S''
sbag1
(g10
g3
NtRp344
(dp345
g13
S'PlayerSay'
p346
sg15
S'Head Protester'
p347
sg16
S''
sg18
S'What are you protesting?'
p348
sbag1
(g10
g3
NtRp349
(dp350
g13
S'Say'
p351
sg15
S'Head Protester'
p352
sg16
S''
sg18
S'Er...Injustice!'
p353
sbag1
(g10
g3
NtRp354
(dp355
g13
S'PlayerSay'
p356
sg15
S'Head Protester'
p357
sg16
S''
sg18
S'Injustice against what?'
p358
sbag1
(g10
g3
NtRp359
(dp360
g13
S'Say'
p361
sg15
S'Head Protester'
p362
sg16
S''
sg18
S'...'
p363
sbag1
(g10
g3
NtRp364
(dp365
g13
S'Say'
p366
sg15
S'Head Protester'
p367
sg16
S''
sg18
S'The People!'
p368
sbag1
(g10
g3
NtRp369
(dp370
g13
S'PlayerSay'
p371
sg15
S'Head Protester'
p372
sg16
S''
sg18
S'Yes, but which people?'
p373
sbag1
(g10
g3
NtRp374
(dp375
g13
S'Say'
p376
sg15
S'Head Protester'
p377
sg16
S''
sg18
S'See? What a fascist, ALL people you slimey politician scum!'
p378
sbag1
(g10
g3
NtRp379
(dp380
g13
S'Encounter'
p381
sg15
S'Head Protester'
p382
sg16
S'P-easy-04'
p383
sg18
S''
sbag1
(g10
g3
NtRp384
(dp385
g13
S'Say'
p386
sg15
S'Head Protester'
p387
sg16
S''
sg18
S"Alright, fine! We'll stop protesting...whatever we were protesting."
p388
sbag1
(g10
g3
NtRp389
(dp390
g13
S'SetFlag'
p391
sg15
S'Head Protester'
p392
sg16
S'PROTESTORSDEAD'
p393
sg18
S''
sbag1
(g10
g3
NtRp394
(dp395
g13
S'Destroy'
p396
sg15
S'Head Protester'
p397
sg16
S''
sg18
S''
sbasS'Receptionist'
p398
(lp399
g1
(g10
g3
NtRp400
(dp401
g13
S'Label'
p402
sg15
g398
sg16
S'START'
p403
sg18
S''
sbag1
(g10
g3
NtRp404
(dp405
g13
S'Say'
p406
sg15
S'Receptionist'
p407
sg16
S''
sg18
S'I have some fine wares for you'
p408
sbag1
(g10
g3
NtRp409
(dp410
g13
S'Shop'
p411
sg15
S'Receptionist'
p412
sg16
S'Shop1'
p413
sg18
S''
sbag1
(g10
g3
NtRp414
(dp415
g13
S'Say'
p416
sg15
S'Receptionist'
p417
sg16
S''
sg18
S'Thankyou, come again'
p418
sbag1
(g10
g3
NtRp419
(dp420
g13
S'Reset'
p421
sg15
S'Receptionist'
p422
sg16
S'START'
p423
sg18
S''
sbasS'Sponsor'
p424
(lp425
g1
(g10
g3
NtRp426
(dp427
g13
S'RequireFlag'
p428
sg15
g424
sg16
S'STARTSPONSOR'
p429
sg18
S"Hmmm...Money, money, money. Sorry, what? I wasn't talking to you."
p430
sbag1
(g10
g3
NtRp431
(dp432
g13
S'Say'
p433
sg15
S'Sponsor'
p434
sg16
S''
sg18
S"Hello, I'm investigating new investments today. How can I help you?"
p435
sbag1
(g10
g3
NtRp436
(dp437
g13
S'PlayerSay'
p438
sg15
S'Sponsor'
p439
sg16
S''
sg18
S"Well, I've decided to run for Mayor! I could really use an investor."
p440
sbag1
(g10
g3
NtRp441
(dp442
g13
S'Say'
p443
sg15
S'Sponsor'
p444
sg16
S''
sg18
S"I don't know. You seem a little young. I don't think I'm convinced."
p445
sbag1
(g10
g3
NtRp446
(dp447
g13
S'Encounter'
p448
sg15
S'Sponsor'
p449
sg16
S'P-easy-06'
p450
sg18
S''
sbag1
(g10
g3
NtRp451
(dp452
g13
S'Say'
p453
sg15
S'Sponsor'
p454
sg16
S''
sg18
S"Wow! You sure have what it takes! Alright, he's a pile of cash!"
p455
sbag1
(g10
g3
NtRp456
(dp457
g13
S'Say'
p458
sg15
S'Sponsor'
p459
sg16
S''
sg18
S'Also, now that you have some funds, you might find it useful to...grease the wheels in some difficult situations.'
p460
sbag1
(g10
g3
NtRp461
(dp462
g13
S'LearnAttack'
p463
sg15
S'Sponsor'
p464
sg16
S'BRIBE'
p465
sg18
S'Phillip and Sarah learn to Bribe'
p466
sbag1
(g10
g3
NtRp467
(dp468
g13
S'LearnAttack'
p469
sg15
S'Sponsor'
p470
sg16
S'Wife:BRIBE'
p471
sg18
S''
sbag1
(g10
g3
NtRp472
(dp473
g13
S'SetFlag'
p474
sg15
S'Sponsor'
p475
sg16
S'STARTCONSTITUENTS'
p476
sg18
S''
sbag1
(g10
g3
NtRp477
(dp478
g13
S'PlayerSay'
p479
sg15
S'Sponsor'
p480
sg16
S''
sg18
S'Er, thanks! I suppose we should go gather some support from our constituents now.'
p481
sbag1
(g10
g3
NtRp482
(dp483
g13
S'Say'
p484
sg15
S'Sponsor'
p485
sg16
S''
sg18
S"Makes sense to me! I'm off, too. Money, money, money."
p486
sbag1
(g10
g3
NtRp487
(dp488
g13
S'Destroy'
p489
sg15
S'Sponsor'
p490
sg16
S''
sg18
S''
sbasS'Hick'
p491
(lp492
g1
(g10
g3
NtRp493
(dp494
g13
S'Say'
p495
sg15
g491
sg16
S''
sg18
S''
sbasS'Mayor'
p496
(lp497
g1
(g10
g3
NtRp498
(dp499
g13
S'Say'
p500
sg15
g496
sg16
S''
sg18
S"Hello, I'm the Mayor!"
p501
sbag1
(g10
g3
NtRp502
(dp503
g13
S'PlayerSay'
p504
sg15
S'Mayor'
p505
sg16
S''
sg18
S"Hello, Mayor Goodman, I'm Philip Mossman."
p506
sbag1
(g10
g3
NtRp507
(dp508
g13
S'Say'
p509
sg15
S'Mayor'
p510
sg16
S''
sg18
S"Ah yes, you're my new assistant. A good thing, too."
p511
sbag1
(g10
g3
NtRp512
(dp513
g13
S'Say'
p514
sg15
S'Mayor'
p515
sg16
S''
sg18
S"I've been searching for minutes and haven't been able to find my pen! I bet my receptionist stole it. She has sticky fingers."
p516
sbag1
(g10
g3
NtRp517
(dp518
g13
S'Say'
p519
sg15
S'Mayor'
p520
sg16
S''
sg18
S"Well, don't just stand there, go and get it!"
p521
sbag1
(g10
g3
NtRp522
(dp523
g13
S'SetFlag'
p524
sg15
S'Mayor'
p525
sg16
S'PENQUEST'
p526
sg18
S''
sbag1
(g10
g3
NtRp527
(dp528
g13
S'RequireItem'
p529
sg15
S'Mayor'
p530
sg16
S'PEN'
p531
sg18
S'Are you simple? Go and get my pen from that thieving receptionist.'
p532
sbag1
(g10
g3
NtRp533
(dp534
g13
S'Say'
p535
sg15
S'Mayor'
p536
sg16
S''
sg18
S"Great! I know she can give you a bit of a tongue-lashing, but she's a fantastic receptionist."
p537
sbag1
(g10
g3
NtRp538
(dp539
g13
S'Say'
p540
sg15
S'Mayor'
p541
sg16
S''
sg18
S"I'm sure you want to learn a thing or two about politics \xe2\x80\x93 who doesn't? - so lets get started"
p542
sbag1
(g10
g3
NtRp543
(dp544
g13
S'SetFlag'
p545
sg15
S'Mayor'
p546
sg16
S'PROTESTORS'
p547
sg18
S''
sbag1
(g10
g3
NtRp548
(dp549
g13
S'RequireFlag'
p550
sg15
S'Mayor'
p551
sg16
S'PROTESTORSDEAD'
p552
sg18
S'Run outside and tell those protesters to scram, will you?'
p553
sbag1
(g10
g3
NtRp554
(dp555
g13
S'Say'
p556
sg15
S'Mayor'
p557
sg16
S''
sg18
S"Hope they didn't give you too much trouble!"
p558
sbag1
(g10
g3
NtRp559
(dp560
g13
S'Say'
p561
sg15
S'Mayor'
p562
sg16
S''
sg18
S"Now that's sorted, there's a journalist from the local newspaper coming for an interview."
p563
sbag1
(g10
g3
NtRp564
(dp565
g13
S'Say'
p566
sg15
S'Mayor'
p567
sg16
S''
sg18
S"I certainly don't have time for it, so you can do the interview."
p568
sbag1
(g10
g3
NtRp569
(dp570
g13
S'Say'
p571
sg15
S'Mayor'
p572
sg16
S''
sg18
S"Be careful not to give too much away and if you could throw a few punches at the opposition that'd help."
p573
sbag1
(g10
g3
NtRp574
(dp575
g13
S'PlayerSay'
p576
sg15
S'Mayor'
p577
sg16
S''
sg18
S'You want me to...throw a punch?'
p578
sbag1
(g10
g3
NtRp579
(dp580
g13
S'Say'
p581
sg15
S'Mayor'
p582
sg16
S''
sg18
S"You're in politics and don't know how to fight dirty? Sheesh! Here, let me show you."
p583
sbag1
(g10
g3
NtRp584
(dp585
g13
S'LearnAttack'
p586
sg15
S'Mayor'
p587
sg16
S'SLANDER'
p588
sg18
S'Mayor teaches Phillip to Slander Opposition'
p589
sbag1
(g10
g3
NtRp590
(dp591
g13
S'Say'
p592
sg15
S'Mayor'
p593
sg16
S''
sg18
S"It's a pretty great tactic because it keeps eating away at them long after you've done it."
p594
sbag1
(g10
g3
NtRp595
(dp596
g13
S'SetFlag'
p597
sg15
S'Mayor'
p598
sg16
S'INTERVIEWSTART'
p599
sg18
S''
sbag1
(g10
g3
NtRp600
(dp601
g13
S'RequireFlag'
p602
sg15
S'Mayor'
p603
sg16
S'JOURNALISTINTERVIEW'
p604
sg18
S'Go handle that interview and remember to slander the opposition.'
p605
sbag1
(g10
g3
NtRp606
(dp607
g13
S'SetFlag'
p608
sg15
S'Mayor'
p609
sg16
S'GOHOMETOWIFE'
p610
sg18
S''
sbag1
(g10
g3
NtRp611
(dp612
g13
S'Say'
p613
sg15
S'Mayor'
p614
sg16
S''
sg18
S'OK, fine, now could you buzz off for a while? I need to get some work done.'
p615
sbag1
(g10
g3
NtRp616
(dp617
g13
S'RequireFlag'
p618
sg15
S'Mayor'
p619
sg16
S'CONSTITUENTSWON'
p620
sg18
S"Go home to your family. I have things to do that don't involve you."
p621
sbag1
(g10
g3
NtRp622
(dp623
g13
S'Say'
p624
sg15
S'Mayor'
p625
sg16
S''
sg18
S"What's this I hear about you campaigning for Mayor? After everything I've taught you!"
p626
sbag1
(g10
g3
NtRp627
(dp628
g13
S'PlayerSay'
p629
sg15
S'Mayor'
p630
sg16
S''
sg18
S"I'm sorry Mayor Goodman, but it's time for someone who's ready to make a difference for our town."
p631
sbag1
(g10
g3
NtRp632
(dp633
g13
S'Say'
p634
sg15
S'Mayor'
p635
sg16
S''
sg18
S"You really are a fool. Do you think He's going to allow that?"
p636
sbag1
(g10
g3
NtRp637
(dp638
g13
S'Encounter'
p639
sg15
S'Mayor'
p640
sg16
S'P-easy-10'
p641
sg18
S''
sbag1
(g10
g3
NtRp642
(dp643
g13
S'Say'
p644
sg15
S'Mayor'
p645
sg16
S''
sg18
S"Well, you've beaten me but you don't have a clue what you're in for. I hope you're up to this kid!"
p646
sbag1
(g10
g3
NtRp647
(dp648
g13
S'Destroy'
p649
sg15
S'Mayor'
p650
sg16
S''
sg18
S''
sbasS'Governor'
p651
(lp652
g1
(g10
g3
NtRp653
(dp654
g13
S'RequireFlag'
p655
sg15
g651
sg16
S'GOVPOLITICIANSFIRST'
p656
sg18
S"I'm very busy. Please speak to the others."
p657
sbag1
(g10
g3
NtRp658
(dp659
g13
S'Say'
p660
sg15
S'Governor'
p661
sg16
S''
sg18
S'You have quite a way with words, Mayor Mossman. Why are you here?'
p662
sbag1
(g10
g3
NtRp663
(dp664
g13
S'PlayerSay'
p665
sg15
S'Governor'
p666
sg16
S''
sg18
S"Mayor Goodman said some troubling things, Governor Badden. I'm here to get to the bottom of it."
p667
sbag1
(g10
g3
NtRp668
(dp669
g13
S'Say'
p670
sg15
S'Governor'
p671
sg16
S''
sg18
S"If I knew anything about what you're talking about, I wouldn't tell you. I don't trust you at all."
p672
sbag1
(g10
g3
NtRp673
(dp674
g13
S'PlayerSay'
p675
sg15
S'Governor'
p676
sg16
S''
sg18
S'What can I do to convince you?'
p677
sbag1
(g10
g3
NtRp678
(dp679
g13
S'Say'
p680
sg15
S'Governor'
p681
sg16
S''
sg18
S"Well...there's some hicks in the south wing that I've been dodging. They want to know about the recent funding cuts. Get rid of them."
p682
sbag1
(g10
g3
NtRp683
(dp684
g13
S'RequireFlag'
p685
sg15
S'Governor'
p686
sg16
S'DEALWITHHICKS'
p687
sg18
S"I'm not saying another word until you get rid of the hicks in the south wing."
p688
sbasS'Journalist'
p689
(lp690
g1
(g10
g3
NtRp691
(dp692
g13
S'RequireFlag'
p693
sg15
g689
sg16
S'INTERVIEWSTART'
p694
sg18
S'Leave me alone, kid I need to get this done before my deadline!'
p695
sbag1
(g10
g3
NtRp696
(dp697
g13
S'Say'
p698
sg15
S'Journalist'
p699
sg16
S''
sg18
S"Hey, where's the Mayor?"
p700
sbag1
(g10
g3
NtRp701
(dp702
g13
S'PlayerSay'
p703
sg15
S'Journalist'
p704
sg16
S''
sg18
S"He couldn't make it. I'll be taking the interview."
p705
sbag1
(g10
g3
NtRp706
(dp707
g13
S'Say'
p708
sg15
S'Journalist'
p709
sg16
S''
sg18
S'Great! Easy pickings! Lets go.'
p710
sbag1
(g10
g3
NtRp711
(dp712
g13
S'Encounter'
p713
sg15
S'Journalist'
p714
sg16
S'P-easy-05'
p715
sg18
S''
sbag1
(g10
g3
NtRp716
(dp717
g13
S'Say'
p718
sg15
S'Journalist'
p719
sg16
S''
sg18
S"SNORE! Fine, if I can't get anything juicy here I'll do another puff piece on my poodle Frank."
p720
sbag1
(g10
g3
NtRp721
(dp722
g13
S'SetFlag'
p723
sg15
S'Journalist'
p724
sg16
S'JOURNALISTINTERVIEW'
p725
sg18
S''
sbag1
(g10
g3
NtRp726
(dp727
g13
S'Destroy'
p728
sg15
S'Journalist'
p729
sg16
S''
sg18
S''
sbassS'attacks'
p730
(dp731
S'GETEXCLUSIVE'
p732
g1
(g10
g3
NtRp733
(dp734
S'base_damage_max'
p735
F4
sS'description'
p736
S'asdf'
p737
sS'weight'
p738
I1
sS'crit_chance_max'
p739
F5
sS'crit_chance_min'
p740
F2
sS'underlying_stat'
p741
S'Wit'
p742
sS'target_type'
p743
S'AllFriendly'
p744
sS'base_damage_min'
p745
F2
sS'spin_cost'
p746
F5
sS'effects'
p747
(lp748
g1
(c__main__
Effect
p749
g3
NtRp750
(dp751
S'function'
p752
S'add'
p753
sS'abbrv'
p754
S'(INCREASE)'
p755
sS'attribute'
p756
S'cunning'
p757
sS'value'
p758
F2
sS'rounds_min'
p759
F1
sS'rounds_max'
p760
F4
sS'id'
p761
S'Increase Cunning'
p762
sS'apply_to_source'
p763
S'TRUE'
p764
sbasS'target_count'
p765
I1
sS'crit_base_damage'
p766
F8
sg761
g732
sS'name'
p767
S'Get Exclusive'
p768
sbsS'LOSELOSE'
p769
g1
(g10
g3
NtRp770
(dp771
g735
F4
sg736
S'Causes all politicians in the target radius to lose votes'
p772
sg738
I1
sg739
F0
sg740
F0
sg741
S'Cunning'
p773
sg743
S'All'
p774
sg745
F4
sg746
I0
sg747
(lp775
sg765
I6
sg766
F0
sg761
g769
sg767
S'Lose/lose issue'
p776
sbsS'LIE'
p777
g1
(g10
g3
NtRp778
(dp779
g735
F6
sg736
S"It's only lying if they catch you. A strong attack with a danger of failing entirely and leaving you high and dry."
p780
sg738
F3
sg739
F10
sg740
F2
sg741
S'Wit'
p781
sg743
S'AllEnemy'
p782
sg745
F0
sg746
I0
sg747
(lp783
g1
(g749
g3
NtRp784
(dp785
g752
S'miss_turn'
p786
sg754
S'(MISS)'
p787
sg756
S''
sg758
F0
sg759
F1
sg760
F1
sg761
S'Critical Fail'
p788
sg763
S'TRUE'
p789
sbasg765
I1
sg766
F10
sg761
g777
sg767
S'Lie'
p790
sbsS'HILARIOUSANECDOTE'
p791
g1
(g10
g3
NtRp792
(dp793
g735
F8
sg736
S'asdf'
p794
sg738
I1
sg739
F0
sg740
F0
sg741
S'Wit'
p795
sg743
S'AllFriendly'
p796
sg745
F4
sg746
F5
sg747
(lp797
g1
(g749
g3
NtRp798
(dp799
g752
S'add'
p800
sg754
S'(INCREASE)'
p801
sg756
S'flair'
p802
sg758
F2
sg759
F1
sg760
F4
sg761
S'Increase Flair'
p803
sg763
S'TRUE'
p804
sbasg765
I1
sg766
F0
sg761
g791
sg767
S'Hilarious Anecdote'
p805
sbsS'SENSATIONALISE'
p806
g1
(g10
g3
NtRp807
(dp808
g735
F8
sg736
S'asdf'
p809
sg738
I1
sg739
F0
sg740
F0
sg741
S'Wit'
p810
sg743
S'AllEnemy'
p811
sg745
F4
sg746
F3
sg747
(lp812
sg765
I1
sg766
F0
sg761
g806
sg767
S'Sensationalise'
p813
sbsS'DENOUNCE'
p814
g1
(g10
g3
NtRp815
(dp816
g735
F5
sg736
S'asdf'
p817
sg738
F6
sg739
F10
sg740
F2
sg741
S'Cunning'
p818
sg743
S'AllEnemy'
p819
sg745
F2
sg746
I0
sg747
(lp820
sg765
I1
sg766
F8
sg761
g814
sg767
S'Denounce'
p821
sbsS'WHADOWEWANT'
p822
g1
(g10
g3
NtRp823
(dp824
g735
F6
sg736
S'asdf'
p825
sg738
I1
sg739
F0
sg740
F0
sg741
S'Cunning'
p826
sg743
S'AllEnemy'
p827
sg745
F3
sg746
I0
sg747
(lp828
sg765
I1
sg766
F0
sg761
g822
sg767
S'Whadowewant!'
p829
sbsS'SCOOP'
p830
g1
(g10
g3
NtRp831
(dp832
g735
F5
sg736
S'asdf'
p833
sg738
I1
sg739
F10
sg740
F5
sg741
S'Cunning'
p834
sg743
S'AllEnemy'
p835
sg745
F2
sg746
I0
sg747
(lp836
sg765
I1
sg766
F8
sg761
g830
sg767
S'Scoop'
p837
sbsS'CHOOSETARGETS'
p838
g1
(g10
g3
NtRp839
(dp840
g735
F7
sg736
S'asdf'
p841
sg738
I1
sg739
F10
sg740
F5
sg741
S'Cunning'
p842
sg743
S'AllEnemy'
p843
sg745
F2
sg746
I0
sg747
(lp844
sg765
I1
sg766
F9
sg761
g838
sg767
S'Choose Targets'
p845
sbsS'FILENAILS'
p846
g1
(g10
g3
NtRp847
(dp848
g735
F0
sg736
S'asdf'
p849
sg738
I1
sg739
F0
sg740
F0
sg741
S'Wit'
p850
sg743
S'AllEnemy'
p851
sg745
F0
sg746
F3
sg747
(lp852
g1
(g749
g3
NtRp853
(dp854
g752
S'add_permanent'
p855
sg754
S''
sg756
S'votes'
p856
sg758
F5
sg759
F1
sg760
F1
sg761
S'Votes Restore'
p857
sg763
S'TRUE'
p858
sbasg765
I1
sg766
F0
sg761
g846
sg767
S'File Nails'
p859
sbsS'BRIBE'
p860
g1
(g10
g3
NtRp861
(dp862
g735
F3
sg736
S'Is there anything more convincing than money? Buying loyalty gets expensive so be careful.'
p863
sg738
I1
sg739
F1
sg740
F1
sg741
S'Money'
p864
sg743
S'AllEnemy'
p865
sg745
F2
sg746
I0
sg747
(lp866
sg765
I1
sg766
F1
sg761
g860
sg767
S'Bribe'
p867
sbsS'SING'
p868
g1
(g10
g3
NtRp869
(dp870
g735
F-3
sg736
S'Why bandy words with politicians when you can sing a catchy tune! Restores votes.'
p871
sg738
I1
sg739
F0
sg740
F0
sg741
S'Wit'
p872
sg743
S'AllFriendly'
p873
sg745
F-5
sg746
I0
sg747
(lp874
sg765
I4
sg766
F0
sg761
g868
sg767
S'Rousing Song'
p875
sbsS'FEAR'
p876
g1
(g10
g3
NtRp877
(dp878
g735
F0
sg736
S'asdf'
p879
sg738
F2
sg739
F0
sg740
F0
sg741
S'Wit'
p880
sg743
S'AllFriendly'
p881
sg745
F0
sg746
F4
sg747
(lp882
g750
asg765
I1
sg766
F0
sg761
g876
sg767
S'Fear Change'
p883
sbsS'RAISEDEFCON'
p884
g1
(g10
g3
NtRp885
(dp886
g735
F5
sg736
S'asdf'
p887
sg738
I1
sg739
F7
sg740
F3
sg741
S'Cunning'
p888
sg743
S'AllEnemy'
p889
sg745
F4
sg746
I0
sg747
(lp890
sg765
I1
sg766
F8
sg761
g884
sg767
S'Raise DEFCON'
p891
sbsS'NEGATTACKAD'
p892
g1
(g10
g3
NtRp893
(dp894
g735
F8
sg736
S"Take them all down. They're definitely all bad people. Not like you."
p895
sg738
I1
sg739
F10
sg740
F10
sg741
S'Cunning'
p896
sg743
S'AllEnemy'
p897
sg745
F3
sg746
F5
sg747
(lp898
sg765
I1
sg766
F10
sg761
g892
sg767
S'Negative Attack Ad'
p899
sbsS'DAZZLE'
p900
g1
(g10
g3
NtRp901
(dp902
g735
F3
sg736
S'Being dazzling and admirable is a great way to take heat off politics'
p903
sg738
I1
sg739
F8
sg740
F5
sg741
S'Wit'
p904
sg743
S'AllEnemy'
p905
sg745
F2
sg746
F3
sg747
(lp906
g1
(g749
g3
NtRp907
(dp908
g752
S'reduce'
p909
sg754
S'(REDUCE)'
p910
sg756
S'cunning'
p911
sg758
F2
sg759
F2
sg760
F5
sg761
S'Reduce Cunning'
p912
sg763
S''
sbasg765
I4
sg766
F8
sg761
g900
sg767
S'Dazzle'
p913
sbsS'BELIEVEMEDIA'
p914
g1
(g10
g3
NtRp915
(dp916
g735
F3
sg736
S'asdf'
p917
sg738
I1
sg739
F15
sg740
F5
sg741
S'Cunning'
p918
sg743
S'AllEnemy'
p919
sg745
F1
sg746
I0
sg747
(lp920
sg765
I1
sg766
F12
sg761
g914
sg767
S'Believe Media'
p921
sbsS'PRPREP'
p922
g1
(g10
g3
NtRp923
(dp924
g735
F0
sg736
S"If you're going to need some spin, best see a spin doctor! Adds spin points."
p925
sg738
I1
sg739
F0
sg740
F0
sg741
S''
sg743
S'AllFriendly'
p926
sg745
F0
sg746
I0
sg747
(lp927
g1
(g749
g3
NtRp928
(dp929
g752
S'add_permanent'
p930
sg754
S''
sg756
S'spin'
p931
sg758
F5
sg759
F0
sg760
F0
sg761
S'Spin Restore'
p932
sg763
S'TRUE'
p933
sbasg765
I1
sg766
F0
sg761
g922
sg767
S'PR Prep'
p934
sbsS'CALLVATICAN'
p935
g1
(g10
g3
NtRp936
(dp937
g735
F0
sg736
S'Brings in 2 additional ReligousNuts at 2 levels lower than this one'
p938
sg738
I1
sg739
F0
sg740
F0
sg741
S'Wit'
p939
sg743
S'None'
p940
sg745
F0
sg746
F5
sg747
(lp941
g1
(g749
g3
NtRp942
(dp943
g752
S'call_friends'
p944
sg754
S''
sg756
S'ReligiousNut001:2'
p945
sg758
F2
sg759
F0
sg760
F0
sg761
S'Call Friends'
p946
sg763
S''
sbasg765
I1
sg766
F0
sg761
g935
sg767
S'Call Vatican'
p947
sbsS'BLACKMAIL'
p948
g1
(g10
g3
NtRp949
(dp950
g735
F6
sg736
S'asdf'
p951
sg738
I1
sg739
F10
sg740
F2
sg741
S'Wit'
p952
sg743
S'AllEnemy'
p953
sg745
F3
sg746
F4
sg747
(lp954
g1
(g749
g3
NtRp955
(dp956
g752
S'drain'
p957
sg754
S'(DRAIN)'
p958
sg756
S'votes'
p959
sg758
F1
sg759
F2
sg760
F5
sg761
S'Drain Votes'
p960
sg763
S''
sbasg765
I1
sg766
F2
sg761
g948
sg767
S'Blackmail'
p961
sbsS'RUNAD'
p962
g1
(g10
g3
NtRp963
(dp964
g735
F0
sg736
S'Gets back some votes by running an ad'
p965
sg738
I1
sg739
F0
sg740
F0
sg741
S''
sg743
S'AllFriendly'
p966
sg745
F0
sg746
I0
sg747
(lp967
g1
(g749
g3
NtRp968
(dp969
g752
S'add_permanent'
p970
sg754
S''
sg756
S'votes'
p971
sg758
F10
sg759
F1
sg760
F1
sg761
S'Votes Restore Ad'
p972
sg763
S'TRUE'
p973
sbasg765
I1
sg766
F0
sg761
g962
sg767
S'Run Advertisement'
p974
sbsS'PROTEST'
p975
g1
(g10
g3
NtRp976
(dp977
g735
F5
sg736
S'asdf'
p978
sg738
F6
sg739
F10
sg740
F2
sg741
S'Cunning'
p979
sg743
S'AllEnemy'
p980
sg745
F2
sg746
I0
sg747
(lp981
sg765
I1
sg766
F8
sg761
g975
sg767
S'Protest'
p982
sbsS'SPREADRUMOUR'
p983
g1
(g10
g3
NtRp984
(dp985
g735
F6
sg736
S'asdf'
p986
sg738
I1
sg739
F10
sg740
F2
sg741
S'Wit'
p987
sg743
S'AllEnemy'
p988
sg745
F2
sg746
F3
sg747
(lp989
sg765
I4
sg766
F8
sg761
g983
sg767
S'Spread Rumour'
p990
sbsS'AGENDA'
p991
g1
(g10
g3
NtRp992
(dp993
g735
F5
sg736
S'asdf'
p994
sg738
F6
sg739
F10
sg740
F2
sg741
S'Cunning'
p995
sg743
S'AllEnemy'
p996
sg745
F2
sg746
I0
sg747
(lp997
sg765
I1
sg766
F8
sg761
g991
sg767
S'Push Agenda'
p998
sbsS'FILIBUSTER'
p999
g1
(g10
g3
NtRp1000
(dp1001
g735
F0
sg736
S"You're not moving until they give in. Cause all opposition to miss their turn"
p1002
sg738
I1
sg739
F0
sg740
F0
sg741
S'Wit'
p1003
sg743
S'AllEnemy'
p1004
sg745
F0
sg746
F8
sg747
(lp1005
g1
(g749
g3
NtRp1006
(dp1007
g752
S'miss_turn'
p1008
sg754
S'(MISS)'
p1009
sg756
S''
sg758
F0
sg759
F1
sg760
F1
sg761
S'Miss Turn'
p1010
sg763
S''
sbasg765
I1
sg766
F0
sg761
g999
sg767
S'Filibuster'
p1011
sbsS'GATHERINTEL'
p1012
g1
(g10
g3
NtRp1013
(dp1014
g735
F0
sg736
S'Increases Cunning.'
p1015
sg738
I1
sg739
F0
sg740
F0
sg741
S'Wit'
p1016
sg743
S'AllFriendly'
p1017
sg745
F0
sg746
F3
sg747
(lp1018
g750
asg765
I2
sg766
F0
sg761
g1012
sg767
S'Gather Intelligence'
p1019
sbsS'LOVE'
p1020
g1
(g10
g3
NtRp1021
(dp1022
g735
F6
sg736
S'asdf'
p1023
sg738
F2
sg739
F8
sg740
F2
sg741
S'Cunning'
p1024
sg743
S'AllEnemy'
p1025
sg745
F1
sg746
I0
sg747
(lp1026
sg765
I1
sg766
F7
sg761
g1020
sg767
S'Love'
p1027
sbsS'OUTOFCONTEXT'
p1028
g1
(g10
g3
NtRp1029
(dp1030
g735
F3
sg736
S'asdf'
p1031
sg738
I1
sg739
F5
sg740
F2
sg741
S'Wit'
p1032
sg743
S'AllEnemy'
p1033
sg745
F2
sg746
F2
sg747
(lp1034
g955
asg765
I1
sg766
F5
sg761
g1028
sg767
S'Take Out Of Context'
p1035
sbsS'GREATSUIT'
p1036
g1
(g10
g3
NtRp1037
(dp1038
g735
F6
sg736
S'Well, we could argue, but have you noticed how fabulous this suit is?'
p1039
sg738
I1
sg739
F11
sg740
F6
sg741
S'Cunning'
p1040
sg743
S'AllEnemy'
p1041
sg745
F3
sg746
I0
sg747
(lp1042
sg765
I1
sg766
F12
sg761
g1036
sg767
S'Look Great In Suit'
p1043
sbsS'PEACE'
p1044
g1
(g10
g3
NtRp1045
(dp1046
g735
F0
sg736
S'asdf'
p1047
sg738
I1
sg739
F0
sg740
F0
sg741
S'Wit'
p1048
sg743
S'AllEnemy'
p1049
sg745
F0
sg746
F3
sg747
(lp1050
g907
asg765
I4
sg766
F0
sg761
g1044
sg767
S'Peace'
p1051
sbsS'INSPSPEECH'
p1052
g1
(g10
g3
NtRp1053
(dp1054
g735
F-2
sg736
S'Restore votes to all party members'
p1055
sg738
I1
sg739
F0
sg740
F0
sg741
S'Cunning'
p1056
sg743
S'AllFriendly'
p1057
sg745
F-2
sg746
I0
sg747
(lp1058
sg765
I4
sg766
F0
sg761
g1052
sg767
S'Inspirational Speech'
p1059
sbsS'STRIKE'
p1060
g1
(g10
g3
NtRp1061
(dp1062
g735
F8
sg736
S'asdf'
p1063
sg738
I1
sg739
F0
sg740
F0
sg741
S'Wit'
p1064
sg743
S'AllEnemy'
p1065
sg745
F0
sg746
F3
sg747
(lp1066
g784
asg765
I1
sg766
F0
sg761
g1060
sg767
S'Call A Strike'
p1067
sbsS'SLANDER'
p1068
g1
(g10
g3
NtRp1069
(dp1070
g735
F3
sg736
S'Strong against polititians...careful with those voters, though!'
p1071
sg738
F4
sg739
F10
sg740
F2
sg741
S'Wit'
p1072
sg743
S'AllEnemy'
p1073
sg745
F2
sg746
I0
sg747
(lp1074
g955
asg765
I1
sg766
F5
sg761
g1068
sg767
S'Slander Opposition'
p1075
sbsS'NATTER'
p1076
g1
(g10
g3
NtRp1077
(dp1078
g735
F8
sg736
S'asdf'
p1079
sg738
I1
sg739
F15
sg740
F5
sg741
S'Cunning'
p1080
sg743
S'AllEnemy'
p1081
sg745
F1
sg746
I0
sg747
(lp1082
sg765
I1
sg766
F10
sg761
g1076
sg767
S'Natter On'
p1083
sbsS'GOSSIP'
p1084
g1
(g10
g3
NtRp1085
(dp1086
g735
F3
sg736
S'asdf'
p1087
sg738
I1
sg739
F10
sg740
F2
sg741
S'Wit'
p1088
sg743
S'AllEnemy'
p1089
sg745
F1
sg746
F2
sg747
(lp1090
g907
asg765
I1
sg766
F6
sg761
g1084
sg767
S'Gossip'
p1091
sbsS'MISSTURN'
p1092
g1
(g10
g3
NtRp1093
(dp1094
g735
F0
sg736
S'asdf'
p1095
sg738
I1
sg739
F0
sg740
F0
sg741
S''
sg743
S'AllEnemy'
p1096
sg745
F0
sg746
I0
sg747
(lp1097
sg765
I1
sg766
F0
sg761
g1092
sg767
S'Miss Turn'
p1098
sbsS'BIELECTION'
p1099
g1
(g10
g3
NtRp1100
(dp1101
g735
F4
sg736
S'Redistribute votes amongst targets'
p1102
sg738
I1
sg739
F0
sg740
F0
sg741
S'Cunning'
p1103
sg743
S'All'
p1104
sg745
F-4
sg746
F4
sg747
(lp1105
sg765
I8
sg766
F0
sg761
g1099
sg767
S'Bielection'
p1106
sbsS'SCARE'
p1107
g1
(g10
g3
NtRp1108
(dp1109
g735
F7
sg736
S'Nothing rattles the brains like fear.'
p1110
sg738
I1
sg739
F10
sg740
F2
sg741
S'Wit'
p1111
sg743
S'AllEnemy'
p1112
sg745
F2
sg746
I0
sg747
(lp1113
g907
asg765
I2
sg766
F9
sg761
g1107
sg767
S'Scare Campaign'
p1114
sbsS'PAYOFF'
p1115
g1
(g10
g3
NtRp1116
(dp1117
g735
F7
sg736
S'causes them to miss a number of turns'
p1118
sg738
I1
sg739
F8
sg740
F2
sg741
S'Wit'
p1119
sg743
S'AllEnemy'
p1120
sg745
F2
sg746
F4
sg747
(lp1121
g1
(g749
g3
NtRp1122
(dp1123
g752
S'miss_turn'
p1124
sg754
S'(MISS)'
p1125
sg756
S''
sg758
F0
sg759
F1
sg760
F3
sg761
S'Miss Turn Pay Off'
p1126
sg763
S''
sbasg765
I1
sg766
F9
sg761
g1115
sg767
S'Pay Off'
p1127
sbsS'BUREAUCRACY'
p1128
g1
(g10
g3
NtRp1129
(dp1130
g735
F5
sg736
S'asdf'
p1131
sg738
F6
sg739
F10
sg740
F2
sg741
S'Cunning'
p1132
sg743
S'AllEnemy'
p1133
sg745
F2
sg746
I0
sg747
(lp1134
sg765
I1
sg766
F8
sg761
g1128
sg767
S'Bureaucracy'
p1135
sbsS'RALLYAUDIENCE'
p1136
g1
(g10
g3
NtRp1137
(dp1138
g735
F8
sg736
S'asdf'
p1139
sg738
I1
sg739
F0
sg740
F0
sg741
S'Wit'
p1140
sg743
S'AllFriendly'
p1141
sg745
F4
sg746
F3
sg747
(lp1142
g1
(g749
g3
NtRp1143
(dp1144
g752
S'add'
p1145
sg754
S'(INCREASE)'
p1146
sg756
S'charisma'
p1147
sg758
F2
sg759
F1
sg760
F4
sg761
S'Increase Charisma'
p1148
sg763
S'TRUE'
p1149
sbasg765
I1
sg766
F0
sg761
g1136
sg767
S'Rally Audience'
p1150
sbsS'PORKBARREL'
p1151
g1
(g10
g3
NtRp1152
(dp1153
g735
F6
sg736
S'Do something that benefits them specifically. Not advised against politicians.'
p1154
sg738
I1
sg739
F0
sg740
F0
sg741
S'Wit'
p1155
sg743
S'AllEnemy'
p1156
sg745
F2
sg746
F2
sg747
(lp1157
sg765
I1
sg766
F0
sg761
g1151
sg767
S'Pork Barrel'
p1158
sbsS'INSPIRE'
p1159
g1
(g10
g3
NtRp1160
(dp1161
g735
F0
sg736
S'asdf'
p1162
sg738
I1
sg739
F0
sg740
F0
sg741
S'Wit'
p1163
sg743
S'AllFriendly'
p1164
sg745
F0
sg746
F3
sg747
(lp1165
g750
asg765
I4
sg766
F0
sg761
g1159
sg767
S'Inspire'
p1166
sbsS'JOKE'
p1167
g1
(g10
g3
NtRp1168
(dp1169
g735
F3
sg736
S"Ha, ha, ha...what were we talking about? Diffuse the situation with some humour. Not good if it falls flat, but if they get it, it'll knock 'em dead."
p1170
sg738
F3
sg739
F30
sg740
F10
sg741
S'Wit'
p1171
sg743
S'AllEnemy'
p1172
sg745
F2
sg746
I0
sg747
(lp1173
sg765
I1
sg766
F10
sg761
g1167
sg767
S'Joke'
p1174
sbsS'PRAYFORSOULS'
p1175
g1
(g10
g3
NtRp1176
(dp1177
g735
F6
sg736
S'asdf'
p1178
sg738
F2
sg739
F10
sg740
F2
sg741
S'Cunning'
p1179
sg743
S'None'
p1180
sg745
F3
sg746
I0
sg747
(lp1181
sg765
I1
sg766
F10
sg761
g1175
sg767
S'Pray'
p1182
sbsS'REVIVE'
p1183
g1
(g10
g3
NtRp1184
(dp1185
g735
F0
sg736
S'Revive a defeated comrade to half votes'
p1186
sg738
I1
sg739
F0
sg740
F0
sg741
S''
sg743
S'DeadFriendly'
p1187
sg745
F0
sg746
F3
sg747
(lp1188
g1
(g749
g3
NtRp1189
(dp1190
g752
S'revive'
p1191
sg754
S''
sg756
S''
sg758
F0.5
sg759
F0
sg760
F0
sg761
S'Revive'
p1192
sg763
S''
sbasg765
I1
sg766
F0
sg761
g1183
sg767
S'Revive'
p1193
sbsS'HUMANSHIELD'
p1194
g1
(g10
g3
NtRp1195
(dp1196
g735
F5
sg736
S'No further questions. Step back, please.'
p1197
sg738
I1
sg739
F5
sg740
F2
sg741
S'Wit'
p1198
sg743
S'AllEnemy'
p1199
sg745
F2
sg746
F4
sg747
(lp1200
g1006
asg765
I2
sg766
F12
sg761
g1194
sg767
S'Human Shield'
p1201
sbsS'MAKEDEMANDS'
p1202
g1
(g10
g3
NtRp1203
(dp1204
g735
F8
sg736
S'asdf'
p1205
sg738
I1
sg739
F0
sg740
F0
sg741
S'Cunning'
p1206
sg743
S'AllEnemy'
p1207
sg745
F0
sg746
I0
sg747
(lp1208
g784
asg765
I1
sg766
F0
sg761
g1202
sg767
S'Make Outrageous Demands'
p1209
sbsS'DEFENSE'
p1210
g1
(g10
g3
NtRp1211
(dp1212
g735
F0
sg736
S'Gather strenth; -50% to all incoming attacks'
p1213
sg738
I1
sg739
F0
sg740
F0
sg741
S''
sg743
S'None'
p1214
sg745
F0
sg746
I0
sg747
(lp1215
g1
(g749
g3
NtRp1216
(dp1217
g752
S'add'
p1218
sg754
S'(DFND)'
p1219
sg756
S'resistance'
p1220
sg758
F0.5
sg759
F1
sg760
F1
sg761
S'Defense'
p1221
sg763
S'TRUE'
p1222
sbasg765
I1
sg766
F0
sg761
g1210
sg767
S'Defense'
p1223
sbsS'MISCONSTRUE'
p1224
g1
(g10
g3
NtRp1225
(dp1226
g735
F8
sg736
S'asdf'
p1227
sg738
I1
sg739
F0
sg740
F0
sg741
S'Cunning'
p1228
sg743
S'AllEnemy'
p1229
sg745
F0
sg746
I0
sg747
(lp1230
g784
asg765
I1
sg766
F0
sg761
g1224
sg767
S'Misconstrue'
p1231
sbsS'NATIONALSECURITY'
p1232
g1
(g10
g3
NtRp1233
(dp1234
g735
F7
sg736
S"This is a matter of national security and they don't have codeword clearance"
p1235
sg738
I1
sg739
F10
sg740
F2
sg741
S'Cunning'
p1236
sg743
S'AllEnemy'
p1237
sg745
F2
sg746
I0
sg747
(lp1238
sg765
I1
sg766
F9
sg761
g1232
sg767
S'National Security'
p1239
sbsS'RALLY'
p1240
g1
(g10
g3
NtRp1241
(dp1242
g735
F-2
sg736
S'Get back some votes by rallying supporters'
p1243
sg738
F5
sg739
F0
sg740
F0
sg741
S'Wit'
p1244
sg743
S'AllFriendly'
p1245
sg745
F-4
sg746
F2
sg747
(lp1246
g942
asg765
I1
sg766
F0
sg761
g1240
sg767
S'Rally Constituents'
p1247
sbsS'MESSAGE'
p1248
g1
(g10
g3
NtRp1249
(dp1250
g735
F5
sg736
S'You can certainly wear them down by repeating your party line over and over and over...if you want'
p1251
sg738
F6
sg739
F10
sg740
F2
sg741
S'Wit'
p1252
sg743
S'AllEnemy'
p1253
sg745
F2
sg746
I0
sg747
(lp1254
sg765
I1
sg766
F8
sg761
g1248
sg767
S'Stay On Message'
p1255
sbsS'APPEALTOGOD'
p1256
g1
(g10
g3
NtRp1257
(dp1258
g735
F6
sg736
S'asdf'
p1259
sg738
F3
sg739
F0
sg740
F0
sg741
S'Wit'
p1260
sg743
S'AllEnemy'
p1261
sg745
F4
sg746
F7
sg747
(lp1262
sg765
I4
sg766
F0
sg761
g1256
sg767
S'Appeal To God'
p1263
sbssS'levels'
p1264
(lp1265
g1
(g10
g3
NtRp1266
(dp1267
S'votes'
p1268
F10
sS'level'
p1269
F1
sS'spin'
p1270
F5
sS'xp'
p1271
F0
sS'skill_points'
p1272
F0
sbag1
(g10
g3
NtRp1273
(dp1274
g1268
F12
sg1269
F2
sg1270
F5
sg1271
F100
sg1272
F2
sbag1
(g10
g3
NtRp1275
(dp1276
g1268
F15
sg1269
F3
sg1270
F6
sg1271
F200
sg1272
F2
sbag1
(g10
g3
NtRp1277
(dp1278
g1268
F20
sg1269
F4
sg1270
F6
sg1271
F500
sg1272
F2
sbag1
(g10
g3
NtRp1279
(dp1280
g1268
F25
sg1269
F5
sg1270
F7
sg1271
F1000
sg1272
F2
sbag1
(g10
g3
NtRp1281
(dp1282
g1268
F30
sg1269
F6
sg1270
F7
sg1271
F2000
sg1272
F2
sbag1
(g10
g3
NtRp1283
(dp1284
g1268
F35
sg1269
F7
sg1270
F8
sg1271
F5000
sg1272
F2
sbag1
(g10
g3
NtRp1285
(dp1286
g1268
F40
sg1269
F8
sg1270
F8
sg1271
F10000
sg1272
F2
sbag1
(g10
g3
NtRp1287
(dp1288
g1268
F45
sg1269
F9
sg1270
F9
sg1271
F15000
sg1272
F2
sbag1
(g10
g3
NtRp1289
(dp1290
g1268
F50
sg1269
F10
sg1270
F9
sg1271
F20000
sg1272
F2
sbag1
(g10
g3
NtRp1291
(dp1292
g1268
F55
sg1269
F11
sg1270
F10
sg1271
F40000
sg1272
F2
sbag1
(g10
g3
NtRp1293
(dp1294
g1268
S''
sg1269
F12
sg1270
S''
sg1271
S''
sg1272
S''
sbag1
(g10
g3
NtRp1295
(dp1296
g1268
S''
sg1269
F13
sg1270
S''
sg1271
S''
sg1272
S''
sbag1
(g10
g3
NtRp1297
(dp1298
g1268
S''
sg1269
F14
sg1270
S''
sg1271
S''
sg1272
S''
sbag1
(g10
g3
NtRp1299
(dp1300
g1268
S''
sg1269
F15
sg1270
S''
sg1271
S''
sg1272
S''
sbag1
(g10
g3
NtRp1301
(dp1302
g1268
S''
sg1269
F16
sg1270
S''
sg1271
S''
sg1272
S''
sbag1
(g10
g3
NtRp1303
(dp1304
g1268
S''
sg1269
F17
sg1270
S''
sg1271
S''
sg1272
S''
sbag1
(g10
g3
NtRp1305
(dp1306
g1268
S''
sg1269
F18
sg1270
S''
sg1271
S''
sg1272
S''
sbag1
(g10
g3
NtRp1307
(dp1308
g1268
S''
sg1269
F19
sg1270
S''
sg1271
S''
sg1272
S''
sbag1
(g10
g3
NtRp1309
(dp1310
g1268
S''
sg1269
F20
sg1270
S''
sg1271
S''
sg1272
S''
sbag1
(g10
g3
NtRp1311
(dp1312
g1268
S''
sg1269
F21
sg1270
S''
sg1271
S''
sg1272
S''
sbag1
(g10
g3
NtRp1313
(dp1314
g1268
S''
sg1269
F22
sg1270
S''
sg1271
S''
sg1272
S''
sbag1
(g10
g3
NtRp1315
(dp1316
g1268
S''
sg1269
F23
sg1270
S''
sg1271
S''
sg1272
S''
sbag1
(g10
g3
NtRp1317
(dp1318
g1268
S''
sg1269
F24
sg1270
S''
sg1271
S''
sg1272
S''
sbag1
(g10
g3
NtRp1319
(dp1320
g1268
S''
sg1269
F25
sg1270
S''
sg1271
S''
sg1272
S''
sbag1
(g10
g3
NtRp1321
(dp1322
g1268
S''
sg1269
F26
sg1270
S''
sg1271
S''
sg1272
S''
sbag1
(g10
g3
NtRp1323
(dp1324
g1268
S''
sg1269
F27
sg1270
S''
sg1271
S''
sg1272
S''
sbag1
(g10
g3
NtRp1325
(dp1326
g1268
S''
sg1269
F28
sg1270
S''
sg1271
S''
sg1272
S''
sbag1
(g10
g3
NtRp1327
(dp1328
g1268
S''
sg1269
F29
sg1270
S''
sg1271
S''
sg1272
S''
sbasg747
(dp1329
g762
g750
sg857
g853
sg932
g928
sg1148
g1143
sg1010
g1006
sg946
g942
sg972
g968
sg1126
g1122
sg1192
g1189
sg912
g907
sg960
g955
sg1221
g1216
sg788
g784
sg803
g798
ssS'characters'
p1330
(dp1331
S'Teacher001'
p1332
(lp1333
g1
(g10
g3
NtRp1334
(dp1335
S'flair_base'
p1336
F1
sS'spin_base'
p1337
F4
sS'flair_lvl'
p1338
F1.1499999999999999
sS'wit_base'
p1339
F1
sS'resistance'
p1340
(lp1341
sS'wit_lvl'
p1342
F1.0900000000000001
sS'cunning_base'
p1343
F1
sg761
g1332
sS'votes_base'
p1344
F10
sS'speed_lvl'
p1345
F1.0800000000000001
sS'standard_attacks'
p1346
(lp1347
g1211
ag976
asS'cunning_lvl'
p1348
F1.1000000000000001
sS'charisma_lvl'
p1349
F1.1499999999999999
sS'spin_attacks'
p1350
(lp1351
g1061
ag1241
asS'spin_lvl'
p1352
F1.0800000000000001
sS'charisma_base'
p1353
F1
sS'weaknesses'
p1354
(lp1355
sS'attack_group'
p1356
S'Teacher'
p1357
sS'votes_lvl'
p1358
F1.2
sg767
S'Teacher'
p1359
sS'speed_base'
p1360
F1
sS'immunities'
p1361
(lp1362
sbasS'Politician001'
p1363
(lp1364
g1
(g10
g3
NtRp1365
(dp1366
g1336
F1
sg1337
F4
sg1338
F1.1499999999999999
sg1339
F1
sg1340
(lp1367
g778
asg1342
F1.0900000000000001
sg1343
F1
sg761
g1363
sg1344
F10
sg1345
F1.0800000000000001
sg1346
(lp1368
g1249
ag1069
ag778
ag1168
ag1211
asg1348
F1.1000000000000001
sg1349
F1.1499999999999999
sg1350
(lp1369
g1100
ag893
ag1184
asg1352
F1.0800000000000001
sg1353
F1
sg1354
(lp1370
g861
asg1356
S'Politician'
p1371
sg1358
F1.2
sg767
S'Politician'
p1372
sg1360
F1
sg1361
(lp1373
g1152
asbasS'SecretAgent'
p1374
(lp1375
g1
(g10
g3
NtRp1376
(dp1377
g1336
F1
sg1337
F4
sg1338
F1.1499999999999999
sg1339
F1
sg1340
(lp1378
sg1342
F1.0900000000000001
sg1343
F1
sg761
g1374
sg1344
F18
sg1345
F1.0800000000000001
sg1346
(lp1379
g1211
ag1233
ag1037
asg1348
F1.1000000000000001
sg1349
F1.1499999999999999
sg1350
(lp1380
g1195
ag1013
asg1352
F1.0800000000000001
sg1353
F1
sg1354
(lp1381
sg1356
S'SecretAgent'
p1382
sg1358
F1.2
sg767
S'Agent Kawalski'
p1383
sg1360
F1
sg1361
(lp1384
sbasS'Bumpkin001'
p1385
(lp1386
g1
(g10
g3
NtRp1387
(dp1388
g1336
F1
sg1337
F4
sg1338
F1.1499999999999999
sg1339
F1
sg1340
(lp1389
sg1342
F1.0900000000000001
sg1343
F1
sg761
g1385
sg1344
F10
sg1345
F1.0800000000000001
sg1346
(lp1390
g1168
ag915
asg1348
F1.1000000000000001
sg1349
F1.1499999999999999
sg1350
(lp1391
g877
ag984
asg1352
F1.0800000000000001
sg1353
F1
sg1354
(lp1392
g778
ag1069
ag1108
asg1356
S'Bumpkin'
p1393
sg1358
F1.2
sg767
S'Bumpkin'
p1394
sg1360
F1
sg1361
(lp1395
sbasS'WarVet001'
p1396
(lp1397
g1
(g10
g3
NtRp1398
(dp1399
g1336
F1
sg1337
F4
sg1338
F1.1499999999999999
sg1339
F1
sg1340
(lp1400
sg1342
F1.0900000000000001
sg1343
F1
sg761
g1396
sg1344
F10
sg1345
F1.0800000000000001
sg1346
(lp1401
g1203
ag1211
asg1348
F1.1000000000000001
sg1349
F1.1499999999999999
sg1350
(lp1402
g1160
ag1241
asg1352
F1.0800000000000001
sg1353
F1
sg1354
(lp1403
sg1356
S'WarVet'
p1404
sg1358
F1.2
sg767
S'War Veteran'
p1405
sg1360
F1
sg1361
(lp1406
sbasS'Receptionist001'
p1407
(lp1408
g1
(g10
g3
NtRp1409
(dp1410
g1336
F1
sg1337
F4
sg1338
F1.1499999999999999
sg1339
F1
sg1340
(lp1411
sg1342
F1.0900000000000001
sg1343
F1
sg761
g1407
sg1344
F10
sg1345
F1.0800000000000001
sg1346
(lp1412
g1129
ag1077
asg1348
F1.1000000000000001
sg1349
F1.1499999999999999
sg1350
(lp1413
g1085
ag847
asg1352
F1.0800000000000001
sg1353
F1
sg1354
(lp1414
sg1356
S'Receptionist'
p1415
sg1358
F1.2
sg767
S'Receptionist'
p1416
sg1360
F1
sg1361
(lp1417
sbasS'DeepThroat'
p1418
(lp1419
g1
(g10
g3
NtRp1420
(dp1421
g1336
F1
sg1337
F4
sg1338
F1.1499999999999999
sg1339
F1
sg1340
(lp1422
sg1342
F1.0900000000000001
sg1343
F1
sg761
g1418
sg1344
F10
sg1345
F1.0800000000000001
sg1346
(lp1423
g1069
ag1211
ag1203
asg1348
F1.1000000000000001
sg1349
F1.1499999999999999
sg1350
(lp1424
g949
asg1352
F1.0800000000000001
sg1353
F1
sg1354
(lp1425
sg1356
S'DeepThroat'
p1426
sg1358
F1.2
sg767
S'Deep Throat'
p1427
sg1360
F1
sg1361
(lp1428
sbasS'Leo'
p1429
(lp1430
g1
(g10
g3
NtRp1431
(dp1432
g1336
F1
sg1337
F4
sg1338
F1.1499999999999999
sg1339
F1
sg1340
(lp1433
sg1342
F1.0900000000000001
sg1343
F1
sg761
g1429
sg1344
F14
sg1345
F1.0800000000000001
sg1346
(lp1434
g1249
ag1069
ag778
ag1168
ag861
asg1348
F1.1000000000000001
sg1349
F1.1499999999999999
sg1350
(lp1435
g1100
ag893
ag1152
ag1000
asg1352
F1.0800000000000001
sg1353
F1
sg1354
(lp1436
sg1356
S'Theo'
p1437
sg1358
F1.2
sg767
S'Theo'
p1438
sg1360
F1
sg1361
(lp1439
sbasS'HippyGirl001'
p1440
(lp1441
g1
(g10
g3
NtRp1442
(dp1443
g1336
F1
sg1337
F4
sg1338
F1.1499999999999999
sg1339
F1
sg1340
(lp1444
sg1342
F1.0900000000000001
sg1343
F1
sg761
g1440
sg1344
F10
sg1345
F1.0800000000000001
sg1346
(lp1445
g869
ag976
ag1021
asg1348
F1.1000000000000001
sg1349
F1.1499999999999999
sg1350
(lp1446
g1045
ag1241
ag1184
asg1352
F1.0800000000000001
sg1353
F1
sg1354
(lp1447
g1168
asg1356
S'Hippy'
p1448
sg1358
F1.2
sg767
S'Hippy Girl'
p1449
sg1360
F1
sg1361
(lp1450
sbasS'President'
p1451
(lp1452
g1
(g10
g3
NtRp1453
(dp1454
g1336
F1
sg1337
F4
sg1338
F1.1499999999999999
sg1339
F1
sg1340
(lp1455
sg1342
F1.0900000000000001
sg1343
F1
sg761
g1451
sg1344
F10
sg1345
F1.0800000000000001
sg1346
(lp1456
g1249
ag1069
ag778
ag1168
ag1211
asg1348
F1.1000000000000001
sg1349
F1.1499999999999999
sg1350
(lp1457
g1100
ag893
ag1184
asg1352
F1.0800000000000001
sg1353
F1
sg1354
(lp1458
sg1356
S'Politician'
p1459
sg1358
F1.2
sg767
S'President Allen'
p1460
sg1360
F1
sg1361
(lp1461
sbasS'Unionist001'
p1462
(lp1463
g1
(g10
g3
NtRp1464
(dp1465
g1336
F1
sg1337
F4
sg1338
F1.1499999999999999
sg1339
F1
sg1340
(lp1466
sg1342
F1.0900000000000001
sg1343
F1
sg761
g1462
sg1344
F10
sg1345
F1.0800000000000001
sg1346
(lp1467
g1203
ag1211
ag976
asg1348
F1.1000000000000001
sg1349
F1.1499999999999999
sg1350
(lp1468
g1061
asg1352
F1.0800000000000001
sg1353
F1
sg1354
(lp1469
sg1356
S'Unionist'
p1470
sg1358
F1.2
sg767
S'Unionist'
p1471
sg1360
F1
sg1361
(lp1472
sbasS'Wife'
p1473
(lp1474
g1
(g10
g3
NtRp1475
(dp1476
g1336
F1
sg1337
F4
sg1338
F1.1499999999999999
sg1339
F1
sg1340
(lp1477
sg1342
F1.0900000000000001
sg1343
F1
sg761
g1473
sg1344
F12
sg1345
F1.0800000000000001
sg1346
(lp1478
g1211
ag1249
asg1348
F1.1000000000000001
sg1349
F1.1499999999999999
sg1350
(lp1479
g1241
ag1184
ag901
asg1352
F1.0800000000000001
sg1353
F1
sg1354
(lp1480
sg1356
S'Wife'
p1481
sg1358
F1.2
sg767
S'Sarah Mossman'
p1482
sg1360
F1
sg1361
(lp1483
sbasS'PresidentAlien'
p1484
(lp1485
g1
(g10
g3
NtRp1486
(dp1487
g1336
F1
sg1337
F4
sg1338
F1.1499999999999999
sg1339
F1
sg1340
(lp1488
sg1342
F1.0900000000000001
sg1343
F1
sg761
g1484
sg1344
F10
sg1345
F1.0800000000000001
sg1346
(lp1489
g1249
ag1069
ag778
ag1168
ag1211
asg1348
F1.1000000000000001
sg1349
F1.1499999999999999
sg1350
(lp1490
g1100
ag893
ag1184
asg1352
F1.0800000000000001
sg1353
F1
sg1354
(lp1491
sg1356
S'Politician'
p1492
sg1358
F1.2
sg767
S'President Alien'
p1493
sg1360
F1
sg1361
(lp1494
sbasS'Governor'
p1495
(lp1496
g1
(g10
g3
NtRp1497
(dp1498
g1336
F1
sg1337
F4
sg1338
F1.1499999999999999
sg1339
F1
sg1340
(lp1499
sg1342
F1.0900000000000001
sg1343
F1
sg761
g1495
sg1344
F10
sg1345
F1.0800000000000001
sg1346
(lp1500
g1249
ag1069
ag778
ag1168
ag1211
asg1348
F1.1000000000000001
sg1349
F1.1499999999999999
sg1350
(lp1501
g1100
ag893
ag1184
asg1352
F1.0800000000000001
sg1353
F1
sg1354
(lp1502
sg1356
S'Politician'
p1503
sg1358
F1.2
sg767
g1495
sg1360
F1
sg1361
(lp1504
sbasS'Lobbyist001'
p1505
(lp1506
g1
(g10
g3
NtRp1507
(dp1508
g1336
F1
sg1337
F4
sg1338
F1.1499999999999999
sg1339
F1
sg1340
(lp1509
sg1342
F1.0900000000000001
sg1343
F1
sg761
g1505
sg1344
F10
sg1345
F1.0800000000000001
sg1346
(lp1510
g992
ag1203
asg1348
F1.1000000000000001
sg1349
F1.1499999999999999
sg1350
(lp1511
g1116
ag949
asg1352
F1.0800000000000001
sg1353
F1
sg1354
(lp1512
g1152
asg1356
S'Lobbyist'
p1513
sg1358
F1.2
sg767
S'Lobbyist'
p1514
sg1360
F1
sg1361
(lp1515
g861
asbasS'Journalist001'
p1516
(lp1517
g1
(g10
g3
NtRp1518
(dp1519
g1336
F1
sg1337
F4
sg1338
F1.1499999999999999
sg1339
F1
sg1340
(lp1520
sg1342
F1.0900000000000001
sg1343
F1
sg761
g1516
sg1344
F10
sg1345
F1.0800000000000001
sg1346
(lp1521
g831
ag1225
asg1348
F1.1000000000000001
sg1349
F1.1499999999999999
sg1350
(lp1522
g1029
ag733
ag807
asg1352
F1.0800000000000001
sg1353
F1
sg1354
(lp1523
sg1356
S'Journalist'
p1524
sg1358
F1.2
sg767
S'Journalist'
p1525
sg1360
F1
sg1361
(lp1526
sbasS'ReligiousNut001'
p1527
(lp1528
g1
(g10
g3
NtRp1529
(dp1530
g1336
F1
sg1337
F4
sg1338
F1.1499999999999999
sg1339
F1
sg1340
(lp1531
sg1342
F1.0900000000000001
sg1343
F1
sg761
g1527
sg1344
F10
sg1345
F1.0800000000000001
sg1346
(lp1532
g815
ag1176
ag1211
asg1348
F1.1000000000000001
sg1349
F1.1499999999999999
sg1350
(lp1533
g1257
ag936
asg1352
F1.0800000000000001
sg1353
F1
sg1354
(lp1534
sg1356
S'Religious'
p1535
sg1358
F1.2
sg767
S'Religious Nut'
p1536
sg1360
F1
sg1361
(lp1537
g1168
asbasS'JointChief001'
p1538
(lp1539
g1
(g10
g3
NtRp1540
(dp1541
g1336
F1
sg1337
F4
sg1338
F1.1499999999999999
sg1339
F1
sg1340
(lp1542
sg1342
F1.0900000000000001
sg1343
F1
sg761
g1538
sg1344
F10
sg1345
F1.0800000000000001
sg1346
(lp1543
g1203
ag1211
ag1233
ag885
asg1348
F1.1000000000000001
sg1349
F1.1499999999999999
sg1350
(lp1544
g1013
asg1352
F1.0800000000000001
sg1353
F1
sg1354
(lp1545
sg1356
S'JointChief'
p1546
sg1358
F1.2
sg767
S'Joint Chief'
p1547
sg1360
F1
sg1361
(lp1548
sbasS'Protester001'
p1549
(lp1550
g1
(g10
g3
NtRp1551
(dp1552
g1336
F1
sg1337
F4
sg1338
F1.1499999999999999
sg1339
F1
sg1340
(lp1553
sg1342
F1.0900000000000001
sg1343
F1
sg761
g1549
sg1344
F10
sg1345
F1.0800000000000001
sg1346
(lp1554
g976
asg1348
F1.1000000000000001
sg1349
F1.1499999999999999
sg1350
(lp1555
g1241
asg1352
F1.0800000000000001
sg1353
F1
sg1354
(lp1556
sg1356
S'Protestor'
p1557
sg1358
F1.2
sg767
S'Protester'
p1558
sg1360
F1
sg1361
(lp1559
sbasS'TVPersonality001'
p1560
(lp1561
g1
(g10
g3
NtRp1562
(dp1563
g1336
F1
sg1337
F4
sg1338
F1.1499999999999999
sg1339
F1
sg1340
(lp1564
sg1342
F1.0900000000000001
sg1343
F1
sg761
g1560
sg1344
F10
sg1345
F1.0800000000000001
sg1346
(lp1565
g1168
ag831
asg1348
F1.1000000000000001
sg1349
F1.1499999999999999
sg1350
(lp1566
g807
ag792
asg1352
F1.0800000000000001
sg1353
F1
sg1354
(lp1567
sg1356
S'TVPersonality'
p1568
sg1358
F1.2
sg767
S"Hecules O'Grady"
p1569
sg1360
F1
sg1361
(lp1570
sbasS'Player'
p1571
(lp1572
g1
(g10
g3
NtRp1573
(dp1574
g1336
F1
sg1337
F5
sg1338
F1.1499999999999999
sg1339
F1
sg1340
(lp1575
sg1342
F1.0900000000000001
sg1343
F1
sg761
g1571
sg1344
F15
sg1345
F1.0800000000000001
sg1346
(lp1576
g861
ag1249
ag778
ag1168
asg1348
F1.1000000000000001
sg1349
F1.1499999999999999
sg1350
(lp1577
g1100
ag893
ag1241
asg1352
F1.0800000000000001
sg1353
F1
sg1354
(lp1578
sg1356
S'Player'
p1579
sg1358
F1.2
sg767
S'Phillip Mossman'
p1580
sg1360
F2
sg1361
(lp1581
sbasS'Computer'
p1582
(lp1583
g1
(g10
g3
NtRp1584
(dp1585
g1336
F1
sg1337
F4
sg1338
F1.1499999999999999
sg1339
F1
sg1340
(lp1586
sg1342
F1.0900000000000001
sg1343
F1
sg761
g1582
sg1344
F10
sg1345
F1.0800000000000001
sg1346
(lp1587
g1249
ag1069
ag778
ag1168
ag1211
asg1348
F1.1000000000000001
sg1349
F1.1499999999999999
sg1350
(lp1588
g1100
ag893
ag1184
asg1352
F1.0800000000000001
sg1353
F1
sg1354
(lp1589
sg1356
S'Politician'
p1590
sg1358
F1.2
sg767
S'N.O.T.B.A.D'
p1591
sg1360
F1
sg1361
(lp1592
sbasS'CabinetPolitician001'
p1593
(lp1594
g1
(g10
g3
NtRp1595
(dp1596
g1336
F1
sg1337
F4
sg1338
F1.1499999999999999
sg1339
F1
sg1340
(lp1597
sg1342
F1.0900000000000001
sg1343
F1
sg761
g1593
sg1344
F10
sg1345
F1.0800000000000001
sg1346
(lp1598
g1249
ag1069
ag778
ag1168
ag1211
asg1348
F1.1000000000000001
sg1349
F1.1499999999999999
sg1350
(lp1599
g1100
ag893
ag1184
asg1352
F1.0800000000000001
sg1353
F1
sg1354
(lp1600
sg1356
S'Politician'
p1601
sg1358
F1.2
sg767
S'Cabinet Politician'
p1602
sg1360
F1
sg1361
(lp1603
sbasS'Constituent001'
p1604
(lp1605
g1
(g10
g3
NtRp1606
(dp1607
g1336
F1
sg1337
F4
sg1338
F1.1499999999999999
sg1339
F1
sg1340
(lp1608
sg1342
F1.0900000000000001
sg1343
F1
sg761
g1604
sg1344
F10
sg1345
F1.0800000000000001
sg1346
(lp1609
g976
ag992
ag1203
asg1348
F1.1000000000000001
sg1349
F1.1499999999999999
sg1350
(lp1610
g1184
asg1352
F1.0800000000000001
sg1353
F1
sg1354
(lp1611
sg1356
S'Constituent'
p1612
sg1358
F1.2
sg767
S'Constituent'
p1613
sg1360
F1
sg1361
(lp1614
sbasS'Mayor'
p1615
(lp1616
g1
(g10
g3
NtRp1617
(dp1618
g1336
F1
sg1337
F4
sg1338
F1.1499999999999999
sg1339
F1
sg1340
(lp1619
sg1342
F1.0900000000000001
sg1343
F1
sg761
g1615
sg1344
F10
sg1345
F1.0800000000000001
sg1346
(lp1620
g1249
ag1069
ag778
ag1168
ag1211
asg1348
F1.1000000000000001
sg1349
F1.1499999999999999
sg1350
(lp1621
g1100
ag893
ag1184
asg1352
F1.0800000000000001
sg1353
F1
sg1354
(lp1622
sg1356
S'Politician'
p1623
sg1358
F1.2
sg767
S'Mayor Goodman'
p1624
sg1360
F1
sg1361
(lp1625
sbassS'quest_items'
p1626
(dp1627
S'PEN'
p1628
g1
(g10
g3
NtRp1629
(dp1630
g736
S'Hairy.'
p1631
sg761
g1628
sg767
S'A pen'
p1632
sbsS'BILLOFRIGHTS'
p1633
g1
(g10
g3
NtRp1634
(dp1635
g736
S''
sg761
g1633
sg767
S"Citizens' Bill of Rights"
p1636
sbssg1346
(dp1637
S'Theo'
p1638
(lp1639
g1249
ag1069
ag778
ag1168
ag861
ag1100
ag893
ag1152
ag1000
asS'JointChief'
p1640
(lp1641
g1203
ag1211
ag1233
ag1013
ag885
asS'Politician'
p1642
(lp1643
g1249
ag1069
ag778
ag1168
ag1100
ag893
ag1184
ag1211
asS'Bumpkin'
p1644
(lp1645
g1168
ag877
ag984
ag915
asS'TVPersonality'
p1646
(lp1647
g1168
ag807
ag831
ag792
asS'SecretAgent'
p1648
(lp1649
g1211
ag1195
ag1233
ag1013
ag1037
asS'DeepThroat'
p1650
(lp1651
g1069
ag1211
ag949
ag1203
asS'Protestor'
p1652
(lp1653
g1241
ag976
asS'Lobbyist'
p1654
(lp1655
g992
ag1116
ag949
ag1203
asS'Teacher'
p1656
(lp1657
g1061
ag1211
ag976
ag1241
asS'Player'
p1658
(lp1659
g861
ag1249
ag778
ag1168
ag1100
ag893
ag1241
asS'Computer'
p1660
(lp1661
g1013
ag1233
ag839
ag949
ag1203
ag1069
asS'Receptionist'
p1662
(lp1663
g1129
ag1077
ag1085
ag847
asS'Hippy'
p1664
(lp1665
g869
ag976
ag1021
ag1045
ag1241
ag1184
asS'Constituent'
p1666
(lp1667
g976
ag1184
ag992
ag1203
asS'Wife'
p1668
(lp1669
g1241
ag1184
ag1211
ag1249
ag901
asS'WarVet'
p1670
(lp1671
g1203
ag1211
ag1160
ag1241
asS'Religious'
p1672
(lp1673
g815
ag1257
ag936
ag1176
ag1211
asS'Unionist'
p1674
(lp1675
g1203
ag1211
ag976
ag1061
asS'Journalist'
p1676
(lp1677
g831
ag1225
ag1029
ag733
ag807
assS'shops'
p1678
(dp1679
S'Shop1'
p1680
(lp1681
g1
(g10
g3
NtRp1682
(dp1683
S'price'
p1684
F20
sS'shop_id'
p1685
g1680
sS'item_attack'
p1686
g963
sbag1
(g10
g3
NtRp1687
(dp1688
g1684
F10
sg1685
S'Shop1'
p1689
sg1686
g923
sbag1
(g10
g3
NtRp1690
(dp1691
g1684
F30
sg1685
S'Shop1'
p1692
sg1686
g1053
sbassS'encounters'
p1693
(dp1694
S'P-easy-10'
p1695
g1
(g10
g3
NtRp1696
(dp1697
S'item_attack_drops'
p1698
(lp1699
sS'item_attacks'
p1700
(lp1701
sg767
S''
sg1271
F10
sS'monster2_lvl'
p1702
F1
sS'bribe_cost'
p1703
F109
sS'monster3'
p1704
S'Politician001'
p1705
sS'monster1_lvl'
p1706
F1
sS'monster3_lvl'
p1707
F1
sS'monster4_lvl'
p1708
S''
sS'monster4'
p1709
S''
sS'monster2'
p1710
S'Mayor'
p1711
sg761
g1695
sS'monster1'
p1712
S'Politician001'
p1713
sbsS'P-easy-05'
p1714
g1
(g10
g3
NtRp1715
(dp1716
g1698
(lp1717
g1
(c__main__
ItemAttack
p1718
g3
NtRp1719
(dp1720
S'attack'
p1721
g1053
sS'quantity'
p1722
I1
sbasg1700
(lp1723
sg767
S''
sg1271
F10
sg1702
S''
sg1703
F104
sg1704
S''
sg1706
F1
sg1707
S''
sg1708
S''
sg1709
S''
sg1710
S''
sg761
g1714
sg1712
S'Journalist001'
p1724
sbsS'P-easy-04'
p1725
g1
(g10
g3
NtRp1726
(dp1727
g1698
(lp1728
g1
(g1718
g3
NtRp1729
(dp1730
g1721
g923
sg1722
I1
sbasg1700
(lp1731
sg767
S''
sg1271
F10
sg1702
F1
sg1703
F103
sg1704
S'Protester001'
p1732
sg1706
F1
sg1707
F1
sg1708
S''
sg1709
S''
sg1710
S'Protester001'
p1733
sg761
g1725
sg1712
S'Protester001'
p1734
sbsS'P-easy-07'
p1735
g1
(g10
g3
NtRp1736
(dp1737
g1698
(lp1738
g1
(g1718
g3
NtRp1739
(dp1740
g1721
g923
sg1722
I1
sbasg1700
(lp1741
sg767
S''
sg1271
F10
sg1702
S''
sg1703
F106
sg1704
S''
sg1706
F1
sg1707
S''
sg1708
S''
sg1709
S''
sg1710
S''
sg761
g1735
sg1712
S'Constituent001'
p1742
sbsS'P-easy-06'
p1743
g1
(g10
g3
NtRp1744
(dp1745
g1698
(lp1746
g1
(g1718
g3
NtRp1747
(dp1748
g1721
g1184
sg1722
I1
sbasg1700
(lp1749
sg767
S''
sg1271
F10
sg1702
F1
sg1703
F105
sg1704
S''
sg1706
F1
sg1707
S''
sg1708
S''
sg1709
S''
sg1710
S'Lobbyist001'
p1750
sg761
g1743
sg1712
S'Lobbyist001'
p1751
sbsS'P-easy-01'
p1752
g1
(g10
g3
NtRp1753
(dp1754
g1698
(lp1755
g1
(g1718
g3
NtRp1756
(dp1757
g1721
g963
sg1722
I1
sbasg1700
(lp1758
g1
(g1718
g3
NtRp1759
(dp1760
g1721
g1053
sg1722
I1
sbasg767
S'The quest for pen'
p1761
sg1271
F10
sg1702
S''
sg1703
F100
sg1704
S''
sg1706
F1
sg1707
S''
sg1708
S''
sg1709
S''
sg1710
S''
sg761
g1752
sg1712
S'Receptionist001'
p1762
sbsS'P-easy-03'
p1763
g1
(g10
g3
NtRp1764
(dp1765
g1698
(lp1766
g1
(g1718
g3
NtRp1767
(dp1768
g1721
g963
sg1722
I1
sbasg1700
(lp1769
sg767
S''
sg1271
F10
sg1702
F1
sg1703
F102
sg1704
S''
sg1706
F1
sg1707
S''
sg1708
S''
sg1709
S''
sg1710
S'Protester001'
p1770
sg761
g1763
sg1712
S'Protester001'
p1771
sbsS'P-easy-02'
p1772
g1
(g10
g3
NtRp1773
(dp1774
g1698
(lp1775
sg1700
(lp1776
sg767
S''
sg1271
F10
sg1702
F1
sg1703
F101
sg1704
S''
sg1706
F1
sg1707
S''
sg1708
S''
sg1709
S''
sg1710
S'Protester001'
p1777
sg761
g1772
sg1712
S'Protester001'
p1778
sbsS'P-med-02'
p1779
g1
(g10
g3
NtRp1780
(dp1781
g1698
(lp1782
sg1700
(lp1783
sg767
S''
sg1271
F10
sg1702
F1
sg1703
F111
sg1704
S''
sg1706
F1
sg1707
S''
sg1708
S''
sg1709
S''
sg1710
S'Politician001'
p1784
sg761
g1779
sg1712
S'Politician001'
p1785
sbsS'P-med-01'
p1786
g1
(g10
g3
NtRp1787
(dp1788
g1698
(lp1789
sg1700
(lp1790
sg767
S''
sg1271
F10
sg1702
F1
sg1703
F110
sg1704
S''
sg1706
F1
sg1707
S''
sg1708
S''
sg1709
S''
sg1710
S'Politician001'
p1791
sg761
g1786
sg1712
S'Politician001'
p1792
sbsS'P-easy-09'
p1793
g1
(g10
g3
NtRp1794
(dp1795
g1698
(lp1796
g1
(g1718
g3
NtRp1797
(dp1798
g1721
g963
sg1722
I1
sbasg1700
(lp1799
sg767
S''
sg1271
F10
sg1702
F1
sg1703
F108
sg1704
S'Constituent001'
p1800
sg1706
F1
sg1707
F1
sg1708
S''
sg1709
S''
sg1710
S'Constituent001'
p1801
sg761
g1793
sg1712
S'Constituent001'
p1802
sbsS'P-easy-08'
p1803
g1
(g10
g3
NtRp1804
(dp1805
g1698
(lp1806
sg1700
(lp1807
sg767
S''
sg1271
F10
sg1702
F1
sg1703
F107
sg1704
S''
sg1706
F1
sg1707
S''
sg1708
S''
sg1709
S''
sg1710
S'Constituent001'
p1808
sg761
g1803
sg1712
S'Constituent001'
p1809
sbssb.