ccopy_reg
_reconstructor
p1
(c__main__
GameData
p2
c__builtin__
object
p3
NtRp4
(dp5
S'script'
p6
(dp7
S'_Act2'
p8
(lp9
g1
(c__main__
TableRow
p10
g3
NtRp11
(dp12
S'action'
p13
S'QuestName'
p14
sS'trigger'
p15
g8
sS'param'
p16
S''
sS'dialog'
p17
S'The quest for game'
p18
sbag1
(g10
g3
NtRp19
(dp20
g13
S'GotoMap'
p21
sg15
S'_Act2'
p22
sg16
S'act2'
p23
sg17
S''
sbasS'FlunkyTest'
p24
(lp25
g1
(g10
g3
NtRp26
(dp27
g13
S'LearnAttack'
p28
sg15
g24
sg16
S'SLANDER'
p29
sg17
S'...'
p30
sbag1
(g10
g3
NtRp31
(dp32
g13
S'GiveSpin'
p33
sg15
S'FlunkyTest'
p34
sg16
F2
sg17
S'Here is spin'
p35
sbag1
(g10
g3
NtRp36
(dp37
g13
S'GiveMoney'
p38
sg15
S'FlunkyTest'
p39
sg16
F100
sg17
S'Here is $100'
p40
sbag1
(g10
g3
NtRp41
(dp42
g13
S'RequireCount'
p43
sg15
S'FlunkyTest'
p44
sg16
S'FLUNKIES:3'
p45
sg17
S'Take out 3 flunkies'
p46
sbag1
(g10
g3
NtRp47
(dp48
g13
S'Say'
p49
sg15
S'FlunkyTest'
p50
sg16
S''
sg17
S'Thanks!'
p51
sbasS'Wife'
p52
(lp53
g1
(g10
g3
NtRp54
(dp55
g13
S'GotoMap'
p56
sg15
g52
sg16
S'act1'
p57
sg17
S''
sbag1
(g10
g3
NtRp58
(dp59
g13
S'_RequireFlag'
p60
sg15
S'Wife'
p61
sg16
S'GOHOMETOWIFE'
p62
sg17
S'What are you doing here, Phillip? You should be at work!'
p63
sbag1
(g10
g3
NtRp64
(dp65
g13
S'Say'
p66
sg15
S'Wife'
p67
sg16
S''
sg17
S'Welcome home, Phillip! How was your workday?'
p68
sbag1
(g10
g3
NtRp69
(dp70
g13
S'PlayerSay'
p71
sg15
S'Wife'
p72
sg16
S''
sg17
S'...'
p73
sbag1
(g10
g3
NtRp74
(dp75
g13
S'Say'
p76
sg15
S'Wife'
p77
sg16
S''
sg17
S"That good, huh? You know this isn't what you want. Why don't you strike out on your own?"
p78
sbag1
(g10
g3
NtRp79
(dp80
g13
S'PlayerSay'
p81
sg15
S'Wife'
p82
sg16
S''
sg17
S"I didn't think I knew where to start to be a Mayor, but Mayor Goodman makes it look easy."
p83
sbag1
(g10
g3
NtRp84
(dp85
g13
S'Say'
p86
sg15
S'Wife'
p87
sg16
S''
sg17
S"That's the spirit! You can do it! All you need is some money and support."
p88
sbag1
(g10
g3
NtRp89
(dp90
g13
S'PlayerSay'
p91
sg15
S'Wife'
p92
sg16
S''
sg17
S'Well...OK! Lets start with money. We need a sponsor.'
p93
sbag1
(g10
g3
NtRp94
(dp95
g13
S'Say'
p96
sg15
S'Wife'
p97
sg16
S''
sg17
S'OK, lets go get one!'
p98
sbag1
(g10
g3
NtRp99
(dp100
g13
S'AddAlly'
p101
sg15
S'Wife'
p102
sg16
S'Wife:1'
p103
sg17
S'Sarah Mossman Joins Your Political Party!'
p104
sbag1
(g10
g3
NtRp105
(dp106
g13
S'SetFlag'
p107
sg15
S'Wife'
p108
sg16
S'STARTSPONSOR'
p109
sg17
S''
sbag1
(g10
g3
NtRp110
(dp111
g13
S'Destroy'
p112
sg15
S'Wife'
p113
sg16
S''
sg17
S''
sbasS'Flunky2'
p114
(lp115
g1
(g10
g3
NtRp116
(dp117
g13
S'Increment'
p118
sg15
g114
sg16
S'FLUNKIES'
p119
sg17
S''
sbag1
(g10
g3
NtRp120
(dp121
g13
S'Say'
p122
sg15
S'Flunky2'
p123
sg16
S''
sg17
S'You talked to me'
p124
sbag1
(g10
g3
NtRp125
(dp126
g13
S'Destroy'
p127
sg15
S'Flunky2'
p128
sg16
S''
sg17
S''
sbasS'Flunky3'
p129
(lp130
g1
(g10
g3
NtRp131
(dp132
g13
S'LearnAttack'
p133
sg15
g129
sg16
S'SLANDER'
p134
sg17
S''
sbag1
(g10
g3
NtRp135
(dp136
g13
S'Encounter'
p137
sg15
S'Flunky3'
p138
sg16
S'P-easy-01'
p139
sg17
S''
sbag1
(g10
g3
NtRp140
(dp141
g13
S'Destroy'
p142
sg15
S'Flunky3'
p143
sg16
S''
sg17
S''
sbasS'Flunky1'
p144
(lp145
g1
(g10
g3
NtRp146
(dp147
g13
S'QuestName'
p148
sg15
g144
sg16
S''
sg17
S'Flunky quest'
p149
sbag1
(g10
g3
NtRp150
(dp151
g13
S'Increment'
p152
sg15
S'Flunky1'
p153
sg16
S'FLUNKIES'
p154
sg17
S''
sbag1
(g10
g3
NtRp155
(dp156
g13
S'Say'
p157
sg15
S'Flunky1'
p158
sg16
S''
sg17
S'You talked to me'
p159
sbag1
(g10
g3
NtRp160
(dp161
g13
S'Destroy'
p162
sg15
S'Flunky1'
p163
sg16
S''
sg17
S''
sbag1
(g10
g3
NtRp164
(dp165
g13
S'QuestName'
p166
sg15
S'Flunky1'
p167
sg16
S''
sg17
S'Flunky quest'
p168
sbasS'Protester2'
p169
(lp170
g1
(g10
g3
NtRp171
(dp172
g13
S'Say'
p173
sg15
g169
sg16
S''
sg17
S"Bees buzz, Mayors lie, who's this Phillip Mossman guy?"
p174
sbag1
(g10
g3
NtRp175
(dp176
g13
S'RequireFlag'
p177
sg15
S'Protester2'
p178
sg16
S'PROTESTORS'
p179
sg17
S''
sbag1
(g10
g3
NtRp180
(dp181
g13
S'Encounter'
p182
sg15
S'Protester2'
p183
sg16
S'P-easy-03'
p184
sg17
S''
sbag1
(g10
g3
NtRp185
(dp186
g13
S'Destroy'
p187
sg15
S'Protester2'
p188
sg16
S''
sg17
S''
sbasS'Protester1'
p189
(lp190
g1
(g10
g3
NtRp191
(dp192
g13
S'Say'
p193
sg15
g189
sg16
S''
sg17
S"Fee Fi Fo Fum, we think Mayor Goodman's Dumb!"
p194
sbag1
(g10
g3
NtRp195
(dp196
g13
S'RequireFlag'
p197
sg15
S'Protester1'
p198
sg16
S'PROTESTORS'
p199
sg17
S''
sbag1
(g10
g3
NtRp200
(dp201
g13
S'Encounter'
p202
sg15
S'Protester1'
p203
sg16
S'P-easy-02'
p204
sg17
S''
sbag1
(g10
g3
NtRp205
(dp206
g13
S'Destroy'
p207
sg15
S'Protester1'
p208
sg16
S''
sg17
S''
sbasS'Head Protester'
p209
(lp210
g1
(g10
g3
NtRp211
(dp212
g13
S'Say'
p213
sg15
g209
sg16
S''
sg17
S"I am the head protester. You'll never convince us to back down!"
p214
sbag1
(g10
g3
NtRp215
(dp216
g13
S'RequireFlag'
p217
sg15
S'Head Protester'
p218
sg16
S'PROTESTORS'
p219
sg17
S''
sbag1
(g10
g3
NtRp220
(dp221
g13
S'PlayerSay'
p222
sg15
S'Head Protester'
p223
sg16
S''
sg17
S'What are you protesting?'
p224
sbag1
(g10
g3
NtRp225
(dp226
g13
S'Say'
p227
sg15
S'Head Protester'
p228
sg16
S''
sg17
S'Er...Injustice!'
p229
sbag1
(g10
g3
NtRp230
(dp231
g13
S'PlayerSay'
p232
sg15
S'Head Protester'
p233
sg16
S''
sg17
S'Injustice against what?'
p234
sbag1
(g10
g3
NtRp235
(dp236
g13
S'Say'
p237
sg15
S'Head Protester'
p238
sg16
S''
sg17
S'...'
p239
sbag1
(g10
g3
NtRp240
(dp241
g13
S'Say'
p242
sg15
S'Head Protester'
p243
sg16
S''
sg17
S'The People!'
p244
sbag1
(g10
g3
NtRp245
(dp246
g13
S'PlayerSay'
p247
sg15
S'Head Protester'
p248
sg16
S''
sg17
S'Yes, but which people?'
p249
sbag1
(g10
g3
NtRp250
(dp251
g13
S'Say'
p252
sg15
S'Head Protester'
p253
sg16
S''
sg17
S'See? What a fascist, ALL people you slimey politician scum!'
p254
sbag1
(g10
g3
NtRp255
(dp256
g13
S'Encounter'
p257
sg15
S'Head Protester'
p258
sg16
S'P-easy-04'
p259
sg17
S''
sbag1
(g10
g3
NtRp260
(dp261
g13
S'Say'
p262
sg15
S'Head Protester'
p263
sg16
S''
sg17
S"Alright, fine! We'll stop protesting...whatever we were protesting."
p264
sbag1
(g10
g3
NtRp265
(dp266
g13
S'SetFlag'
p267
sg15
S'Head Protester'
p268
sg16
S'PROTESTORSDEAD'
p269
sg17
S''
sbag1
(g10
g3
NtRp270
(dp271
g13
S'Destroy'
p272
sg15
S'Head Protester'
p273
sg16
S''
sg17
S''
sbasS'Receptionist'
p274
(lp275
g1
(g10
g3
NtRp276
(dp277
g13
S'Encounter'
p278
sg15
g274
sg16
S'P-easy-01'
p279
sg17
S''
sbag1
(g10
g3
NtRp280
(dp281
g13
S'GiveItem'
p282
sg15
S'Receptionist'
p283
sg16
S'PEN'
p284
sg17
S'Receptionist sighs and hands over the pen.'
p285
sbag1
(g10
g3
NtRp286
(dp287
g13
S'Destroy'
p288
sg15
S'Receptionist'
p289
sg16
S''
sg17
S''
sbasS'Sponsor'
p290
(lp291
g1
(g10
g3
NtRp292
(dp293
g13
S'RequireFlag'
p294
sg15
g290
sg16
S'STARTSPONSOR'
p295
sg17
S"Hmmm...Money, money, money. Sorry, what? I wasn't talking to you."
p296
sbag1
(g10
g3
NtRp297
(dp298
g13
S'Say'
p299
sg15
S'Sponsor'
p300
sg16
S''
sg17
S"Hello, I'm investigating new investments today. How can I help you?"
p301
sbag1
(g10
g3
NtRp302
(dp303
g13
S'PlayerSay'
p304
sg15
S'Sponsor'
p305
sg16
S''
sg17
S"Well, I've decided to run for Mayor! I could really use an investor."
p306
sbag1
(g10
g3
NtRp307
(dp308
g13
S'Say'
p309
sg15
S'Sponsor'
p310
sg16
S''
sg17
S"I don't know. You seem a little young. I don't think I'm convinced."
p311
sbag1
(g10
g3
NtRp312
(dp313
g13
S'Encounter'
p314
sg15
S'Sponsor'
p315
sg16
S'P-easy-06'
p316
sg17
S''
sbag1
(g10
g3
NtRp317
(dp318
g13
S'Say'
p319
sg15
S'Sponsor'
p320
sg16
S''
sg17
S"Wow! You sure have what it takes! Alright, he's a pile of cash!"
p321
sbag1
(g10
g3
NtRp322
(dp323
g13
S'Say'
p324
sg15
S'Sponsor'
p325
sg16
S''
sg17
S'Also, now that you have some funds, you might find it useful to...grease the wheels in some difficult situations.'
p326
sbag1
(g10
g3
NtRp327
(dp328
g13
S'LearnAttack'
p329
sg15
S'Sponsor'
p330
sg16
S'BRIBE'
p331
sg17
S'Phillip and Sarah learn to Bribe'
p332
sbag1
(g10
g3
NtRp333
(dp334
g13
S'LearnAttack'
p335
sg15
S'Sponsor'
p336
sg16
S'Wife:BRIBE'
p337
sg17
S''
sbag1
(g10
g3
NtRp338
(dp339
g13
S'SetFlag'
p340
sg15
S'Sponsor'
p341
sg16
S'STARTCONSTITUENTS'
p342
sg17
S''
sbag1
(g10
g3
NtRp343
(dp344
g13
S'PlayerSay'
p345
sg15
S'Sponsor'
p346
sg16
S''
sg17
S'Er, thanks! I suppose we should go gather some support from our constituents now.'
p347
sbag1
(g10
g3
NtRp348
(dp349
g13
S'Say'
p350
sg15
S'Sponsor'
p351
sg16
S''
sg17
S"Makes sense to me! I'm off, too. Money, money, money."
p352
sbag1
(g10
g3
NtRp353
(dp354
g13
S'Destroy'
p355
sg15
S'Sponsor'
p356
sg16
S''
sg17
S''
sbasS'P-easy-01'
p357
(lp358
g1
(g10
g3
NtRp359
(dp360
g13
S'Say'
p361
sg15
g357
sg16
S'Player'
p362
sg17
S'Well now we are fighting'
p363
sbag1
(g10
g3
NtRp364
(dp365
g13
S'Say'
p366
sg15
S'P-easy-01'
p367
sg16
S'Receptionist001'
p368
sg17
S"Let's go!"
p369
sbag1
(g10
g3
NtRp370
(dp371
g13
S'BeginCombat'
p372
sg15
S'P-easy-01'
p373
sg16
S''
sg17
S''
sbag1
(g10
g3
NtRp374
(dp375
g13
S'Say'
p376
sg15
S'P-easy-01'
p377
sg16
S'Receptionist001'
p378
sg17
S'Alas, I am dead'
p379
sbasS'Mayor'
p380
(lp381
g1
(g10
g3
NtRp382
(dp383
g13
S'Say'
p384
sg15
g380
sg16
S''
sg17
S"Hello, I'm the Mayor!"
p385
sbag1
(g10
g3
NtRp386
(dp387
g13
S'PlayerSay'
p388
sg15
S'Mayor'
p389
sg16
S''
sg17
S"Hello, Mayor Goodman, I'm Philip Mossman."
p390
sbag1
(g10
g3
NtRp391
(dp392
g13
S'Say'
p393
sg15
S'Mayor'
p394
sg16
S''
sg17
S"Ah yes, you're my new assistant. A good thing, too."
p395
sbag1
(g10
g3
NtRp396
(dp397
g13
S'Say'
p398
sg15
S'Mayor'
p399
sg16
S''
sg17
S"I've been searching for minutes and haven't been able to find my pen! I bet my receptionist stole it. She has sticky fingers."
p400
sbag1
(g10
g3
NtRp401
(dp402
g13
S'Say'
p403
sg15
S'Mayor'
p404
sg16
S''
sg17
S"Well, don't just stand there, go and get it!"
p405
sbag1
(g10
g3
NtRp406
(dp407
g13
S'SetFlag'
p408
sg15
S'Mayor'
p409
sg16
S'PENQUEST'
p410
sg17
S''
sbag1
(g10
g3
NtRp411
(dp412
g13
S'RequireItem'
p413
sg15
S'Mayor'
p414
sg16
S'PEN'
p415
sg17
S'Are you simple? Go and get my pen from that thieving receptionist.'
p416
sbag1
(g10
g3
NtRp417
(dp418
g13
S'Say'
p419
sg15
S'Mayor'
p420
sg16
S''
sg17
S"Great! I know she can give you a bit of a tongue-lashing, but she's a fantastic receptionist."
p421
sbag1
(g10
g3
NtRp422
(dp423
g13
S'Say'
p424
sg15
S'Mayor'
p425
sg16
S''
sg17
S"I'm sure you want to learn a thing or two about politics \xe2\x80\x93 who doesn't? - so lets get started"
p426
sbag1
(g10
g3
NtRp427
(dp428
g13
S'SetFlag'
p429
sg15
S'Mayor'
p430
sg16
S'PROTESTORS'
p431
sg17
S''
sbag1
(g10
g3
NtRp432
(dp433
g13
S'RequireFlag'
p434
sg15
S'Mayor'
p435
sg16
S'PROTESTORSDEAD'
p436
sg17
S'Run outside and tell those protesters to scram, will you?'
p437
sbag1
(g10
g3
NtRp438
(dp439
g13
S'Say'
p440
sg15
S'Mayor'
p441
sg16
S''
sg17
S"Hope they didn't give you too much trouble!"
p442
sbag1
(g10
g3
NtRp443
(dp444
g13
S'Say'
p445
sg15
S'Mayor'
p446
sg16
S''
sg17
S"Now that's sorted, there's a journalist from the local newspaper coming for an interview."
p447
sbag1
(g10
g3
NtRp448
(dp449
g13
S'Say'
p450
sg15
S'Mayor'
p451
sg16
S''
sg17
S"I certainly don't have time for it, so you can do the interview."
p452
sbag1
(g10
g3
NtRp453
(dp454
g13
S'Say'
p455
sg15
S'Mayor'
p456
sg16
S''
sg17
S"Be careful not to give too much away and if you could throw a few punches at the opposition that'd help."
p457
sbag1
(g10
g3
NtRp458
(dp459
g13
S'PlayerSay'
p460
sg15
S'Mayor'
p461
sg16
S''
sg17
S'You want me to...throw a punch?'
p462
sbag1
(g10
g3
NtRp463
(dp464
g13
S'Say'
p465
sg15
S'Mayor'
p466
sg16
S''
sg17
S"You're in politics and don't know how to fight dirty? Sheesh! Here, let me show you."
p467
sbag1
(g10
g3
NtRp468
(dp469
g13
S'LearnAttack'
p470
sg15
S'Mayor'
p471
sg16
S'SLANDER'
p472
sg17
S'Mayor teaches Phillip to Slander Opposition'
p473
sbag1
(g10
g3
NtRp474
(dp475
g13
S'Say'
p476
sg15
S'Mayor'
p477
sg16
S''
sg17
S"It's a pretty great tactic because it keeps eating away at them long after you've done it."
p478
sbag1
(g10
g3
NtRp479
(dp480
g13
S'SetFlag'
p481
sg15
S'Mayor'
p482
sg16
S'INTERVIEWSTART'
p483
sg17
S''
sbag1
(g10
g3
NtRp484
(dp485
g13
S'RequireFlag'
p486
sg15
S'Mayor'
p487
sg16
S'JOURNALISTINTERVIEW'
p488
sg17
S'Go handle that interview and remember to slander the opposition.'
p489
sbag1
(g10
g3
NtRp490
(dp491
g13
S'SetFlag'
p492
sg15
S'Mayor'
p493
sg16
S'GOHOMETOWIFE'
p494
sg17
S''
sbag1
(g10
g3
NtRp495
(dp496
g13
S'Say'
p497
sg15
S'Mayor'
p498
sg16
S''
sg17
S'OK, fine, now could you buzz off for a while? I need to get some work done.'
p499
sbag1
(g10
g3
NtRp500
(dp501
g13
S'RequireFlag'
p502
sg15
S'Mayor'
p503
sg16
S'CONSTITUENTSWON'
p504
sg17
S"Go home to your family. I have things to do that don't involve you."
p505
sbasS'Journalist'
p506
(lp507
g1
(g10
g3
NtRp508
(dp509
g13
S'RequireFlag'
p510
sg15
g506
sg16
S'INTERVIEWSTART'
p511
sg17
S'Leave me alone, kid I need to get this done before my deadline!'
p512
sbag1
(g10
g3
NtRp513
(dp514
g13
S'Say'
p515
sg15
S'Journalist'
p516
sg16
S''
sg17
S"Hey, where's the Mayor?"
p517
sbag1
(g10
g3
NtRp518
(dp519
g13
S'PlayerSay'
p520
sg15
S'Journalist'
p521
sg16
S''
sg17
S"He couldn't make it. I'll be taking the interview."
p522
sbag1
(g10
g3
NtRp523
(dp524
g13
S'Say'
p525
sg15
S'Journalist'
p526
sg16
S''
sg17
S'Great! Easy pickings! Lets go.'
p527
sbag1
(g10
g3
NtRp528
(dp529
g13
S'Encounter'
p530
sg15
S'Journalist'
p531
sg16
S'P-easy-05'
p532
sg17
S''
sbag1
(g10
g3
NtRp533
(dp534
g13
S'Say'
p535
sg15
S'Journalist'
p536
sg16
S''
sg17
S"SNORE! Fine, if I can't get anything juicy here I'll do another puff piece on my poodle Frank."
p537
sbag1
(g10
g3
NtRp538
(dp539
g13
S'SetFlag'
p540
sg15
S'Journalist'
p541
sg16
S'JOURNALISTINTERVIEW'
p542
sg17
S''
sbag1
(g10
g3
NtRp543
(dp544
g13
S'Destroy'
p545
sg15
S'Journalist'
p546
sg16
S''
sg17
S''
sbassS'attacks'
p547
(dp548
S'GETEXCLUSIVE'
p549
g1
(g10
g3
NtRp550
(dp551
S'base_damage_max'
p552
F4
sS'description'
p553
S'asdf'
p554
sS'weight'
p555
I1
sS'crit_chance_max'
p556
F5
sS'crit_chance_min'
p557
F2
sS'underlying_stat'
p558
S'Wit'
p559
sS'target_type'
p560
S'AllFriendly'
p561
sS'base_damage_min'
p562
F2
sS'spin_cost'
p563
F5
sS'effects'
p564
(lp565
g1
(c__main__
Effect
p566
g3
NtRp567
(dp568
S'function'
p569
S'add'
p570
sS'abbrv'
p571
S'(INCREASE)'
p572
sS'attribute'
p573
S'cunning'
p574
sS'value'
p575
F2
sS'rounds_min'
p576
F1
sS'rounds_max'
p577
F4
sS'id'
p578
S'Increase Cunning'
p579
sS'apply_to_source'
p580
S'TRUE'
p581
sbasS'target_count'
p582
I1
sS'crit_base_damage'
p583
F8
sg578
g549
sS'name'
p584
S'Get Exclusive'
p585
sbsS'LOSELOSE'
p586
g1
(g10
g3
NtRp587
(dp588
g552
F4
sg553
S'Causes all politicians in the target radius to lose votes'
p589
sg555
I1
sg556
F0
sg557
F0
sg558
S'Cunning'
p590
sg560
S'All'
p591
sg562
F4
sg563
I0
sg564
(lp592
sg582
I6
sg583
F0
sg578
g586
sg584
S'Lose/lose issue'
p593
sbsS'LIE'
p594
g1
(g10
g3
NtRp595
(dp596
g552
F6
sg553
S"It's only lying if they catch you. A strong attack with a danger of failing entirely and leaving you high and dry."
p597
sg555
F3
sg556
F10
sg557
F2
sg558
S'Wit'
p598
sg560
S'AllEnemy'
p599
sg562
F0
sg563
I0
sg564
(lp600
g1
(g566
g3
NtRp601
(dp602
g569
S'miss_turn'
p603
sg571
S'(MISS)'
p604
sg573
S''
sg575
F0
sg576
F1
sg577
F1
sg578
S'Critical Fail'
p605
sg580
S'TRUE'
p606
sbasg582
I1
sg583
F10
sg578
g594
sg584
S'Lie'
p607
sbsS'HILARIOUSANECDOTE'
p608
g1
(g10
g3
NtRp609
(dp610
g552
F8
sg553
S'asdf'
p611
sg555
I1
sg556
F0
sg557
F0
sg558
S'Wit'
p612
sg560
S'AllFriendly'
p613
sg562
F4
sg563
F5
sg564
(lp614
g1
(g566
g3
NtRp615
(dp616
g569
S'add'
p617
sg571
S'(INCREASE)'
p618
sg573
S'flair'
p619
sg575
F2
sg576
F1
sg577
F4
sg578
S'Increase Flair'
p620
sg580
S'TRUE'
p621
sbasg582
I1
sg583
F0
sg578
g608
sg584
S'Hilarious Anecdote'
p622
sbsS'SENSATIONALISE'
p623
g1
(g10
g3
NtRp624
(dp625
g552
F8
sg553
S'asdf'
p626
sg555
I1
sg556
F0
sg557
F0
sg558
S'Wit'
p627
sg560
S'AllEnemy'
p628
sg562
F4
sg563
F3
sg564
(lp629
sg582
I1
sg583
F0
sg578
g623
sg584
S'Sensationalise'
p630
sbsS'DENOUNCE'
p631
g1
(g10
g3
NtRp632
(dp633
g552
F5
sg553
S'asdf'
p634
sg555
F6
sg556
F10
sg557
F2
sg558
S'Cunning'
p635
sg560
S'AllEnemy'
p636
sg562
F2
sg563
I0
sg564
(lp637
sg582
I1
sg583
F8
sg578
g631
sg584
S'Denounce'
p638
sbsS'WHADOWEWANT'
p639
g1
(g10
g3
NtRp640
(dp641
g552
F6
sg553
S'asdf'
p642
sg555
I1
sg556
F0
sg557
F0
sg558
S'Cunning'
p643
sg560
S'AllEnemy'
p644
sg562
F3
sg563
I0
sg564
(lp645
sg582
I1
sg583
F0
sg578
g639
sg584
S'Whadowewant!'
p646
sbsS'SCOOP'
p647
g1
(g10
g3
NtRp648
(dp649
g552
F5
sg553
S'asdf'
p650
sg555
I1
sg556
F10
sg557
F5
sg558
S'Cunning'
p651
sg560
S'AllEnemy'
p652
sg562
F2
sg563
I0
sg564
(lp653
sg582
I1
sg583
F8
sg578
g647
sg584
S'Scoop'
p654
sbsS'CHOOSETARGETS'
p655
g1
(g10
g3
NtRp656
(dp657
g552
F7
sg553
S'asdf'
p658
sg555
I1
sg556
F10
sg557
F5
sg558
S'Cunning'
p659
sg560
S'AllEnemy'
p660
sg562
F2
sg563
I0
sg564
(lp661
sg582
I1
sg583
F9
sg578
g655
sg584
S'Choose Targets'
p662
sbsS'FILENAILS'
p663
g1
(g10
g3
NtRp664
(dp665
g552
F0
sg553
S'asdf'
p666
sg555
F100
sg556
F0
sg557
F0
sg558
S'Wit'
p667
sg560
S'AllEnemy'
p668
sg562
F0
sg563
F3
sg564
(lp669
g1
(g566
g3
NtRp670
(dp671
g569
S'drain'
p672
sg571
S''
sg573
S'votes'
p673
sg575
F-5
sg576
F3
sg577
F3
sg578
S'Votes Restore'
p674
sg580
S'TRUE'
p675
sbasg582
I1
sg583
F0
sg578
g663
sg584
S'File Nails'
p676
sbsS'BRIBE'
p677
g1
(g10
g3
NtRp678
(dp679
g552
F1
sg553
S'Is there anything more convincing than money? Buying loyalty gets expensive so be careful.'
p680
sg555
I1
sg556
F1
sg557
F1
sg558
S'Money'
p681
sg560
S'AllEnemy'
p682
sg562
F2
sg563
I0
sg564
(lp683
sg582
I1
sg583
F1
sg578
g677
sg584
S'Bribe'
p684
sbsS'SING'
p685
g1
(g10
g3
NtRp686
(dp687
g552
F-3
sg553
S'Why bandy words with politicians when you can sing a catchy tune! Restores votes.'
p688
sg555
I1
sg556
F0
sg557
F0
sg558
S'Wit'
p689
sg560
S'AllFriendly'
p690
sg562
F-5
sg563
I0
sg564
(lp691
sg582
I4
sg583
F0
sg578
g685
sg584
S'Rousing Song'
p692
sbsS'FEAR'
p693
g1
(g10
g3
NtRp694
(dp695
g552
F0
sg553
S'asdf'
p696
sg555
F2
sg556
F0
sg557
F0
sg558
S'Wit'
p697
sg560
S'AllFriendly'
p698
sg562
F0
sg563
F4
sg564
(lp699
g567
asg582
I1
sg583
F0
sg578
g693
sg584
S'Fear Change'
p700
sbsS'RAISEDEFCON'
p701
g1
(g10
g3
NtRp702
(dp703
g552
F5
sg553
S'asdf'
p704
sg555
I1
sg556
F7
sg557
F3
sg558
S'Cunning'
p705
sg560
S'AllEnemy'
p706
sg562
F4
sg563
I0
sg564
(lp707
sg582
I1
sg583
F8
sg578
g701
sg584
S'Raise DEFCON'
p708
sbsS'NEGATTACKAD'
p709
g1
(g10
g3
NtRp710
(dp711
g552
F8
sg553
S"Take them all down. They're definitely all bad people. Not like you."
p712
sg555
I1
sg556
F10
sg557
F10
sg558
S'Cunning'
p713
sg560
S'AllEnemy'
p714
sg562
F3
sg563
F5
sg564
(lp715
sg582
I1
sg583
F10
sg578
g709
sg584
S'Negative Attack Ad'
p716
sbsS'DAZZLE'
p717
g1
(g10
g3
NtRp718
(dp719
g552
F3
sg553
S'Being dazzling and admirable is a great way to take heat off politics'
p720
sg555
I1
sg556
F8
sg557
F5
sg558
S'Wit'
p721
sg560
S'AllEnemy'
p722
sg562
F2
sg563
F3
sg564
(lp723
g1
(g566
g3
NtRp724
(dp725
g569
S'reduce'
p726
sg571
S'(REDUCE)'
p727
sg573
S'cunning'
p728
sg575
F2
sg576
F2
sg577
F5
sg578
S'Reduce Cunning'
p729
sg580
S''
sbasg582
I4
sg583
F8
sg578
g717
sg584
S'Dazzle'
p730
sbsS'BELIEVEMEDIA'
p731
g1
(g10
g3
NtRp732
(dp733
g552
F3
sg553
S'asdf'
p734
sg555
I1
sg556
F15
sg557
F5
sg558
S'Cunning'
p735
sg560
S'AllEnemy'
p736
sg562
F1
sg563
I0
sg564
(lp737
sg582
I1
sg583
F12
sg578
g731
sg584
S'Believe Media'
p738
sbsS'PRPREP'
p739
g1
(g10
g3
NtRp740
(dp741
g552
F0
sg553
S"If you're going to need some spin, best see a spin doctor! Adds spin points."
p742
sg555
I1
sg556
F0
sg557
F0
sg558
S''
sg560
S'AllFriendly'
p743
sg562
F0
sg563
I0
sg564
(lp744
g1
(g566
g3
NtRp745
(dp746
g569
S'add_permanent'
p747
sg571
S''
sg573
S'spin'
p748
sg575
F5
sg576
F0
sg577
F0
sg578
S'Spin Restore'
p749
sg580
S'TRUE'
p750
sbasg582
I1
sg583
F0
sg578
g739
sg584
S'PR Prep'
p751
sbsS'CALLVATICAN'
p752
g1
(g10
g3
NtRp753
(dp754
g552
F0
sg553
S'Brings in 2 additional ReligousNuts at 2 levels lower than this one'
p755
sg555
I1
sg556
F0
sg557
F0
sg558
S'Wit'
p756
sg560
S'None'
p757
sg562
F0
sg563
F5
sg564
(lp758
g1
(g566
g3
NtRp759
(dp760
g569
S'call_friends'
p761
sg571
S''
sg573
S''
sg575
F2
sg576
F1
sg577
F1
sg578
S'Call Friends'
p762
sg580
S''
sbasg582
I1
sg583
F0
sg578
g752
sg584
S'Call Vatican'
p763
sbsS'BLACKMAIL'
p764
g1
(g10
g3
NtRp765
(dp766
g552
F6
sg553
S'asdf'
p767
sg555
I1
sg556
F10
sg557
F2
sg558
S'Wit'
p768
sg560
S'AllEnemy'
p769
sg562
F3
sg563
F4
sg564
(lp770
g1
(g566
g3
NtRp771
(dp772
g569
S'drain'
p773
sg571
S'(DRAIN)'
p774
sg573
S'votes'
p775
sg575
F15
sg576
F2
sg577
F5
sg578
S'Drain Votes'
p776
sg580
S''
sbasg582
I1
sg583
F2
sg578
g764
sg584
S'Blackmail'
p777
sbsS'PROTEST'
p778
g1
(g10
g3
NtRp779
(dp780
g552
F5
sg553
S'asdf'
p781
sg555
F6
sg556
F10
sg557
F2
sg558
S'Cunning'
p782
sg560
S'AllEnemy'
p783
sg562
F2
sg563
I0
sg564
(lp784
sg582
I1
sg583
F8
sg578
g778
sg584
S'Protest'
p785
sbsS'SPREADRUMOUR'
p786
g1
(g10
g3
NtRp787
(dp788
g552
F6
sg553
S'asdf'
p789
sg555
I1
sg556
F10
sg557
F2
sg558
S'Wit'
p790
sg560
S'AllEnemy'
p791
sg562
F2
sg563
F3
sg564
(lp792
sg582
I4
sg583
F8
sg578
g786
sg584
S'Spread Rumour'
p793
sbsS'AGENDA'
p794
g1
(g10
g3
NtRp795
(dp796
g552
F5
sg553
S'asdf'
p797
sg555
F6
sg556
F10
sg557
F2
sg558
S'Cunning'
p798
sg560
S'AllEnemy'
p799
sg562
F2
sg563
I0
sg564
(lp800
sg582
I1
sg583
F8
sg578
g794
sg584
S'Push Agenda'
p801
sbsS'FILIBUSTER'
p802
g1
(g10
g3
NtRp803
(dp804
g552
F0
sg553
S"You're not moving until they give in. Cause all opposition to miss their turn"
p805
sg555
I1
sg556
F0
sg557
F0
sg558
S'Wit'
p806
sg560
S'AllEnemy'
p807
sg562
F0
sg563
F8
sg564
(lp808
g1
(g566
g3
NtRp809
(dp810
g569
S'miss_turn'
p811
sg571
S'(MISS)'
p812
sg573
S''
sg575
F0
sg576
F1
sg577
F1
sg578
S'Miss Turn'
p813
sg580
S''
sbasg582
I1
sg583
F0
sg578
g802
sg584
S'Filibuster'
p814
sbsS'GATHERINTEL'
p815
g1
(g10
g3
NtRp816
(dp817
g552
F0
sg553
S'Increases Cunning.'
p818
sg555
I1
sg556
F0
sg557
F0
sg558
S'Wit'
p819
sg560
S'AllFriendly'
p820
sg562
F0
sg563
F3
sg564
(lp821
g567
asg582
I2
sg583
F0
sg578
g815
sg584
S'Gather Intelligence'
p822
sbsS'LOVE'
p823
g1
(g10
g3
NtRp824
(dp825
g552
F6
sg553
S'asdf'
p826
sg555
F2
sg556
F8
sg557
F2
sg558
S'Cunning'
p827
sg560
S'AllEnemy'
p828
sg562
F1
sg563
I0
sg564
(lp829
sg582
I1
sg583
F7
sg578
g823
sg584
S'Love'
p830
sbsS'OUTOFCONTEXT'
p831
g1
(g10
g3
NtRp832
(dp833
g552
F3
sg553
S'asdf'
p834
sg555
I1
sg556
F5
sg557
F2
sg558
S'Wit'
p835
sg560
S'AllEnemy'
p836
sg562
F2
sg563
F2
sg564
(lp837
g771
asg582
I1
sg583
F5
sg578
g831
sg584
S'Take Out Of Context'
p838
sbsS'GREATSUIT'
p839
g1
(g10
g3
NtRp840
(dp841
g552
F6
sg553
S'Well, we could argue, but have you noticed how fabulous this suit is?'
p842
sg555
I1
sg556
F11
sg557
F6
sg558
S'Cunning'
p843
sg560
S'AllEnemy'
p844
sg562
F3
sg563
I0
sg564
(lp845
sg582
I1
sg583
F12
sg578
g839
sg584
S'Look Great In Suit'
p846
sbsS'PEACE'
p847
g1
(g10
g3
NtRp848
(dp849
g552
F0
sg553
S'asdf'
p850
sg555
I1
sg556
F0
sg557
F0
sg558
S'Wit'
p851
sg560
S'AllEnemy'
p852
sg562
F0
sg563
F3
sg564
(lp853
g724
asg582
I4
sg583
F0
sg578
g847
sg584
S'Peace'
p854
sbsS'INSPSPEECH'
p855
g1
(g10
g3
NtRp856
(dp857
g552
F-2
sg553
S'Restore votes to all party members'
p858
sg555
I1
sg556
F0
sg557
F0
sg558
S'Cunning'
p859
sg560
S'AllFriendly'
p860
sg562
F-2
sg563
I0
sg564
(lp861
sg582
I4
sg583
F0
sg578
g855
sg584
S'Inspirational Speech'
p862
sbsS'STRIKE'
p863
g1
(g10
g3
NtRp864
(dp865
g552
F8
sg553
S'asdf'
p866
sg555
I1
sg556
F0
sg557
F0
sg558
S'Wit'
p867
sg560
S'AllEnemy'
p868
sg562
F0
sg563
F3
sg564
(lp869
g601
asg582
I1
sg583
F0
sg578
g863
sg584
S'Call A Strike'
p870
sbsS'SLANDER'
p871
g1
(g10
g3
NtRp872
(dp873
g552
F3
sg553
S'Strong against polititians...careful with those voters, though!'
p874
sg555
F4
sg556
F10
sg557
F2
sg558
S'Wit'
p875
sg560
S'AllEnemy'
p876
sg562
F2
sg563
I0
sg564
(lp877
g771
asg582
I1
sg583
F5
sg578
g871
sg584
S'Slander Opposition'
p878
sbsS'NATTER'
p879
g1
(g10
g3
NtRp880
(dp881
g552
F8
sg553
S'asdf'
p882
sg555
I1
sg556
F15
sg557
F5
sg558
S'Cunning'
p883
sg560
S'AllEnemy'
p884
sg562
F1
sg563
I0
sg564
(lp885
sg582
I1
sg583
F10
sg578
g879
sg584
S'Natter On'
p886
sbsS'GOSSIP'
p887
g1
(g10
g3
NtRp888
(dp889
g552
F3
sg553
S'asdf'
p890
sg555
I1
sg556
F10
sg557
F2
sg558
S'Wit'
p891
sg560
S'AllEnemy'
p892
sg562
F1
sg563
F2
sg564
(lp893
g724
asg582
I1
sg583
F6
sg578
g887
sg584
S'Gossip'
p894
sbsS'MISSTURN'
p895
g1
(g10
g3
NtRp896
(dp897
g552
F0
sg553
S'asdf'
p898
sg555
I1
sg556
F0
sg557
F0
sg558
S''
sg560
S'AllEnemy'
p899
sg562
F0
sg563
I0
sg564
(lp900
sg582
I1
sg583
F0
sg578
g895
sg584
S'Miss Turn'
p901
sbsS'BIELECTION'
p902
g1
(g10
g3
NtRp903
(dp904
g552
F4
sg553
S'Redistribute votes amongst targets'
p905
sg555
I1
sg556
F0
sg557
F0
sg558
S'Cunning'
p906
sg560
S'All'
p907
sg562
F-4
sg563
F4
sg564
(lp908
sg582
I8
sg583
F0
sg578
g902
sg584
S'Bielection'
p909
sbsS'SCARE'
p910
g1
(g10
g3
NtRp911
(dp912
g552
F7
sg553
S'Nothing rattles the brains like fear.'
p913
sg555
I1
sg556
F10
sg557
F2
sg558
S'Wit'
p914
sg560
S'AllEnemy'
p915
sg562
F2
sg563
I0
sg564
(lp916
g724
asg582
I2
sg583
F9
sg578
g910
sg584
S'Scare Campaign'
p917
sbsS'PAYOFF'
p918
g1
(g10
g3
NtRp919
(dp920
g552
F7
sg553
S'causes them to miss a number of turns'
p921
sg555
I1
sg556
F8
sg557
F2
sg558
S'Wit'
p922
sg560
S'AllEnemy'
p923
sg562
F2
sg563
F4
sg564
(lp924
g1
(g566
g3
NtRp925
(dp926
g569
S'miss_turn'
p927
sg571
S'(MISS)'
p928
sg573
S''
sg575
F0
sg576
F1
sg577
F3
sg578
S'Miss Turn Pay Off'
p929
sg580
S''
sbasg582
I1
sg583
F9
sg578
g918
sg584
S'Pay Off'
p930
sbsS'BUREAUCRACY'
p931
g1
(g10
g3
NtRp932
(dp933
g552
F5
sg553
S'asdf'
p934
sg555
F6
sg556
F10
sg557
F2
sg558
S'Cunning'
p935
sg560
S'AllEnemy'
p936
sg562
F2
sg563
I0
sg564
(lp937
sg582
I1
sg583
F8
sg578
g931
sg584
S'Bureaucracy'
p938
sbsS'RALLYAUDIENCE'
p939
g1
(g10
g3
NtRp940
(dp941
g552
F8
sg553
S'asdf'
p942
sg555
I1
sg556
F0
sg557
F0
sg558
S'Wit'
p943
sg560
S'AllFriendly'
p944
sg562
F4
sg563
F3
sg564
(lp945
g1
(g566
g3
NtRp946
(dp947
g569
S'add'
p948
sg571
S'(INCREASE)'
p949
sg573
S'charisma'
p950
sg575
F2
sg576
F1
sg577
F4
sg578
S'Increase Charisma'
p951
sg580
S'TRUE'
p952
sbasg582
I1
sg583
F0
sg578
g939
sg584
S'Rally Audience'
p953
sbsS'PORKBARREL'
p954
g1
(g10
g3
NtRp955
(dp956
g552
F6
sg553
S'Do something that benefits them specifically. Not advised against politicians.'
p957
sg555
I1
sg556
F0
sg557
F0
sg558
S'Wit'
p958
sg560
S'AllEnemy'
p959
sg562
F2
sg563
F2
sg564
(lp960
sg582
I1
sg583
F0
sg578
g954
sg584
S'Pork Barrel'
p961
sbsS'INSPIRE'
p962
g1
(g10
g3
NtRp963
(dp964
g552
F0
sg553
S'asdf'
p965
sg555
I1
sg556
F0
sg557
F0
sg558
S'Wit'
p966
sg560
S'AllFriendly'
p967
sg562
F0
sg563
F3
sg564
(lp968
g567
asg582
I4
sg583
F0
sg578
g962
sg584
S'Inspire'
p969
sbsS'JOKE'
p970
g1
(g10
g3
NtRp971
(dp972
g552
F3
sg553
S"Ha, ha, ha...what were we talking about? Diffuse the situation with some humour. Not good if it falls flat, but if they get it, it'll knock 'em dead."
p973
sg555
F3
sg556
F30
sg557
F10
sg558
S'Wit'
p974
sg560
S'AllEnemy'
p975
sg562
F2
sg563
I0
sg564
(lp976
sg582
I1
sg583
F10
sg578
g970
sg584
S'Joke'
p977
sbsS'PRAYFORSOULS'
p978
g1
(g10
g3
NtRp979
(dp980
g552
F6
sg553
S'asdf'
p981
sg555
F2
sg556
F10
sg557
F2
sg558
S'Cunning'
p982
sg560
S'None'
p983
sg562
F3
sg563
I0
sg564
(lp984
sg582
I1
sg583
F10
sg578
g978
sg584
S'Pray'
p985
sbsS'REVIVE'
p986
g1
(g10
g3
NtRp987
(dp988
g552
F0
sg553
S'Revive a defeated comrade to half votes'
p989
sg555
I1
sg556
F0
sg557
F0
sg558
S''
sg560
S'DeadFriendly'
p990
sg562
F0
sg563
F3
sg564
(lp991
g1
(g566
g3
NtRp992
(dp993
g569
S'revive'
p994
sg571
S''
sg573
S''
sg575
F0.5
sg576
F0
sg577
F0
sg578
S'Revive'
p995
sg580
S''
sbasg582
I1
sg583
F0
sg578
g986
sg584
S'Revive'
p996
sbsS'HUMANSHIELD'
p997
g1
(g10
g3
NtRp998
(dp999
g552
F5
sg553
S'No further questions. Step back, please.'
p1000
sg555
I1
sg556
F5
sg557
F2
sg558
S'Wit'
p1001
sg560
S'AllEnemy'
p1002
sg562
F2
sg563
F4
sg564
(lp1003
g809
asg582
I2
sg583
F12
sg578
g997
sg584
S'Human Shield'
p1004
sbsS'MAKEDEMANDS'
p1005
g1
(g10
g3
NtRp1006
(dp1007
g552
F8
sg553
S'asdf'
p1008
sg555
I1
sg556
F0
sg557
F0
sg558
S'Cunning'
p1009
sg560
S'AllEnemy'
p1010
sg562
F0
sg563
I0
sg564
(lp1011
g601
asg582
I1
sg583
F0
sg578
g1005
sg584
S'Make Outrageous Demands'
p1012
sbsS'DEFENSE'
p1013
g1
(g10
g3
NtRp1014
(dp1015
g552
F0
sg553
S'Gather strenth; -50% to all incoming attacks'
p1016
sg555
I1
sg556
F0
sg557
F0
sg558
S''
sg560
S'None'
p1017
sg562
F0
sg563
I0
sg564
(lp1018
g1
(g566
g3
NtRp1019
(dp1020
g569
S'add'
p1021
sg571
S'(DFND)'
p1022
sg573
S'resistance'
p1023
sg575
F0.5
sg576
F1
sg577
F1
sg578
S'Defense'
p1024
sg580
S'TRUE'
p1025
sbasg582
I1
sg583
F0
sg578
g1013
sg584
S'Defense'
p1026
sbsS'MISCONSTRUE'
p1027
g1
(g10
g3
NtRp1028
(dp1029
g552
F8
sg553
S'asdf'
p1030
sg555
I1
sg556
F0
sg557
F0
sg558
S'Cunning'
p1031
sg560
S'AllEnemy'
p1032
sg562
F0
sg563
I0
sg564
(lp1033
g601
asg582
I1
sg583
F0
sg578
g1027
sg584
S'Misconstrue'
p1034
sbsS'NATIONALSECURITY'
p1035
g1
(g10
g3
NtRp1036
(dp1037
g552
F7
sg553
S"This is a matter of national security and they don't have codeword clearance"
p1038
sg555
I1
sg556
F10
sg557
F2
sg558
S'Cunning'
p1039
sg560
S'AllEnemy'
p1040
sg562
F2
sg563
I0
sg564
(lp1041
sg582
I1
sg583
F9
sg578
g1035
sg584
S'National Security'
p1042
sbsS'RALLY'
p1043
g1
(g10
g3
NtRp1044
(dp1045
g552
F-2
sg553
S'Get back some votes by rallying supporters'
p1046
sg555
I1
sg556
F0
sg557
F0
sg558
S'Wit'
p1047
sg560
S'AllFriendly'
p1048
sg562
F-4
sg563
F2
sg564
(lp1049
sg582
I1
sg583
F0
sg578
g1043
sg584
S'Rally Constituents'
p1050
sbsS'MESSAGE'
p1051
g1
(g10
g3
NtRp1052
(dp1053
g552
F5
sg553
S'You can certainly wear them down by repeating your party line over and over and over...if you want'
p1054
sg555
F6
sg556
F10
sg557
F2
sg558
S'Wit'
p1055
sg560
S'AllEnemy'
p1056
sg562
F2
sg563
I0
sg564
(lp1057
sg582
I1
sg583
F8
sg578
g1051
sg584
S'Stay On Message'
p1058
sbsS'APPEALTOGOD'
p1059
g1
(g10
g3
NtRp1060
(dp1061
g552
F6
sg553
S'asdf'
p1062
sg555
F3
sg556
F0
sg557
F0
sg558
S'Wit'
p1063
sg560
S'AllEnemy'
p1064
sg562
F4
sg563
F7
sg564
(lp1065
sg582
I4
sg583
F0
sg578
g1059
sg584
S'Appeal To God'
p1066
sbssS'levels'
p1067
(lp1068
g1
(g10
g3
NtRp1069
(dp1070
S'votes'
p1071
F10
sS'level'
p1072
F1
sS'spin'
p1073
F5
sS'xp'
p1074
F0
sS'skill_points'
p1075
F0
sbag1
(g10
g3
NtRp1076
(dp1077
g1071
F12
sg1072
F2
sg1073
F5
sg1074
F5
sg1075
F2
sbag1
(g10
g3
NtRp1078
(dp1079
g1071
F15
sg1072
F3
sg1073
F6
sg1074
F200
sg1075
F2
sbag1
(g10
g3
NtRp1080
(dp1081
g1071
F20
sg1072
F4
sg1073
F6
sg1074
F500
sg1075
F2
sbag1
(g10
g3
NtRp1082
(dp1083
g1071
F25
sg1072
F5
sg1073
F7
sg1074
F1000
sg1075
F2
sbag1
(g10
g3
NtRp1084
(dp1085
g1071
F30
sg1072
F6
sg1073
F7
sg1074
F2000
sg1075
F2
sbag1
(g10
g3
NtRp1086
(dp1087
g1071
F35
sg1072
F7
sg1073
F8
sg1074
F5000
sg1075
F2
sbag1
(g10
g3
NtRp1088
(dp1089
g1071
F40
sg1072
F8
sg1073
F8
sg1074
F10000
sg1075
F2
sbag1
(g10
g3
NtRp1090
(dp1091
g1071
F45
sg1072
F9
sg1073
F9
sg1074
F15000
sg1075
F2
sbag1
(g10
g3
NtRp1092
(dp1093
g1071
F50
sg1072
F10
sg1073
F9
sg1074
F20000
sg1075
F2
sbag1
(g10
g3
NtRp1094
(dp1095
g1071
F55
sg1072
F11
sg1073
F10
sg1074
F40000
sg1075
F2
sbag1
(g10
g3
NtRp1096
(dp1097
g1071
S''
sg1072
F12
sg1073
S''
sg1074
S''
sg1075
S''
sbag1
(g10
g3
NtRp1098
(dp1099
g1071
S''
sg1072
F13
sg1073
S''
sg1074
S''
sg1075
S''
sbag1
(g10
g3
NtRp1100
(dp1101
g1071
S''
sg1072
F14
sg1073
S''
sg1074
S''
sg1075
S''
sbag1
(g10
g3
NtRp1102
(dp1103
g1071
S''
sg1072
F15
sg1073
S''
sg1074
S''
sg1075
S''
sbag1
(g10
g3
NtRp1104
(dp1105
g1071
S''
sg1072
F16
sg1073
S''
sg1074
S''
sg1075
S''
sbag1
(g10
g3
NtRp1106
(dp1107
g1071
S''
sg1072
F17
sg1073
S''
sg1074
S''
sg1075
S''
sbag1
(g10
g3
NtRp1108
(dp1109
g1071
S''
sg1072
F18
sg1073
S''
sg1074
S''
sg1075
S''
sbag1
(g10
g3
NtRp1110
(dp1111
g1071
S''
sg1072
F19
sg1073
S''
sg1074
S''
sg1075
S''
sbag1
(g10
g3
NtRp1112
(dp1113
g1071
S''
sg1072
F20
sg1073
S''
sg1074
S''
sg1075
S''
sbag1
(g10
g3
NtRp1114
(dp1115
g1071
S''
sg1072
F21
sg1073
S''
sg1074
S''
sg1075
S''
sbag1
(g10
g3
NtRp1116
(dp1117
g1071
S''
sg1072
F22
sg1073
S''
sg1074
S''
sg1075
S''
sbag1
(g10
g3
NtRp1118
(dp1119
g1071
S''
sg1072
F23
sg1073
S''
sg1074
S''
sg1075
S''
sbag1
(g10
g3
NtRp1120
(dp1121
g1071
S''
sg1072
F24
sg1073
S''
sg1074
S''
sg1075
S''
sbag1
(g10
g3
NtRp1122
(dp1123
g1071
S''
sg1072
F25
sg1073
S''
sg1074
S''
sg1075
S''
sbag1
(g10
g3
NtRp1124
(dp1125
g1071
S''
sg1072
F26
sg1073
S''
sg1074
S''
sg1075
S''
sbag1
(g10
g3
NtRp1126
(dp1127
g1071
S''
sg1072
F27
sg1073
S''
sg1074
S''
sg1075
S''
sbag1
(g10
g3
NtRp1128
(dp1129
g1071
S''
sg1072
F28
sg1073
S''
sg1074
S''
sg1075
S''
sbag1
(g10
g3
NtRp1130
(dp1131
g1071
S''
sg1072
F29
sg1073
S''
sg1074
S''
sg1075
S''
sbasg564
(dp1132
g579
g567
sg674
g670
sg749
g745
sg951
g946
sg813
g809
sg762
g759
sg929
g925
sg995
g992
sg729
g724
sg776
g771
sg1024
g1019
sg605
g601
sg620
g615
ssS'characters'
p1133
(dp1134
S'Teacher001'
p1135
(lp1136
g1
(g10
g3
NtRp1137
(dp1138
S'flair_base'
p1139
F1
sS'spin_base'
p1140
F4
sS'flair_lvl'
p1141
F1.1499999999999999
sS'wit_base'
p1142
F1
sS'resistance'
p1143
(lp1144
sS'wit_lvl'
p1145
F1.0900000000000001
sS'cunning_base'
p1146
F1
sg578
g1135
sS'votes_base'
p1147
F10
sS'speed_lvl'
p1148
F1.0800000000000001
sS'standard_attacks'
p1149
(lp1150
g1014
ag779
asS'cunning_lvl'
p1151
F1.1000000000000001
sS'charisma_lvl'
p1152
F1.1499999999999999
sS'spin_attacks'
p1153
(lp1154
g864
ag1044
asS'spin_lvl'
p1155
F1.0800000000000001
sS'charisma_base'
p1156
F1
sS'weaknesses'
p1157
(lp1158
sS'attack_group'
p1159
S'Teacher'
p1160
sS'votes_lvl'
p1161
F1.2
sg584
S'Teacher'
p1162
sS'speed_base'
p1163
F1
sS'immunities'
p1164
(lp1165
sbasS'Politician001'
p1166
(lp1167
g1
(g10
g3
NtRp1168
(dp1169
g1139
F1
sg1140
F4
sg1141
F1.1499999999999999
sg1142
F1
sg1143
(lp1170
g595
asg1145
F1.0900000000000001
sg1146
F1
sg578
g1166
sg1147
F10
sg1148
F1.0800000000000001
sg1149
(lp1171
g1052
ag872
ag595
ag971
ag1014
asg1151
F1.1000000000000001
sg1152
F1.1499999999999999
sg1153
(lp1172
g903
ag710
ag987
asg1155
F1.0800000000000001
sg1156
F1
sg1157
(lp1173
g678
asg1159
S'Politician'
p1174
sg1161
F1.2
sg584
S'Politician'
p1175
sg1163
F1
sg1164
(lp1176
g955
asbasS'SecretAgent'
p1177
(lp1178
g1
(g10
g3
NtRp1179
(dp1180
g1139
F1
sg1140
F4
sg1141
F1.1499999999999999
sg1142
F1
sg1143
(lp1181
sg1145
F1.0900000000000001
sg1146
F1
sg578
g1177
sg1147
F18
sg1148
F1.0800000000000001
sg1149
(lp1182
g1014
ag1036
ag840
asg1151
F1.1000000000000001
sg1152
F1.1499999999999999
sg1153
(lp1183
g998
ag816
asg1155
F1.0800000000000001
sg1156
F1
sg1157
(lp1184
sg1159
S'SecretAgent'
p1185
sg1161
F1.2
sg584
S'Agent Kawalski'
p1186
sg1163
F1
sg1164
(lp1187
sbasS'Bumpkin001'
p1188
(lp1189
g1
(g10
g3
NtRp1190
(dp1191
g1139
F1
sg1140
F4
sg1141
F1.1499999999999999
sg1142
F1
sg1143
(lp1192
sg1145
F1.0900000000000001
sg1146
F1
sg578
g1188
sg1147
F10
sg1148
F1.0800000000000001
sg1149
(lp1193
g971
ag732
asg1151
F1.1000000000000001
sg1152
F1.1499999999999999
sg1153
(lp1194
g694
ag787
asg1155
F1.0800000000000001
sg1156
F1
sg1157
(lp1195
g595
ag872
ag911
asg1159
S'Bumpkin'
p1196
sg1161
F1.2
sg584
S'Bumpkin'
p1197
sg1163
F1
sg1164
(lp1198
sbasS'WarVet001'
p1199
(lp1200
g1
(g10
g3
NtRp1201
(dp1202
g1139
F1
sg1140
F4
sg1141
F1.1499999999999999
sg1142
F1
sg1143
(lp1203
sg1145
F1.0900000000000001
sg1146
F1
sg578
g1199
sg1147
F10
sg1148
F1.0800000000000001
sg1149
(lp1204
g1006
ag1014
asg1151
F1.1000000000000001
sg1152
F1.1499999999999999
sg1153
(lp1205
g963
ag1044
asg1155
F1.0800000000000001
sg1156
F1
sg1157
(lp1206
sg1159
S'WarVet'
p1207
sg1161
F1.2
sg584
S'War Veteran'
p1208
sg1163
F1
sg1164
(lp1209
sbasS'Receptionist001'
p1210
(lp1211
g1
(g10
g3
NtRp1212
(dp1213
g1139
F1
sg1140
F4
sg1141
F1.1499999999999999
sg1142
F1
sg1143
(lp1214
sg1145
F1.0900000000000001
sg1146
F1
sg578
g1210
sg1147
F10
sg1148
F1.0800000000000001
sg1149
(lp1215
g932
ag880
asg1151
F1.1000000000000001
sg1152
F1.1499999999999999
sg1153
(lp1216
g888
ag664
asg1155
F1.0800000000000001
sg1156
F1
sg1157
(lp1217
sg1159
S'Receptionist'
p1218
sg1161
F1.2
sg584
S'Receptionist'
p1219
sg1163
F1
sg1164
(lp1220
sbasS'DeepThroat'
p1221
(lp1222
g1
(g10
g3
NtRp1223
(dp1224
g1139
F1
sg1140
F4
sg1141
F1.1499999999999999
sg1142
F1
sg1143
(lp1225
sg1145
F1.0900000000000001
sg1146
F1
sg578
g1221
sg1147
F10
sg1148
F1.0800000000000001
sg1149
(lp1226
g872
ag1014
ag1006
asg1151
F1.1000000000000001
sg1152
F1.1499999999999999
sg1153
(lp1227
g765
asg1155
F1.0800000000000001
sg1156
F1
sg1157
(lp1228
sg1159
S'DeepThroat'
p1229
sg1161
F1.2
sg584
S'Deep Throat'
p1230
sg1163
F1
sg1164
(lp1231
sbasS'Leo'
p1232
(lp1233
g1
(g10
g3
NtRp1234
(dp1235
g1139
F1
sg1140
F4
sg1141
F1.1499999999999999
sg1142
F1
sg1143
(lp1236
sg1145
F1.0900000000000001
sg1146
F1
sg578
g1232
sg1147
F14
sg1148
F1.0800000000000001
sg1149
(lp1237
g1052
ag872
ag595
ag971
ag678
asg1151
F1.1000000000000001
sg1152
F1.1499999999999999
sg1153
(lp1238
g903
ag710
ag955
ag803
asg1155
F1.0800000000000001
sg1156
F1
sg1157
(lp1239
sg1159
S'Theo'
p1240
sg1161
F1.2
sg584
S'Theo'
p1241
sg1163
F1
sg1164
(lp1242
sbasS'HippyGirl001'
p1243
(lp1244
g1
(g10
g3
NtRp1245
(dp1246
g1139
F1
sg1140
F4
sg1141
F1.1499999999999999
sg1142
F1
sg1143
(lp1247
sg1145
F1.0900000000000001
sg1146
F1
sg578
g1243
sg1147
F10
sg1148
F1.0800000000000001
sg1149
(lp1248
g686
ag779
ag824
asg1151
F1.1000000000000001
sg1152
F1.1499999999999999
sg1153
(lp1249
g848
ag1044
ag987
asg1155
F1.0800000000000001
sg1156
F1
sg1157
(lp1250
g971
asg1159
S'Hippy'
p1251
sg1161
F1.2
sg584
S'Hippy Girl'
p1252
sg1163
F1
sg1164
(lp1253
sbasS'President'
p1254
(lp1255
g1
(g10
g3
NtRp1256
(dp1257
g1139
F1
sg1140
F4
sg1141
F1.1499999999999999
sg1142
F1
sg1143
(lp1258
sg1145
F1.0900000000000001
sg1146
F1
sg578
g1254
sg1147
F10
sg1148
F1.0800000000000001
sg1149
(lp1259
g1052
ag872
ag595
ag971
ag1014
asg1151
F1.1000000000000001
sg1152
F1.1499999999999999
sg1153
(lp1260
g903
ag710
ag987
asg1155
F1.0800000000000001
sg1156
F1
sg1157
(lp1261
sg1159
S'Politician'
p1262
sg1161
F1.2
sg584
S'President Allen'
p1263
sg1163
F1
sg1164
(lp1264
sbasS'Unionist001'
p1265
(lp1266
g1
(g10
g3
NtRp1267
(dp1268
g1139
F1
sg1140
F4
sg1141
F1.1499999999999999
sg1142
F1
sg1143
(lp1269
sg1145
F1.0900000000000001
sg1146
F1
sg578
g1265
sg1147
F10
sg1148
F1.0800000000000001
sg1149
(lp1270
g1006
ag1014
ag779
asg1151
F1.1000000000000001
sg1152
F1.1499999999999999
sg1153
(lp1271
g864
asg1155
F1.0800000000000001
sg1156
F1
sg1157
(lp1272
sg1159
S'Unionist'
p1273
sg1161
F1.2
sg584
S'Unionist'
p1274
sg1163
F1
sg1164
(lp1275
sbasS'Wife'
p1276
(lp1277
g1
(g10
g3
NtRp1278
(dp1279
g1139
F1
sg1140
F4
sg1141
F1.1499999999999999
sg1142
F1
sg1143
(lp1280
sg1145
F1.0900000000000001
sg1146
F1
sg578
g1276
sg1147
F12
sg1148
F1.0800000000000001
sg1149
(lp1281
g1014
ag1052
asg1151
F1.1000000000000001
sg1152
F1.1499999999999999
sg1153
(lp1282
g1044
ag987
ag718
asg1155
F1.0800000000000001
sg1156
F1
sg1157
(lp1283
sg1159
S'Wife'
p1284
sg1161
F1.2
sg584
S'Sarah Mossman'
p1285
sg1163
F1
sg1164
(lp1286
sbasS'PresidentAlien'
p1287
(lp1288
g1
(g10
g3
NtRp1289
(dp1290
g1139
F1
sg1140
F4
sg1141
F1.1499999999999999
sg1142
F1
sg1143
(lp1291
sg1145
F1.0900000000000001
sg1146
F1
sg578
g1287
sg1147
F10
sg1148
F1.0800000000000001
sg1149
(lp1292
g1052
ag872
ag595
ag971
ag1014
asg1151
F1.1000000000000001
sg1152
F1.1499999999999999
sg1153
(lp1293
g903
ag710
ag987
asg1155
F1.0800000000000001
sg1156
F1
sg1157
(lp1294
sg1159
S'Politician'
p1295
sg1161
F1.2
sg584
S'President Alien'
p1296
sg1163
F1
sg1164
(lp1297
sbasS'Governor'
p1298
(lp1299
g1
(g10
g3
NtRp1300
(dp1301
g1139
F1
sg1140
F4
sg1141
F1.1499999999999999
sg1142
F1
sg1143
(lp1302
sg1145
F1.0900000000000001
sg1146
F1
sg578
g1298
sg1147
F10
sg1148
F1.0800000000000001
sg1149
(lp1303
g1052
ag872
ag595
ag971
ag1014
asg1151
F1.1000000000000001
sg1152
F1.1499999999999999
sg1153
(lp1304
g903
ag710
ag987
asg1155
F1.0800000000000001
sg1156
F1
sg1157
(lp1305
sg1159
S'Politician'
p1306
sg1161
F1.2
sg584
g1298
sg1163
F1
sg1164
(lp1307
sbasS'Lobbyist001'
p1308
(lp1309
g1
(g10
g3
NtRp1310
(dp1311
g1139
F1
sg1140
F4
sg1141
F1.1499999999999999
sg1142
F1
sg1143
(lp1312
sg1145
F1.0900000000000001
sg1146
F1
sg578
g1308
sg1147
F10
sg1148
F1.0800000000000001
sg1149
(lp1313
g795
ag1006
asg1151
F1.1000000000000001
sg1152
F1.1499999999999999
sg1153
(lp1314
g919
ag765
asg1155
F1.0800000000000001
sg1156
F1
sg1157
(lp1315
g955
asg1159
S'Lobbyist'
p1316
sg1161
F1.2
sg584
S'Lobbyist'
p1317
sg1163
F1
sg1164
(lp1318
g678
asbasS'Journalist001'
p1319
(lp1320
g1
(g10
g3
NtRp1321
(dp1322
g1139
F1
sg1140
F4
sg1141
F1.1499999999999999
sg1142
F1
sg1143
(lp1323
sg1145
F1.0900000000000001
sg1146
F1
sg578
g1319
sg1147
F10
sg1148
F1.0800000000000001
sg1149
(lp1324
g648
ag1028
asg1151
F1.1000000000000001
sg1152
F1.1499999999999999
sg1153
(lp1325
g832
ag550
ag624
asg1155
F1.0800000000000001
sg1156
F1
sg1157
(lp1326
sg1159
S'Journalist'
p1327
sg1161
F1.2
sg584
S'Journalist'
p1328
sg1163
F1
sg1164
(lp1329
sbasS'ReligiousNut001'
p1330
(lp1331
g1
(g10
g3
NtRp1332
(dp1333
g1139
F1
sg1140
F4
sg1141
F1.1499999999999999
sg1142
F1
sg1143
(lp1334
sg1145
F1.0900000000000001
sg1146
F1
sg578
g1330
sg1147
F10
sg1148
F1.0800000000000001
sg1149
(lp1335
g632
ag979
ag1014
asg1151
F1.1000000000000001
sg1152
F1.1499999999999999
sg1153
(lp1336
g1060
ag753
asg1155
F1.0800000000000001
sg1156
F1
sg1157
(lp1337
sg1159
S'Religious'
p1338
sg1161
F1.2
sg584
S'Religious Nut'
p1339
sg1163
F1
sg1164
(lp1340
g971
asbasS'JointChief001'
p1341
(lp1342
g1
(g10
g3
NtRp1343
(dp1344
g1139
F1
sg1140
F4
sg1141
F1.1499999999999999
sg1142
F1
sg1143
(lp1345
sg1145
F1.0900000000000001
sg1146
F1
sg578
g1341
sg1147
F10
sg1148
F1.0800000000000001
sg1149
(lp1346
g1006
ag1014
ag1036
ag702
asg1151
F1.1000000000000001
sg1152
F1.1499999999999999
sg1153
(lp1347
g816
asg1155
F1.0800000000000001
sg1156
F1
sg1157
(lp1348
sg1159
S'JointChief'
p1349
sg1161
F1.2
sg584
S'Joint Chief'
p1350
sg1163
F1
sg1164
(lp1351
sbasS'Protester001'
p1352
(lp1353
g1
(g10
g3
NtRp1354
(dp1355
g1139
F1
sg1140
F4
sg1141
F1.1499999999999999
sg1142
F1
sg1143
(lp1356
sg1145
F1.0900000000000001
sg1146
F1
sg578
g1352
sg1147
F10
sg1148
F1.0800000000000001
sg1149
(lp1357
g779
ag640
ag686
asg1151
F1.1000000000000001
sg1152
F1.1499999999999999
sg1153
(lp1358
g1044
asg1155
F1.0800000000000001
sg1156
F1
sg1157
(lp1359
sg1159
S'Protestor'
p1360
sg1161
F1.2
sg584
S'Protester'
p1361
sg1163
F1
sg1164
(lp1362
sbasS'TVPersonality001'
p1363
(lp1364
g1
(g10
g3
NtRp1365
(dp1366
g1139
F1
sg1140
F4
sg1141
F1.1499999999999999
sg1142
F1
sg1143
(lp1367
sg1145
F1.0900000000000001
sg1146
F1
sg578
g1363
sg1147
F10
sg1148
F1.0800000000000001
sg1149
(lp1368
g971
ag648
asg1151
F1.1000000000000001
sg1152
F1.1499999999999999
sg1153
(lp1369
g624
ag609
asg1155
F1.0800000000000001
sg1156
F1
sg1157
(lp1370
sg1159
S'TVPersonality'
p1371
sg1161
F1.2
sg584
S"Hecules O'Grady"
p1372
sg1163
F1
sg1164
(lp1373
sbasS'Player'
p1374
(lp1375
g1
(g10
g3
NtRp1376
(dp1377
g1139
F1
sg1140
F5
sg1141
F1.1499999999999999
sg1142
F1
sg1143
(lp1378
sg1145
F1.0900000000000001
sg1146
F1
sg578
g1374
sg1147
F15
sg1148
F1.0800000000000001
sg1149
(lp1379
g1052
ag595
ag971
asg1151
F1.1000000000000001
sg1152
F1.1499999999999999
sg1153
(lp1380
g903
ag710
ag1044
asg1155
F1.0800000000000001
sg1156
F1
sg1157
(lp1381
sg1159
S'Player'
p1382
sg1161
F1.2
sg584
S'Phillip Mossman'
p1383
sg1163
F2
sg1164
(lp1384
sbasS'Computer'
p1385
(lp1386
g1
(g10
g3
NtRp1387
(dp1388
g1139
F1
sg1140
F4
sg1141
F1.1499999999999999
sg1142
F1
sg1143
(lp1389
sg1145
F1.0900000000000001
sg1146
F1
sg578
g1385
sg1147
F10
sg1148
F1.0800000000000001
sg1149
(lp1390
g1052
ag872
ag595
ag971
ag1014
asg1151
F1.1000000000000001
sg1152
F1.1499999999999999
sg1153
(lp1391
g903
ag710
ag987
asg1155
F1.0800000000000001
sg1156
F1
sg1157
(lp1392
sg1159
S'Politician'
p1393
sg1161
F1.2
sg584
S'N.O.T.B.A.D'
p1394
sg1163
F1
sg1164
(lp1395
sbasS'CabinetPolitician001'
p1396
(lp1397
g1
(g10
g3
NtRp1398
(dp1399
g1139
F1
sg1140
F4
sg1141
F1.1499999999999999
sg1142
F1
sg1143
(lp1400
sg1145
F1.0900000000000001
sg1146
F1
sg578
g1396
sg1147
F10
sg1148
F1.0800000000000001
sg1149
(lp1401
g1052
ag872
ag595
ag971
ag1014
asg1151
F1.1000000000000001
sg1152
F1.1499999999999999
sg1153
(lp1402
g903
ag710
ag987
asg1155
F1.0800000000000001
sg1156
F1
sg1157
(lp1403
sg1159
S'Politician'
p1404
sg1161
F1.2
sg584
S'Cabinet Politician'
p1405
sg1163
F1
sg1164
(lp1406
sbasS'Constituent001'
p1407
(lp1408
g1
(g10
g3
NtRp1409
(dp1410
g1139
F1
sg1140
F4
sg1141
F1.1499999999999999
sg1142
F1
sg1143
(lp1411
sg1145
F1.0900000000000001
sg1146
F1
sg578
g1407
sg1147
F10
sg1148
F1.0800000000000001
sg1149
(lp1412
g779
ag795
ag1006
asg1151
F1.1000000000000001
sg1152
F1.1499999999999999
sg1153
(lp1413
g987
asg1155
F1.0800000000000001
sg1156
F1
sg1157
(lp1414
sg1159
S'Constituent'
p1415
sg1161
F1.2
sg584
S'Constituent'
p1416
sg1163
F1
sg1164
(lp1417
sbasS'Mayor'
p1418
(lp1419
g1
(g10
g3
NtRp1420
(dp1421
g1139
F1
sg1140
F4
sg1141
F1.1499999999999999
sg1142
F1
sg1143
(lp1422
sg1145
F1.0900000000000001
sg1146
F1
sg578
g1418
sg1147
F10
sg1148
F1.0800000000000001
sg1149
(lp1423
g1052
ag872
ag595
ag971
ag1014
asg1151
F1.1000000000000001
sg1152
F1.1499999999999999
sg1153
(lp1424
g903
ag710
ag987
asg1155
F1.0800000000000001
sg1156
F1
sg1157
(lp1425
sg1159
S'Politician'
p1426
sg1161
F1.2
sg584
S'Mayor Goodman'
p1427
sg1163
F1
sg1164
(lp1428
sbassS'quest_items'
p1429
(dp1430
S'PEN'
p1431
g1
(g10
g3
NtRp1432
(dp1433
g584
S'A pen'
p1434
sg578
g1431
sbsS'BILLOFRIGHTS'
p1435
g1
(g10
g3
NtRp1436
(dp1437
g584
S"Citizens' Bill of Rights"
p1438
sg578
g1435
sbssg1149
(dp1439
S'Theo'
p1440
(lp1441
g1052
ag872
ag595
ag971
ag678
ag903
ag710
ag955
ag803
asS'JointChief'
p1442
(lp1443
g1006
ag1014
ag1036
ag816
ag702
asS'Politician'
p1444
(lp1445
g1052
ag872
ag595
ag971
ag903
ag710
ag987
ag1014
asS'Bumpkin'
p1446
(lp1447
g971
ag694
ag787
ag732
asS'TVPersonality'
p1448
(lp1449
g971
ag624
ag648
ag609
asS'SecretAgent'
p1450
(lp1451
g1014
ag998
ag1036
ag816
ag840
asS'DeepThroat'
p1452
(lp1453
g872
ag1014
ag765
ag1006
asS'Protestor'
p1454
(lp1455
g1044
ag779
ag640
ag686
asS'Lobbyist'
p1456
(lp1457
g795
ag919
ag765
ag1006
asS'Teacher'
p1458
(lp1459
g864
ag1014
ag779
ag1044
asS'Player'
p1460
(lp1461
g1052
ag595
ag971
ag903
ag710
ag1044
asS'Computer'
p1462
(lp1463
g816
ag1036
ag656
ag765
ag1006
ag872
asS'Receptionist'
p1464
(lp1465
g932
ag880
ag888
ag664
asS'Hippy'
p1466
(lp1467
g686
ag779
ag824
ag848
ag1044
ag987
asS'Constituent'
p1468
(lp1469
g779
ag987
ag795
ag1006
asS'Wife'
p1470
(lp1471
g1044
ag987
ag1014
ag1052
ag718
asS'WarVet'
p1472
(lp1473
g1006
ag1014
ag963
ag1044
asS'Religious'
p1474
(lp1475
g632
ag1060
ag753
ag979
ag1014
asS'Unionist'
p1476
(lp1477
g1006
ag1014
ag779
ag864
asS'Journalist'
p1478
(lp1479
g648
ag1028
ag832
ag550
ag624
assS'encounters'
p1480
(dp1481
S'P-easy-05'
p1482
g1
(g10
g3
NtRp1483
(dp1484
S'item_attack_drops'
p1485
(lp1486
sS'item_attacks'
p1487
(lp1488
sg584
S''
sg1074
F10
sS'monster2_lvl'
p1489
S''
sS'monster3'
p1490
S''
sS'monster1_lvl'
p1491
F1
sS'monster3_lvl'
p1492
S''
sS'monster4_lvl'
p1493
S''
sS'monster4'
p1494
S''
sS'monster2'
p1495
S''
sg578
g1482
sS'monster1'
p1496
S'Journalist001'
p1497
sbsS'P-easy-04'
p1498
g1
(g10
g3
NtRp1499
(dp1500
g1485
(lp1501
sg1487
(lp1502
sg584
S''
sg1074
F10
sg1489
F1
sg1490
S'Protester001'
p1503
sg1491
F1
sg1492
F1
sg1493
S''
sg1494
S''
sg1495
S'Protester001'
p1504
sg578
g1498
sg1496
S'Protester001'
p1505
sbsS'P-easy-06'
p1506
g1
(g10
g3
NtRp1507
(dp1508
g1485
(lp1509
sg1487
(lp1510
sg584
S''
sg1074
F10
sg1489
F1
sg1490
S''
sg1491
F1
sg1492
S''
sg1493
S''
sg1494
S''
sg1495
S'Lobbyist001'
p1511
sg578
g1506
sg1496
S'Lobbyist001'
p1512
sbsS'P-easy-01'
p1513
g1
(g10
g3
NtRp1514
(dp1515
g1485
(lp1516
g1
(c__main__
ItemAttack
p1517
g3
NtRp1518
(dp1519
S'attack'
p1520
g587
sS'quantity'
p1521
I1
sbasg1487
(lp1522
g1
(g1517
g3
NtRp1523
(dp1524
g1520
g856
sg1521
I1
sbasg584
S'Battle for pen'
p1525
sg1074
F10
sg1489
S''
sg1490
S''
sg1491
F1
sg1492
S''
sg1493
S''
sg1494
S''
sg1495
S''
sg578
g1513
sg1496
S'Receptionist001'
p1526
sbsS'P-easy-03'
p1527
g1
(g10
g3
NtRp1528
(dp1529
g1485
(lp1530
sg1487
(lp1531
sg584
S''
sg1074
F10
sg1489
F1
sg1490
S''
sg1491
F1
sg1492
S''
sg1493
S''
sg1494
S''
sg1495
S'Protester001'
p1532
sg578
g1527
sg1496
S'Protester001'
p1533
sbsS'P-easy-02'
p1534
g1
(g10
g3
NtRp1535
(dp1536
g1485
(lp1537
sg1487
(lp1538
sg584
S''
sg1074
F10
sg1489
F1
sg1490
S''
sg1491
F1
sg1492
S''
sg1493
S''
sg1494
S''
sg1495
S'Protester001'
p1539
sg578
g1534
sg1496
S'Protester001'
p1540
sbssb.