ccopy_reg
_reconstructor
p1
(c__main__
GameData
p2
c__builtin__
object
p3
NtRp4
(dp5
S'script'
p6
(dp7
S'_Act2'
p8
(lp9
g1
(c__main__
TableRow
p10
g3
NtRp11
(dp12
S'action'
p13
S'AddAlly'
p14
sS'trigger'
p15
g8
sS'param'
p16
S'Wife:1'
p17
sS'dialog'
p18
S''
sbag1
(g10
g3
NtRp19
(dp20
g13
S'GotoMap'
p21
sg15
S'_Act2'
p22
sg16
S'act2'
p23
sg18
S''
sbasS'FlunkyTest'
p24
(lp25
g1
(g10
g3
NtRp26
(dp27
g13
S'RestoreVotes'
p28
sg15
g24
sg16
S''
sg18
S'Here are votes'
p29
sbag1
(g10
g3
NtRp30
(dp31
g13
S'RestoreSpin'
p32
sg15
S'FlunkyTest'
p33
sg16
S''
sg18
S'Here is spin'
p34
sbag1
(g10
g3
NtRp35
(dp36
g13
S'GiveMoney'
p37
sg15
S'FlunkyTest'
p38
sg16
F100
sg18
S'Here is $100'
p39
sbag1
(g10
g3
NtRp40
(dp41
g13
S'RequireCount'
p42
sg15
S'FlunkyTest'
p43
sg16
S'FLUNKIES:3'
p44
sg18
S'Take out 3 flunkies'
p45
sbag1
(g10
g3
NtRp46
(dp47
g13
S'Say'
p48
sg15
S'FlunkyTest'
p49
sg16
S''
sg18
S'Thanks!'
p50
sbasS'Wife'
p51
(lp52
g1
(g10
g3
NtRp53
(dp54
g13
S'GotoMap'
p55
sg15
g51
sg16
S'act1'
p56
sg18
S''
sbag1
(g10
g3
NtRp57
(dp58
g13
S'_RequireFlag'
p59
sg15
S'Wife'
p60
sg16
S'GOHOMETOWIFE'
p61
sg18
S'What are you doing here, Phillip? You should be at work!'
p62
sbag1
(g10
g3
NtRp63
(dp64
g13
S'Say'
p65
sg15
S'Wife'
p66
sg16
S''
sg18
S'Welcome home, Phillip! How was your workday?'
p67
sbag1
(g10
g3
NtRp68
(dp69
g13
S'PlayerSay'
p70
sg15
S'Wife'
p71
sg16
S''
sg18
S'\xe2\x80\xa6'
p72
sbag1
(g10
g3
NtRp73
(dp74
g13
S'Say'
p75
sg15
S'Wife'
p76
sg16
S''
sg18
S"That good, huh? You know this isn't what you want. Why don't you strike out on your own?"
p77
sbag1
(g10
g3
NtRp78
(dp79
g13
S'PlayerSay'
p80
sg15
S'Wife'
p81
sg16
S''
sg18
S"I didn't think I knew where to start to be a Mayor, but Mayor Goodman makes it look easy."
p82
sbag1
(g10
g3
NtRp83
(dp84
g13
S'Say'
p85
sg15
S'Wife'
p86
sg16
S''
sg18
S"That's the spirit! You can do it! All you need is some money and support."
p87
sbag1
(g10
g3
NtRp88
(dp89
g13
S'PlayerSay'
p90
sg15
S'Wife'
p91
sg16
S''
sg18
S'Well...OK! Lets start with money. We need a sponsor.'
p92
sbag1
(g10
g3
NtRp93
(dp94
g13
S'Say'
p95
sg15
S'Wife'
p96
sg16
S''
sg18
S'OK, lets go get one!'
p97
sbag1
(g10
g3
NtRp98
(dp99
g13
S'AddAlly'
p100
sg15
S'Wife'
p101
sg16
S'Wife:1'
p102
sg18
S'Sarah Mossman Joins Your Political Party!'
p103
sbag1
(g10
g3
NtRp104
(dp105
g13
S'SetFlag'
p106
sg15
S'Wife'
p107
sg16
S'STARTSPONSOR'
p108
sg18
S''
sbag1
(g10
g3
NtRp109
(dp110
g13
S'Destroy'
p111
sg15
S'Wife'
p112
sg16
S''
sg18
S''
sbasS'Flunky2'
p113
(lp114
g1
(g10
g3
NtRp115
(dp116
g13
S'Increment'
p117
sg15
g113
sg16
S'FLUNKIES'
p118
sg18
S''
sbag1
(g10
g3
NtRp119
(dp120
g13
S'Say'
p121
sg15
S'Flunky2'
p122
sg16
S''
sg18
S'You talked to me'
p123
sbag1
(g10
g3
NtRp124
(dp125
g13
S'Destroy'
p126
sg15
S'Flunky2'
p127
sg16
S''
sg18
S''
sbasS'Flunky3'
p128
(lp129
g1
(g10
g3
NtRp130
(dp131
g13
S'Increment'
p132
sg15
g128
sg16
S'FLUNKIES'
p133
sg18
S''
sbag1
(g10
g3
NtRp134
(dp135
g13
S'Say'
p136
sg15
S'Flunky3'
p137
sg16
S''
sg18
S'You talked to me'
p138
sbag1
(g10
g3
NtRp139
(dp140
g13
S'Destroy'
p141
sg15
S'Flunky3'
p142
sg16
S''
sg18
S''
sbasS'Flunky1'
p143
(lp144
g1
(g10
g3
NtRp145
(dp146
g13
S'Increment'
p147
sg15
g143
sg16
S'FLUNKIES'
p148
sg18
S''
sbag1
(g10
g3
NtRp149
(dp150
g13
S'Say'
p151
sg15
S'Flunky1'
p152
sg16
S''
sg18
S'You talked to me'
p153
sbag1
(g10
g3
NtRp154
(dp155
g13
S'Destroy'
p156
sg15
S'Flunky1'
p157
sg16
S''
sg18
S''
sbasS'Protester2'
p158
(lp159
g1
(g10
g3
NtRp160
(dp161
g13
S'Say'
p162
sg15
g158
sg16
S''
sg18
S"Bees buzz, Mayors lie, who's this Phillip Mossman guy?"
p163
sbag1
(g10
g3
NtRp164
(dp165
g13
S'RequireFlag'
p166
sg15
S'Protester2'
p167
sg16
S'PROTESTORS'
p168
sg18
S''
sbag1
(g10
g3
NtRp169
(dp170
g13
S'Encounter'
p171
sg15
S'Protester2'
p172
sg16
S'P-easy-03'
p173
sg18
S''
sbag1
(g10
g3
NtRp174
(dp175
g13
S'Destroy'
p176
sg15
S'Protester2'
p177
sg16
S''
sg18
S''
sbasS'Protester1'
p178
(lp179
g1
(g10
g3
NtRp180
(dp181
g13
S'Say'
p182
sg15
g178
sg16
S''
sg18
S"Fee Fi Fo Fum, we think Mayor Goodman's Dumb!"
p183
sbag1
(g10
g3
NtRp184
(dp185
g13
S'RequireFlag'
p186
sg15
S'Protester1'
p187
sg16
S'PROTESTORS'
p188
sg18
S''
sbag1
(g10
g3
NtRp189
(dp190
g13
S'Encounter'
p191
sg15
S'Protester1'
p192
sg16
S'P-easy-02'
p193
sg18
S''
sbag1
(g10
g3
NtRp194
(dp195
g13
S'Destroy'
p196
sg15
S'Protester1'
p197
sg16
S''
sg18
S''
sbasS'Head Protester'
p198
(lp199
g1
(g10
g3
NtRp200
(dp201
g13
S'Say'
p202
sg15
g198
sg16
S''
sg18
S"I am the head protester. You'll never convince us to back down!"
p203
sbag1
(g10
g3
NtRp204
(dp205
g13
S'RequireFlag'
p206
sg15
S'Head Protester'
p207
sg16
S'PROTESTORS'
p208
sg18
S''
sbag1
(g10
g3
NtRp209
(dp210
g13
S'PlayerSay'
p211
sg15
S'Head Protester'
p212
sg16
S''
sg18
S'What are you protesting?'
p213
sbag1
(g10
g3
NtRp214
(dp215
g13
S'Say'
p216
sg15
S'Head Protester'
p217
sg16
S''
sg18
S'Er...Injustice!'
p218
sbag1
(g10
g3
NtRp219
(dp220
g13
S'PlayerSay'
p221
sg15
S'Head Protester'
p222
sg16
S''
sg18
S'Injustice against what?'
p223
sbag1
(g10
g3
NtRp224
(dp225
g13
S'Say'
p226
sg15
S'Head Protester'
p227
sg16
S''
sg18
S'\xe2\x80\xa6'
p228
sbag1
(g10
g3
NtRp229
(dp230
g13
S'Say'
p231
sg15
S'Head Protester'
p232
sg16
S''
sg18
S'The People!'
p233
sbag1
(g10
g3
NtRp234
(dp235
g13
S'PlayerSay'
p236
sg15
S'Head Protester'
p237
sg16
S''
sg18
S'Yes, but which people?'
p238
sbag1
(g10
g3
NtRp239
(dp240
g13
S'Say'
p241
sg15
S'Head Protester'
p242
sg16
S''
sg18
S'See? What a fascist, ALL people you slimey politician scum!'
p243
sbag1
(g10
g3
NtRp244
(dp245
g13
S'Encounter'
p246
sg15
S'Head Protester'
p247
sg16
S'P-easy-04'
p248
sg18
S''
sbag1
(g10
g3
NtRp249
(dp250
g13
S'Say'
p251
sg15
S'Head Protester'
p252
sg16
S''
sg18
S"Alright, fine! We'll stop protesting...whatever we were protesting."
p253
sbag1
(g10
g3
NtRp254
(dp255
g13
S'SetFlag'
p256
sg15
S'Head Protester'
p257
sg16
S'PROTESTORSDEAD'
p258
sg18
S''
sbag1
(g10
g3
NtRp259
(dp260
g13
S'Destroy'
p261
sg15
S'Head Protester'
p262
sg16
S''
sg18
S''
sbasS'Receptionist'
p263
(lp264
g1
(g10
g3
NtRp265
(dp266
g13
S'Encounter'
p267
sg15
g263
sg16
S'P-easy-01'
p268
sg18
S''
sbag1
(g10
g3
NtRp269
(dp270
g13
S'GiveItem'
p271
sg15
S'Receptionist'
p272
sg16
S'PEN'
p273
sg18
S'Receptionist sighs and hands over the pen.'
p274
sbag1
(g10
g3
NtRp275
(dp276
g13
S'Destroy'
p277
sg15
S'Receptionist'
p278
sg16
S''
sg18
S''
sbasS'Sponsor'
p279
(lp280
g1
(g10
g3
NtRp281
(dp282
g13
S'RequireFlag'
p283
sg15
g279
sg16
S'STARTSPONSOR'
p284
sg18
S"Hmmm...Money, money, money. Sorry, what? I wasn't talking to you."
p285
sbag1
(g10
g3
NtRp286
(dp287
g13
S'Say'
p288
sg15
S'Sponsor'
p289
sg16
S''
sg18
S"Hello, I'm investigating new investments today. How can I help you?"
p290
sbag1
(g10
g3
NtRp291
(dp292
g13
S'PlayerSay'
p293
sg15
S'Sponsor'
p294
sg16
S''
sg18
S"Well, I've decided to run for Mayor! I could really use an investor."
p295
sbag1
(g10
g3
NtRp296
(dp297
g13
S'Say'
p298
sg15
S'Sponsor'
p299
sg16
S''
sg18
S"I don't know. You seem a little young. I don't think I'm convinced."
p300
sbag1
(g10
g3
NtRp301
(dp302
g13
S'Encounter'
p303
sg15
S'Sponsor'
p304
sg16
S'P-easy-06'
p305
sg18
S''
sbag1
(g10
g3
NtRp306
(dp307
g13
S'Say'
p308
sg15
S'Sponsor'
p309
sg16
S''
sg18
S"Wow! You sure have what it takes! Alright, he's a pile of cash!"
p310
sbag1
(g10
g3
NtRp311
(dp312
g13
S'Say'
p313
sg15
S'Sponsor'
p314
sg16
S''
sg18
S'Also, now that you have some funds, you might find it useful to...grease the wheels in some difficult situations.'
p315
sbag1
(g10
g3
NtRp316
(dp317
g13
S'LearnAttack'
p318
sg15
S'Sponsor'
p319
sg16
S'BRIBE'
p320
sg18
S'Phillip and Sarah learn to Bribe'
p321
sbag1
(g10
g3
NtRp322
(dp323
g13
S'LearnAttack'
p324
sg15
S'Sponsor'
p325
sg16
S'Wife:BRIBE'
p326
sg18
S''
sbag1
(g10
g3
NtRp327
(dp328
g13
S'SetFlag'
p329
sg15
S'Sponsor'
p330
sg16
S'STARTCONSTITUENTS'
p331
sg18
S''
sbag1
(g10
g3
NtRp332
(dp333
g13
S'PlayerSay'
p334
sg15
S'Sponsor'
p335
sg16
S''
sg18
S'Er, thanks! I suppose we should go gather some support from our constituents now.'
p336
sbag1
(g10
g3
NtRp337
(dp338
g13
S'Say'
p339
sg15
S'Sponsor'
p340
sg16
S''
sg18
S"Makes sense to me! I'm off, too. Money, money, money."
p341
sbag1
(g10
g3
NtRp342
(dp343
g13
S'Destroy'
p344
sg15
S'Sponsor'
p345
sg16
S''
sg18
S''
sbasS'P-easy-01'
p346
(lp347
g1
(g10
g3
NtRp348
(dp349
g13
S'Say'
p350
sg15
g346
sg16
S'Player'
p351
sg18
S'Well now we are fighting'
p352
sbag1
(g10
g3
NtRp353
(dp354
g13
S'Say'
p355
sg15
S'P-easy-01'
p356
sg16
S'Receptionist001'
p357
sg18
S"Let's go!"
p358
sbag1
(g10
g3
NtRp359
(dp360
g13
S'BeginCombat'
p361
sg15
S'P-easy-01'
p362
sg16
S''
sg18
S''
sbag1
(g10
g3
NtRp363
(dp364
g13
S'Say'
p365
sg15
S'P-easy-01'
p366
sg16
S'Receptionist001'
p367
sg18
S'Alas, I am dead'
p368
sbasS'Mayor'
p369
(lp370
g1
(g10
g3
NtRp371
(dp372
g13
S'Say'
p373
sg15
g369
sg16
S''
sg18
S"Hello, I'm the Mayor!"
p374
sbag1
(g10
g3
NtRp375
(dp376
g13
S'PlayerSay'
p377
sg15
S'Mayor'
p378
sg16
S''
sg18
S"Hello, Mayor Goodman, I'm Philip Mossman."
p379
sbag1
(g10
g3
NtRp380
(dp381
g13
S'Say'
p382
sg15
S'Mayor'
p383
sg16
S''
sg18
S"Ah yes, you're my new assistant. A good thing, too."
p384
sbag1
(g10
g3
NtRp385
(dp386
g13
S'Say'
p387
sg15
S'Mayor'
p388
sg16
S''
sg18
S"I've been searching for minutes and haven't been able to find my pen! I bet my receptionist stole it. She has sticky fingers."
p389
sbag1
(g10
g3
NtRp390
(dp391
g13
S'Say'
p392
sg15
S'Mayor'
p393
sg16
S''
sg18
S"Well, don't just stand there, go and get it!"
p394
sbag1
(g10
g3
NtRp395
(dp396
g13
S'SetFlag'
p397
sg15
S'Mayor'
p398
sg16
S'PENQUEST'
p399
sg18
S''
sbag1
(g10
g3
NtRp400
(dp401
g13
S'RequireItem'
p402
sg15
S'Mayor'
p403
sg16
S'PEN'
p404
sg18
S'Are you simple? Go and get my pen from that thieving receptionist.'
p405
sbag1
(g10
g3
NtRp406
(dp407
g13
S'Say'
p408
sg15
S'Mayor'
p409
sg16
S''
sg18
S"Great! I know she can give you a bit of a tongue-lashing, but she's a fantastic receptionist."
p410
sbag1
(g10
g3
NtRp411
(dp412
g13
S'Say'
p413
sg15
S'Mayor'
p414
sg16
S''
sg18
S"I'm sure you want to learn a thing or two about politics \xe2\x80\x93 who doesn't? - so lets get started"
p415
sbag1
(g10
g3
NtRp416
(dp417
g13
S'SetFlag'
p418
sg15
S'Mayor'
p419
sg16
S'PROTESTORS'
p420
sg18
S''
sbag1
(g10
g3
NtRp421
(dp422
g13
S'RequireFlag'
p423
sg15
S'Mayor'
p424
sg16
S'PROTESTORSDEAD'
p425
sg18
S'Run outside and tell those protesters to scram, will you?'
p426
sbag1
(g10
g3
NtRp427
(dp428
g13
S'Say'
p429
sg15
S'Mayor'
p430
sg16
S''
sg18
S"Hope they didn't give you too much trouble!"
p431
sbag1
(g10
g3
NtRp432
(dp433
g13
S'Say'
p434
sg15
S'Mayor'
p435
sg16
S''
sg18
S"Now that's sorted, there's a journalist from the local newspaper coming for an interview."
p436
sbag1
(g10
g3
NtRp437
(dp438
g13
S'Say'
p439
sg15
S'Mayor'
p440
sg16
S''
sg18
S"I certainly don't have time for it, so you can do the interview."
p441
sbag1
(g10
g3
NtRp442
(dp443
g13
S'Say'
p444
sg15
S'Mayor'
p445
sg16
S''
sg18
S"Be careful not to give too much away and if you could throw a few punches at the opposition that'd help."
p446
sbag1
(g10
g3
NtRp447
(dp448
g13
S'PlayerSay'
p449
sg15
S'Mayor'
p450
sg16
S''
sg18
S'You want me to...throw a punch?'
p451
sbag1
(g10
g3
NtRp452
(dp453
g13
S'Say'
p454
sg15
S'Mayor'
p455
sg16
S''
sg18
S"You're in politics and don't know how to fight dirty? Sheesh! Here, let me show you."
p456
sbag1
(g10
g3
NtRp457
(dp458
g13
S'LearnAttack'
p459
sg15
S'Mayor'
p460
sg16
S'SLANDER'
p461
sg18
S'Mayor teaches Phillip to Slander Opposition'
p462
sbag1
(g10
g3
NtRp463
(dp464
g13
S'Say'
p465
sg15
S'Mayor'
p466
sg16
S''
sg18
S"It's a pretty great tactic because it keeps eating away at them long after you've done it."
p467
sbag1
(g10
g3
NtRp468
(dp469
g13
S'SetFlag'
p470
sg15
S'Mayor'
p471
sg16
S'INTERVIEWSTART'
p472
sg18
S''
sbag1
(g10
g3
NtRp473
(dp474
g13
S'RequireFlag'
p475
sg15
S'Mayor'
p476
sg16
S'JOURNALISTINTERVIEW'
p477
sg18
S'Go handle that interview and remember to slander the opposition.'
p478
sbag1
(g10
g3
NtRp479
(dp480
g13
S'SetFlag'
p481
sg15
S'Mayor'
p482
sg16
S'GOHOMETOWIFE'
p483
sg18
S''
sbag1
(g10
g3
NtRp484
(dp485
g13
S'Say'
p486
sg15
S'Mayor'
p487
sg16
S''
sg18
S'OK, fine, now could you buzz off for a while? I need to get some work done.'
p488
sbag1
(g10
g3
NtRp489
(dp490
g13
S'RequireFlag'
p491
sg15
S'Mayor'
p492
sg16
S'CONSTITUENTSWON'
p493
sg18
S"Go home to your family. I have things to do that don't involve you."
p494
sbasS'Journalist'
p495
(lp496
g1
(g10
g3
NtRp497
(dp498
g13
S'RequireFlag'
p499
sg15
g495
sg16
S'INTERVIEWSTART'
p500
sg18
S'Leave me alone, kid I need to get this done before my deadline!'
p501
sbag1
(g10
g3
NtRp502
(dp503
g13
S'Say'
p504
sg15
S'Journalist'
p505
sg16
S''
sg18
S"Hey, where's the Mayor?"
p506
sbag1
(g10
g3
NtRp507
(dp508
g13
S'PlayerSay'
p509
sg15
S'Journalist'
p510
sg16
S''
sg18
S"He couldn't make it. I'll be taking the interview."
p511
sbag1
(g10
g3
NtRp512
(dp513
g13
S'Say'
p514
sg15
S'Journalist'
p515
sg16
S''
sg18
S'Great! Easy pickings! Lets go.'
p516
sbag1
(g10
g3
NtRp517
(dp518
g13
S'Encounter'
p519
sg15
S'Journalist'
p520
sg16
S'P-easy-05'
p521
sg18
S''
sbag1
(g10
g3
NtRp522
(dp523
g13
S'Say'
p524
sg15
S'Journalist'
p525
sg16
S''
sg18
S"SNORE! Fine, if I can't get anything juicy here I'll do another puff piece on my poodle Frank."
p526
sbag1
(g10
g3
NtRp527
(dp528
g13
S'SetFlag'
p529
sg15
S'Journalist'
p530
sg16
S'JOURNALISTINTERVIEW'
p531
sg18
S''
sbag1
(g10
g3
NtRp532
(dp533
g13
S'Destroy'
p534
sg15
S'Journalist'
p535
sg16
S''
sg18
S''
sbassS'attacks'
p536
(dp537
S'GETEXCLUSIVE'
p538
g1
(g10
g3
NtRp539
(dp540
S'base_damage_max'
p541
F4
sS'description'
p542
S'asdf'
p543
sS'weight'
p544
I1
sS'crit_chance_max'
p545
F5
sS'crit_chance_min'
p546
F2
sS'underlying_stat'
p547
S'Wit'
p548
sS'target_type'
p549
S'AllFriendly'
p550
sS'base_damage_min'
p551
F2
sS'spin_cost'
p552
F5
sS'effects'
p553
(lp554
g1
(c__main__
Effect
p555
g3
NtRp556
(dp557
S'function'
p558
S'add'
p559
sS'abbrv'
p560
S'(INCREASE)'
p561
sS'attribute'
p562
S'cunning'
p563
sS'value'
p564
F2
sS'rounds_min'
p565
F1
sS'rounds_max'
p566
F4
sS'id'
p567
S'Increase Cunning'
p568
sS'apply_to_source'
p569
S'TRUE'
p570
sbasS'target_count'
p571
I1
sS'crit_base_damage'
p572
F8
sg567
g538
sS'name'
p573
S'Get Exclusive'
p574
sbsS'LOSELOSE'
p575
g1
(g10
g3
NtRp576
(dp577
g541
F4
sg542
S'Causes all politicians in the target radius to lose votes'
p578
sg544
I1
sg545
F0
sg546
F0
sg547
S'Cunning'
p579
sg549
S'All'
p580
sg551
F4
sg552
I0
sg553
(lp581
sg571
I6
sg572
F0
sg567
g575
sg573
S'Lose/lose issue'
p582
sbsS'LIE'
p583
g1
(g10
g3
NtRp584
(dp585
g541
F6
sg542
S"It's only lying if they catch you. A strong attack with a danger of failing entirely and leaving you high and dry."
p586
sg544
F3
sg545
F10
sg546
F2
sg547
S'Wit'
p587
sg549
S'AllEnemy'
p588
sg551
F0
sg552
I0
sg553
(lp589
g1
(g555
g3
NtRp590
(dp591
g558
S'miss_turn'
p592
sg560
S'(MISS)'
p593
sg562
S''
sg564
F0
sg565
F1
sg566
F1
sg567
S'Critical Fail'
p594
sg569
S'TRUE'
p595
sbasg571
I1
sg572
F10
sg567
g583
sg573
S'Lie'
p596
sbsS'HILARIOUSANECDOTE'
p597
g1
(g10
g3
NtRp598
(dp599
g541
F8
sg542
S'asdf'
p600
sg544
I1
sg545
F0
sg546
F0
sg547
S'Wit'
p601
sg549
S'AllFriendly'
p602
sg551
F4
sg552
F5
sg553
(lp603
g1
(g555
g3
NtRp604
(dp605
g558
S'add'
p606
sg560
S'(INCREASE)'
p607
sg562
S'flair'
p608
sg564
F2
sg565
F1
sg566
F4
sg567
S'Increase Flair'
p609
sg569
S'TRUE'
p610
sbasg571
I1
sg572
F0
sg567
g597
sg573
S'Hilarious Anecdote'
p611
sbsS'SENSATIONALISE'
p612
g1
(g10
g3
NtRp613
(dp614
g541
F8
sg542
S'asdf'
p615
sg544
I1
sg545
F0
sg546
F0
sg547
S'Wit'
p616
sg549
S'AllEnemy'
p617
sg551
F4
sg552
F3
sg553
(lp618
sg571
I1
sg572
F0
sg567
g612
sg573
S'Sensationalise'
p619
sbsS'DENOUNCE'
p620
g1
(g10
g3
NtRp621
(dp622
g541
F5
sg542
S'asdf'
p623
sg544
F6
sg545
F10
sg546
F2
sg547
S'Cunning'
p624
sg549
S'AllEnemy'
p625
sg551
F2
sg552
I0
sg553
(lp626
sg571
I1
sg572
F8
sg567
g620
sg573
S'Denounce'
p627
sbsS'WHADOWEWANT'
p628
g1
(g10
g3
NtRp629
(dp630
g541
F6
sg542
S'asdf'
p631
sg544
I1
sg545
F0
sg546
F0
sg547
S'Cunning'
p632
sg549
S'AllEnemy'
p633
sg551
F3
sg552
I0
sg553
(lp634
sg571
I1
sg572
F0
sg567
g628
sg573
S'Whadowewant!'
p635
sbsS'SCOOP'
p636
g1
(g10
g3
NtRp637
(dp638
g541
F5
sg542
S'asdf'
p639
sg544
I1
sg545
F10
sg546
F5
sg547
S'Cunning'
p640
sg549
S'AllEnemy'
p641
sg551
F2
sg552
I0
sg553
(lp642
sg571
I1
sg572
F8
sg567
g636
sg573
S'Scoop'
p643
sbsS'CHOOSETARGETS'
p644
g1
(g10
g3
NtRp645
(dp646
g541
F7
sg542
S'asdf'
p647
sg544
I1
sg545
F10
sg546
F5
sg547
S'Cunning'
p648
sg549
S'AllEnemy'
p649
sg551
F2
sg552
I0
sg553
(lp650
sg571
I1
sg572
F9
sg567
g644
sg573
S'Choose Targets'
p651
sbsS'FILENAILS'
p652
g1
(g10
g3
NtRp653
(dp654
g541
F0
sg542
S'asdf'
p655
sg544
I1
sg545
F0
sg546
F0
sg547
S'Wit'
p656
sg549
S'AllEnemy'
p657
sg551
F0
sg552
F3
sg553
(lp658
g1
(g555
g3
NtRp659
(dp660
g558
S'add_permanent'
p661
sg560
S''
sg562
S'votes'
p662
sg564
F5
sg565
F1
sg566
F1
sg567
S'Votes Restore'
p663
sg569
S'TRUE'
p664
sbasg571
I1
sg572
F0
sg567
g652
sg573
S'File Nails'
p665
sbsS'BRIBE'
p666
g1
(g10
g3
NtRp667
(dp668
g541
F1
sg542
S'Is there anything more convincing than money? Buying loyalty gets expensive so be careful.'
p669
sg544
I1
sg545
F1
sg546
F1
sg547
S'Money'
p670
sg549
S'AllEnemy'
p671
sg551
F2
sg552
I0
sg553
(lp672
sg571
I1
sg572
F1
sg567
g666
sg573
S'Bribe'
p673
sbsS'SING'
p674
g1
(g10
g3
NtRp675
(dp676
g541
F-3
sg542
S'Why bandy words with politicians when you can sing a catchy tune! Restores votes.'
p677
sg544
I1
sg545
F0
sg546
F0
sg547
S'Wit'
p678
sg549
S'AllFriendly'
p679
sg551
F-5
sg552
I0
sg553
(lp680
sg571
I4
sg572
F0
sg567
g674
sg573
S'Rousing Song'
p681
sbsS'FEAR'
p682
g1
(g10
g3
NtRp683
(dp684
g541
F0
sg542
S'asdf'
p685
sg544
F2
sg545
F0
sg546
F0
sg547
S'Wit'
p686
sg549
S'AllFriendly'
p687
sg551
F0
sg552
F4
sg553
(lp688
g556
asg571
I1
sg572
F0
sg567
g682
sg573
S'Fear Change'
p689
sbsS'RAISEDEFCON'
p690
g1
(g10
g3
NtRp691
(dp692
g541
F5
sg542
S'asdf'
p693
sg544
I1
sg545
F7
sg546
F3
sg547
S'Cunning'
p694
sg549
S'AllEnemy'
p695
sg551
F4
sg552
I0
sg553
(lp696
sg571
I1
sg572
F8
sg567
g690
sg573
S'Raise DEFCON'
p697
sbsS'NEGATTACKAD'
p698
g1
(g10
g3
NtRp699
(dp700
g541
F8
sg542
S"Take them all down. They're definitely all bad people. Not like you."
p701
sg544
I1
sg545
F10
sg546
F10
sg547
S'Cunning'
p702
sg549
S'AllEnemy'
p703
sg551
F3
sg552
F5
sg553
(lp704
sg571
I1
sg572
F10
sg567
g698
sg573
S'Negative Attack Ad'
p705
sbsS'DAZZLE'
p706
g1
(g10
g3
NtRp707
(dp708
g541
F3
sg542
S'Being dazzling and admirable is a great way to take heat off politics'
p709
sg544
I1
sg545
F8
sg546
F5
sg547
S'Wit'
p710
sg549
S'AllEnemy'
p711
sg551
F2
sg552
F3
sg553
(lp712
g1
(g555
g3
NtRp713
(dp714
g558
S'reduce'
p715
sg560
S'(REDUCE)'
p716
sg562
S'cunning'
p717
sg564
F2
sg565
F2
sg566
F5
sg567
S'Reduce Cunning'
p718
sg569
S''
sbasg571
I4
sg572
F8
sg567
g706
sg573
S'Dazzle'
p719
sbsS'BELIEVEMEDIA'
p720
g1
(g10
g3
NtRp721
(dp722
g541
F3
sg542
S'asdf'
p723
sg544
I1
sg545
F15
sg546
F5
sg547
S'Cunning'
p724
sg549
S'AllEnemy'
p725
sg551
F1
sg552
I0
sg553
(lp726
sg571
I1
sg572
F12
sg567
g720
sg573
S'Believe Media'
p727
sbsS'PRPREP'
p728
g1
(g10
g3
NtRp729
(dp730
g541
F0
sg542
S"If you're going to need some spin, best see a spin doctor! Adds spin points."
p731
sg544
I1
sg545
F0
sg546
F0
sg547
S''
sg549
S'AllFriendly'
p732
sg551
F0
sg552
I0
sg553
(lp733
g1
(g555
g3
NtRp734
(dp735
g558
S'add_permanent'
p736
sg560
S''
sg562
S'spin'
p737
sg564
F5
sg565
F0
sg566
F0
sg567
S'Spin Restore'
p738
sg569
S'TRUE'
p739
sbasg571
I1
sg572
F0
sg567
g728
sg573
S'PR Prep'
p740
sbsS'CALLVATICAN'
p741
g1
(g10
g3
NtRp742
(dp743
g541
F0
sg542
S'Brings in 2 additional ReligousNuts at 2 levels lower than this one'
p744
sg544
I1
sg545
F0
sg546
F0
sg547
S'Wit'
p745
sg549
S'None'
p746
sg551
F0
sg552
F5
sg553
(lp747
g1
(g555
g3
NtRp748
(dp749
g558
S'call_friends'
p750
sg560
S''
sg562
S''
sg564
F2
sg565
F1
sg566
F1
sg567
S'Call Friends'
p751
sg569
S''
sbasg571
I1
sg572
F0
sg567
g741
sg573
S'Call Vatican'
p752
sbsS'BLACKMAIL'
p753
g1
(g10
g3
NtRp754
(dp755
g541
F6
sg542
S'asdf'
p756
sg544
I1
sg545
F10
sg546
F2
sg547
S'Wit'
p757
sg549
S'AllEnemy'
p758
sg551
F3
sg552
F4
sg553
(lp759
g1
(g555
g3
NtRp760
(dp761
g558
S'drain'
p762
sg560
S'(DRAIN)'
p763
sg562
S'votes'
p764
sg564
F1
sg565
F2
sg566
F5
sg567
S'Drain Votes'
p765
sg569
S''
sbasg571
I1
sg572
F2
sg567
g753
sg573
S'Blackmail'
p766
sbsS'PROTEST'
p767
g1
(g10
g3
NtRp768
(dp769
g541
F5
sg542
S'asdf'
p770
sg544
F6
sg545
F10
sg546
F2
sg547
S'Cunning'
p771
sg549
S'AllEnemy'
p772
sg551
F2
sg552
I0
sg553
(lp773
sg571
I1
sg572
F8
sg567
g767
sg573
S'Protest'
p774
sbsS'SPREADRUMOUR'
p775
g1
(g10
g3
NtRp776
(dp777
g541
F6
sg542
S'asdf'
p778
sg544
I1
sg545
F10
sg546
F2
sg547
S'Wit'
p779
sg549
S'AllEnemy'
p780
sg551
F2
sg552
F3
sg553
(lp781
sg571
I4
sg572
F8
sg567
g775
sg573
S'Spread Rumour'
p782
sbsS'AGENDA'
p783
g1
(g10
g3
NtRp784
(dp785
g541
F5
sg542
S'asdf'
p786
sg544
F6
sg545
F10
sg546
F2
sg547
S'Cunning'
p787
sg549
S'AllEnemy'
p788
sg551
F2
sg552
I0
sg553
(lp789
sg571
I1
sg572
F8
sg567
g783
sg573
S'Push Agenda'
p790
sbsS'FILIBUSTER'
p791
g1
(g10
g3
NtRp792
(dp793
g541
F0
sg542
S"You're not moving until they give in. Cause all opposition to miss their turn"
p794
sg544
I1
sg545
F0
sg546
F0
sg547
S'Wit'
p795
sg549
S'AllEnemy'
p796
sg551
F0
sg552
F8
sg553
(lp797
g1
(g555
g3
NtRp798
(dp799
g558
S'miss_turn'
p800
sg560
S'(MISS)'
p801
sg562
S''
sg564
F0
sg565
F1
sg566
F1
sg567
S'Miss Turn'
p802
sg569
S''
sbasg571
I1
sg572
F0
sg567
g791
sg573
S'Filibuster'
p803
sbsS'GATHERINTEL'
p804
g1
(g10
g3
NtRp805
(dp806
g541
F0
sg542
S'Increases Cunning.'
p807
sg544
I1
sg545
F0
sg546
F0
sg547
S'Wit'
p808
sg549
S'AllFriendly'
p809
sg551
F0
sg552
F3
sg553
(lp810
g556
asg571
I2
sg572
F0
sg567
g804
sg573
S'Gather Intelligence'
p811
sbsS'LOVE'
p812
g1
(g10
g3
NtRp813
(dp814
g541
F6
sg542
S'asdf'
p815
sg544
F2
sg545
F8
sg546
F2
sg547
S'Cunning'
p816
sg549
S'AllEnemy'
p817
sg551
F1
sg552
I0
sg553
(lp818
sg571
I1
sg572
F7
sg567
g812
sg573
S'Love'
p819
sbsS'OUTOFCONTEXT'
p820
g1
(g10
g3
NtRp821
(dp822
g541
F3
sg542
S'asdf'
p823
sg544
I1
sg545
F5
sg546
F2
sg547
S'Wit'
p824
sg549
S'AllEnemy'
p825
sg551
F2
sg552
F2
sg553
(lp826
g760
asg571
I1
sg572
F5
sg567
g820
sg573
S'Take Out Of Context'
p827
sbsS'GREATSUIT'
p828
g1
(g10
g3
NtRp829
(dp830
g541
F6
sg542
S'Well, we could argue, but have you noticed how fabulous this suit is?'
p831
sg544
I1
sg545
F11
sg546
F6
sg547
S'Cunning'
p832
sg549
S'AllEnemy'
p833
sg551
F3
sg552
I0
sg553
(lp834
sg571
I1
sg572
F12
sg567
g828
sg573
S'Look Great In Suit'
p835
sbsS'PEACE'
p836
g1
(g10
g3
NtRp837
(dp838
g541
F0
sg542
S'asdf'
p839
sg544
I1
sg545
F0
sg546
F0
sg547
S'Wit'
p840
sg549
S'AllEnemy'
p841
sg551
F0
sg552
F3
sg553
(lp842
g713
asg571
I4
sg572
F0
sg567
g836
sg573
S'Peace'
p843
sbsS'INSPSPEECH'
p844
g1
(g10
g3
NtRp845
(dp846
g541
F-2
sg542
S'Restore votes to all party members'
p847
sg544
I1
sg545
F0
sg546
F0
sg547
S'Cunning'
p848
sg549
S'AllFriendly'
p849
sg551
F-2
sg552
I0
sg553
(lp850
sg571
I4
sg572
F0
sg567
g844
sg573
S'Inspirational Speech'
p851
sbsS'STRIKE'
p852
g1
(g10
g3
NtRp853
(dp854
g541
F8
sg542
S'asdf'
p855
sg544
I1
sg545
F0
sg546
F0
sg547
S'Wit'
p856
sg549
S'AllEnemy'
p857
sg551
F0
sg552
F3
sg553
(lp858
g590
asg571
I1
sg572
F0
sg567
g852
sg573
S'Call A Strike'
p859
sbsS'SLANDER'
p860
g1
(g10
g3
NtRp861
(dp862
g541
F3
sg542
S'Strong against polititians...careful with those voters, though!'
p863
sg544
F4
sg545
F10
sg546
F2
sg547
S'Wit'
p864
sg549
S'AllEnemy'
p865
sg551
F2
sg552
I0
sg553
(lp866
g760
asg571
I1
sg572
F5
sg567
g860
sg573
S'Slander Opposition'
p867
sbsS'NATTER'
p868
g1
(g10
g3
NtRp869
(dp870
g541
F8
sg542
S'asdf'
p871
sg544
I1
sg545
F15
sg546
F5
sg547
S'Cunning'
p872
sg549
S'AllEnemy'
p873
sg551
F1
sg552
I0
sg553
(lp874
sg571
I1
sg572
F10
sg567
g868
sg573
S'Natter On'
p875
sbsS'GOSSIP'
p876
g1
(g10
g3
NtRp877
(dp878
g541
F3
sg542
S'asdf'
p879
sg544
I1
sg545
F10
sg546
F2
sg547
S'Wit'
p880
sg549
S'AllEnemy'
p881
sg551
F1
sg552
F2
sg553
(lp882
g713
asg571
I1
sg572
F6
sg567
g876
sg573
S'Gossip'
p883
sbsS'MISSTURN'
p884
g1
(g10
g3
NtRp885
(dp886
g541
F0
sg542
S'asdf'
p887
sg544
I1
sg545
F0
sg546
F0
sg547
S''
sg549
S'AllEnemy'
p888
sg551
F0
sg552
I0
sg553
(lp889
sg571
I1
sg572
F0
sg567
g884
sg573
S'Miss Turn'
p890
sbsS'BIELECTION'
p891
g1
(g10
g3
NtRp892
(dp893
g541
F4
sg542
S'Redistribute votes amongst targets'
p894
sg544
I1
sg545
F0
sg546
F0
sg547
S'Cunning'
p895
sg549
S'All'
p896
sg551
F-4
sg552
F4
sg553
(lp897
sg571
I8
sg572
F0
sg567
g891
sg573
S'Bielection'
p898
sbsS'SCARE'
p899
g1
(g10
g3
NtRp900
(dp901
g541
F7
sg542
S'Nothing rattles the brains like fear.'
p902
sg544
I1
sg545
F10
sg546
F2
sg547
S'Wit'
p903
sg549
S'AllEnemy'
p904
sg551
F2
sg552
I0
sg553
(lp905
g713
asg571
I2
sg572
F9
sg567
g899
sg573
S'Scare Campaign'
p906
sbsS'PAYOFF'
p907
g1
(g10
g3
NtRp908
(dp909
g541
F7
sg542
S'causes them to miss a number of turns'
p910
sg544
I1
sg545
F8
sg546
F2
sg547
S'Wit'
p911
sg549
S'AllEnemy'
p912
sg551
F2
sg552
F4
sg553
(lp913
g1
(g555
g3
NtRp914
(dp915
g558
S'miss_turn'
p916
sg560
S'(MISS)'
p917
sg562
S''
sg564
F0
sg565
F1
sg566
F3
sg567
S'Miss Turn Pay Off'
p918
sg569
S''
sbasg571
I1
sg572
F9
sg567
g907
sg573
S'Pay Off'
p919
sbsS'BUREAUCRACY'
p920
g1
(g10
g3
NtRp921
(dp922
g541
F5
sg542
S'asdf'
p923
sg544
F6
sg545
F10
sg546
F2
sg547
S'Cunning'
p924
sg549
S'AllEnemy'
p925
sg551
F2
sg552
I0
sg553
(lp926
sg571
I1
sg572
F8
sg567
g920
sg573
S'Bureaucracy'
p927
sbsS'RALLYAUDIENCE'
p928
g1
(g10
g3
NtRp929
(dp930
g541
F8
sg542
S'asdf'
p931
sg544
I1
sg545
F0
sg546
F0
sg547
S'Wit'
p932
sg549
S'AllFriendly'
p933
sg551
F4
sg552
F3
sg553
(lp934
g1
(g555
g3
NtRp935
(dp936
g558
S'add'
p937
sg560
S'(INCREASE)'
p938
sg562
S'charisma'
p939
sg564
F2
sg565
F1
sg566
F4
sg567
S'Increase Charisma'
p940
sg569
S'TRUE'
p941
sbasg571
I1
sg572
F0
sg567
g928
sg573
S'Rally Audience'
p942
sbsS'PORKBARREL'
p943
g1
(g10
g3
NtRp944
(dp945
g541
F6
sg542
S'Do something that benefits them specifically. Not advised against politicians.'
p946
sg544
I1
sg545
F0
sg546
F0
sg547
S'Wit'
p947
sg549
S'AllEnemy'
p948
sg551
F2
sg552
F2
sg553
(lp949
sg571
I1
sg572
F0
sg567
g943
sg573
S'Pork Barrel'
p950
sbsS'INSPIRE'
p951
g1
(g10
g3
NtRp952
(dp953
g541
F0
sg542
S'asdf'
p954
sg544
I1
sg545
F0
sg546
F0
sg547
S'Wit'
p955
sg549
S'AllFriendly'
p956
sg551
F0
sg552
F3
sg553
(lp957
g556
asg571
I4
sg572
F0
sg567
g951
sg573
S'Inspire'
p958
sbsS'JOKE'
p959
g1
(g10
g3
NtRp960
(dp961
g541
F3
sg542
S"Ha, ha, ha...what were we talking about? Diffuse the situation with some humour. Not good if it falls flat, but if they get it, it'll knock 'em dead."
p962
sg544
F3
sg545
F30
sg546
F10
sg547
S'Wit'
p963
sg549
S'AllEnemy'
p964
sg551
F2
sg552
I0
sg553
(lp965
sg571
I1
sg572
F10
sg567
g959
sg573
S'Joke'
p966
sbsS'PRAYFORSOULS'
p967
g1
(g10
g3
NtRp968
(dp969
g541
F6
sg542
S'asdf'
p970
sg544
F2
sg545
F10
sg546
F2
sg547
S'Cunning'
p971
sg549
S'None'
p972
sg551
F3
sg552
I0
sg553
(lp973
sg571
I1
sg572
F10
sg567
g967
sg573
S'Pray'
p974
sbsS'REVIVE'
p975
g1
(g10
g3
NtRp976
(dp977
g541
F0
sg542
S'Revive a defeated comrade to half votes'
p978
sg544
I1
sg545
F0
sg546
F0
sg547
S''
sg549
S'DeadFriendly'
p979
sg551
F0
sg552
F3
sg553
(lp980
g1
(g555
g3
NtRp981
(dp982
g558
S'revive'
p983
sg560
S''
sg562
S''
sg564
F0.5
sg565
F0
sg566
F0
sg567
S'Revive'
p984
sg569
S''
sbasg571
I1
sg572
F0
sg567
g975
sg573
S'Revive'
p985
sbsS'HUMANSHIELD'
p986
g1
(g10
g3
NtRp987
(dp988
g541
F5
sg542
S'No further questions. Step back, please.'
p989
sg544
I1
sg545
F5
sg546
F2
sg547
S'Wit'
p990
sg549
S'AllEnemy'
p991
sg551
F2
sg552
F4
sg553
(lp992
g798
asg571
I2
sg572
F12
sg567
g986
sg573
S'Human Shield'
p993
sbsS'MAKEDEMANDS'
p994
g1
(g10
g3
NtRp995
(dp996
g541
F8
sg542
S'asdf'
p997
sg544
I1
sg545
F0
sg546
F0
sg547
S'Cunning'
p998
sg549
S'AllEnemy'
p999
sg551
F0
sg552
I0
sg553
(lp1000
g590
asg571
I1
sg572
F0
sg567
g994
sg573
S'Make Outrageous Demands'
p1001
sbsS'DEFENSE'
p1002
g1
(g10
g3
NtRp1003
(dp1004
g541
F0
sg542
S'Gather strenth; -50% to all incoming attacks'
p1005
sg544
I1
sg545
F0
sg546
F0
sg547
S''
sg549
S'None'
p1006
sg551
F0
sg552
I0
sg553
(lp1007
g1
(g555
g3
NtRp1008
(dp1009
g558
S'add'
p1010
sg560
S'(DFND)'
p1011
sg562
S'resistance'
p1012
sg564
F0.5
sg565
F1
sg566
F1
sg567
S'Defense'
p1013
sg569
S'TRUE'
p1014
sbasg571
I1
sg572
F0
sg567
g1002
sg573
S'Defense'
p1015
sbsS'MISCONSTRUE'
p1016
g1
(g10
g3
NtRp1017
(dp1018
g541
F8
sg542
S'asdf'
p1019
sg544
I1
sg545
F0
sg546
F0
sg547
S'Cunning'
p1020
sg549
S'AllEnemy'
p1021
sg551
F0
sg552
I0
sg553
(lp1022
g590
asg571
I1
sg572
F0
sg567
g1016
sg573
S'Misconstrue'
p1023
sbsS'NATIONALSECURITY'
p1024
g1
(g10
g3
NtRp1025
(dp1026
g541
F7
sg542
S"This is a matter of national security and they don't have codeword clearance"
p1027
sg544
I1
sg545
F10
sg546
F2
sg547
S'Cunning'
p1028
sg549
S'AllEnemy'
p1029
sg551
F2
sg552
I0
sg553
(lp1030
sg571
I1
sg572
F9
sg567
g1024
sg573
S'National Security'
p1031
sbsS'RALLY'
p1032
g1
(g10
g3
NtRp1033
(dp1034
g541
F-2
sg542
S'Get back some votes by rallying supporters'
p1035
sg544
I1
sg545
F0
sg546
F0
sg547
S'Wit'
p1036
sg549
S'AllFriendly'
p1037
sg551
F-4
sg552
F2
sg553
(lp1038
sg571
I1
sg572
F0
sg567
g1032
sg573
S'Rally Constituents'
p1039
sbsS'MESSAGE'
p1040
g1
(g10
g3
NtRp1041
(dp1042
g541
F5
sg542
S'You can certainly wear them down by repeating your party line over and over and over...if you want'
p1043
sg544
F6
sg545
F10
sg546
F2
sg547
S'Wit'
p1044
sg549
S'AllEnemy'
p1045
sg551
F2
sg552
I0
sg553
(lp1046
sg571
I1
sg572
F8
sg567
g1040
sg573
S'Stay On Message'
p1047
sbsS'APPEALTOGOD'
p1048
g1
(g10
g3
NtRp1049
(dp1050
g541
F6
sg542
S'asdf'
p1051
sg544
F3
sg545
F0
sg546
F0
sg547
S'Wit'
p1052
sg549
S'AllEnemy'
p1053
sg551
F4
sg552
F7
sg553
(lp1054
sg571
I4
sg572
F0
sg567
g1048
sg573
S'Appeal To God'
p1055
sbssS'levels'
p1056
(lp1057
g1
(g10
g3
NtRp1058
(dp1059
S'votes'
p1060
F10
sS'level'
p1061
F1
sS'spin'
p1062
F5
sS'xp'
p1063
F0
sS'skill_points'
p1064
F0
sbag1
(g10
g3
NtRp1065
(dp1066
g1060
F12
sg1061
F2
sg1062
F5
sg1063
F5
sg1064
F2
sbag1
(g10
g3
NtRp1067
(dp1068
g1060
F15
sg1061
F3
sg1062
F6
sg1063
F200
sg1064
F2
sbag1
(g10
g3
NtRp1069
(dp1070
g1060
F20
sg1061
F4
sg1062
F6
sg1063
F500
sg1064
F2
sbag1
(g10
g3
NtRp1071
(dp1072
g1060
F25
sg1061
F5
sg1062
F7
sg1063
F1000
sg1064
F2
sbag1
(g10
g3
NtRp1073
(dp1074
g1060
F30
sg1061
F6
sg1062
F7
sg1063
F2000
sg1064
F2
sbag1
(g10
g3
NtRp1075
(dp1076
g1060
F35
sg1061
F7
sg1062
F8
sg1063
F5000
sg1064
F2
sbag1
(g10
g3
NtRp1077
(dp1078
g1060
F40
sg1061
F8
sg1062
F8
sg1063
F10000
sg1064
F2
sbag1
(g10
g3
NtRp1079
(dp1080
g1060
F45
sg1061
F9
sg1062
F9
sg1063
F15000
sg1064
F2
sbag1
(g10
g3
NtRp1081
(dp1082
g1060
F50
sg1061
F10
sg1062
F9
sg1063
F20000
sg1064
F2
sbag1
(g10
g3
NtRp1083
(dp1084
g1060
F55
sg1061
F11
sg1062
F10
sg1063
F40000
sg1064
F2
sbag1
(g10
g3
NtRp1085
(dp1086
g1060
S''
sg1061
F12
sg1062
S''
sg1063
S''
sg1064
S''
sbag1
(g10
g3
NtRp1087
(dp1088
g1060
S''
sg1061
F13
sg1062
S''
sg1063
S''
sg1064
S''
sbag1
(g10
g3
NtRp1089
(dp1090
g1060
S''
sg1061
F14
sg1062
S''
sg1063
S''
sg1064
S''
sbag1
(g10
g3
NtRp1091
(dp1092
g1060
S''
sg1061
F15
sg1062
S''
sg1063
S''
sg1064
S''
sbag1
(g10
g3
NtRp1093
(dp1094
g1060
S''
sg1061
F16
sg1062
S''
sg1063
S''
sg1064
S''
sbag1
(g10
g3
NtRp1095
(dp1096
g1060
S''
sg1061
F17
sg1062
S''
sg1063
S''
sg1064
S''
sbag1
(g10
g3
NtRp1097
(dp1098
g1060
S''
sg1061
F18
sg1062
S''
sg1063
S''
sg1064
S''
sbag1
(g10
g3
NtRp1099
(dp1100
g1060
S''
sg1061
F19
sg1062
S''
sg1063
S''
sg1064
S''
sbag1
(g10
g3
NtRp1101
(dp1102
g1060
S''
sg1061
F20
sg1062
S''
sg1063
S''
sg1064
S''
sbag1
(g10
g3
NtRp1103
(dp1104
g1060
S''
sg1061
F21
sg1062
S''
sg1063
S''
sg1064
S''
sbag1
(g10
g3
NtRp1105
(dp1106
g1060
S''
sg1061
F22
sg1062
S''
sg1063
S''
sg1064
S''
sbag1
(g10
g3
NtRp1107
(dp1108
g1060
S''
sg1061
F23
sg1062
S''
sg1063
S''
sg1064
S''
sbag1
(g10
g3
NtRp1109
(dp1110
g1060
S''
sg1061
F24
sg1062
S''
sg1063
S''
sg1064
S''
sbag1
(g10
g3
NtRp1111
(dp1112
g1060
S''
sg1061
F25
sg1062
S''
sg1063
S''
sg1064
S''
sbag1
(g10
g3
NtRp1113
(dp1114
g1060
S''
sg1061
F26
sg1062
S''
sg1063
S''
sg1064
S''
sbag1
(g10
g3
NtRp1115
(dp1116
g1060
S''
sg1061
F27
sg1062
S''
sg1063
S''
sg1064
S''
sbag1
(g10
g3
NtRp1117
(dp1118
g1060
S''
sg1061
F28
sg1062
S''
sg1063
S''
sg1064
S''
sbag1
(g10
g3
NtRp1119
(dp1120
g1060
S''
sg1061
F29
sg1062
S''
sg1063
S''
sg1064
S''
sbasg553
(dp1121
g568
g556
sg663
g659
sg738
g734
sg940
g935
sg802
g798
sg751
g748
sg918
g914
sg984
g981
sg718
g713
sg765
g760
sg1013
g1008
sg594
g590
sg609
g604
ssS'characters'
p1122
(dp1123
S'Teacher001'
p1124
(lp1125
g1
(g10
g3
NtRp1126
(dp1127
S'flair_base'
p1128
F1
sS'spin_base'
p1129
F4
sS'flair_lvl'
p1130
F1.1499999999999999
sS'wit_base'
p1131
F1
sS'resistance'
p1132
(lp1133
sS'wit_lvl'
p1134
F1.0900000000000001
sS'cunning_base'
p1135
F1
sg567
g1124
sS'votes_base'
p1136
F10
sS'speed_lvl'
p1137
F1.0800000000000001
sS'standard_attacks'
p1138
(lp1139
g1003
ag768
asS'cunning_lvl'
p1140
F1.1000000000000001
sS'charisma_lvl'
p1141
F1.1499999999999999
sS'spin_attacks'
p1142
(lp1143
g853
ag1033
asS'spin_lvl'
p1144
F1.0800000000000001
sS'charisma_base'
p1145
F1
sS'weaknesses'
p1146
(lp1147
sS'attack_group'
p1148
S'Teacher'
p1149
sS'votes_lvl'
p1150
F1.2
sg573
S'Teacher'
p1151
sS'speed_base'
p1152
F1
sS'immunities'
p1153
(lp1154
sbasS'Politician001'
p1155
(lp1156
g1
(g10
g3
NtRp1157
(dp1158
g1128
F1
sg1129
F4
sg1130
F1.1499999999999999
sg1131
F1
sg1132
(lp1159
g584
asg1134
F1.0900000000000001
sg1135
F1
sg567
g1155
sg1136
F10
sg1137
F1.0800000000000001
sg1138
(lp1160
g1041
ag861
ag584
ag960
ag1003
asg1140
F1.1000000000000001
sg1141
F1.1499999999999999
sg1142
(lp1161
g892
ag699
ag976
asg1144
F1.0800000000000001
sg1145
F1
sg1146
(lp1162
g667
asg1148
S'Politician'
p1163
sg1150
F1.2
sg573
S'Politician'
p1164
sg1152
F1
sg1153
(lp1165
g944
asbasS'SecretAgent'
p1166
(lp1167
g1
(g10
g3
NtRp1168
(dp1169
g1128
F1
sg1129
F4
sg1130
F1.1499999999999999
sg1131
F1
sg1132
(lp1170
sg1134
F1.0900000000000001
sg1135
F1
sg567
g1166
sg1136
F18
sg1137
F1.0800000000000001
sg1138
(lp1171
g1003
ag1025
ag829
asg1140
F1.1000000000000001
sg1141
F1.1499999999999999
sg1142
(lp1172
g987
ag805
asg1144
F1.0800000000000001
sg1145
F1
sg1146
(lp1173
sg1148
S'SecretAgent'
p1174
sg1150
F1.2
sg573
S'Agent Kawalski'
p1175
sg1152
F1
sg1153
(lp1176
sbasS'Bumpkin001'
p1177
(lp1178
g1
(g10
g3
NtRp1179
(dp1180
g1128
F1
sg1129
F4
sg1130
F1.1499999999999999
sg1131
F1
sg1132
(lp1181
sg1134
F1.0900000000000001
sg1135
F1
sg567
g1177
sg1136
F10
sg1137
F1.0800000000000001
sg1138
(lp1182
g960
ag721
asg1140
F1.1000000000000001
sg1141
F1.1499999999999999
sg1142
(lp1183
g683
ag776
asg1144
F1.0800000000000001
sg1145
F1
sg1146
(lp1184
g584
ag861
ag900
asg1148
S'Bumpkin'
p1185
sg1150
F1.2
sg573
S'Bumpkin'
p1186
sg1152
F1
sg1153
(lp1187
sbasS'WarVet001'
p1188
(lp1189
g1
(g10
g3
NtRp1190
(dp1191
g1128
F1
sg1129
F4
sg1130
F1.1499999999999999
sg1131
F1
sg1132
(lp1192
sg1134
F1.0900000000000001
sg1135
F1
sg567
g1188
sg1136
F10
sg1137
F1.0800000000000001
sg1138
(lp1193
g995
ag1003
asg1140
F1.1000000000000001
sg1141
F1.1499999999999999
sg1142
(lp1194
g952
ag1033
asg1144
F1.0800000000000001
sg1145
F1
sg1146
(lp1195
sg1148
S'WarVet'
p1196
sg1150
F1.2
sg573
S'War Veteran'
p1197
sg1152
F1
sg1153
(lp1198
sbasS'Receptionist001'
p1199
(lp1200
g1
(g10
g3
NtRp1201
(dp1202
g1128
F1
sg1129
F4
sg1130
F1.1499999999999999
sg1131
F1
sg1132
(lp1203
sg1134
F1.0900000000000001
sg1135
F1
sg567
g1199
sg1136
F10
sg1137
F1.0800000000000001
sg1138
(lp1204
g921
ag869
asg1140
F1.1000000000000001
sg1141
F1.1499999999999999
sg1142
(lp1205
g877
ag653
asg1144
F1.0800000000000001
sg1145
F1
sg1146
(lp1206
sg1148
S'Receptionist'
p1207
sg1150
F1.2
sg573
S'Receptionist'
p1208
sg1152
F1
sg1153
(lp1209
sbasS'DeepThroat'
p1210
(lp1211
g1
(g10
g3
NtRp1212
(dp1213
g1128
F1
sg1129
F4
sg1130
F1.1499999999999999
sg1131
F1
sg1132
(lp1214
sg1134
F1.0900000000000001
sg1135
F1
sg567
g1210
sg1136
F10
sg1137
F1.0800000000000001
sg1138
(lp1215
g861
ag1003
ag995
asg1140
F1.1000000000000001
sg1141
F1.1499999999999999
sg1142
(lp1216
g754
asg1144
F1.0800000000000001
sg1145
F1
sg1146
(lp1217
sg1148
S'DeepThroat'
p1218
sg1150
F1.2
sg573
S'Deep Throat'
p1219
sg1152
F1
sg1153
(lp1220
sbasS'Leo'
p1221
(lp1222
g1
(g10
g3
NtRp1223
(dp1224
g1128
F1
sg1129
F4
sg1130
F1.1499999999999999
sg1131
F1
sg1132
(lp1225
sg1134
F1.0900000000000001
sg1135
F1
sg567
g1221
sg1136
F14
sg1137
F1.0800000000000001
sg1138
(lp1226
g1041
ag861
ag584
ag960
ag667
asg1140
F1.1000000000000001
sg1141
F1.1499999999999999
sg1142
(lp1227
g892
ag699
ag944
ag792
asg1144
F1.0800000000000001
sg1145
F1
sg1146
(lp1228
sg1148
S'Theo'
p1229
sg1150
F1.2
sg573
S'Theo'
p1230
sg1152
F1
sg1153
(lp1231
sbasS'HippyGirl001'
p1232
(lp1233
g1
(g10
g3
NtRp1234
(dp1235
g1128
F1
sg1129
F4
sg1130
F1.1499999999999999
sg1131
F1
sg1132
(lp1236
sg1134
F1.0900000000000001
sg1135
F1
sg567
g1232
sg1136
F10
sg1137
F1.0800000000000001
sg1138
(lp1237
g675
ag768
ag813
asg1140
F1.1000000000000001
sg1141
F1.1499999999999999
sg1142
(lp1238
g837
ag1033
ag976
asg1144
F1.0800000000000001
sg1145
F1
sg1146
(lp1239
g960
asg1148
S'Hippy'
p1240
sg1150
F1.2
sg573
S'Hippy Girl'
p1241
sg1152
F1
sg1153
(lp1242
sbasS'President'
p1243
(lp1244
g1
(g10
g3
NtRp1245
(dp1246
g1128
F1
sg1129
F4
sg1130
F1.1499999999999999
sg1131
F1
sg1132
(lp1247
sg1134
F1.0900000000000001
sg1135
F1
sg567
g1243
sg1136
F10
sg1137
F1.0800000000000001
sg1138
(lp1248
g1041
ag861
ag584
ag960
ag1003
asg1140
F1.1000000000000001
sg1141
F1.1499999999999999
sg1142
(lp1249
g892
ag699
ag976
asg1144
F1.0800000000000001
sg1145
F1
sg1146
(lp1250
sg1148
S'Politician'
p1251
sg1150
F1.2
sg573
S'President Allen'
p1252
sg1152
F1
sg1153
(lp1253
sbasS'Unionist001'
p1254
(lp1255
g1
(g10
g3
NtRp1256
(dp1257
g1128
F1
sg1129
F4
sg1130
F1.1499999999999999
sg1131
F1
sg1132
(lp1258
sg1134
F1.0900000000000001
sg1135
F1
sg567
g1254
sg1136
F10
sg1137
F1.0800000000000001
sg1138
(lp1259
g995
ag1003
ag768
asg1140
F1.1000000000000001
sg1141
F1.1499999999999999
sg1142
(lp1260
g853
asg1144
F1.0800000000000001
sg1145
F1
sg1146
(lp1261
sg1148
S'Unionist'
p1262
sg1150
F1.2
sg573
S'Unionist'
p1263
sg1152
F1
sg1153
(lp1264
sbasS'Wife'
p1265
(lp1266
g1
(g10
g3
NtRp1267
(dp1268
g1128
F1
sg1129
F4
sg1130
F1.1499999999999999
sg1131
F1
sg1132
(lp1269
sg1134
F1.0900000000000001
sg1135
F1
sg567
g1265
sg1136
F12
sg1137
F1.0800000000000001
sg1138
(lp1270
g1003
ag1041
asg1140
F1.1000000000000001
sg1141
F1.1499999999999999
sg1142
(lp1271
g1033
ag976
ag707
asg1144
F1.0800000000000001
sg1145
F1
sg1146
(lp1272
sg1148
S'Wife'
p1273
sg1150
F1.2
sg573
S'Sarah Mossman'
p1274
sg1152
F1
sg1153
(lp1275
sbasS'PresidentAlien'
p1276
(lp1277
g1
(g10
g3
NtRp1278
(dp1279
g1128
F1
sg1129
F4
sg1130
F1.1499999999999999
sg1131
F1
sg1132
(lp1280
sg1134
F1.0900000000000001
sg1135
F1
sg567
g1276
sg1136
F10
sg1137
F1.0800000000000001
sg1138
(lp1281
g1041
ag861
ag584
ag960
ag1003
asg1140
F1.1000000000000001
sg1141
F1.1499999999999999
sg1142
(lp1282
g892
ag699
ag976
asg1144
F1.0800000000000001
sg1145
F1
sg1146
(lp1283
sg1148
S'Politician'
p1284
sg1150
F1.2
sg573
S'President Alien'
p1285
sg1152
F1
sg1153
(lp1286
sbasS'Governor'
p1287
(lp1288
g1
(g10
g3
NtRp1289
(dp1290
g1128
F1
sg1129
F4
sg1130
F1.1499999999999999
sg1131
F1
sg1132
(lp1291
sg1134
F1.0900000000000001
sg1135
F1
sg567
g1287
sg1136
F10
sg1137
F1.0800000000000001
sg1138
(lp1292
g1041
ag861
ag584
ag960
ag1003
asg1140
F1.1000000000000001
sg1141
F1.1499999999999999
sg1142
(lp1293
g892
ag699
ag976
asg1144
F1.0800000000000001
sg1145
F1
sg1146
(lp1294
sg1148
S'Politician'
p1295
sg1150
F1.2
sg573
g1287
sg1152
F1
sg1153
(lp1296
sbasS'Lobbyist001'
p1297
(lp1298
g1
(g10
g3
NtRp1299
(dp1300
g1128
F1
sg1129
F4
sg1130
F1.1499999999999999
sg1131
F1
sg1132
(lp1301
sg1134
F1.0900000000000001
sg1135
F1
sg567
g1297
sg1136
F10
sg1137
F1.0800000000000001
sg1138
(lp1302
g784
ag995
asg1140
F1.1000000000000001
sg1141
F1.1499999999999999
sg1142
(lp1303
g908
ag754
asg1144
F1.0800000000000001
sg1145
F1
sg1146
(lp1304
g944
asg1148
S'Lobbyist'
p1305
sg1150
F1.2
sg573
S'Lobbyist'
p1306
sg1152
F1
sg1153
(lp1307
g667
asbasS'Journalist001'
p1308
(lp1309
g1
(g10
g3
NtRp1310
(dp1311
g1128
F1
sg1129
F4
sg1130
F1.1499999999999999
sg1131
F1
sg1132
(lp1312
sg1134
F1.0900000000000001
sg1135
F1
sg567
g1308
sg1136
F10
sg1137
F1.0800000000000001
sg1138
(lp1313
g637
ag1017
asg1140
F1.1000000000000001
sg1141
F1.1499999999999999
sg1142
(lp1314
g821
ag539
ag613
asg1144
F1.0800000000000001
sg1145
F1
sg1146
(lp1315
sg1148
S'Journalist'
p1316
sg1150
F1.2
sg573
S'Journalist'
p1317
sg1152
F1
sg1153
(lp1318
sbasS'ReligiousNut001'
p1319
(lp1320
g1
(g10
g3
NtRp1321
(dp1322
g1128
F1
sg1129
F4
sg1130
F1.1499999999999999
sg1131
F1
sg1132
(lp1323
sg1134
F1.0900000000000001
sg1135
F1
sg567
g1319
sg1136
F10
sg1137
F1.0800000000000001
sg1138
(lp1324
g621
ag968
ag1003
asg1140
F1.1000000000000001
sg1141
F1.1499999999999999
sg1142
(lp1325
g1049
ag742
asg1144
F1.0800000000000001
sg1145
F1
sg1146
(lp1326
sg1148
S'Religious'
p1327
sg1150
F1.2
sg573
S'Religious Nut'
p1328
sg1152
F1
sg1153
(lp1329
g960
asbasS'JointChief001'
p1330
(lp1331
g1
(g10
g3
NtRp1332
(dp1333
g1128
F1
sg1129
F4
sg1130
F1.1499999999999999
sg1131
F1
sg1132
(lp1334
sg1134
F1.0900000000000001
sg1135
F1
sg567
g1330
sg1136
F10
sg1137
F1.0800000000000001
sg1138
(lp1335
g995
ag1003
ag1025
ag691
asg1140
F1.1000000000000001
sg1141
F1.1499999999999999
sg1142
(lp1336
g805
asg1144
F1.0800000000000001
sg1145
F1
sg1146
(lp1337
sg1148
S'JointChief'
p1338
sg1150
F1.2
sg573
S'Joint Chief'
p1339
sg1152
F1
sg1153
(lp1340
sbasS'Protester001'
p1341
(lp1342
g1
(g10
g3
NtRp1343
(dp1344
g1128
F1
sg1129
F4
sg1130
F1.1499999999999999
sg1131
F1
sg1132
(lp1345
sg1134
F1.0900000000000001
sg1135
F1
sg567
g1341
sg1136
F10
sg1137
F1.0800000000000001
sg1138
(lp1346
g768
ag629
ag675
asg1140
F1.1000000000000001
sg1141
F1.1499999999999999
sg1142
(lp1347
g1033
asg1144
F1.0800000000000001
sg1145
F1
sg1146
(lp1348
sg1148
S'Protestor'
p1349
sg1150
F1.2
sg573
S'Protester'
p1350
sg1152
F1
sg1153
(lp1351
sbasS'TVPersonality001'
p1352
(lp1353
g1
(g10
g3
NtRp1354
(dp1355
g1128
F1
sg1129
F4
sg1130
F1.1499999999999999
sg1131
F1
sg1132
(lp1356
sg1134
F1.0900000000000001
sg1135
F1
sg567
g1352
sg1136
F10
sg1137
F1.0800000000000001
sg1138
(lp1357
g960
ag637
asg1140
F1.1000000000000001
sg1141
F1.1499999999999999
sg1142
(lp1358
g613
ag598
asg1144
F1.0800000000000001
sg1145
F1
sg1146
(lp1359
sg1148
S'TVPersonality'
p1360
sg1150
F1.2
sg573
S"Hecules O'Grady"
p1361
sg1152
F1
sg1153
(lp1362
sbasS'Player'
p1363
(lp1364
g1
(g10
g3
NtRp1365
(dp1366
g1128
F1
sg1129
F5
sg1130
F1.1499999999999999
sg1131
F1
sg1132
(lp1367
sg1134
F1.0900000000000001
sg1135
F1
sg567
g1363
sg1136
F15
sg1137
F1.0800000000000001
sg1138
(lp1368
g1041
ag584
ag960
asg1140
F1.1000000000000001
sg1141
F1.1499999999999999
sg1142
(lp1369
g892
ag699
ag1033
asg1144
F1.0800000000000001
sg1145
F1
sg1146
(lp1370
sg1148
S'Player'
p1371
sg1150
F1.2
sg573
S'Phillip Mossman'
p1372
sg1152
F2
sg1153
(lp1373
sbasS'Computer'
p1374
(lp1375
g1
(g10
g3
NtRp1376
(dp1377
g1128
F1
sg1129
F4
sg1130
F1.1499999999999999
sg1131
F1
sg1132
(lp1378
sg1134
F1.0900000000000001
sg1135
F1
sg567
g1374
sg1136
F10
sg1137
F1.0800000000000001
sg1138
(lp1379
g1041
ag861
ag584
ag960
ag1003
asg1140
F1.1000000000000001
sg1141
F1.1499999999999999
sg1142
(lp1380
g892
ag699
ag976
asg1144
F1.0800000000000001
sg1145
F1
sg1146
(lp1381
sg1148
S'Politician'
p1382
sg1150
F1.2
sg573
S'N.O.T.B.A.D'
p1383
sg1152
F1
sg1153
(lp1384
sbasS'CabinetPolitician001'
p1385
(lp1386
g1
(g10
g3
NtRp1387
(dp1388
g1128
F1
sg1129
F4
sg1130
F1.1499999999999999
sg1131
F1
sg1132
(lp1389
sg1134
F1.0900000000000001
sg1135
F1
sg567
g1385
sg1136
F10
sg1137
F1.0800000000000001
sg1138
(lp1390
g1041
ag861
ag584
ag960
ag1003
asg1140
F1.1000000000000001
sg1141
F1.1499999999999999
sg1142
(lp1391
g892
ag699
ag976
asg1144
F1.0800000000000001
sg1145
F1
sg1146
(lp1392
sg1148
S'Politician'
p1393
sg1150
F1.2
sg573
S'Cabinet Politician'
p1394
sg1152
F1
sg1153
(lp1395
sbasS'Constituent001'
p1396
(lp1397
g1
(g10
g3
NtRp1398
(dp1399
g1128
F1
sg1129
F4
sg1130
F1.1499999999999999
sg1131
F1
sg1132
(lp1400
sg1134
F1.0900000000000001
sg1135
F1
sg567
g1396
sg1136
F10
sg1137
F1.0800000000000001
sg1138
(lp1401
g768
ag784
ag995
asg1140
F1.1000000000000001
sg1141
F1.1499999999999999
sg1142
(lp1402
g976
asg1144
F1.0800000000000001
sg1145
F1
sg1146
(lp1403
sg1148
S'Constituent'
p1404
sg1150
F1.2
sg573
S'Constituent'
p1405
sg1152
F1
sg1153
(lp1406
sbasS'Mayor'
p1407
(lp1408
g1
(g10
g3
NtRp1409
(dp1410
g1128
F1
sg1129
F4
sg1130
F1.1499999999999999
sg1131
F1
sg1132
(lp1411
sg1134
F1.0900000000000001
sg1135
F1
sg567
g1407
sg1136
F10
sg1137
F1.0800000000000001
sg1138
(lp1412
g1041
ag861
ag584
ag960
ag1003
asg1140
F1.1000000000000001
sg1141
F1.1499999999999999
sg1142
(lp1413
g892
ag699
ag976
asg1144
F1.0800000000000001
sg1145
F1
sg1146
(lp1414
sg1148
S'Politician'
p1415
sg1150
F1.2
sg573
S'Mayor Goodman'
p1416
sg1152
F1
sg1153
(lp1417
sbassS'quest_items'
p1418
(dp1419
S'PEN'
p1420
g1
(g10
g3
NtRp1421
(dp1422
g573
S'A pen'
p1423
sg567
g1420
sbsS'BILLOFRIGHTS'
p1424
g1
(g10
g3
NtRp1425
(dp1426
g573
S"Citizens' Bill of Rights"
p1427
sg567
g1424
sbssg1138
(dp1428
S'Theo'
p1429
(lp1430
g1041
ag861
ag584
ag960
ag667
ag892
ag699
ag944
ag792
asS'JointChief'
p1431
(lp1432
g995
ag1003
ag1025
ag805
ag691
asS'Politician'
p1433
(lp1434
g1041
ag861
ag584
ag960
ag892
ag699
ag976
ag1003
asS'Bumpkin'
p1435
(lp1436
g960
ag683
ag776
ag721
asS'TVPersonality'
p1437
(lp1438
g960
ag613
ag637
ag598
asS'SecretAgent'
p1439
(lp1440
g1003
ag987
ag1025
ag805
ag829
asS'DeepThroat'
p1441
(lp1442
g861
ag1003
ag754
ag995
asS'Protestor'
p1443
(lp1444
g1033
ag768
ag629
ag675
asS'Lobbyist'
p1445
(lp1446
g784
ag908
ag754
ag995
asS'Teacher'
p1447
(lp1448
g853
ag1003
ag768
ag1033
asS'Player'
p1449
(lp1450
g1041
ag584
ag960
ag892
ag699
ag1033
asS'Computer'
p1451
(lp1452
g805
ag1025
ag645
ag754
ag995
ag861
asS'Receptionist'
p1453
(lp1454
g921
ag869
ag877
ag653
asS'Hippy'
p1455
(lp1456
g675
ag768
ag813
ag837
ag1033
ag976
asS'Constituent'
p1457
(lp1458
g768
ag976
ag784
ag995
asS'Wife'
p1459
(lp1460
g1033
ag976
ag1003
ag1041
ag707
asS'WarVet'
p1461
(lp1462
g995
ag1003
ag952
ag1033
asS'Religious'
p1463
(lp1464
g621
ag1049
ag742
ag968
ag1003
asS'Unionist'
p1465
(lp1466
g995
ag1003
ag768
ag853
asS'Journalist'
p1467
(lp1468
g637
ag1017
ag821
ag539
ag613
assS'encounters'
p1469
(dp1470
S'P-easy-05'
p1471
g1
(g10
g3
NtRp1472
(dp1473
S'item_attack_drops'
p1474
(lp1475
sS'item_attacks'
p1476
(lp1477
sg1063
F10
sS'monster2_lvl'
p1478
S''
sS'monster3'
p1479
S''
sS'monster1_lvl'
p1480
F1
sS'monster3_lvl'
p1481
S''
sS'monster4_lvl'
p1482
S''
sS'monster4'
p1483
S''
sS'monster2'
p1484
S''
sg567
g1471
sS'monster1'
p1485
S'Journalist001'
p1486
sbsS'P-easy-04'
p1487
g1
(g10
g3
NtRp1488
(dp1489
g1474
(lp1490
sg1476
(lp1491
sg1063
F10
sg1478
F1
sg1479
S'Protester001'
p1492
sg1480
F1
sg1481
F1
sg1482
S''
sg1483
S''
sg1484
S'Protester001'
p1493
sg567
g1487
sg1485
S'Protester001'
p1494
sbsS'P-easy-06'
p1495
g1
(g10
g3
NtRp1496
(dp1497
g1474
(lp1498
sg1476
(lp1499
sg1063
F10
sg1478
F1
sg1479
S''
sg1480
F1
sg1481
S''
sg1482
S''
sg1483
S''
sg1484
S'Lobbyist001'
p1500
sg567
g1495
sg1485
S'Lobbyist001'
p1501
sbsS'P-easy-01'
p1502
g1
(g10
g3
NtRp1503
(dp1504
g1474
(lp1505
g1
(c__main__
ItemAttack
p1506
g3
NtRp1507
(dp1508
S'attack'
p1509
g576
sS'quantity'
p1510
I1
sbasg1476
(lp1511
g1
(g1506
g3
NtRp1512
(dp1513
g1509
g845
sg1510
I1
sbasg1063
F10
sg1478
S''
sg1479
S''
sg1480
F1
sg1481
S''
sg1482
S''
sg1483
S''
sg1484
S''
sg567
g1502
sg1485
S'Receptionist001'
p1514
sbsS'P-easy-03'
p1515
g1
(g10
g3
NtRp1516
(dp1517
g1474
(lp1518
sg1476
(lp1519
sg1063
F10
sg1478
F1
sg1479
S''
sg1480
F1
sg1481
S''
sg1482
S''
sg1483
S''
sg1484
S'Protester001'
p1520
sg567
g1515
sg1485
S'Protester001'
p1521
sbsS'P-easy-02'
p1522
g1
(g10
g3
NtRp1523
(dp1524
g1474
(lp1525
sg1476
(lp1526
sg1063
F10
sg1478
F1
sg1479
S''
sg1480
F1
sg1481
S''
sg1482
S''
sg1483
S''
sg1484
S'Protester001'
p1527
sg567
g1522
sg1485
S'Protester001'
p1528
sbssb.