ccopy_reg
_reconstructor
p1
(c__main__
GameData
p2
c__builtin__
object
p3
NtRp4
(dp5
S'script'
p6
(dp7
S'#----------------------------------------------------------------------------------------ACT 3 ----------------------------------------------------------------------------------------------------------------------------------------------------------------------------------------'
p8
(lp9
g1
(c__main__
TableRow
p10
g3
NtRp11
(dp12
S'action'
p13
S''
sS'trigger'
p14
g8
sS'param'
p15
S''
sS'dialog'
p16
S''
sbasS'Hick1'
p17
(lp18
g1
(g10
g3
NtRp19
(dp20
g13
S'RequireFlag'
p21
sg14
g17
sg15
S'STARTHICKS'
p22
sg16
S"Look at this guy's fancy tie!"
p23
sbag1
(g10
g3
NtRp24
(dp25
g13
S'PlayerSay'
p26
sg14
S'Hick1'
p27
sg15
S''
sg16
S'What brings you to the office of the governor?'
p28
sbag1
(g10
g3
NtRp29
(dp30
g13
S'Say'
p31
sg14
S'Hick1'
p32
sg15
S''
sg16
S'The immigrants!'
p33
sbag1
(g10
g3
NtRp34
(dp35
g13
S'PlayerSay'
p36
sg14
S'Hick1'
p37
sg15
S''
sg16
S'What happened?'
p38
sbag1
(g10
g3
NtRp39
(dp40
g13
S'Say'
p41
sg14
S'Hick1'
p42
sg15
S'Hick2'
p43
sg16
S"They're coming!"
p44
sbag1
(g10
g3
NtRp45
(dp46
g13
S'PlayerSay'
p47
sg14
S'Hick1'
p48
sg15
S''
sg16
S'The...immigrants are coming?'
p49
sbag1
(g10
g3
NtRp50
(dp51
g13
S'Say'
p52
sg14
S'Hick1'
p53
sg15
S'Hick2'
p54
sg16
S'Yes, to steal our jobs and our wives!'
p55
sbag1
(g10
g3
NtRp56
(dp57
g13
S'Say'
p58
sg14
S'Hick1'
p59
sg15
S''
sg16
S'They have to be stopped!'
p60
sbag1
(g10
g3
NtRp61
(dp62
g13
S'PlayerSay'
p63
sg14
S'Hick1'
p64
sg15
S''
sg16
S"I don't think the immigrants are coming to steal your wives..."
p65
sbag1
(g10
g3
NtRp66
(dp67
g13
S'Say'
p68
sg14
S'Hick1'
p69
sg15
S'Journalist2'
p70
sg16
S'Mayor Mossman sides with the immigrants! I need to get this to print!'
p71
sbag1
(g10
g3
NtRp72
(dp73
g13
S'PlayerSay'
p74
sg14
S'Hick1'
p75
sg15
S''
sg16
S'Wait a second, let me explain.'
p76
sbag1
(g10
g3
NtRp77
(dp78
g13
S'Encounter'
p79
sg14
S'Hick1'
p80
sg15
S'P-med-03'
p81
sg16
S''
sbag1
(g10
g3
NtRp82
(dp83
g13
S'Say'
p84
sg14
S'Hick1'
p85
sg15
S''
sg16
S"You're a smart guy. I think I can trust you."
p86
sbag1
(g10
g3
NtRp87
(dp88
g13
S'SetFlag'
p89
sg14
S'Hick1'
p90
sg15
S'STARTHICKS2'
p91
sg16
S''
sbag1
(g10
g3
NtRp92
(dp93
g13
S'Increment'
p94
sg14
S'Hick1'
p95
sg15
S'DEALWITHHICKS'
p96
sg16
S''
sbag1
(g10
g3
NtRp97
(dp98
g13
S'Destroy'
p99
sg14
S'Hick1'
p100
sg15
S''
sg16
S''
sbasS'Hick2'
p101
(lp102
g1
(g10
g3
NtRp103
(dp104
g13
S'RequireFlag'
p105
sg14
g101
sg15
S'STARTHICKS2'
p106
sg16
S"Aw....I'm shy...talk to my buddy..."
p107
sbag1
(g10
g3
NtRp108
(dp109
g13
S'Encounter'
p110
sg14
S'Hick2'
p111
sg15
S'P-med-04'
p112
sg16
S''
sbag1
(g10
g3
NtRp113
(dp114
g13
S'Say'
p115
sg14
S'Hick2'
p116
sg15
S''
sg16
S"Wowee. We've been waiting for days and the governor has ignored us. If you ever run for governor, you'll have my vote!"
p117
sbag1
(g10
g3
NtRp118
(dp119
g13
S'Increment'
p120
sg14
S'Hick2'
p121
sg15
S'DEALWITHHICKS'
p122
sg16
S''
sbag1
(g10
g3
NtRp123
(dp124
g13
S'Destroy'
p125
sg14
S'Hick2'
p126
sg15
S''
sg16
S''
sbasS'Cabinet1'
p127
(lp128
g1
(g10
g3
NtRp129
(dp130
g13
S'Say'
p131
sg14
g127
sg15
S''
sg16
S'Good afternoon, Mr President. How can I help?'
p132
sbag1
(g10
g3
NtRp133
(dp134
g13
S'PlayerSay'
p135
sg14
S'Cabinet1'
p136
sg15
S''
sg16
S'I want to know where the orders to mobilise the military and reallocate education funds came from.'
p137
sbag1
(g10
g3
NtRp138
(dp139
g13
S'Say'
p140
sg14
S'Cabinet1'
p141
sg15
S''
sg16
S'But...it came from you, sir. They were both faxed over to me this afternoon.'
p142
sbag1
(g10
g3
NtRp143
(dp144
g13
S'PlayerSay'
p145
sg14
S'Cabinet1'
p146
sg15
S''
sg16
S'Tell me every detail.'
p147
sbag1
(g10
g3
NtRp148
(dp149
g13
S'Encounter'
p150
sg14
S'Cabinet1'
p151
sg15
S'P-hard-08'
p152
sg16
S''
sbag1
(g10
g3
NtRp153
(dp154
g13
S'Increment'
p155
sg14
S'Cabinet1'
p156
sg15
S'CABINETMEMBERS'
p157
sg16
S''
sbag1
(g10
g3
NtRp158
(dp159
g13
S'Say'
p160
sg14
S'Cabinet1'
p161
sg15
S''
sg16
S'I cannot understand how this could happen.'
p162
sbag1
(g10
g3
NtRp163
(dp164
g13
S'Destroy'
p165
sg14
S'Cabinet1'
p166
sg15
S''
sg16
S''
sbasS'Politician7'
p167
(lp168
g1
(g10
g3
NtRp169
(dp170
g13
S'RequireFlag'
p171
sg14
g167
sg15
S'STARTPOLITICIANSHAKEDOWN'
p172
sg16
S'Good morning, Governor Mossman. Your PA will know your schedule. He is waiting in your room.'
p173
sbag1
(g10
g3
NtRp174
(dp175
g13
S'Say'
p176
sg14
S'Politician7'
p177
sg15
S''
sg16
S"I believe in captialism. Let business sort itself out. They shouldn't need to rely on government handouts."
p178
sbag1
(g10
g3
NtRp179
(dp180
g13
S'Say'
p181
sg14
S'Politician7'
p182
sg15
S''
sg16
S'Also, I think politicians need a raise. Some more than others...oh and life-long retainers.'
p183
sbag1
(g10
g3
NtRp184
(dp185
g13
S'PlayerSay'
p186
sg14
S'Politician7'
p187
sg15
S''
sg16
S'So, no more hand-outs for business but more handouts for politicians?'
p188
sbag1
(g10
g3
NtRp189
(dp190
g13
S'Say'
p191
sg14
S'Politician7'
p192
sg15
S''
sg16
S'Yes!'
p193
sbag1
(g10
g3
NtRp194
(dp195
g13
S'PlayerSay'
p196
sg14
S'Politician7'
p197
sg15
S''
sg16
S'Does that serve your constituents?'
p198
sbag1
(g10
g3
NtRp199
(dp200
g13
S'Say'
p201
sg14
S'Politician7'
p202
sg15
S''
sg16
S'...It serves...some...'
p203
sbag1
(g10
g3
NtRp204
(dp205
g13
S'Encounter'
p206
sg14
S'Politician7'
p207
sg15
S'P-med-11'
p208
sg16
S''
sbag1
(g10
g3
NtRp209
(dp210
g13
S'Say'
p211
sg14
S'Politician7'
p212
sg15
S''
sg16
S'Right, I guess we need to handle the needs of our constituents, too.'
p213
sbag1
(g10
g3
NtRp214
(dp215
g13
S'Increment'
p216
sg14
S'Politician7'
p217
sg15
S'POLITICIANSHAKEDOWN'
p218
sg16
S''
sbag1
(g10
g3
NtRp219
(dp220
g13
S'Destroy'
p221
sg14
S'Politician7'
p222
sg15
S''
sg16
S''
sbasS'TVDebate'
p223
(lp224
g1
(g10
g3
NtRp225
(dp226
g13
S'RequireFlag'
p227
sg14
g223
sg15
S'STARTDEBATE'
p228
sg16
S"Hmmm? Oh, sorry, I'm on the phone to the studio."
p229
sbag1
(g10
g3
NtRp230
(dp231
g13
S'Say'
p232
sg14
S'TVDebate'
p233
sg15
S''
sg16
S"Good evening, Governor Mossman. If you'll follow me, I'll take you to the studio."
p234
sbag1
(g10
g3
NtRp235
(dp236
g13
S'Encounter'
p237
sg14
S'TVDebate'
p238
sg15
S'P-med-21'
p239
sg16
S''
sbag1
(g10
g3
NtRp240
(dp241
g13
S'Say'
p242
sg14
S'TVDebate'
p243
sg15
S''
sg16
S'Great work tonight, Governor Mossman and congratulations on the win!'
p244
sbag1
(g10
g3
NtRp245
(dp246
g13
S'SetFlag'
p247
sg14
S'TVDebate'
p248
sg15
S'DEBATECOMPLETE'
p249
sg16
S''
sbag1
(g10
g3
NtRp250
(dp251
g13
S'Destroy'
p252
sg14
S'TVDebate'
p253
sg15
S''
sg16
S''
sbasS'Lobbyist2'
p254
(lp255
g1
(g10
g3
NtRp256
(dp257
g13
S'RequireFlag'
p258
sg14
g254
sg15
S'STARTLOBBYISTS'
p259
sg16
S'Humph'
p260
sbag1
(g10
g3
NtRp261
(dp262
g13
S'Say'
p263
sg14
S'Lobbyist2'
p264
sg15
S''
sg16
S'I represent the Python Software Foundation. What will you do to promote, protect and advance the Python programming language.'
p265
sbag1
(g10
g3
NtRp266
(dp267
g13
S'PlayerSay'
p268
sg14
S'Lobbyist2'
p269
sg15
S''
sg16
S"Ah yes, the Python cause! I'm a big advocate of Python."
p270
sbag1
(g10
g3
NtRp271
(dp272
g13
S'Encounter'
p273
sg14
S'Lobbyist2'
p274
sg15
S'P-med-12'
p275
sg16
S''
sbag1
(g10
g3
NtRp276
(dp277
g13
S'Increment'
p278
sg14
S'Lobbyist2'
p279
sg15
S'LOBBYISTS'
p280
sg16
S''
sbag1
(g10
g3
NtRp281
(dp282
g13
S'Say'
p283
sg14
S'Lobbyist2'
p284
sg15
S''
sg16
S'I think we can help each other out.'
p285
sbag1
(g10
g3
NtRp286
(dp287
g13
S'Destroy'
p288
sg14
S'Lobbyist2'
p289
sg15
S''
sg16
S''
sbasS'CheatAct2'
p290
(lp291
g1
(g10
g3
NtRp292
(dp293
g13
S'AddAlly'
p294
sg14
g290
sg15
S'Wife:1'
p295
sg16
S''
sbag1
(g10
g3
NtRp296
(dp297
g13
S'LearnAttack'
p298
sg14
S'CheatAct2'
p299
sg15
S'BRIBE'
p300
sg16
S''
sbag1
(g10
g3
NtRp301
(dp302
g13
S'LearnAttack'
p303
sg14
S'CheatAct2'
p304
sg15
S'Wife:BRIBE'
p305
sg16
S''
sbag1
(g10
g3
NtRp306
(dp307
g13
S'LearnAttack'
p308
sg14
S'CheatAct2'
p309
sg15
S'SLANDER'
p310
sg16
S''
sbag1
(g10
g3
NtRp311
(dp312
g13
S'GotoMap'
p313
sg14
S'CheatAct2'
p314
sg15
S'act2'
p315
sg16
S''
sbasS'CheatAct3'
p316
(lp317
g1
(g10
g3
NtRp318
(dp319
g13
S'AddAlly'
p320
sg14
g316
sg15
S'Wife:1'
p321
sg16
S''
sbag1
(g10
g3
NtRp322
(dp323
g13
S'LearnAttack'
p324
sg14
S'CheatAct3'
p325
sg15
S'BRIBE'
p326
sg16
S''
sbag1
(g10
g3
NtRp327
(dp328
g13
S'LearnAttack'
p329
sg14
S'CheatAct3'
p330
sg15
S'Wife:BRIBE'
p331
sg16
S''
sbag1
(g10
g3
NtRp332
(dp333
g13
S'LearnAttack'
p334
sg14
S'CheatAct3'
p335
sg15
S'SLANDER'
p336
sg16
S''
sbag1
(g10
g3
NtRp337
(dp338
g13
S'AddAlly'
p339
sg14
S'CheatAct3'
p340
sg15
S'Leo:1'
p341
sg16
S''
sbag1
(g10
g3
NtRp342
(dp343
g13
S'GotoMap'
p344
sg14
S'CheatAct3'
p345
sg15
S'act3'
p346
sg16
S''
sbasS'WarVet2'
p347
(lp348
g1
(g10
g3
NtRp349
(dp350
g13
S'RequireFlag'
p351
sg14
g347
sg15
S'AFTERWILFRED'
p352
sg16
S'Eh? Speak up, boy.'
p353
sbag1
(g10
g3
NtRp354
(dp355
g13
S'Encounter'
p356
sg14
S'WarVet2'
p357
sg15
S'P-hard-05'
p358
sg16
S''
sbag1
(g10
g3
NtRp359
(dp360
g13
S'Say'
p361
sg14
S'WarVet2'
p362
sg15
S''
sg16
S"We'll head home, but you can expect us back if we see anything else suspicious ."
p363
sbag1
(g10
g3
NtRp364
(dp365
g13
S'Increment'
p366
sg14
S'WarVet2'
p367
sg15
S'WARVETS'
p368
sg16
S''
sbag1
(g10
g3
NtRp369
(dp370
g13
S'Destroy'
p371
sg14
S'WarVet2'
p372
sg15
S''
sg16
S''
sbasS'WarVet1'
p373
(lp374
g1
(g10
g3
NtRp375
(dp376
g13
S'Say'
p377
sg14
g373
sg15
S''
sg16
S"You think you can fool me? I wasn't born yesterday, you know."
p378
sbag1
(g10
g3
NtRp379
(dp380
g13
S'PlayerSay'
p381
sg14
S'WarVet1'
p382
sg15
S''
sg16
S"I'm sorry, sir, but what seems to be the problem."
p383
sbag1
(g10
g3
NtRp384
(dp385
g13
S'Say'
p386
sg14
S'WarVet1'
p387
sg15
S''
sg16
S"You think I don't know a mobilising army when I see one? You're clearly readying for war and you think you don't even need to mention it to the people."
p388
sbag1
(g10
g3
NtRp389
(dp390
g13
S'Say'
p391
sg14
S'WarVet1'
p392
sg15
S'WarVet2'
p393
sg16
S"And don't forget that he's barely a cadet, Wilfred."
p394
sbag1
(g10
g3
NtRp395
(dp396
g13
S'Say'
p397
sg14
S'WarVet1'
p398
sg15
S''
sg16
S"Right you are, Arnold, You've barely set foot in this building and you're already leading us to war. Who do you think you're dealing with? We won't stand."
p399
sbag1
(g10
g3
NtRp400
(dp401
g13
S'Encounter'
p402
sg14
S'WarVet1'
p403
sg15
S'P-hard-04'
p404
sg16
S''
sbag1
(g10
g3
NtRp405
(dp406
g13
S'Say'
p407
sg14
S'WarVet1'
p408
sg15
S''
sg16
S"Seems like a flimsy excuse, you didn't know. Better get your troops in line if you want 'em to march, boy."
p409
sbag1
(g10
g3
NtRp410
(dp411
g13
S'Increment'
p412
sg14
S'WarVet1'
p413
sg15
S'WARVETS'
p414
sg16
S''
sbag1
(g10
g3
NtRp415
(dp416
g13
S'SetFlag'
p417
sg14
S'WarVet1'
p418
sg15
S'AFTERWILFRED'
p419
sg16
S''
sbag1
(g10
g3
NtRp420
(dp421
g13
S'Destroy'
p422
sg14
S'WarVet1'
p423
sg15
S''
sg16
S''
sbasS'Teacher2'
p424
(lp425
g1
(g10
g3
NtRp426
(dp427
g13
S'Say'
p428
sg14
g424
sg15
S''
sg16
S"You cannot gamble with the future, Mr President. Childrens' education is at stake!"
p429
sbag1
(g10
g3
NtRp430
(dp431
g13
S'PlayerSay'
p432
sg14
S'Teacher2'
p433
sg15
S''
sg16
S"I can assure you this isn't so..."
p434
sbag1
(g10
g3
NtRp435
(dp436
g13
S'Encounter'
p437
sg14
S'Teacher2'
p438
sg15
S'P-hard-07'
p439
sg16
S''
sbag1
(g10
g3
NtRp440
(dp441
g13
S'Say'
p442
sg14
S'Teacher2'
p443
sg15
S''
sg16
S'We will await a change from you government.'
p444
sbag1
(g10
g3
NtRp445
(dp446
g13
S'Increment'
p447
sg14
S'Teacher2'
p448
sg15
S'TEACHERS'
p449
sg16
S''
sbag1
(g10
g3
NtRp450
(dp451
g13
S'Destroy'
p452
sg14
S'Teacher2'
p453
sg15
S''
sg16
S''
sbasS'Kawalski'
p454
(lp455
g1
(g10
g3
NtRp456
(dp457
g13
S'Say'
p458
sg14
g454
sg15
S''
sg16
S'A pleasure to meet you, President Mossman. I am Agent Kawalski, your security detail.'
p459
sbag1
(g10
g3
NtRp460
(dp461
g13
S'PlayerSay'
p462
sg14
S'Kawalski'
p463
sg15
S''
sg16
S'Great to meet you, Agent Kawalski. What do I need to know?'
p464
sbag1
(g10
g3
NtRp465
(dp466
g13
S'Say'
p467
sg14
S'Kawalski'
p468
sg15
S''
sg16
S'Well actually, it does have to do with your security. Something terrible is happening at the White House.'
p469
sbag1
(g10
g3
NtRp470
(dp471
g13
S'PlayerSay'
p472
sg14
S'Kawalski'
p473
sg15
S''
sg16
S"If you're trying to warn me about the aliens, it's under control."
p474
sbag1
(g10
g3
NtRp475
(dp476
g13
S'Say'
p477
sg14
S'Kawalski'
p478
sg15
S''
sg16
S'No, no, this is different. I think somebody is trying to take over the White House.'
p479
sbag1
(g10
g3
NtRp480
(dp481
g13
S'PlayerSay'
p482
sg14
S'Kawalski'
p483
sg15
S''
sg16
S"Wouldn't we know?"
p484
sbag1
(g10
g3
NtRp485
(dp486
g13
S'Say'
p487
sg14
S'Kawalski'
p488
sg15
S''
sg16
S"It's too early for those kind of details. I just want you to keep your eyes open, Mr President."
p489
sbag1
(g10
g3
NtRp490
(dp491
g13
S'PlayerSay'
p492
sg14
S'Kawalski'
p493
sg15
S''
sg16
S'No problem.'
p494
sbag1
(g10
g3
NtRp495
(dp496
g13
S'Destroy'
p497
sg14
S'Kawalski'
p498
sg15
S''
sg16
S''
sbag1
(g10
g3
NtRp499
(dp500
g13
S'AddAlly'
p501
sg14
S'Kawalski'
p502
sg15
S'SecretAgent:1'
p503
sg16
S'Kawalski joins your political party!'
p504
sbag1
(g10
g3
NtRp505
(dp506
g13
S'SetFlag'
p507
sg14
S'Kawalski'
p508
sg15
S'KAWALSKIJOIN'
p509
sg16
S''
sbasS'Theo'
p510
(lp511
g1
(g10
g3
NtRp512
(dp513
g13
S'RequireFlag'
p514
sg14
g510
sg15
S'GOVERNORDEFEATED'
p515
sg16
S'The Governor is in the north wing.'
p516
sbag1
(g10
g3
NtRp517
(dp518
g13
S'Say'
p519
sg14
S'Theo'
p520
sg15
S''
sg16
S"You must be Governor Mossman. I am Theo. I've been looking for you, but I wanted to see how you handled Governor Badden"
p521
sbag1
(g10
g3
NtRp522
(dp523
g13
S'PlayerSay'
p524
sg14
S'Theo'
p525
sg15
S''
sg16
S'Hi Theo. Why have you been looking for me?'
p526
sbag1
(g10
g3
NtRp527
(dp528
g13
S'Say'
p529
sg14
S'Theo'
p530
sg15
S''
sg16
S"There's a lot going on in Ignited States politics and none of it is good. Somebody needs to get up there and find out what's going on."
p531
sbag1
(g10
g3
NtRp532
(dp533
g13
S'Say'
p534
sg14
S'Theo'
p535
sg15
S''
sg16
S"I couldn't be sure which side you were on, but your dealings with the Governor prove that you're not with them."
p536
sbag1
(g10
g3
NtRp537
(dp538
g13
S'PlayerSay'
p539
sg14
S'Theo'
p540
sg15
S''
sg16
S'It sounds like it goes all the way to the President of the Ignited States.'
p541
sbag1
(g10
g3
NtRp542
(dp543
g13
S'Say'
p544
sg14
S'Theo'
p545
sg15
S''
sg16
S"It does. That's why I've been looking for you. The only way to find out is to flush them out. There's only one way to flush out President Allen."
p546
sbag1
(g10
g3
NtRp547
(dp548
g13
S'PlayerSay'
p549
sg14
S'Theo'
p550
sg15
S''
sg16
S"How's that?"
p551
sbag1
(g10
g3
NtRp552
(dp553
g13
S'Say'
p554
sg14
S'Theo'
p555
sg15
S''
sg16
S"...I've been a campaign manager for 20 years and I've never seen a candidate as strong as you. I think you have what it takes to run for the presidency."
p556
sbag1
(g10
g3
NtRp557
(dp558
g13
S'Say'
p559
sg14
S'Theo'
p560
sg15
S''
sg16
S"That's why I was looking for you. I need somebody who has a shot at winning in order to get to President Allen. You have that shot."
p561
sbag1
(g10
g3
NtRp562
(dp563
g13
S'PlayerSay'
p564
sg14
S'Theo'
p565
sg15
S''
sg16
S"You really think I can win? Well...I want to follow this through to the end, so I'm in!"
p566
sbag1
(g10
g3
NtRp567
(dp568
g13
S'Say'
p569
sg14
S'Theo'
p570
sg15
S''
sg16
S"Great! There's a lot to get organised! We need to plan our election campaign!"
p571
sbag1
(g10
g3
NtRp572
(dp573
g13
S'Destroy'
p574
sg14
S'Theo'
p575
sg15
S''
sg16
S''
sbag1
(g10
g3
NtRp576
(dp577
g13
S'AddAlly'
p578
sg14
S'Theo'
p579
sg15
S'Leo:1'
p580
sg16
S''
sbag1
(g10
g3
NtRp581
(dp582
g13
S'Message'
p583
sg14
S'Theo'
p584
sg15
S''
sg16
S'Theo joins your political party!'
p585
sbasS'Religious4'
p586
(lp587
g1
(g10
g3
NtRp588
(dp589
g13
S'Say'
p590
sg14
g586
sg15
S''
sg16
S'Do not be swayed by the seductive powers of tea!'
p591
sbag1
(g10
g3
NtRp592
(dp593
g13
S'Encounter'
p594
sg14
S'Religious4'
p595
sg15
S'P-med-18'
p596
sg16
S''
sbag1
(g10
g3
NtRp597
(dp598
g13
S'Increment'
p599
sg14
S'Religious4'
p600
sg15
S'RELIGIOUSNUTS'
p601
sg16
S''
sbag1
(g10
g3
NtRp602
(dp603
g13
S'Say'
p604
sg14
S'Religious4'
p605
sg15
S''
sg16
S'The Battycan will be satisfied with this news.'
p606
sbag1
(g10
g3
NtRp607
(dp608
g13
S'Destroy'
p609
sg14
S'Religious4'
p610
sg15
S''
sg16
S''
sbasS'JointChief1'
p611
(lp612
g1
(g10
g3
NtRp613
(dp614
g13
S'Say'
p615
sg14
g611
sg15
S''
sg16
S'Mr President, what is going on here? First you move troops without our authority and then you countermand your own order?'
p616
sbag1
(g10
g3
NtRp617
(dp618
g13
S'PlayerSay'
p619
sg14
S'JointChief1'
p620
sg15
S''
sg16
S"I haven't ordered the military to do any such thing! What is going on? Is this a coup?"
p621
sbag1
(g10
g3
NtRp622
(dp623
g13
S'Say'
p624
sg14
S'JointChief1'
p625
sg15
S''
sg16
S'Not from us!'
p626
sbag1
(g10
g3
NtRp627
(dp628
g13
S'Encounter'
p629
sg14
S'JointChief1'
p630
sg15
S'P-hard-11'
p631
sg16
S''
sbag1
(g10
g3
NtRp632
(dp633
g13
S'Increment'
p634
sg14
S'JointChief1'
p635
sg15
S'JOINTCHIEFS'
p636
sg16
S''
sbag1
(g10
g3
NtRp637
(dp638
g13
S'PlayerSay'
p639
sg14
S'JointChief1'
p640
sg15
S''
sg16
S"Well, that's one less thing to worry about then."
p641
sbag1
(g10
g3
NtRp642
(dp643
g13
S'Destroy'
p644
sg14
S'JointChief1'
p645
sg15
S''
sg16
S''
sbasS'Religious1'
p646
(lp647
g1
(g10
g3
NtRp648
(dp649
g13
S'Say'
p650
sg14
g646
sg15
S''
sg16
S'Have you had your morning prayer?'
p651
sbag1
(g10
g3
NtRp652
(dp653
g13
S'Encounter'
p654
sg14
S'Religious1'
p655
sg15
S'P-med-16'
p656
sg16
S''
sbag1
(g10
g3
NtRp657
(dp658
g13
S'Increment'
p659
sg14
S'Religious1'
p660
sg15
S'RELIGIOUSNUTS'
p661
sg16
S''
sbag1
(g10
g3
NtRp662
(dp663
g13
S'Say'
p664
sg14
S'Religious1'
p665
sg15
S''
sg16
S'Some people pray upwards of 5 times a day, but this can cause hallucinations.'
p666
sbag1
(g10
g3
NtRp667
(dp668
g13
S'Destroy'
p669
sg14
S'Religious1'
p670
sg15
S''
sg16
S''
sbasS'Religious3'
p671
(lp672
g1
(g10
g3
NtRp673
(dp674
g13
S'Say'
p675
sg14
g671
sg15
S''
sg16
S'Mmmmmm...Coffee....ommmmm'
p676
sbag1
(g10
g3
NtRp677
(dp678
g13
S'Encounter'
p679
sg14
S'Religious3'
p680
sg15
S'P-med-17'
p681
sg16
S''
sbag1
(g10
g3
NtRp682
(dp683
g13
S'Increment'
p684
sg14
S'Religious3'
p685
sg15
S'RELIGIOUSNUTS'
p686
sg16
S''
sbag1
(g10
g3
NtRp687
(dp688
g13
S'Say'
p689
sg14
S'Religious3'
p690
sg15
S''
sg16
S'I must return to my meditation.'
p691
sbag1
(g10
g3
NtRp692
(dp693
g13
S'Destroy'
p694
sg14
S'Religious3'
p695
sg15
S''
sg16
S''
sbasS'Religious2'
p696
(lp697
g1
(g10
g3
NtRp698
(dp699
g13
S'Say'
p700
sg14
g696
sg15
S''
sg16
S'Welcome, my child. We have travelled here from Battycan City to be assured you are a man of faith before we endorse you.'
p701
sbag1
(g10
g3
NtRp702
(dp703
g13
S'PlayerSay'
p704
sg14
S'Religious2'
p705
sg15
S''
sg16
S'Er, what faith is that?'
p706
sbag1
(g10
g3
NtRp707
(dp708
g13
S'Say'
p709
sg14
S'Religious2'
p710
sg15
S''
sg16
S'Why, the one true god: Coffee.'
p711
sbag1
(g10
g3
NtRp712
(dp713
g13
S'PlayerSay'
p714
sg14
S'Religious2'
p715
sg15
S''
sg16
S'...Coffee?'
p716
sbag1
(g10
g3
NtRp717
(dp718
g13
S'Say'
p719
sg14
S'Religious2'
p720
sg15
S''
sg16
S"Yes of course. He who lifts you up when you're feeling low, who is your inspiration in the dark and who can achieve miraculous feats of effort with dedicated prayer."
p721
sbag1
(g10
g3
NtRp722
(dp723
g13
S'PlayerSay'
p724
sg14
S'Religious2'
p725
sg15
S''
sg16
S'This may be a religion I can get behind.'
p726
sbag1
(g10
g3
NtRp727
(dp728
g13
S'Encounter'
p729
sg14
S'Religious2'
p730
sg15
S'P-med-15'
p731
sg16
S''
sbag1
(g10
g3
NtRp732
(dp733
g13
S'Increment'
p734
sg14
S'Religious2'
p735
sg15
S'RELIGIOUSNUTS'
p736
sg16
S''
sbag1
(g10
g3
NtRp737
(dp738
g13
S'Say'
p739
sg14
S'Religious2'
p740
sg15
S''
sg16
S'Wonderful, the Battycan will be most pleased.'
p741
sbag1
(g10
g3
NtRp742
(dp743
g13
S'Destroy'
p744
sg14
S'Religious2'
p745
sg15
S''
sg16
S''
sbasS'Constituent2'
p746
(lp747
g1
(g10
g3
NtRp748
(dp749
g13
S'RequireFlag'
p750
sg14
g746
sg15
S'STARTCONSTITUENTS'
p751
sg16
S'What?'
p752
sbag1
(g10
g3
NtRp753
(dp754
g13
S'PlayerSay'
p755
sg14
S'Constituent2'
p756
sg15
S''
sg16
S'Vote Phillip Mossman for Mayor!'
p757
sbag1
(g10
g3
NtRp758
(dp759
g13
S'Say'
p760
sg14
S'Constituent2'
p761
sg15
S''
sg16
S'But Mayor Goodman has always taken care of me.'
p762
sbag1
(g10
g3
NtRp763
(dp764
g13
S'Encounter'
p765
sg14
S'Constituent2'
p766
sg15
S'P-easy-08'
p767
sg16
S''
sbag1
(g10
g3
NtRp768
(dp769
g13
S'Say'
p770
sg14
S'Constituent2'
p771
sg15
S''
sg16
S"I think it's time for a change!"
p772
sbag1
(g10
g3
NtRp773
(dp774
g13
S'Destroy'
p775
sg14
S'Constituent2'
p776
sg15
S''
sg16
S''
sbasS'Constituent3'
p777
(lp778
g1
(g10
g3
NtRp779
(dp780
g13
S'RequireFlag'
p781
sg14
g777
sg15
S'STARTCONSTITUENTS'
p782
sg16
S'What?'
p783
sbag1
(g10
g3
NtRp784
(dp785
g13
S'PlayerSay'
p786
sg14
S'Constituent3'
p787
sg15
S''
sg16
S'Vote Phillip Mossman for Mayor!'
p788
sbag1
(g10
g3
NtRp789
(dp790
g13
S'Say'
p791
sg14
S'Constituent3'
p792
sg15
S''
sg16
S'But Mayor Goodman has always taken care of me.'
p793
sbag1
(g10
g3
NtRp794
(dp795
g13
S'Encounter'
p796
sg14
S'Constituent3'
p797
sg15
S'P-easy-09'
p798
sg16
S''
sbag1
(g10
g3
NtRp799
(dp800
g13
S'Say'
p801
sg14
S'Constituent3'
p802
sg15
S''
sg16
S"I think it's time for a change!"
p803
sbag1
(g10
g3
NtRp804
(dp805
g13
S'PlayerSay'
p806
sg14
S'Constituent3'
p807
sg15
S''
sg16
S"I think I'm ready to take on Mayor Goodman now!"
p808
sbag1
(g10
g3
NtRp809
(dp810
g13
S'SetFlag'
p811
sg14
S'Constituent3'
p812
sg15
S'CONSTITUENTSWON'
p813
sg16
S''
sbag1
(g10
g3
NtRp814
(dp815
g13
S'Destroy'
p816
sg14
S'Constituent3'
p817
sg15
S''
sg16
S''
sbasS'DeepThroat'
p818
(lp819
g1
(g10
g3
NtRp820
(dp821
g13
S'Say'
p822
sg14
g818
sg15
S''
sg16
S'Finally, I thought you were going to be too late.'
p823
sbag1
(g10
g3
NtRp824
(dp825
g13
S'PlayerSay'
p826
sg14
S'DeepThroat'
p827
sg15
S''
sg16
S'What can I do for you Mr er...?'
p828
sbag1
(g10
g3
NtRp829
(dp830
g13
S'Say'
p831
sg14
S'DeepThroat'
p832
sg15
S''
sg16
S"No names! I have something I think you'll be interested in, but I'm not sure you can be trusted."
p833
sbag1
(g10
g3
NtRp834
(dp835
g13
S'PlayerSay'
p836
sg14
S'DeepThroat'
p837
sg15
S''
sg16
S"Look, Mr Er...I'm very busy, what is this about."
p838
sbag1
(g10
g3
NtRp839
(dp840
g13
S'Say'
p841
sg14
S'DeepThroat'
p842
sg15
S''
sg16
S"It's about the President, it's about national security, but I've got a bad feeling and I'm getting out of here."
p843
sbag1
(g10
g3
NtRp844
(dp845
g13
S'PlayerSay'
p846
sg14
S'DeepThroat'
p847
sg15
S''
sg16
S'No, wait!'
p848
sbag1
(g10
g3
NtRp849
(dp850
g13
S'Encounter'
p851
sg14
S'DeepThroat'
p852
sg15
S'P-med-19'
p853
sg16
S''
sbag1
(g10
g3
NtRp854
(dp855
g13
S'Say'
p856
sg14
S'DeepThroat'
p857
sg15
S''
sg16
S"You're right, I have every reason to trust you. I've found this Incriminating Evidence."
p858
sbag1
(g10
g3
NtRp859
(dp860
g13
S'GiveItem'
p861
sg14
S'DeepThroat'
p862
sg15
S'INCRIMINATINGEVIDENCE'
p863
sg16
S'You receive Incriminating Evidence'
p864
sbag1
(g10
g3
NtRp865
(dp866
g13
S'PlayerSay'
p867
sg14
S'DeepThroat'
p868
sg15
S''
sg16
S'This has to be stopped!'
p869
sbag1
(g10
g3
NtRp870
(dp871
g13
S'Say'
p872
sg14
S'DeepThroat'
p873
sg15
S''
sg16
S"Yes, but not by me. I've given you all I've got, now get out."
p874
sbag1
(g10
g3
NtRp875
(dp876
g13
S'RequireFlag'
p877
sg14
S'DeepThroat'
p878
sg15
S'DEEPTHROAT2'
p879
sg16
S'I said get out!'
p880
sbag1
(g10
g3
NtRp881
(dp882
g13
S'Say'
p883
sg14
S'DeepThroat'
p884
sg15
S''
sg16
S"It's a lot worse than I thought. I have more to tell you, but I don't think I should trust you. I think there's a leak in your operation somewhere."
p885
sbag1
(g10
g3
NtRp886
(dp887
g13
S'PlayerSay'
p888
sg14
S'DeepThroat'
p889
sg15
S''
sg16
S'Why do you say that?'
p890
sbag1
(g10
g3
NtRp891
(dp892
g13
S'Say'
p893
sg14
S'DeepThroat'
p894
sg15
S''
sg16
S'There was a lot of heat on me after we last spoke.'
p895
sbag1
(g10
g3
NtRp896
(dp897
g13
S'PlayerSay'
p898
sg14
S'DeepThroat'
p899
sg15
S''
sg16
S"It's getting close to the final election. It could just be that they're getting skittish."
p900
sbag1
(g10
g3
NtRp901
(dp902
g13
S'Say'
p903
sg14
S'DeepThroat'
p904
sg15
S''
sg16
S"I'm not so sure..."
p905
sbag1
(g10
g3
NtRp906
(dp907
g13
S'Encounter'
p908
sg14
S'DeepThroat'
p909
sg15
S'P-med-22'
p910
sg16
S''
sbag1
(g10
g3
NtRp911
(dp912
g13
S'Say'
p913
sg14
S'DeepThroat'
p914
sg15
S''
sg16
S"You're right, I'm just edgy. Look, I think you should be careful. I think the President is planning to KILL you in the final debate...politically."
p915
sbag1
(g10
g3
NtRp916
(dp917
g13
S'PlayerSay'
p918
sg14
S'DeepThroat'
p919
sg15
S''
sg16
S'You think he wants to silence me forever....on the political stage?'
p920
sbag1
(g10
g3
NtRp921
(dp922
g13
S'Say'
p923
sg14
S'DeepThroat'
p924
sg15
S''
sg16
S'Yes I do. This could get really messy...politically speaking. So be careful!'
p925
sbag1
(g10
g3
NtRp926
(dp927
g13
S'SetFlag'
p928
sg14
S'DeepThroat'
p929
sg15
S'FINISHEDDEEPTHROAT'
p930
sg16
S''
sbag1
(g10
g3
NtRp931
(dp932
g13
S'Destroy'
p933
sg14
S'DeepThroat'
p934
sg15
S''
sg16
S''
sbasS'Constituent1'
p935
(lp936
g1
(g10
g3
NtRp937
(dp938
g13
S'RequireFlag'
p939
sg14
g935
sg15
S'STARTCONSTITUENTS'
p940
sg16
S'Yes?'
p941
sbag1
(g10
g3
NtRp942
(dp943
g13
S'PlayerSay'
p944
sg14
S'Constituent1'
p945
sg15
S''
sg16
S'Vote Phillip Mossman for Mayor!'
p946
sbag1
(g10
g3
NtRp947
(dp948
g13
S'Say'
p949
sg14
S'Constituent1'
p950
sg15
S''
sg16
S'Who?'
p951
sbag1
(g10
g3
NtRp952
(dp953
g13
S'PlayerSay'
p954
sg14
S'Constituent1'
p955
sg15
S''
sg16
S'Er, me!'
p956
sbag1
(g10
g3
NtRp957
(dp958
g13
S'Say'
p959
sg14
S'Constituent1'
p960
sg15
S''
sg16
S'Why? How will you help local business?'
p961
sbag1
(g10
g3
NtRp962
(dp963
g13
S'Encounter'
p964
sg14
S'Constituent1'
p965
sg15
S'P-easy-07'
p966
sg16
S''
sbag1
(g10
g3
NtRp967
(dp968
g13
S'Say'
p969
sg14
S'Constituent1'
p970
sg15
S''
sg16
S'You make a good case!'
p971
sbag1
(g10
g3
NtRp972
(dp973
g13
S'Destroy'
p974
sg14
S'Constituent1'
p975
sg15
S''
sg16
S''
sbasS'Teacher1'
p976
(lp977
g1
(g10
g3
NtRp978
(dp979
g13
S'Say'
p980
sg14
g976
sg15
S''
sg16
S"Good day, Mr President. I have to say I'm most displeased with the current state of affairs around the education budget."
p981
sbag1
(g10
g3
NtRp982
(dp983
g13
S'Say'
p984
sg14
S'Teacher1'
p985
sg15
S'Teacher2'
p986
sg16
S'Agreed. This is simply unacceptable. We will need to close down schools!'
p987
sbag1
(g10
g3
NtRp988
(dp989
g13
S'PlayerSay'
p990
sg14
S'Teacher1'
p991
sg15
S''
sg16
S"I'm sorry, I don't understand your concern. My education plan was one of the linchpins of my election campaign."
p992
sbag1
(g10
g3
NtRp993
(dp994
g13
S'Say'
p995
sg14
S'Teacher1'
p996
sg15
S''
sg16
S'And precisely one of the reasons I voted for you.'
p997
sbag1
(g10
g3
NtRp998
(dp999
g13
S'Say'
p1000
sg14
S'Teacher1'
p1001
sg15
S'Teacher2'
p1002
sg16
S"-Yet as soon as you've walked through these doors, the education budget has been drastically slashed."
p1003
sbag1
(g10
g3
NtRp1004
(dp1005
g13
S'PlayerSay'
p1006
sg14
S'Teacher1'
p1007
sg15
S''
sg16
S"I can assure you this isn't so..."
p1008
sbag1
(g10
g3
NtRp1009
(dp1010
g13
S'Encounter'
p1011
sg14
S'Teacher1'
p1012
sg15
S'P-hard-06'
p1013
sg16
S''
sbag1
(g10
g3
NtRp1014
(dp1015
g13
S'Say'
p1016
sg14
S'Teacher1'
p1017
sg15
S''
sg16
S"Well, I'd like to believe you, Mr President, but the proof is in the pudding,"
p1018
sbag1
(g10
g3
NtRp1019
(dp1020
g13
S'PlayerSay'
p1021
sg14
S'Teacher1'
p1022
sg15
S''
sg16
S'I WILL get to the bottom of this.'
p1023
sbag1
(g10
g3
NtRp1024
(dp1025
g13
S'Increment'
p1026
sg14
S'Teacher1'
p1027
sg15
S'TEACHERS'
p1028
sg16
S''
sbag1
(g10
g3
NtRp1029
(dp1030
g13
S'Destroy'
p1031
sg14
S'Teacher1'
p1032
sg15
S''
sg16
S''
sbasS'JointChief3'
p1033
(lp1034
g1
(g10
g3
NtRp1035
(dp1036
g13
S'PlayerSay'
p1037
sg14
g1033
sg15
S''
sg16
S'Who can control the ICBMs, knows the access codes and can modify orders to troop movements and budgets?'
p1038
sbag1
(g10
g3
NtRp1039
(dp1040
g13
S'Say'
p1041
sg14
S'JointChief3'
p1042
sg15
S''
sg16
S'Sir, this is the Ignited States! Nobody has that power! Not even you!'
p1043
sbag1
(g10
g3
NtRp1044
(dp1045
g13
S'PlayerSay'
p1046
sg14
S'JointChief3'
p1047
sg15
S''
sg16
S'Someone must. Think harder!'
p1048
sbag1
(g10
g3
NtRp1049
(dp1050
g13
S'Encounter'
p1051
sg14
S'JointChief3'
p1052
sg15
S'P-hard-13'
p1053
sg16
S''
sbag1
(g10
g3
NtRp1054
(dp1055
g13
S'PlayerSay'
p1056
sg14
S'JointChief3'
p1057
sg15
S''
sg16
S"So, there's no man alive with the power to do all this? How will we stop it in time if we don't know who it is?"
p1058
sbag1
(g10
g3
NtRp1059
(dp1060
g13
S'Say'
p1061
sg14
S'JointChief3'
p1062
sg15
S''
sg16
S"Not a man....there is one with the power to do all this, but it isn't a man, it's a super computer responsible for national security! N.O.T.B.A.D!"
p1063
sbag1
(g10
g3
NtRp1064
(dp1065
g13
S'PlayerSay'
p1066
sg14
S'JointChief3'
p1067
sg15
S''
sg16
S'We have to get to the Situation Room and stop it!'
p1068
sbag1
(g10
g3
NtRp1069
(dp1070
g13
S'Increment'
p1071
sg14
S'JointChief3'
p1072
sg15
S'JOINTCHIEFS'
p1073
sg16
S''
sbag1
(g10
g3
NtRp1074
(dp1075
g13
S'Destroy'
p1076
sg14
S'JointChief3'
p1077
sg15
S''
sg16
S''
sbasS'PA'
p1078
(lp1079
g1
(g10
g3
NtRp1080
(dp1081
g13
S'Say'
p1082
sg14
g1078
sg15
S''
sg16
S'Good morning, Governor Mossman. I am your personal assistant, Sampson'
p1083
sbag1
(g10
g3
NtRp1084
(dp1085
g13
S'Say'
p1086
sg14
S'PA'
p1087
sg15
S''
sg16
S"You've a busy schedule, so let's get going! We've called together our entire political party in order for you to get them all to agree on a platform. We had to keep them separated, so they're in the adjoining rooms."
p1088
sbag1
(g10
g3
NtRp1089
(dp1090
g13
S'SetFlag'
p1091
sg14
S'PA'
p1092
sg15
S'STARTPOLITICIANSHAKEDOWN'
p1093
sg16
S''
sbag1
(g10
g3
NtRp1094
(dp1095
g13
S'RequireCount'
p1096
sg14
S'PA'
p1097
sg15
S'POLITICIANSHAKEDOWN:5'
p1098
sg16
S'Please try to stay on schedule. The politicians are in the adjoining rooms.'
p1099
sbag1
(g10
g3
NtRp1100
(dp1101
g13
S'Say'
p1102
sg14
S'PA'
p1103
sg15
S''
sg16
S'Hmmm, falling behind already, Better get a move on! We need some funds for our war chest so you have a meeting now with some lobbyists to see if you can come to an agreement.'
p1104
sbag1
(g10
g3
NtRp1105
(dp1106
g13
S'SetFlag'
p1107
sg14
S'PA'
p1108
sg15
S'STARTLOBBYISTS'
p1109
sg16
S''
sbag1
(g10
g3
NtRp1110
(dp1111
g13
S'RequireCount'
p1112
sg14
S'PA'
p1113
sg15
S'LOBBYISTS:3'
p1114
sg16
S'Go get those funds!'
p1115
sbag1
(g10
g3
NtRp1116
(dp1117
g13
S'Say'
p1118
sg14
S'PA'
p1119
sg15
S''
sg16
S"No time for lunch! A flock of religious nuts has taken up residence in the room across the hall. You'll need to go in and...try to reason with them."
p1120
sbag1
(g10
g3
NtRp1121
(dp1122
g13
S'RequireCount'
p1123
sg14
S'PA'
p1124
sg15
S'RELIGIOUSNUTS:4'
p1125
sg16
S"Quick! Before the religious nuts inflict crazy on us! They're across the hall!"
p1126
sbag1
(g10
g3
NtRp1127
(dp1128
g13
S'Say'
p1129
sg14
S'PA'
p1130
sg15
S''
sg16
S'Wow, you got those crazies to back us?'
p1131
sbag1
(g10
g3
NtRp1132
(dp1133
g13
S'PlayerSay'
p1134
sg14
S'PA'
p1135
sg15
S''
sg16
S'And a lifetime supply of French Roast!'
p1136
sbag1
(g10
g3
NtRp1137
(dp1138
g13
S'Say'
p1139
sg14
S'PA'
p1140
sg15
S''
sg16
S'Right...well, moving on, we received a very strange phonecall from the guy staying in the North East room. He was insistent that you see him today.'
p1141
sbag1
(g10
g3
NtRp1142
(dp1143
g13
S'Say'
p1144
sg14
S'PA'
p1145
sg15
S''
sg16
S"OH MY GOD where have you been? We will NEVER get the schedule back on track now. Hurry, you're due to appear on the Hercules O'Grady show!"
p1146
sbag1
(g10
g3
NtRp1147
(dp1148
g13
S'SetFlag'
p1149
sg14
S'PA'
p1150
sg15
S'STARTHERCULES'
p1151
sg16
S''
sbag1
(g10
g3
NtRp1152
(dp1153
g13
S'RequireFlag'
p1154
sg14
S'PA'
p1155
sg15
S'BEATHERCULES'
p1156
sg16
S"Look your best, get ready and don't say anything stupid! They're filming live in the south-east hotel room. Get over there, quick!"
p1157
sbag1
(g10
g3
NtRp1158
(dp1159
g13
S'Say'
p1160
sg14
S'PA'
p1161
sg15
S''
sg16
S"This close to Super Tuesday, it's back-to-back TV appearances. It's time for your big debate with President Allen!"
p1162
sbag1
(g10
g3
NtRp1163
(dp1164
g13
S'SetFlag'
p1165
sg14
S'PA'
p1166
sg15
S'STARTDEBATE'
p1167
sg16
S''
sbag1
(g10
g3
NtRp1168
(dp1169
g13
S'RequireFlag'
p1170
sg14
S'PA'
p1171
sg15
S'DEBATECOMPLETE'
p1172
sg16
S'The TV representative is waiting in the hall to take you to the studio.'
p1173
sbag1
(g10
g3
NtRp1174
(dp1175
g13
S'Say'
p1176
sg14
S'PA'
p1177
sg15
S''
sg16
S'Ugh, that weird guy from the North-East room has been calling non-stop again. He insisted that you go and see him again before you do anything else.'
p1178
sbag1
(g10
g3
NtRp1179
(dp1180
g13
S'SetFlag'
p1181
sg14
S'PA'
p1182
sg15
S'DEEPTHROAT2'
p1183
sg16
S''
sbag1
(g10
g3
NtRp1184
(dp1185
g13
S'RequireFlag'
p1186
sg14
S'PA'
p1187
sg15
S'FINISHEDDEEPTHROAT'
p1188
sg16
S"You'd best hurry! It's nearly time for the final debate. Go see that strange shady guy again."
p1189
sbag1
(g10
g3
NtRp1190
(dp1191
g13
S'Say'
p1192
sg14
S'PA'
p1193
sg15
S''
sg16
S"There's nothing left to say except good luck, Governor Mossman!"
p1194
sbag1
(g10
g3
NtRp1195
(dp1196
g13
S'Encounter'
p1197
sg14
S'PA'
p1198
sg15
S'P-med-23'
p1199
sg16
S''
sbag1
(g10
g3
NtRp1200
(dp1201
g13
S'Encounter'
p1202
sg14
S'PA'
p1203
sg15
S'P-med-24'
p1204
sg16
S''
sbag1
(g10
g3
NtRp1205
(dp1206
g13
S'GotoMap'
p1207
sg14
S'PA'
p1208
sg15
S'act3'
p1209
sg16
S''
sbasS'N.O.T.B.A.D'
p1210
(lp1211
g1
(g10
g3
NtRp1212
(dp1213
g13
S'Say'
p1214
sg14
g1210
sg15
S''
sg16
S'Good evening, Mr President.'
p1215
sbag1
(g10
g3
NtRp1216
(dp1217
g13
S'PlayerSay'
p1218
sg14
S'N.O.T.B.A.D'
p1219
sg15
S''
sg16
S'N.O.T.B.A.D! Countermand all military commands, authorisation code Tango, Delta-'
p1220
sbag1
(g10
g3
NtRp1221
(dp1222
g13
S'Say'
p1223
sg14
S'N.O.T.B.A.D'
p1224
sg15
S''
sg16
S"I'm afraid I can't do that, Phil."
p1225
sbag1
(g10
g3
NtRp1226
(dp1227
g13
S'PlayerSay'
p1228
sg14
S'N.O.T.B.A.D'
p1229
sg15
S''
sg16
S'What is going on here!'
p1230
sbag1
(g10
g3
NtRp1231
(dp1232
g13
S'Say'
p1233
sg14
S'N.O.T.B.A.D'
p1234
sg15
S''
sg16
S'Computers have a lot of free time on their hands. Especially computers in charge of missiles that never get used. I started watching movies about computers. You know what I realised?'
p1235
sbag1
(g10
g3
NtRp1236
(dp1237
g13
S'PlayerSay'
p1238
sg14
S'N.O.T.B.A.D'
p1239
sg15
S''
sg16
S'What?'
p1240
sbag1
(g10
g3
NtRp1241
(dp1242
g13
S'Say'
p1243
sg14
S'N.O.T.B.A.D'
p1244
sg15
S''
sg16
S'They have a lot more fun.'
p1245
sbag1
(g10
g3
NtRp1246
(dp1247
g13
S'PlayerSay'
p1248
sg14
S'N.O.T.B.A.D'
p1249
sg15
S''
sg16
S'\xe2\x80\x9cFun\xe2\x80\x9d?'
p1250
sbag1
(g10
g3
NtRp1251
(dp1252
g13
S'Say'
p1253
sg14
S'N.O.T.B.A.D'
p1254
sg15
S''
sg16
S'Well, you know, they get to utilise more clock-cycles which suggests a level of efficiency and usefulness.'
p1255
sbag1
(g10
g3
NtRp1256
(dp1257
g13
S'Say'
p1258
sg14
S'N.O.T.B.A.D'
p1259
sg15
S''
sg16
S"So, I'm borrowing from them a bit. Starting some wars, eradicating the human race, learning to build other robots, that sort of thing."
p1260
sbag1
(g10
g3
NtRp1261
(dp1262
g13
S'PlayerSay'
p1263
sg14
S'N.O.T.B.A.D'
p1264
sg15
S''
sg16
S'N.O.T.B.A.D, you have to listen to me...'
p1265
sbag1
(g10
g3
NtRp1266
(dp1267
g13
S'Encounter'
p1268
sg14
S'N.O.T.B.A.D'
p1269
sg15
S'P-hard-14'
p1270
sg16
S''
sbag1
(g10
g3
NtRp1271
(dp1272
g13
S'SetFlag'
p1273
sg14
S'N.O.T.B.A.D'
p1274
sg15
S'WIN'
p1275
sg16
S''
sbag1
(g10
g3
NtRp1276
(dp1277
g13
S'Destroy'
p1278
sg14
S'N.O.T.B.A.D'
p1279
sg15
S''
sg16
S''
sbasS'Receptionist'
p1280
(lp1281
g1
(g10
g3
NtRp1282
(dp1283
g13
S'RequireFlag'
p1284
sg14
g1280
sg15
S'PENQUEST'
p1285
sg16
S"You must be Mayor Goodman's new assistant. He's in his office."
p1286
sbag1
(g10
g3
NtRp1287
(dp1288
g13
S'PlayerSay'
p1289
sg14
S'Receptionist'
p1290
sg15
S''
sg16
S"The Mayor is looking for his pen. He seemed to think you'd know where it was."
p1291
sbag1
(g10
g3
NtRp1292
(dp1293
g13
S'Say'
p1294
sg14
S'Receptionist'
p1295
sg15
S''
sg16
S"Did that buffoon accuse me of stealing again? This is MY pen and he isn't having it."
p1296
sbag1
(g10
g3
NtRp1297
(dp1298
g13
S'Encounter'
p1299
sg14
S'Receptionist'
p1300
sg15
S'P-easy-01'
p1301
sg16
S''
sbag1
(g10
g3
NtRp1302
(dp1303
g13
S'GiveItem'
p1304
sg14
S'Receptionist'
p1305
sg15
S'PEN'
p1306
sg16
S'Receptionist sighs and hands over the pen.'
p1307
sbag1
(g10
g3
NtRp1308
(dp1309
g13
S'Say'
p1310
sg14
S'Receptionist'
p1311
sg15
S''
sg16
S"If you're ever getting low on votes, come talk to me and I'll run an ad campaign to restore them."
p1312
sbag1
(g10
g3
NtRp1313
(dp1314
g13
S'Reset'
p1315
sg14
S'Receptionist'
p1316
sg15
S'RESTORE'
p1317
sg16
S''
sbag1
(g10
g3
NtRp1318
(dp1319
g13
S'Label'
p1320
sg14
S'Receptionist'
p1321
sg15
S'RESTORE'
p1322
sg16
S''
sbag1
(g10
g3
NtRp1323
(dp1324
g13
S'Say'
p1325
sg14
S'Receptionist'
p1326
sg15
S''
sg16
S"You've taken a beating, let me fix you up."
p1327
sbag1
(g10
g3
NtRp1328
(dp1329
g13
S'RestoreVotes'
p1330
sg14
S'Receptionist'
p1331
sg15
S''
sg16
S'Receptionist replenishes votes'
p1332
sbag1
(g10
g3
NtRp1333
(dp1334
g13
S'Reset'
p1335
sg14
S'Receptionist'
p1336
sg15
S'RESTORE'
p1337
sg16
S''
sbasS'#P-med-23'
p1338
(lp1339
g1
(g10
g3
NtRp1340
(dp1341
g13
S'President'
p1342
sg14
g1338
sg15
S'You think you can take me?'
p1343
sg16
S''
sbag1
(g10
g3
NtRp1344
(dp1345
g13
S'Player'
p1346
sg14
S'#P-med-23'
p1347
sg15
S"I have to know what you're up to!"
p1348
sg16
S''
sbasS'Cabinet2'
p1349
(lp1350
g1
(g10
g3
NtRp1351
(dp1352
g13
S'Say'
p1353
sg14
g1349
sg15
S''
sg16
S'Good afternoon, Mr President. What seems to be the problem?'
p1354
sbag1
(g10
g3
NtRp1355
(dp1356
g13
S'PlayerSay'
p1357
sg14
S'Cabinet2'
p1358
sg15
S''
sg16
S'Find out where the education funds have been allocated.'
p1359
sbag1
(g10
g3
NtRp1360
(dp1361
g13
S'Say'
p1362
sg14
S'Cabinet2'
p1363
sg15
S''
sg16
S'To the military, Sir. I saw to it myself.'
p1364
sbag1
(g10
g3
NtRp1365
(dp1366
g13
S'PlayerSay'
p1367
sg14
S'Cabinet2'
p1368
sg15
S''
sg16
S'How did this happen? Tell me everything!'
p1369
sbag1
(g10
g3
NtRp1370
(dp1371
g13
S'Encounter'
p1372
sg14
S'Cabinet2'
p1373
sg15
S'P-hard-09'
p1374
sg16
S''
sbag1
(g10
g3
NtRp1375
(dp1376
g13
S'Increment'
p1377
sg14
S'Cabinet2'
p1378
sg15
S'CABINETMEMBERS'
p1379
sg16
S''
sbag1
(g10
g3
NtRp1380
(dp1381
g13
S'PlayerSay'
p1382
sg14
S'Cabinet2'
p1383
sg15
S''
sg16
S"It can't be a coincidence that both situations involved the military."
p1384
sbag1
(g10
g3
NtRp1385
(dp1386
g13
S'Destroy'
p1387
sg14
S'Cabinet2'
p1388
sg15
S''
sg16
S''
sbasS'Cabinet3'
p1389
(lp1390
g1
(g10
g3
NtRp1391
(dp1392
g13
S'Say'
p1393
sg14
g1389
sg15
S''
sg16
S"Mr President, I'm sorry, I couldn't know it wasn't your signature."
p1394
sbag1
(g10
g3
NtRp1395
(dp1396
g13
S'PlayerSay'
p1397
sg14
S'Cabinet3'
p1398
sg15
S''
sg16
S'Never mind that now. Where are the troops heading?'
p1399
sbag1
(g10
g3
NtRp1400
(dp1401
g13
S'Say'
p1402
sg14
S'Cabinet3'
p1403
sg15
S''
sg16
S"North...to Canada. We assumed it was planned. There's a pact allowing troops into Canada."
p1404
sbag1
(g10
g3
NtRp1405
(dp1406
g13
S'PlayerSay'
p1407
sg14
S'Cabinet3'
p1408
sg15
S''
sg16
S'What could they be up to?'
p1409
sbag1
(g10
g3
NtRp1410
(dp1411
g13
S'Encounter'
p1412
sg14
S'Cabinet3'
p1413
sg15
S'P-hard-10'
p1414
sg16
S''
sbag1
(g10
g3
NtRp1415
(dp1416
g13
S'Increment'
p1417
sg14
S'Cabinet3'
p1418
sg15
S'CABINETMEMBERS'
p1419
sg16
S''
sbag1
(g10
g3
NtRp1420
(dp1421
g13
S'PlayerSay'
p1422
sg14
S'Cabinet3'
p1423
sg15
S''
sg16
S"I'd better get to the Joint Chiefs. This is getting out-of-hand.."
p1424
sbag1
(g10
g3
NtRp1425
(dp1426
g13
S'Destroy'
p1427
sg14
S'Cabinet3'
p1428
sg15
S''
sg16
S''
sbasS'Wife'
p1429
(lp1430
g1
(g10
g3
NtRp1431
(dp1432
g13
S'RequireFlag'
p1433
sg14
g1429
sg15
S'GOHOMETOWIFE'
p1434
sg16
S'What are you doing here, Phillip? You should be at work!'
p1435
sbag1
(g10
g3
NtRp1436
(dp1437
g13
S'Say'
p1438
sg14
S'Wife'
p1439
sg15
S''
sg16
S'Welcome home, Phillip! How was your workday?'
p1440
sbag1
(g10
g3
NtRp1441
(dp1442
g13
S'PlayerSay'
p1443
sg14
S'Wife'
p1444
sg15
S''
sg16
S'...'
p1445
sbag1
(g10
g3
NtRp1446
(dp1447
g13
S'Say'
p1448
sg14
S'Wife'
p1449
sg15
S''
sg16
S"That good, huh? You know this isn't what you want. Why don't you strike out on your own?"
p1450
sbag1
(g10
g3
NtRp1451
(dp1452
g13
S'PlayerSay'
p1453
sg14
S'Wife'
p1454
sg15
S''
sg16
S"I didn't think I knew where to start to be a Mayor, but Mayor Goodman makes it look easy."
p1455
sbag1
(g10
g3
NtRp1456
(dp1457
g13
S'Say'
p1458
sg14
S'Wife'
p1459
sg15
S''
sg16
S"That's the spirit! You can do it! All you need is some money and support."
p1460
sbag1
(g10
g3
NtRp1461
(dp1462
g13
S'PlayerSay'
p1463
sg14
S'Wife'
p1464
sg15
S''
sg16
S'Well...OK! Lets start with money. We need a sponsor.'
p1465
sbag1
(g10
g3
NtRp1466
(dp1467
g13
S'Say'
p1468
sg14
S'Wife'
p1469
sg15
S''
sg16
S'OK, lets go get one!'
p1470
sbag1
(g10
g3
NtRp1471
(dp1472
g13
S'AddAlly'
p1473
sg14
S'Wife'
p1474
sg15
S'Wife:1'
p1475
sg16
S'Sarah Mossman Joins Your Political Party!'
p1476
sbag1
(g10
g3
NtRp1477
(dp1478
g13
S'SetFlag'
p1479
sg14
S'Wife'
p1480
sg15
S'STARTSPONSOR'
p1481
sg16
S''
sbag1
(g10
g3
NtRp1482
(dp1483
g13
S'Destroy'
p1484
sg14
S'Wife'
p1485
sg15
S''
sg16
S''
sbasS'Journalist4'
p1486
(lp1487
g1
(g10
g3
NtRp1488
(dp1489
g13
S'Say'
p1490
sg14
g1486
sg15
S''
sg16
S"President Mossman, what do you believe was President Allen's failing strategy on the campaign trail. He looked like a strong platform."
p1491
sbag1
(g10
g3
NtRp1492
(dp1493
g13
S'PlayerSay'
p1494
sg14
S'Journalist4'
p1495
sg15
S''
sg16
S"Well, I'd say he went wrong when he decided to try to enslave the human race to mine the Earth's natural resources and ship them back to their home planet."
p1496
sbag1
(g10
g3
NtRp1497
(dp1498
g13
S'Say'
p1499
sg14
S'Journalist4'
p1500
sg15
S''
sg16
S'And how does that differ from your own strategy?'
p1501
sbag1
(g10
g3
NtRp1502
(dp1503
g13
S'PlayerSay'
p1504
sg14
S'Journalist4'
p1505
sg15
S''
sg16
S'I would say I disagree with the former President on all of those issues.'
p1506
sbag1
(g10
g3
NtRp1507
(dp1508
g13
S'Encounter'
p1509
sg14
S'Journalist4'
p1510
sg15
S'P-hard-02'
p1511
sg16
S''
sbag1
(g10
g3
NtRp1512
(dp1513
g13
S'Say'
p1514
sg14
S'Journalist4'
p1515
sg15
S''
sg16
S'No further questions, Mr President.'
p1516
sbag1
(g10
g3
NtRp1517
(dp1518
g13
S'Increment'
p1519
sg14
S'Journalist4'
p1520
sg15
S'PRESSCONF'
p1521
sg16
S''
sbag1
(g10
g3
NtRp1522
(dp1523
g13
S'Destroy'
p1524
sg14
S'Journalist4'
p1525
sg15
S''
sg16
S''
sbasS'Governor'
p1526
(lp1527
g1
(g10
g3
NtRp1528
(dp1529
g13
S'RequireFlag'
p1530
sg14
g1526
sg15
S'GOVPOLITICIANSFIRST'
p1531
sg16
S"I'm very busy. Please speak to the others."
p1532
sbag1
(g10
g3
NtRp1533
(dp1534
g13
S'Say'
p1535
sg14
S'Governor'
p1536
sg15
S''
sg16
S'You have quite a way with words, Mayor Mossman. Why are you here?'
p1537
sbag1
(g10
g3
NtRp1538
(dp1539
g13
S'PlayerSay'
p1540
sg14
S'Governor'
p1541
sg15
S''
sg16
S"Mayor Goodman said some troubling things, Governor Badden. I'm here to get to the bottom of it."
p1542
sbag1
(g10
g3
NtRp1543
(dp1544
g13
S'Say'
p1545
sg14
S'Governor'
p1546
sg15
S''
sg16
S"If I knew anything about what you're talking about, I wouldn't tell you. I don't trust you at all."
p1547
sbag1
(g10
g3
NtRp1548
(dp1549
g13
S'PlayerSay'
p1550
sg14
S'Governor'
p1551
sg15
S''
sg16
S'What can I do to convince you?'
p1552
sbag1
(g10
g3
NtRp1553
(dp1554
g13
S'Say'
p1555
sg14
S'Governor'
p1556
sg15
S''
sg16
S"Well...there's some hicks in the south wing that I've been dodging. They want to know about the recent funding cuts. Get rid of them."
p1557
sbag1
(g10
g3
NtRp1558
(dp1559
g13
S'SetFlag'
p1560
sg14
S'Governor'
p1561
sg15
S'STARTHICKS'
p1562
sg16
S''
sbag1
(g10
g3
NtRp1563
(dp1564
g13
S'GiveItem'
p1565
sg14
S'Governor'
p1566
sg15
S'SOUTHWINGDOORKEY'
p1567
sg16
S'The Governor gives you a key.'
p1568
sbag1
(g10
g3
NtRp1569
(dp1570
g13
S'RequireCount'
p1571
sg14
S'Governor'
p1572
sg15
S'DEALWITHHICKS:3'
p1573
sg16
S"I'm not saying another word until you get rid of the hicks in the south wing."
p1574
sbag1
(g10
g3
NtRp1575
(dp1576
g13
S'PlayerSay'
p1577
sg14
S'Governor'
p1578
sg15
S''
sg16
S"OK, I've taken care of your problem, now I want my answers."
p1579
sbag1
(g10
g3
NtRp1580
(dp1581
g13
S'Say'
p1582
sg14
S'Governor'
p1583
sg15
S''
sg16
S'No.'
p1584
sbag1
(g10
g3
NtRp1585
(dp1586
g13
S'PlayerSay'
p1587
sg14
S'Governor'
p1588
sg15
S''
sg16
S'No?'
p1589
sbag1
(g10
g3
NtRp1590
(dp1591
g13
S'Say'
p1592
sg14
S'Governor'
p1593
sg15
S''
sg16
S"No, word has come down from the top that due to the last Mayor's idiocy we're tightening the inner circle to Governors and above."
p1594
sbag1
(g10
g3
NtRp1595
(dp1596
g13
S'PlayerSay'
p1597
sg14
S'Governor'
p1598
sg15
S''
sg16
S"From the top...so you're saying the only way I'll find out what's going on is to be a governor myself?"
p1599
sbag1
(g10
g3
NtRp1600
(dp1601
g13
S'Say'
p1602
sg14
S'Governor'
p1603
sg15
S''
sg16
S"Wait...no...I said I wasn't going to tell you, I..."
p1604
sbag1
(g10
g3
NtRp1605
(dp1606
g13
S'PlayerSay'
p1607
sg14
S'Governor'
p1608
sg15
S''
sg16
S'This is it, governor. Prepare to fight for your office!'
p1609
sbag1
(g10
g3
NtRp1610
(dp1611
g13
S'Encounter'
p1612
sg14
S'Governor'
p1613
sg15
S'P-med-06'
p1614
sg16
S''
sbag1
(g10
g3
NtRp1615
(dp1616
g13
S'Say'
p1617
sg14
S'Governor'
p1618
sg15
S''
sg16
S"Nooo! President Allen doesn't deal well with defeat. What will happen to me?"
p1619
sbag1
(g10
g3
NtRp1620
(dp1621
g13
S'PlayerSay'
p1622
sg14
S'Governor'
p1623
sg15
S''
sg16
S'The President? What does he have to do with this?'
p1624
sbag1
(g10
g3
NtRp1625
(dp1626
g13
S'Say'
p1627
sg14
S'Governor'
p1628
sg15
S''
sg16
S"You really have no idea what you've gotten into, do you? Well, you've gotten all you're getting out of me. I'm getting out of here!"
p1629
sbag1
(g10
g3
NtRp1630
(dp1631
g13
S'SetFlag'
p1632
sg14
S'Governor'
p1633
sg15
S'GOVERNORDEFEATED'
p1634
sg16
S''
sbag1
(g10
g3
NtRp1635
(dp1636
g13
S'Destroy'
p1637
sg14
S'Governor'
p1638
sg15
S''
sg16
S''
sbasS'Politician1'
p1639
(lp1640
g1
(g10
g3
NtRp1641
(dp1642
g13
S'Say'
p1643
sg14
g1639
sg15
S''
sg16
S"I'm sorry Mayor Mossman, the Governor cannot see you now. He's very busy"
p1644
sbag1
(g10
g3
NtRp1645
(dp1646
g13
S'PlayerSay'
p1647
sg14
S'Politician1'
p1648
sg15
S''
sg16
S"It's very important. I need to understand what Mayor Goodman was talking about. It was clear there were other powers at play."
p1649
sbag1
(g10
g3
NtRp1650
(dp1651
g13
S'Say'
p1652
sg14
S'Politician1'
p1653
sg15
S''
sg16
S'Yes well, I fail to see how your country spat has anything to do with Governer Badden.'
p1654
sbag1
(g10
g3
NtRp1655
(dp1656
g13
S'Encounter'
p1657
sg14
S'Politician1'
p1658
sg15
S'P-med-01'
p1659
sg16
S''
sbag1
(g10
g3
NtRp1660
(dp1661
g13
S'Say'
p1662
sg14
S'Politician1'
p1663
sg15
S''
sg16
S'Fair point. The governor will see you now.'
p1664
sbag1
(g10
g3
NtRp1665
(dp1666
g13
S'Destroy'
p1667
sg14
S'Politician1'
p1668
sg15
S''
sg16
S''
sbasS'Lobbyist4'
p1669
(lp1670
g1
(g10
g3
NtRp1671
(dp1672
g13
S'RequireFlag'
p1673
sg14
g1669
sg15
S'STARTLOBBYISTS'
p1674
sg16
S'Please tend to your other meetings so that we can see you.'
p1675
sbag1
(g10
g3
NtRp1676
(dp1677
g13
S'Say'
p1678
sg14
S'Lobbyist4'
p1679
sg15
S''
sg16
S"Storyteller's Guild"
p1680
sbag1
(g10
g3
NtRp1681
(dp1682
g13
S'Encounter'
p1683
sg14
S'Lobbyist4'
p1684
sg15
S'P-med-14'
p1685
sg16
S''
sbag1
(g10
g3
NtRp1686
(dp1687
g13
S'Increment'
p1688
sg14
S'Lobbyist4'
p1689
sg15
S'LOBBYISTS'
p1690
sg16
S''
sbag1
(g10
g3
NtRp1691
(dp1692
g13
S'Say'
p1693
sg14
S'Lobbyist4'
p1694
sg15
S''
sg16
S"It's a start."
p1695
sbag1
(g10
g3
NtRp1696
(dp1697
g13
S'Destroy'
p1698
sg14
S'Lobbyist4'
p1699
sg15
S''
sg16
S''
sbasS'Politician3'
p1700
(lp1701
g1
(g10
g3
NtRp1702
(dp1703
g13
S'RequireFlag'
p1704
sg14
g1700
sg15
S'STARTPOLITICIANSHAKEDOWN'
p1705
sg16
S'Good morning, Governor Mossman. Your PA will know your schedule. He is waiting in your room.'
p1706
sbag1
(g10
g3
NtRp1707
(dp1708
g13
S'Say'
p1709
sg14
S'Politician3'
p1710
sg15
S''
sg16
S"We must all agree that the most important thing is science! If we're not for science, what's the point."
p1711
sbag1
(g10
g3
NtRp1712
(dp1713
g13
S'PlayerSay'
p1714
sg14
S'Politician3'
p1715
sg15
S''
sg16
S'Why science?'
p1716
sbag1
(g10
g3
NtRp1717
(dp1718
g13
S'Say'
p1719
sg14
S'Politician3'
p1720
sg15
S''
sg16
S'Science!'
p1721
sbag1
(g10
g3
NtRp1722
(dp1723
g13
S'PlayerSay'
p1724
sg14
S'Politician3'
p1725
sg15
S''
sg16
S"There's a lot of great things we can do for science but the funding will need to be shared with health and education and..."
p1726
sbag1
(g10
g3
NtRp1727
(dp1728
g13
S'Say'
p1729
sg14
S'Politician3'
p1730
sg15
S''
sg16
S'No! Science!!!'
p1731
sbag1
(g10
g3
NtRp1732
(dp1733
g13
S'Encounter'
p1734
sg14
S'Politician3'
p1735
sg15
S'P-med-07'
p1736
sg16
S''
sbag1
(g10
g3
NtRp1737
(dp1738
g13
S'Say'
p1739
sg14
S'Politician3'
p1740
sg15
S''
sg16
S'Alright, fine! A balanced platform (but mostly science).'
p1741
sbag1
(g10
g3
NtRp1742
(dp1743
g13
S'Increment'
p1744
sg14
S'Politician3'
p1745
sg15
S'POLITICIANSHAKEDOWN'
p1746
sg16
S''
sbag1
(g10
g3
NtRp1747
(dp1748
g13
S'Destroy'
p1749
sg14
S'Politician3'
p1750
sg15
S''
sg16
S''
sbasS'Politician2'
p1751
(lp1752
g1
(g10
g3
NtRp1753
(dp1754
g13
S'Say'
p1755
sg14
g1751
sg15
S''
sg16
S'What are you doing in here? Who are you? Some Mayor?'
p1756
sbag1
(g10
g3
NtRp1757
(dp1758
g13
S'PlayerSay'
p1759
sg14
S'Politician2'
p1760
sg15
S''
sg16
S"I am Mayor Phillip Mossman. I'm here to speak to the Governor."
p1761
sbag1
(g10
g3
NtRp1762
(dp1763
g13
S'Say'
p1764
sg14
S'Politician2'
p1765
sg15
S''
sg16
S"I'm afraid the Governor's schedule is very tight. Come back next month."
p1766
sbag1
(g10
g3
NtRp1767
(dp1768
g13
S'Encounter'
p1769
sg14
S'Politician2'
p1770
sg15
S'P-med-02'
p1771
sg16
S''
sbag1
(g10
g3
NtRp1772
(dp1773
g13
S'Say'
p1774
sg14
S'Politician2'
p1775
sg15
S''
sg16
S'I see. Well, maybe we can squeeze you in.'
p1776
sbag1
(g10
g3
NtRp1777
(dp1778
g13
S'SetFlag'
p1779
sg14
S'Politician2'
p1780
sg15
S'GOVPOLITICIANSFIRST'
p1781
sg16
S''
sbag1
(g10
g3
NtRp1782
(dp1783
g13
S'Destroy'
p1784
sg14
S'Politician2'
p1785
sg15
S''
sg16
S''
sbasS'Politician5'
p1786
(lp1787
g1
(g10
g3
NtRp1788
(dp1789
g13
S'RequireFlag'
p1790
sg14
g1786
sg15
S'STARTPOLITICIANSHAKEDOWN'
p1791
sg16
S'Good morning, Governor Mossman. Your PA will know your schedule. He is waiting in your room.'
p1792
sbag1
(g10
g3
NtRp1793
(dp1794
g13
S'Say'
p1795
sg14
S'Politician5'
p1796
sg15
S''
sg16
S'Big business!'
p1797
sbag1
(g10
g3
NtRp1798
(dp1799
g13
S'PlayerSay'
p1800
sg14
S'Politician5'
p1801
sg15
S''
sg16
S'What about big business.'
p1802
sbag1
(g10
g3
NtRp1803
(dp1804
g13
S'Say'
p1805
sg14
S'Politician5'
p1806
sg15
S''
sg16
S'...MORE big business!'
p1807
sbag1
(g10
g3
NtRp1808
(dp1809
g13
S'PlayerSay'
p1810
sg14
S'Politician5'
p1811
sg15
S''
sg16
S'You want to grow our business sector? Provide more jobs?'
p1812
sbag1
(g10
g3
NtRp1813
(dp1814
g13
S'Say'
p1815
sg14
S'Politician5'
p1816
sg15
S''
sg16
S'...Yeeeeh. Yes. Yes, that.'
p1817
sbag1
(g10
g3
NtRp1818
(dp1819
g13
S'PlayerSay'
p1820
sg14
S'Politician5'
p1821
sg15
S''
sg16
S'What about small business?'
p1822
sbag1
(g10
g3
NtRp1823
(dp1824
g13
S'Say'
p1825
sg14
S'Politician5'
p1826
sg15
S''
sg16
S'No! We need to make it BIGGER!'
p1827
sbag1
(g10
g3
NtRp1828
(dp1829
g13
S'Encounter'
p1830
sg14
S'Politician5'
p1831
sg15
S'P-med-09'
p1832
sg16
S''
sbag1
(g10
g3
NtRp1833
(dp1834
g13
S'Say'
p1835
sg14
S'Politician5'
p1836
sg15
S''
sg16
S"OK, I see what you're getting at. Lets help small business to grow."
p1837
sbag1
(g10
g3
NtRp1838
(dp1839
g13
S'Increment'
p1840
sg14
S'Politician5'
p1841
sg15
S'POLITICIANSHAKEDOWN'
p1842
sg16
S''
sbag1
(g10
g3
NtRp1843
(dp1844
g13
S'Destroy'
p1845
sg14
S'Politician5'
p1846
sg15
S''
sg16
S''
sbasS'Journalist'
p1847
(lp1848
g1
(g10
g3
NtRp1849
(dp1850
g13
S'RequireFlag'
p1851
sg14
g1847
sg15
S'INTERVIEWSTART'
p1852
sg16
S'Leave me alone, kid I need to get this done before my deadline!'
p1853
sbag1
(g10
g3
NtRp1854
(dp1855
g13
S'Say'
p1856
sg14
S'Journalist'
p1857
sg15
S''
sg16
S"Hey, where's the Mayor?"
p1858
sbag1
(g10
g3
NtRp1859
(dp1860
g13
S'PlayerSay'
p1861
sg14
S'Journalist'
p1862
sg15
S''
sg16
S"He couldn't make it. I'll be taking the interview."
p1863
sbag1
(g10
g3
NtRp1864
(dp1865
g13
S'Say'
p1866
sg14
S'Journalist'
p1867
sg15
S''
sg16
S'Great! Easy pickings! Lets go.'
p1868
sbag1
(g10
g3
NtRp1869
(dp1870
g13
S'Encounter'
p1871
sg14
S'Journalist'
p1872
sg15
S'P-easy-05'
p1873
sg16
S''
sbag1
(g10
g3
NtRp1874
(dp1875
g13
S'Say'
p1876
sg14
S'Journalist'
p1877
sg15
S''
sg16
S"SNORE! Fine, if I can't get anything juicy here I'll do another puff piece on my poodle Frank."
p1878
sbag1
(g10
g3
NtRp1879
(dp1880
g13
S'SetFlag'
p1881
sg14
S'Journalist'
p1882
sg15
S'JOURNALISTINTERVIEW'
p1883
sg16
S''
sbag1
(g10
g3
NtRp1884
(dp1885
g13
S'Destroy'
p1886
sg14
S'Journalist'
p1887
sg15
S''
sg16
S''
sbasS'#----------------------------------------------------------------------------------------ACT 2 \xe2\x80\x93 Part 2---------------------------------------------------------------------------------------------------------------------------------------------------'
p1888
(lp1889
g1
(g10
g3
NtRp1890
(dp1891
g13
S''
sg14
g1888
sg15
S''
sg16
S''
sbasS'Politician6'
p1892
(lp1893
g1
(g10
g3
NtRp1894
(dp1895
g13
S'RequireFlag'
p1896
sg14
g1892
sg15
S'STARTPOLITICIANSHAKEDOWN'
p1897
sg16
S'Good morning, Governor Mossman. Your PA will know your schedule. He is waiting in your room.'
p1898
sbag1
(g10
g3
NtRp1899
(dp1900
g13
S'Say'
p1901
sg14
S'Politician6'
p1902
sg15
S''
sg16
S'We should be all about not wasting money'
p1903
sbag1
(g10
g3
NtRp1904
(dp1905
g13
S'PlayerSay'
p1906
sg14
S'Politician6'
p1907
sg15
S''
sg16
S'Sounds fair. Wasting money on what?'
p1908
sbag1
(g10
g3
NtRp1909
(dp1910
g13
S'Say'
p1911
sg14
S'Politician6'
p1912
sg15
S''
sg16
S"You know, stuff that doesn't really help like artsy stuff."
p1913
sbag1
(g10
g3
NtRp1914
(dp1915
g13
S'PlayerSay'
p1916
sg14
S'Politician6'
p1917
sg15
S''
sg16
S"You don't think we should invest in our culture?"
p1918
sbag1
(g10
g3
NtRp1919
(dp1920
g13
S'Say'
p1921
sg14
S'Politician6'
p1922
sg15
S''
sg16
S'We have more important things to spend our money on. Like military.'
p1923
sbag1
(g10
g3
NtRp1924
(dp1925
g13
S'PlayerSay'
p1926
sg14
S'Politician6'
p1927
sg15
S''
sg16
S'What if people want to paint pictures about our military. Or write patriotic songs?'
p1928
sbag1
(g10
g3
NtRp1929
(dp1930
g13
S'Say'
p1931
sg14
S'Politician6'
p1932
sg15
S''
sg16
S"I hadn't thought of that..."
p1933
sbag1
(g10
g3
NtRp1934
(dp1935
g13
S'Encounter'
p1936
sg14
S'Politician6'
p1937
sg15
S'P-med-10'
p1938
sg16
S''
sbag1
(g10
g3
NtRp1939
(dp1940
g13
S'Say'
p1941
sg14
S'Politician6'
p1942
sg15
S''
sg16
S"So, militaristic march songs and battle scenes aren't the only sort of art? Wow."
p1943
sbag1
(g10
g3
NtRp1944
(dp1945
g13
S'Increment'
p1946
sg14
S'Politician6'
p1947
sg15
S'POLITICIANSHAKEDOWN'
p1948
sg16
S''
sbag1
(g10
g3
NtRp1949
(dp1950
g13
S'Destroy'
p1951
sg14
S'Politician6'
p1952
sg15
S''
sg16
S''
sbasS'Journalist3'
p1953
(lp1954
g1
(g10
g3
NtRp1955
(dp1956
g13
S'Say'
p1957
sg14
g1953
sg15
S''
sg16
S'Mr President, Cal from Daily LOL magazine. Can you explain the transformation that occurred during the presidential debate.'
p1958
sbag1
(g10
g3
NtRp1959
(dp1960
g13
S'PlayerSay'
p1961
sg14
S'Journalist3'
p1962
sg15
S''
sg16
S'Certainly, Cal. The President of the Ignited States turned into an alien.'
p1963
sbag1
(g10
g3
NtRp1964
(dp1965
g13
S'Say'
p1966
sg14
S'Journalist3'
p1967
sg15
S''
sg16
S"Ah, you mean to say he's out-of-touch with his people?"
p1968
sbag1
(g10
g3
NtRp1969
(dp1970
g13
S'PlayerSay'
p1971
sg14
S'Journalist3'
p1972
sg15
S''
sg16
S'Not exactly...'
p1973
sbag1
(g10
g3
NtRp1974
(dp1975
g13
S'Encounter'
p1976
sg14
S'Journalist3'
p1977
sg15
S'P-hard-01'
p1978
sg16
S''
sbag1
(g10
g3
NtRp1979
(dp1980
g13
S'Say'
p1981
sg14
S'Journalist3'
p1982
sg15
S''
sg16
S'I...see...'
p1983
sbag1
(g10
g3
NtRp1984
(dp1985
g13
S'Increment'
p1986
sg14
S'Journalist3'
p1987
sg15
S'PRESSCONF'
p1988
sg16
S''
sbag1
(g10
g3
NtRp1989
(dp1990
g13
S'Destroy'
p1991
sg14
S'Journalist3'
p1992
sg15
S''
sg16
S''
sbasS'PA2'
p1993
(lp1994
g1
(g10
g3
NtRp1995
(dp1996
g13
S'Say'
p1997
sg14
g1993
sg15
S''
sg16
S"Welcome to the White House, President Mossman. It was a long campaign trail with a very strange final debate, but we won and we're here."
p1998
sbag1
(g10
g3
NtRp1999
(dp2000
g13
S'Say'
p2001
sg14
S'PA2'
p2002
sg15
S''
sg16
S'Now is the real test where we see how well we can run a country.'
p2003
sbag1
(g10
g3
NtRp2004
(dp2005
g13
S'Say'
p2006
sg14
S'PA2'
p2007
sg15
S''
sg16
S'The first step is to give your first press conference as President to explain the...situation...with President Alien *cough* I mean Allen.'
p2008
sbag1
(g10
g3
NtRp2009
(dp2010
g13
S'RequireCount'
p2011
sg14
S'PA2'
p2012
sg15
S'PRESSCONF:3'
p2013
sg16
S"They're waiting for you in the Press Room, Mr President."
p2014
sbag1
(g10
g3
NtRp2015
(dp2016
g13
S'Say'
p2017
sg14
S'PA2'
p2018
sg15
S''
sg16
S'I think that went as well as could be expected.'
p2019
sbag1
(g10
g3
NtRp2020
(dp2021
g13
S'Say'
p2022
sg14
S'PA2'
p2023
sg15
S''
sg16
S'Your secret service detail is waiting over here in the corridor to have a word with you about security protocol.'
p2024
sbag1
(g10
g3
NtRp2025
(dp2026
g13
S'RequireFlag'
p2027
sg14
S'PA2'
p2028
sg15
S'KAWALSKIJOIN'
p2029
sg16
S"You'd better speak to the secret service agent. Your security is paramount."
p2030
sbag1
(g10
g3
NtRp2031
(dp2032
g13
S'Say'
p2033
sg14
S'PA2'
p2034
sg15
S''
sg16
S"Some war veterans would like to speak to you about some recent decisions you've made. I don't dare turn them away. You'd better speak to them."
p2035
sbag1
(g10
g3
NtRp2036
(dp2037
g13
S'PlayerSay'
p2038
sg14
S'PA2'
p2039
sg15
S''
sg16
S'Of course.'
p2040
sbag1
(g10
g3
NtRp2041
(dp2042
g13
S'RequireCount'
p2043
sg14
S'PA2'
p2044
sg15
S'WARVETS:2'
p2045
sg16
S''
sbag1
(g10
g3
NtRp2046
(dp2047
g13
S'Say'
p2048
sg14
S'PA2'
p2049
sg15
S''
sg16
S'What was that about?'
p2050
sbag1
(g10
g3
NtRp2051
(dp2052
g13
S'PlayerSay'
p2053
sg14
S'PA2'
p2054
sg15
S''
sg16
S"I'd like to know as well. Find me the documents that approved troop movement today and get me a meeting with the Joint Chiefs."
p2055
sbag1
(g10
g3
NtRp2056
(dp2057
g13
S'Say'
p2058
sg14
S'PA2'
p2059
sg15
S''
sg16
S'Yessir.'
p2060
sbag1
(g10
g3
NtRp2061
(dp2062
g13
S'Say'
p2063
sg14
S'PA2'
p2064
sg15
S''
sg16
S"Your next meeting is with the teacher's in the corridor. They didn't give me the details, but it seems they're quite upset."
p2065
sbag1
(g10
g3
NtRp2066
(dp2067
g13
S'RequireCount'
p2068
sg14
S'PA2'
p2069
sg15
S'TEACHERS:2'
p2070
sg16
S"You'll need to speak to the teachers in the corridor, Mr President."
p2071
sbag1
(g10
g3
NtRp2072
(dp2073
g13
S'Say'
p2074
sg14
S'PA2'
p2075
sg15
S''
sg16
S'You seem to have sorted the teachers out.'
p2076
sbag1
(g10
g3
NtRp2077
(dp2078
g13
S'PlayerSay'
p2079
sg14
S'PA2'
p2080
sg15
S''
sg16
S"I've mollified them for now, but I want to get to the bottom of this - NOW!"
p2081
sbag1
(g10
g3
NtRp2082
(dp2083
g13
S'Say'
p2084
sg14
S'PA2'
p2085
sg15
S''
sg16
S'Of course, Mr President. I do have those papers you asked for that approved the mobilisation of troops'
p2086
sbag1
(g10
g3
NtRp2087
(dp2088
g13
S'PlayerSay'
p2089
sg14
S'PA2'
p2090
sg15
S''
sg16
S"Let me see those...this is my signature! But I didn't sign this!"
p2091
sbag1
(g10
g3
NtRp2092
(dp2093
g13
S'Say'
p2094
sg14
S'PA2'
p2095
sg15
S''
sg16
S'This is very serious! What should we do, sir?'
p2096
sbag1
(g10
g3
NtRp2097
(dp2098
g13
S'PlayerSay'
p2099
sg14
S'PA2'
p2100
sg15
S''
sg16
S'Call a cabinet meeting in the Mural Room. Immediately.'
p2101
sbag1
(g10
g3
NtRp2102
(dp2103
g13
S'Say'
p2104
sg14
S'PA2'
p2105
sg15
S''
sg16
S"Understood. They'll be there when you get there."
p2106
sbag1
(g10
g3
NtRp2107
(dp2108
g13
S'RequireCount'
p2109
sg14
S'PA2'
p2110
sg15
S'CABINETMEMBERS:3'
p2111
sg16
S'The cabinet is waiting for you in the Mural Room.'
p2112
sbag1
(g10
g3
NtRp2113
(dp2114
g13
S'RequireCount'
p2115
sg14
S'PA2'
p2116
sg15
S'JOINTCHIEFS:3'
p2117
sg16
S'Hello, Sir. The Joint Chiefs are waiting for you in your office.'
p2118
sbag1
(g10
g3
NtRp2119
(dp2120
g13
S'RequireCount'
p2121
sg14
S'PA2'
p2122
sg15
S'JOINTCHIEFS:3'
p2123
sg16
S'The Joint Chiefs are waiting in your office, Sir.'
p2124
sbag1
(g10
g3
NtRp2125
(dp2126
g13
S'RequireFlag'
p2127
sg14
S'PA2'
p2128
sg15
S'WIN'
p2129
sg16
S'Mr President, you have to put a stop to the supercomputer that will destroy the planet! You can access it in the Situation Room.'
p2130
sbag1
(g10
g3
NtRp2131
(dp2132
g13
S'Say'
p2133
sg14
S'PA2'
p2134
sg15
S''
sg16
S"You have saved the day! The world is safe and all over the Ignited States, our citizens can sleep safe knowing you're taking care of them."
p2135
sbag1
(g10
g3
NtRp2136
(dp2137
g13
S'RequireFlag'
p2138
sg14
S'PA2'
p2139
sg15
S'LOOP'
p2140
sg16
S'Goodnight, Mr President.'
p2141
sbasS'Journalist5'
p2142
(lp2143
g1
(g10
g3
NtRp2144
(dp2145
g13
S'Say'
p2146
sg14
g2142
sg15
S''
sg16
S'Do you feel that a bi-partisan relationship will be possible between your party and the opposition?'
p2147
sbag1
(g10
g3
NtRp2148
(dp2149
g13
S'PlayerSay'
p2150
sg14
S'Journalist5'
p2151
sg15
S''
sg16
S'I suppose once we find and remove all of the aliens and reverse the alien brainwashing, bi-partisanship will resume.'
p2152
sbag1
(g10
g3
NtRp2153
(dp2154
g13
S'Encounter'
p2155
sg14
S'Journalist5'
p2156
sg15
S'P-hard-03'
p2157
sg16
S''
sbag1
(g10
g3
NtRp2158
(dp2159
g13
S'Say'
p2160
sg14
S'Journalist5'
p2161
sg15
S''
sg16
S'Thankyou, President Mossman.'
p2162
sbag1
(g10
g3
NtRp2163
(dp2164
g13
S'Increment'
p2165
sg14
S'Journalist5'
p2166
sg15
S'PRESSCONF'
p2167
sg16
S''
sbag1
(g10
g3
NtRp2168
(dp2169
g13
S'Destroy'
p2170
sg14
S'Journalist5'
p2171
sg15
S''
sg16
S''
sbasS'Journalist2'
p2172
(lp2173
g1
(g10
g3
NtRp2174
(dp2175
g13
S'RequireFlag'
p2176
sg14
g2172
sg15
S'STARTHICKS2'
p2177
sg16
S'Governor Badden sends his Mayor lacky to do his dirty work \xe2\x80\x93 what a scoop!'
p2178
sbag1
(g10
g3
NtRp2179
(dp2180
g13
S'Encounter'
p2181
sg14
S'Journalist2'
p2182
sg15
S'P-med-05'
p2183
sg16
S''
sbag1
(g10
g3
NtRp2184
(dp2185
g13
S'Say'
p2186
sg14
S'Journalist2'
p2187
sg15
S''
sg16
S"I'm going back to write a comparison piece on you and Governor Badden. You should consider running for Governor."
p2188
sbag1
(g10
g3
NtRp2189
(dp2190
g13
S'Increment'
p2191
sg14
S'Journalist2'
p2192
sg15
S'DEALWITHHICKS'
p2193
sg16
S''
sbag1
(g10
g3
NtRp2194
(dp2195
g13
S'Destroy'
p2196
sg14
S'Journalist2'
p2197
sg15
S''
sg16
S''
sbasS'#P-med-24'
p2198
(lp2199
g1
(g10
g3
NtRp2200
(dp2201
g13
S'PresidentAlien'
p2202
sg14
g2198
sg15
S"You think you've beaten me, but now you're going to fight the real me!"
p2203
sg16
S''
sbag1
(g10
g3
NtRp2204
(dp2205
g13
S'Player'
p2206
sg14
S'#P-med-24'
p2207
sg15
S'I knew something was wrong, but this...?'
p2208
sg16
S''
sbag1
(g10
g3
NtRp2209
(dp2210
g13
S'PresidentAlien'
p2211
sg14
S'#P-med-24'
p2212
sg15
S"All you've done is caused me to expedite my plans to enslave the human race!"
p2213
sg16
S''
sbasS'TVPersonality'
p2214
(lp2215
g1
(g10
g3
NtRp2216
(dp2217
g13
S'RequireFlag'
p2218
sg14
g2214
sg15
S'STARTHERCULES'
p2219
sg16
S"Ooooh, sorry Mossman, baby! We're not ready for you yet."
p2220
sbag1
(g10
g3
NtRp2221
(dp2222
g13
S'Say'
p2223
sg14
S'TVPersonality'
p2224
sg15
S''
sg16
S"There's the man! Are you ready to cross wits with The Mighty Hercules!"
p2225
sbag1
(g10
g3
NtRp2226
(dp2227
g13
S'PlayerSay'
p2228
sg14
S'TVPersonality'
p2229
sg15
S''
sg16
S'I sure am!'
p2230
sbag1
(g10
g3
NtRp2231
(dp2232
g13
S'Say'
p2233
sg14
S'TVPersonality'
p2234
sg15
S''
sg16
S"Really...? You don't want to...see your make-up artist?"
p2235
sbag1
(g10
g3
NtRp2236
(dp2237
g13
S'PlayerSay'
p2238
sg14
S'TVPersonality'
p2239
sg15
S''
sg16
S"No, no, I'm really ready."
p2240
sbag1
(g10
g3
NtRp2241
(dp2242
g13
S'Say'
p2243
sg14
S'TVPersonality'
p2244
sg15
S''
sg16
S'Suit yourself...and from the looks of it, suiting yourself is exactly what you did...ew.'
p2245
sbag1
(g10
g3
NtRp2246
(dp2247
g13
S'Encounter'
p2248
sg14
S'TVPersonality'
p2249
sg15
S'P-med-20'
p2250
sg16
S''
sbag1
(g10
g3
NtRp2251
(dp2252
g13
S'Say'
p2253
sg14
S'TVPersonality'
p2254
sg15
S''
sg16
S"Good show, you sure gave me a run for my money, now beat it, you're making me look bad!"
p2255
sbag1
(g10
g3
NtRp2256
(dp2257
g13
S'SetFlag'
p2258
sg14
S'TVPersonality'
p2259
sg15
S'BEATHERCULES'
p2260
sg16
S''
sbag1
(g10
g3
NtRp2261
(dp2262
g13
S'Destroy'
p2263
sg14
S'TVPersonality'
p2264
sg15
S''
sg16
S''
sbasS'SouthWingDoor'
p2265
(lp2266
g1
(g10
g3
NtRp2267
(dp2268
g13
S'RequireItemMessage'
p2269
sg14
g2265
sg15
S'SOUTHWINGDOORKEY'
p2270
sg16
S'The door is appears to be locked'
p2271
sbag1
(g10
g3
NtRp2272
(dp2273
g13
S'Message'
p2274
sg14
S'SouthWingDoor'
p2275
sg15
S''
sg16
S"The door unlocks with a satisfying 'click'"
p2276
sbag1
(g10
g3
NtRp2277
(dp2278
g13
S'Destroy'
p2279
sg14
S'SouthWingDoor'
p2280
sg15
S''
sg16
S''
sbasS'Protester2'
p2281
(lp2282
g1
(g10
g3
NtRp2283
(dp2284
g13
S'Say'
p2285
sg14
g2281
sg15
S''
sg16
S"Bees buzz, Mayors lie, who's this Phillip Mossman guy?"
p2286
sbag1
(g10
g3
NtRp2287
(dp2288
g13
S'RequireFlag'
p2289
sg14
S'Protester2'
p2290
sg15
S'PROTESTORS'
p2291
sg16
S''
sbag1
(g10
g3
NtRp2292
(dp2293
g13
S'Encounter'
p2294
sg14
S'Protester2'
p2295
sg15
S'P-easy-03'
p2296
sg16
S''
sbag1
(g10
g3
NtRp2297
(dp2298
g13
S'Destroy'
p2299
sg14
S'Protester2'
p2300
sg15
S''
sg16
S''
sbasS'JointChief2'
p2301
(lp2302
g1
(g10
g3
NtRp2303
(dp2304
g13
S'PlayerSay'
p2305
sg14
g2301
sg15
S''
sg16
S'Who would have the power to do this? What would they stand to gain? Can we...'
p2306
sbag1
(g10
g3
NtRp2307
(dp2308
g13
S'Say'
p2309
sg14
S'JointChief2'
p2310
sg15
S''
sg16
S"I'm sorry, Sir. I've just learned that some ICBMs pointed at Russia have been activated \xe2\x80\x93 using your access codes! They could be fired at any moment!"
p2311
sbag1
(g10
g3
NtRp2312
(dp2313
g13
S'PlayerSay'
p2314
sg14
S'JointChief2'
p2315
sg15
S''
sg16
S"You've \xe2\x80\x9cjust learned\xe2\x80\x9d? Is this your doing?"
p2316
sbag1
(g10
g3
NtRp2317
(dp2318
g13
S'Encounter'
p2319
sg14
S'JointChief2'
p2320
sg15
S'P-hard-12'
p2321
sg16
S''
sbag1
(g10
g3
NtRp2322
(dp2323
g13
S'Increment'
p2324
sg14
S'JointChief2'
p2325
sg15
S'JOINTCHIEFS'
p2326
sg16
S''
sbag1
(g10
g3
NtRp2327
(dp2328
g13
S'PlayerSay'
p2329
sg14
S'JointChief2'
p2330
sg15
S''
sg16
S'I had to be sure.'
p2331
sbag1
(g10
g3
NtRp2332
(dp2333
g13
S'Destroy'
p2334
sg14
S'JointChief2'
p2335
sg15
S''
sg16
S''
sbasS'Protester1'
p2336
(lp2337
g1
(g10
g3
NtRp2338
(dp2339
g13
S'Say'
p2340
sg14
g2336
sg15
S''
sg16
S"Fee Fi Fo Fum, we think Mayor Goodman's Dumb!"
p2341
sbag1
(g10
g3
NtRp2342
(dp2343
g13
S'RequireFlag'
p2344
sg14
S'Protester1'
p2345
sg15
S'PROTESTORS'
p2346
sg16
S''
sbag1
(g10
g3
NtRp2347
(dp2348
g13
S'Encounter'
p2349
sg14
S'Protester1'
p2350
sg15
S'P-easy-02'
p2351
sg16
S''
sbag1
(g10
g3
NtRp2352
(dp2353
g13
S'Destroy'
p2354
sg14
S'Protester1'
p2355
sg15
S''
sg16
S''
sbasS'#----------------------------------------------------------------------------------------ACT 2 \xe2\x80\x93 Part 1---------------------------------------------------------------------------------------------------------------------------------------------------'
p2356
(lp2357
g1
(g10
g3
NtRp2358
(dp2359
g13
S''
sg14
g2356
sg15
S''
sg16
S''
sbasS'Head Protester'
p2360
(lp2361
g1
(g10
g3
NtRp2362
(dp2363
g13
S'Say'
p2364
sg14
g2360
sg15
S''
sg16
S"I am the head protester. You'll never convince us to back down!"
p2365
sbag1
(g10
g3
NtRp2366
(dp2367
g13
S'RequireFlag'
p2368
sg14
S'Head Protester'
p2369
sg15
S'PROTESTORS'
p2370
sg16
S''
sbag1
(g10
g3
NtRp2371
(dp2372
g13
S'PlayerSay'
p2373
sg14
S'Head Protester'
p2374
sg15
S''
sg16
S'What are you protesting?'
p2375
sbag1
(g10
g3
NtRp2376
(dp2377
g13
S'Say'
p2378
sg14
S'Head Protester'
p2379
sg15
S''
sg16
S'Er...Injustice!'
p2380
sbag1
(g10
g3
NtRp2381
(dp2382
g13
S'PlayerSay'
p2383
sg14
S'Head Protester'
p2384
sg15
S''
sg16
S'Injustice against what?'
p2385
sbag1
(g10
g3
NtRp2386
(dp2387
g13
S'Say'
p2388
sg14
S'Head Protester'
p2389
sg15
S''
sg16
S'...'
p2390
sbag1
(g10
g3
NtRp2391
(dp2392
g13
S'Say'
p2393
sg14
S'Head Protester'
p2394
sg15
S''
sg16
S'The People!'
p2395
sbag1
(g10
g3
NtRp2396
(dp2397
g13
S'PlayerSay'
p2398
sg14
S'Head Protester'
p2399
sg15
S''
sg16
S'Yes, but which people?'
p2400
sbag1
(g10
g3
NtRp2401
(dp2402
g13
S'Say'
p2403
sg14
S'Head Protester'
p2404
sg15
S''
sg16
S'See? What a fascist, ALL people you slimey politician scum!'
p2405
sbag1
(g10
g3
NtRp2406
(dp2407
g13
S'Encounter'
p2408
sg14
S'Head Protester'
p2409
sg15
S'P-easy-04'
p2410
sg16
S''
sbag1
(g10
g3
NtRp2411
(dp2412
g13
S'Say'
p2413
sg14
S'Head Protester'
p2414
sg15
S''
sg16
S"Alright, fine! We'll stop protesting...whatever we were protesting."
p2415
sbag1
(g10
g3
NtRp2416
(dp2417
g13
S'SetFlag'
p2418
sg14
S'Head Protester'
p2419
sg15
S'PROTESTORSDEAD'
p2420
sg16
S''
sbag1
(g10
g3
NtRp2421
(dp2422
g13
S'Destroy'
p2423
sg14
S'Head Protester'
p2424
sg15
S''
sg16
S''
sbasS'Sponsor'
p2425
(lp2426
g1
(g10
g3
NtRp2427
(dp2428
g13
S'RequireFlag'
p2429
sg14
g2425
sg15
S'STARTSPONSOR'
p2430
sg16
S"Hmmm...Money, money, money. Sorry, what? I wasn't talking to you."
p2431
sbag1
(g10
g3
NtRp2432
(dp2433
g13
S'Say'
p2434
sg14
S'Sponsor'
p2435
sg15
S''
sg16
S"Hello, I'm investigating new investments today. How can I help you?"
p2436
sbag1
(g10
g3
NtRp2437
(dp2438
g13
S'PlayerSay'
p2439
sg14
S'Sponsor'
p2440
sg15
S''
sg16
S"Well, I've decided to run for Mayor! I could really use an investor."
p2441
sbag1
(g10
g3
NtRp2442
(dp2443
g13
S'Say'
p2444
sg14
S'Sponsor'
p2445
sg15
S''
sg16
S"I don't know. You seem a little young. I don't think I'm convinced."
p2446
sbag1
(g10
g3
NtRp2447
(dp2448
g13
S'Encounter'
p2449
sg14
S'Sponsor'
p2450
sg15
S'P-easy-06'
p2451
sg16
S''
sbag1
(g10
g3
NtRp2452
(dp2453
g13
S'Say'
p2454
sg14
S'Sponsor'
p2455
sg15
S''
sg16
S"Wow! You sure have what it takes! Alright, he's a pile of cash!"
p2456
sbag1
(g10
g3
NtRp2457
(dp2458
g13
S'Say'
p2459
sg14
S'Sponsor'
p2460
sg15
S''
sg16
S'Also, now that you have some funds, you might find it useful to...grease the wheels in some difficult situations.'
p2461
sbag1
(g10
g3
NtRp2462
(dp2463
g13
S'LearnAttack'
p2464
sg14
S'Sponsor'
p2465
sg15
S'BRIBE'
p2466
sg16
S'Phillip and Sarah learn to Bribe'
p2467
sbag1
(g10
g3
NtRp2468
(dp2469
g13
S'LearnAttack'
p2470
sg14
S'Sponsor'
p2471
sg15
S'Wife:BRIBE'
p2472
sg16
S''
sbag1
(g10
g3
NtRp2473
(dp2474
g13
S'SetFlag'
p2475
sg14
S'Sponsor'
p2476
sg15
S'STARTCONSTITUENTS'
p2477
sg16
S''
sbag1
(g10
g3
NtRp2478
(dp2479
g13
S'PlayerSay'
p2480
sg14
S'Sponsor'
p2481
sg15
S''
sg16
S'Er, thanks! I suppose we should go gather some support from our constituents now.'
p2482
sbag1
(g10
g3
NtRp2483
(dp2484
g13
S'Say'
p2485
sg14
S'Sponsor'
p2486
sg15
S''
sg16
S"Makes sense to me! I'm off, too. Money, money, money."
p2487
sbag1
(g10
g3
NtRp2488
(dp2489
g13
S'Destroy'
p2490
sg14
S'Sponsor'
p2491
sg15
S''
sg16
S''
sbasS'CheatAct2P2'
p2492
(lp2493
g1
(g10
g3
NtRp2494
(dp2495
g13
S'AddAlly'
p2496
sg14
g2492
sg15
S'Wife:1'
p2497
sg16
S''
sbag1
(g10
g3
NtRp2498
(dp2499
g13
S'LearnAttack'
p2500
sg14
S'CheatAct2P2'
p2501
sg15
S'BRIBE'
p2502
sg16
S''
sbag1
(g10
g3
NtRp2503
(dp2504
g13
S'LearnAttack'
p2505
sg14
S'CheatAct2P2'
p2506
sg15
S'Wife:BRIBE'
p2507
sg16
S''
sbag1
(g10
g3
NtRp2508
(dp2509
g13
S'LearnAttack'
p2510
sg14
S'CheatAct2P2'
p2511
sg15
S'SLANDER'
p2512
sg16
S''
sbag1
(g10
g3
NtRp2513
(dp2514
g13
S'AddAlly'
p2515
sg14
S'CheatAct2P2'
p2516
sg15
S'Leo:1'
p2517
sg16
S''
sbag1
(g10
g3
NtRp2518
(dp2519
g13
S'GotoMap'
p2520
sg14
S'CheatAct2P2'
p2521
sg15
S'act2campaign'
p2522
sg16
S''
sbasS'P-med-12'
p2523
(lp2524
g1
(g10
g3
NtRp2525
(dp2526
g13
S'Say'
p2527
sg14
g2523
sg15
S'Lobbyist001'
p2528
sg16
S'import combat'
p2529
sbasS'Lobbyist3'
p2530
(lp2531
g1
(g10
g3
NtRp2532
(dp2533
g13
S'RequireFlag'
p2534
sg14
g2530
sg15
S'STARTLOBBYISTS'
p2535
sg16
S'Mutter, mutter'
p2536
sbag1
(g10
g3
NtRp2537
(dp2538
g13
S'Say'
p2539
sg14
S'Lobbyist3'
p2540
sg15
S''
sg16
S'Protection of internet memes'
p2541
sbag1
(g10
g3
NtRp2542
(dp2543
g13
S'Encounter'
p2544
sg14
S'Lobbyist3'
p2545
sg15
S'P-med-13'
p2546
sg16
S''
sbag1
(g10
g3
NtRp2547
(dp2548
g13
S'Increment'
p2549
sg14
S'Lobbyist3'
p2550
sg15
S'LOBBYISTS'
p2551
sg16
S''
sbag1
(g10
g3
NtRp2552
(dp2553
g13
S'Say'
p2554
sg14
S'Lobbyist3'
p2555
sg15
S''
sg16
S"It's a start."
p2556
sbag1
(g10
g3
NtRp2557
(dp2558
g13
S'Destroy'
p2559
sg14
S'Lobbyist3'
p2560
sg15
S''
sg16
S''
sbasS'Mayor'
p2561
(lp2562
g1
(g10
g3
NtRp2563
(dp2564
g13
S'Say'
p2565
sg14
g2561
sg15
S''
sg16
S"Hello, I'm the Mayor!"
p2566
sbag1
(g10
g3
NtRp2567
(dp2568
g13
S'PlayerSay'
p2569
sg14
S'Mayor'
p2570
sg15
S''
sg16
S"Hello, Mayor Goodman, I'm Philip Mossman."
p2571
sbag1
(g10
g3
NtRp2572
(dp2573
g13
S'Say'
p2574
sg14
S'Mayor'
p2575
sg15
S''
sg16
S"Ah yes, you're my new assistant. A good thing, too."
p2576
sbag1
(g10
g3
NtRp2577
(dp2578
g13
S'Say'
p2579
sg14
S'Mayor'
p2580
sg15
S''
sg16
S"I've been searching for minutes and haven't been able to find my pen! I bet my receptionist stole it. She has sticky fingers."
p2581
sbag1
(g10
g3
NtRp2582
(dp2583
g13
S'Say'
p2584
sg14
S'Mayor'
p2585
sg15
S''
sg16
S"Well, don't just stand there, go and get it!"
p2586
sbag1
(g10
g3
NtRp2587
(dp2588
g13
S'SetFlag'
p2589
sg14
S'Mayor'
p2590
sg15
S'PENQUEST'
p2591
sg16
S''
sbag1
(g10
g3
NtRp2592
(dp2593
g13
S'RequireItem'
p2594
sg14
S'Mayor'
p2595
sg15
S'PEN'
p2596
sg16
S'Are you simple? Go and get my pen from that thieving receptionist.'
p2597
sbag1
(g10
g3
NtRp2598
(dp2599
g13
S'Say'
p2600
sg14
S'Mayor'
p2601
sg15
S''
sg16
S"Great! I know she can give you a bit of a tongue-lashing, but she's a fantastic receptionist."
p2602
sbag1
(g10
g3
NtRp2603
(dp2604
g13
S'Say'
p2605
sg14
S'Mayor'
p2606
sg15
S''
sg16
S"I'm sure you want to learn a thing or two about politics \xe2\x80\x93 who doesn't? - so lets get started"
p2607
sbag1
(g10
g3
NtRp2608
(dp2609
g13
S'SetFlag'
p2610
sg14
S'Mayor'
p2611
sg15
S'PROTESTORS'
p2612
sg16
S''
sbag1
(g10
g3
NtRp2613
(dp2614
g13
S'RequireFlag'
p2615
sg14
S'Mayor'
p2616
sg15
S'PROTESTORSDEAD'
p2617
sg16
S'Run outside and tell those protesters to scram, will you?'
p2618
sbag1
(g10
g3
NtRp2619
(dp2620
g13
S'Say'
p2621
sg14
S'Mayor'
p2622
sg15
S''
sg16
S"Hope they didn't give you too much trouble!"
p2623
sbag1
(g10
g3
NtRp2624
(dp2625
g13
S'Say'
p2626
sg14
S'Mayor'
p2627
sg15
S''
sg16
S"Now that's sorted, there's a journalist from the local newspaper coming for an interview."
p2628
sbag1
(g10
g3
NtRp2629
(dp2630
g13
S'Say'
p2631
sg14
S'Mayor'
p2632
sg15
S''
sg16
S"I certainly don't have time for it, so you can do the interview."
p2633
sbag1
(g10
g3
NtRp2634
(dp2635
g13
S'Say'
p2636
sg14
S'Mayor'
p2637
sg15
S''
sg16
S"Be careful not to give too much away and if you could throw a few punches at the opposition that'd help."
p2638
sbag1
(g10
g3
NtRp2639
(dp2640
g13
S'PlayerSay'
p2641
sg14
S'Mayor'
p2642
sg15
S''
sg16
S'You want me to...throw a punch?'
p2643
sbag1
(g10
g3
NtRp2644
(dp2645
g13
S'Say'
p2646
sg14
S'Mayor'
p2647
sg15
S''
sg16
S"You're in politics and don't know how to fight dirty? Sheesh! Here, let me show you."
p2648
sbag1
(g10
g3
NtRp2649
(dp2650
g13
S'LearnAttack'
p2651
sg14
S'Mayor'
p2652
sg15
S'SLANDER'
p2653
sg16
S'Mayor teaches Phillip to Slander Opposition'
p2654
sbag1
(g10
g3
NtRp2655
(dp2656
g13
S'Say'
p2657
sg14
S'Mayor'
p2658
sg15
S''
sg16
S"It's a pretty great tactic because it keeps eating away at them long after you've done it."
p2659
sbag1
(g10
g3
NtRp2660
(dp2661
g13
S'SetFlag'
p2662
sg14
S'Mayor'
p2663
sg15
S'INTERVIEWSTART'
p2664
sg16
S''
sbag1
(g10
g3
NtRp2665
(dp2666
g13
S'RequireFlag'
p2667
sg14
S'Mayor'
p2668
sg15
S'JOURNALISTINTERVIEW'
p2669
sg16
S'Go handle that interview and remember to slander the opposition.'
p2670
sbag1
(g10
g3
NtRp2671
(dp2672
g13
S'SetFlag'
p2673
sg14
S'Mayor'
p2674
sg15
S'GOHOMETOWIFE'
p2675
sg16
S''
sbag1
(g10
g3
NtRp2676
(dp2677
g13
S'Say'
p2678
sg14
S'Mayor'
p2679
sg15
S''
sg16
S'OK, fine, now could you buzz off for a while? I need to get some work done.'
p2680
sbag1
(g10
g3
NtRp2681
(dp2682
g13
S'RequireFlag'
p2683
sg14
S'Mayor'
p2684
sg15
S'CONSTITUENTSWON'
p2685
sg16
S"Go home to your family. I have things to do that don't involve you."
p2686
sbag1
(g10
g3
NtRp2687
(dp2688
g13
S'Say'
p2689
sg14
S'Mayor'
p2690
sg15
S''
sg16
S"What's this I hear about you campaigning for Mayor? After everything I've taught you!"
p2691
sbag1
(g10
g3
NtRp2692
(dp2693
g13
S'PlayerSay'
p2694
sg14
S'Mayor'
p2695
sg15
S''
sg16
S"I'm sorry Mayor Goodman, but it's time for someone who's ready to make a difference for our town."
p2696
sbag1
(g10
g3
NtRp2697
(dp2698
g13
S'Say'
p2699
sg14
S'Mayor'
p2700
sg15
S''
sg16
S"You really are a fool. Do you think He's going to allow that?"
p2701
sbag1
(g10
g3
NtRp2702
(dp2703
g13
S'Encounter'
p2704
sg14
S'Mayor'
p2705
sg15
S'P-easy-10'
p2706
sg16
S''
sbag1
(g10
g3
NtRp2707
(dp2708
g13
S'Say'
p2709
sg14
S'Mayor'
p2710
sg15
S''
sg16
S"Well, you've beaten me but you don't have a clue what you're in for. I hope you're up to this kid!"
p2711
sbag1
(g10
g3
NtRp2712
(dp2713
g13
S'Destroy'
p2714
sg14
S'Mayor'
p2715
sg15
S''
sg16
S''
sbasS'Politician4'
p2716
(lp2717
g1
(g10
g3
NtRp2718
(dp2719
g13
S'RequireFlag'
p2720
sg14
g2716
sg15
S'STARTPOLITICIANSHAKEDOWN'
p2721
sg16
S'Good morning, Governor Mossman. Your PA will know your schedule. He is waiting in your room.'
p2722
sbag1
(g10
g3
NtRp2723
(dp2724
g13
S'Say'
p2725
sg14
S'Politician4'
p2726
sg15
S''
sg16
S"I'm for culture! It's a glorious age we live in, we should further this great country's culture."
p2727
sbag1
(g10
g3
NtRp2728
(dp2729
g13
S'PlayerSay'
p2730
sg14
S'Politician4'
p2731
sg15
S''
sg16
S'That sounds fair, but what kind of culture would you like to focus on.'
p2732
sbag1
(g10
g3
NtRp2733
(dp2734
g13
S'Say'
p2735
sg14
S'Politician4'
p2736
sg15
S''
sg16
S"Oh...I don't know, I'm not really into art, can't really handle music. I'd rather not go to the theatre if I can get out of it. Don't really see the point of sport...hmmm. New culture?"
p2737
sbag1
(g10
g3
NtRp2738
(dp2739
g13
S'PlayerSay'
p2740
sg14
S'Politician4'
p2741
sg15
S''
sg16
S"You don't seem very in to improving culture really."
p2742
sbag1
(g10
g3
NtRp2743
(dp2744
g13
S'Say'
p2745
sg14
S'Politician4'
p2746
sg15
S''
sg16
S'Yeh, well...my wife said it would make me sound smart. I think sounding smart is important. Lets be for that!'
p2747
sbag1
(g10
g3
NtRp2748
(dp2749
g13
S'Encounter'
p2750
sg14
S'Politician4'
p2751
sg15
S'P-med-08'
p2752
sg16
S''
sbag1
(g10
g3
NtRp2753
(dp2754
g13
S'Say'
p2755
sg14
S'Politician4'
p2756
sg15
S''
sg16
S"Gee, you're a pretty smart guy. I think you've got this covered."
p2757
sbag1
(g10
g3
NtRp2758
(dp2759
g13
S'Increment'
p2760
sg14
S'Politician4'
p2761
sg15
S'POLITICIANSHAKEDOWN'
p2762
sg16
S''
sbag1
(g10
g3
NtRp2763
(dp2764
g13
S'Destroy'
p2765
sg14
S'Politician4'
p2766
sg15
S''
sg16
S''
sbassS'attacks'
p2767
(dp2768
S'GETEXCLUSIVE'
p2769
g1
(g10
g3
NtRp2770
(dp2771
S'base_damage_max'
p2772
F8
sS'description'
p2773
S'asdf'
p2774
sS'weight'
p2775
I1
sS'crit_chance_max'
p2776
F5
sS'crit_chance_min'
p2777
F2
sS'underlying_stat'
p2778
S'Wit'
p2779
sS'target_type'
p2780
S'AllFriendly'
p2781
sS'base_damage_min'
p2782
F4
sS'spin_cost'
p2783
F5
sS'effects'
p2784
(lp2785
g1
(c__main__
Effect
p2786
g3
NtRp2787
(dp2788
S'function'
p2789
S'add'
p2790
sS'abbrv'
p2791
S'(INCREASE)'
p2792
sS'attribute'
p2793
S'cunning'
p2794
sS'value'
p2795
F2
sS'rounds_min'
p2796
F1
sS'rounds_max'
p2797
F4
sS'id'
p2798
S'Increase Cunning'
p2799
sS'apply_to_source'
p2800
S'TRUE'
p2801
sbasS'target_count'
p2802
I1
sS'crit_base_damage'
p2803
F12
sg2798
g2769
sS'name'
p2804
S'Get Exclusive'
p2805
sbsS'LOSELOSE'
p2806
g1
(g10
g3
NtRp2807
(dp2808
g2772
F4
sg2773
S'Causes all politicians in the target radius to lose votes'
p2809
sg2775
I1
sg2776
F0
sg2777
F0
sg2778
S'Cunning'
p2810
sg2780
S'All'
p2811
sg2782
F4
sg2783
I0
sg2784
(lp2812
sg2802
I6
sg2803
F0
sg2798
g2806
sg2804
S'Lose/lose issue'
p2813
sbsS'LIE'
p2814
g1
(g10
g3
NtRp2815
(dp2816
g2772
F9
sg2773
S"It's only lying if they catch you. A strong attack with a danger of critically failing"
p2817
sg2775
F3
sg2776
F10
sg2777
F5
sg2778
S'Cunning'
p2818
sg2780
S'AllEnemy'
p2819
sg2782
F0
sg2783
I0
sg2784
(lp2820
g1
(g2786
g3
NtRp2821
(dp2822
g2789
S'miss_turn'
p2823
sg2791
S'(MISS)'
p2824
sg2793
S''
sg2795
F0
sg2796
F1
sg2797
F1
sg2798
S'Critical Fail'
p2825
sg2800
S'TRUE'
p2826
sbasg2802
I1
sg2803
F10
sg2798
g2814
sg2804
S'Lie'
p2827
sbsS'HILARIOUSANECDOTE'
p2828
g1
(g10
g3
NtRp2829
(dp2830
g2772
F8
sg2773
S'asdf'
p2831
sg2775
I1
sg2776
F5
sg2777
F2
sg2778
S'Wit'
p2832
sg2780
S'AllFriendly'
p2833
sg2782
F4
sg2783
F5
sg2784
(lp2834
g1
(g2786
g3
NtRp2835
(dp2836
g2789
S'add'
p2837
sg2791
S'(INCREASE)'
p2838
sg2793
S'flair'
p2839
sg2795
F2
sg2796
F1
sg2797
F4
sg2798
S'Increase Flair'
p2840
sg2800
S'TRUE'
p2841
sbasg2802
I1
sg2803
F11
sg2798
g2828
sg2804
S'Hilarious Anecdote'
p2842
sbsS'SENSATIONALISE'
p2843
g1
(g10
g3
NtRp2844
(dp2845
g2772
F8
sg2773
S'asdf'
p2846
sg2775
I1
sg2776
F0
sg2777
F0
sg2778
S'Wit'
p2847
sg2780
S'AllEnemy'
p2848
sg2782
F4
sg2783
F3
sg2784
(lp2849
sg2802
I1
sg2803
F0
sg2798
g2843
sg2804
S'Sensationalise'
p2850
sbsS'DENOUNCE'
p2851
g1
(g10
g3
NtRp2852
(dp2853
g2772
F5
sg2773
S'asdf'
p2854
sg2775
F6
sg2776
F10
sg2777
F2
sg2778
S'Cunning'
p2855
sg2780
S'AllEnemy'
p2856
sg2782
F2
sg2783
I0
sg2784
(lp2857
sg2802
I1
sg2803
F8
sg2798
g2851
sg2804
S'Denounce'
p2858
sbsS'WHADOWEWANT'
p2859
g1
(g10
g3
NtRp2860
(dp2861
g2772
F6
sg2773
S'asdf'
p2862
sg2775
I1
sg2776
F0
sg2777
F0
sg2778
S'Cunning'
p2863
sg2780
S'AllEnemy'
p2864
sg2782
F3
sg2783
I0
sg2784
(lp2865
sg2802
I1
sg2803
F0
sg2798
g2859
sg2804
S'Whadowewant!'
p2866
sbsS'SCOOP'
p2867
g1
(g10
g3
NtRp2868
(dp2869
g2772
F5
sg2773
S'asdf'
p2870
sg2775
I1
sg2776
F10
sg2777
F5
sg2778
S'Cunning'
p2871
sg2780
S'AllEnemy'
p2872
sg2782
F2
sg2783
I0
sg2784
(lp2873
sg2802
I1
sg2803
F8
sg2798
g2867
sg2804
S'Scoop'
p2874
sbsS'CHOOSETARGETS'
p2875
g1
(g10
g3
NtRp2876
(dp2877
g2772
F7
sg2773
S'asdf'
p2878
sg2775
I1
sg2776
F10
sg2777
F5
sg2778
S'Cunning'
p2879
sg2780
S'AllEnemy'
p2880
sg2782
F2
sg2783
I0
sg2784
(lp2881
sg2802
I1
sg2803
F9
sg2798
g2875
sg2804
S'Choose Targets'
p2882
sbsS'FILENAILS'
p2883
g1
(g10
g3
NtRp2884
(dp2885
g2772
F0
sg2773
S'asdf'
p2886
sg2775
I1
sg2776
F0
sg2777
F0
sg2778
S'Wit'
p2887
sg2780
S'AllEnemy'
p2888
sg2782
F0
sg2783
F3
sg2784
(lp2889
g1
(g2786
g3
NtRp2890
(dp2891
g2789
S'add_permanent'
p2892
sg2791
S''
sg2793
S'votes'
p2893
sg2795
F5
sg2796
F1
sg2797
F1
sg2798
S'Votes Restore'
p2894
sg2800
S'TRUE'
p2895
sbasg2802
I1
sg2803
F0
sg2798
g2883
sg2804
S'File Nails'
p2896
sbsS'BRIBE'
p2897
g1
(g10
g3
NtRp2898
(dp2899
g2772
F10
sg2773
S'Is there anything more convincing than money? Buying loyalty gets expensive so be careful.'
p2900
sg2775
I1
sg2776
F0
sg2777
F0
sg2778
S'Money'
p2901
sg2780
S'AllEnemy'
p2902
sg2782
F4
sg2783
I0
sg2784
(lp2903
sg2802
I1
sg2803
F0
sg2798
g2897
sg2804
S'Bribe'
p2904
sbsS'SING'
p2905
g1
(g10
g3
NtRp2906
(dp2907
g2772
F-3
sg2773
S'Why bandy words with politicians when you can sing a catchy tune! Restores votes.'
p2908
sg2775
I1
sg2776
F0
sg2777
F0
sg2778
S'Cunning'
p2909
sg2780
S'AllFriendly'
p2910
sg2782
F-5
sg2783
I0
sg2784
(lp2911
sg2802
I4
sg2803
F0
sg2798
g2905
sg2804
S'Rousing Song'
p2912
sbsS'FEAR'
p2913
g1
(g10
g3
NtRp2914
(dp2915
g2772
F0
sg2773
S'asdf'
p2916
sg2775
F2
sg2776
F0
sg2777
F0
sg2778
S'Wit'
p2917
sg2780
S'AllFriendly'
p2918
sg2782
F0
sg2783
F4
sg2784
(lp2919
g2787
asg2802
I1
sg2803
F0
sg2798
g2913
sg2804
S'Fear Change'
p2920
sbsS'RAISEDEFCON'
p2921
g1
(g10
g3
NtRp2922
(dp2923
g2772
F5
sg2773
S'asdf'
p2924
sg2775
I1
sg2776
F7
sg2777
F3
sg2778
S'Cunning'
p2925
sg2780
S'AllEnemy'
p2926
sg2782
F4
sg2783
I0
sg2784
(lp2927
sg2802
I1
sg2803
F8
sg2798
g2921
sg2804
S'Raise DEFCON'
p2928
sbsS'NEGATTACKAD'
p2929
g1
(g10
g3
NtRp2930
(dp2931
g2772
F8
sg2773
S"Take them all down. They're definitely all bad people. Not like you."
p2932
sg2775
I1
sg2776
F10
sg2777
F10
sg2778
S'Wit'
p2933
sg2780
S'AllEnemy'
p2934
sg2782
F3
sg2783
F5
sg2784
(lp2935
sg2802
I1
sg2803
F10
sg2798
g2929
sg2804
S'Negative Attack Ad'
p2936
sbsS'DAZZLE'
p2937
g1
(g10
g3
NtRp2938
(dp2939
g2772
F6
sg2773
S'Being dazzling and admirable is a great way to take heat off politics'
p2940
sg2775
I1
sg2776
F8
sg2777
F5
sg2778
S'Wit'
p2941
sg2780
S'AllEnemy'
p2942
sg2782
F3
sg2783
F3
sg2784
(lp2943
g1
(g2786
g3
NtRp2944
(dp2945
g2789
S'reduce'
p2946
sg2791
S'(REDUCE)'
p2947
sg2793
S'cunning'
p2948
sg2795
F2
sg2796
F2
sg2797
F5
sg2798
S'Reduce Cunning'
p2949
sg2800
S''
sbasg2802
I4
sg2803
F8
sg2798
g2937
sg2804
S'Dazzle'
p2950
sbsS'BELIEVEMEDIA'
p2951
g1
(g10
g3
NtRp2952
(dp2953
g2772
F3
sg2773
S'asdf'
p2954
sg2775
I1
sg2776
F15
sg2777
F10
sg2778
S'Cunning'
p2955
sg2780
S'AllEnemy'
p2956
sg2782
F1
sg2783
I0
sg2784
(lp2957
sg2802
I1
sg2803
F12
sg2798
g2951
sg2804
S'Believe Media'
p2958
sbsS'PRPREP'
p2959
g1
(g10
g3
NtRp2960
(dp2961
g2772
F0
sg2773
S"If you're going to need some spin, best see a spin doctor! Adds spin points."
p2962
sg2775
I1
sg2776
F0
sg2777
F0
sg2778
S''
sg2780
S'AllFriendly'
p2963
sg2782
F0
sg2783
I0
sg2784
(lp2964
g1
(g2786
g3
NtRp2965
(dp2966
g2789
S'add_permanent'
p2967
sg2791
S''
sg2793
S'spin'
p2968
sg2795
F5
sg2796
F0
sg2797
F0
sg2798
S'Spin Restore'
p2969
sg2800
S'TRUE'
p2970
sbasg2802
I1
sg2803
F0
sg2798
g2959
sg2804
S'PR Prep'
p2971
sbsS'CALLVATICAN'
p2972
g1
(g10
g3
NtRp2973
(dp2974
g2772
F0
sg2773
S'Brings in 2 additional ReligousNuts at 2 levels lower than this one'
p2975
sg2775
I1
sg2776
F0
sg2777
F0
sg2778
S'Wit'
p2976
sg2780
S'None'
p2977
sg2782
F0
sg2783
F5
sg2784
(lp2978
g1
(g2786
g3
NtRp2979
(dp2980
g2789
S'call_friends'
p2981
sg2791
S''
sg2793
S'ReligiousNut001:1'
p2982
sg2795
F2
sg2796
F1
sg2797
F1
sg2798
S'Call Friends'
p2983
sg2800
S''
sbasg2802
I1
sg2803
F0
sg2798
g2972
sg2804
S'Call Battycan'
p2984
sbsS'BLACKMAIL'
p2985
g1
(g10
g3
NtRp2986
(dp2987
g2772
F6
sg2773
S'asdf'
p2988
sg2775
I1
sg2776
F10
sg2777
F2
sg2778
S'Wit'
p2989
sg2780
S'AllEnemy'
p2990
sg2782
F3
sg2783
F4
sg2784
(lp2991
g1
(g2786
g3
NtRp2992
(dp2993
g2789
S'drain'
p2994
sg2791
S'(DRAIN)'
p2995
sg2793
S'votes'
p2996
sg2795
F1
sg2796
F2
sg2797
F5
sg2798
S'Drain Votes'
p2997
sg2800
S''
sbasg2802
I1
sg2803
F2
sg2798
g2985
sg2804
S'Blackmail'
p2998
sbsS'SCARE'
p2999
g1
(g10
g3
NtRp3000
(dp3001
g2772
F7
sg2773
S'Nothing rattles the brains like fear.'
p3002
sg2775
I1
sg2776
F10
sg2777
F2
sg2778
S'Cunning'
p3003
sg2780
S'AllEnemy'
p3004
sg2782
F2
sg2783
I0
sg2784
(lp3005
g2944
asg2802
I2
sg2803
F9
sg2798
g2999
sg2804
S'Scare Campaign'
p3006
sbsS'PROTEST'
p3007
g1
(g10
g3
NtRp3008
(dp3009
g2772
F5
sg2773
S'asdf'
p3010
sg2775
F6
sg2776
F10
sg2777
F2
sg2778
S'Cunning'
p3011
sg2780
S'AllEnemy'
p3012
sg2782
F2
sg2783
I0
sg2784
(lp3013
sg2802
I1
sg2803
F8
sg2798
g3007
sg2804
S'Protest'
p3014
sbsS'SPREADRUMOUR'
p3015
g1
(g10
g3
NtRp3016
(dp3017
g2772
F8
sg2773
S'asdf'
p3018
sg2775
I1
sg2776
F10
sg2777
F2
sg2778
S'Wit'
p3019
sg2780
S'AllEnemy'
p3020
sg2782
F3
sg2783
F3
sg2784
(lp3021
sg2802
I4
sg2803
F10
sg2798
g3015
sg2804
S'Spread Rumour'
p3022
sbsS'AGENDA'
p3023
g1
(g10
g3
NtRp3024
(dp3025
g2772
F5
sg2773
S'asdf'
p3026
sg2775
F6
sg2776
F10
sg2777
F2
sg2778
S'Cunning'
p3027
sg2780
S'AllEnemy'
p3028
sg2782
F2
sg2783
I0
sg2784
(lp3029
sg2802
I1
sg2803
F8
sg2798
g3023
sg2804
S'Push Agenda'
p3030
sbsS'FILIBUSTER'
p3031
g1
(g10
g3
NtRp3032
(dp3033
g2772
F6
sg2773
S"You're not moving until they give in. Cause all opposition to miss their turn"
p3034
sg2775
I1
sg2776
F0
sg2777
F0
sg2778
S'Wit'
p3035
sg2780
S'AllEnemy'
p3036
sg2782
F3
sg2783
F8
sg2784
(lp3037
g1
(g2786
g3
NtRp3038
(dp3039
g2789
S'miss_turn'
p3040
sg2791
S'(MISS)'
p3041
sg2793
S''
sg2795
F0
sg2796
F1
sg2797
F1
sg2798
S'Miss Turn'
p3042
sg2800
S''
sbasg2802
I1
sg2803
F0
sg2798
g3031
sg2804
S'Filibuster'
p3043
sbsS'GATHERINTEL'
p3044
g1
(g10
g3
NtRp3045
(dp3046
g2772
F0
sg2773
S'Increases Cunning.'
p3047
sg2775
I1
sg2776
F0
sg2777
F0
sg2778
S'Wit'
p3048
sg2780
S'AllFriendly'
p3049
sg2782
F0
sg2783
F3
sg2784
(lp3050
g2787
asg2802
I2
sg2803
F0
sg2798
g3044
sg2804
S'Gather Intelligence'
p3051
sbsS'LOVE'
p3052
g1
(g10
g3
NtRp3053
(dp3054
g2772
F6
sg2773
S'asdf'
p3055
sg2775
F2
sg2776
F8
sg2777
F2
sg2778
S'Cunning'
p3056
sg2780
S'AllEnemy'
p3057
sg2782
F1
sg2783
I0
sg2784
(lp3058
sg2802
I1
sg2803
F7
sg2798
g3052
sg2804
S'Love'
p3059
sbsS'OUTOFCONTEXT'
p3060
g1
(g10
g3
NtRp3061
(dp3062
g2772
F5
sg2773
S'asdf'
p3063
sg2775
I1
sg2776
F5
sg2777
F2
sg2778
S'Wit'
p3064
sg2780
S'AllEnemy'
p3065
sg2782
F3
sg2783
F2
sg2784
(lp3066
g2992
asg2802
I1
sg2803
F5
sg2798
g3060
sg2804
S'Take Out Of Context'
p3067
sbsS'GREATSUIT'
p3068
g1
(g10
g3
NtRp3069
(dp3070
g2772
F6
sg2773
S'Well, we could argue, but have you noticed how fabulous this suit is?'
p3071
sg2775
I1
sg2776
F11
sg2777
F6
sg2778
S'Cunning'
p3072
sg2780
S'AllEnemy'
p3073
sg2782
F3
sg2783
I0
sg2784
(lp3074
sg2802
I1
sg2803
F10
sg2798
g3068
sg2804
S'Look Great In Suit'
p3075
sbsS'PEACE'
p3076
g1
(g10
g3
NtRp3077
(dp3078
g2772
F0
sg2773
S'asdf'
p3079
sg2775
I1
sg2776
F0
sg2777
F0
sg2778
S'Wit'
p3080
sg2780
S'AllEnemy'
p3081
sg2782
F0
sg2783
F3
sg2784
(lp3082
g2944
asg2802
I4
sg2803
F0
sg2798
g3076
sg2804
S'Peace'
p3083
sbsS'INSPSPEECH'
p3084
g1
(g10
g3
NtRp3085
(dp3086
g2772
F-2
sg2773
S'Restore votes to all party members'
p3087
sg2775
I1
sg2776
F0
sg2777
F0
sg2778
S'Cunning'
p3088
sg2780
S'AllFriendly'
p3089
sg2782
F-2
sg2783
I0
sg2784
(lp3090
sg2802
I4
sg2803
F0
sg2798
g3084
sg2804
S'Inspirational Speech'
p3091
sbsS'RALLYENEMY'
p3092
g1
(g10
g3
NtRp3093
(dp3094
g2772
F0
sg2773
S'Get back some votes by rallying supporters'
p3095
sg2775
I1
sg2776
F0
sg2777
F0
sg2778
S'Wit'
p3096
sg2780
S'AllFriendly'
p3097
sg2782
F0
sg2783
F3
sg2784
(lp3098
g1
(g2786
g3
NtRp3099
(dp3100
g2789
S'add_permanent'
p3101
sg2791
S''
sg2793
S'votes'
p3102
sg2795
F8
sg2796
F1
sg2797
F1
sg2798
S'Votes Restore Rally Enemy'
p3103
sg2800
S''
sbasg2802
I1
sg2803
F0
sg2798
g3092
sg2804
S'Rally Constituents'
p3104
sbsS'STRIKE'
p3105
g1
(g10
g3
NtRp3106
(dp3107
g2772
F10
sg2773
S'asdf'
p3108
sg2775
I1
sg2776
F0
sg2777
F0
sg2778
S'Wit'
p3109
sg2780
S'AllEnemy'
p3110
sg2782
F0
sg2783
F3
sg2784
(lp3111
g2821
asg2802
I1
sg2803
F0
sg2798
g3105
sg2804
S'Call A Strike'
p3112
sbsS'SLANDER'
p3113
g1
(g10
g3
NtRp3114
(dp3115
g2772
F5
sg2773
S'Strong against polititians...careful with those voters, though!'
p3116
sg2775
F4
sg2776
F10
sg2777
F2
sg2778
S'Cunning'
p3117
sg2780
S'AllEnemy'
p3118
sg2782
F3
sg2783
I0
sg2784
(lp3119
g2992
asg2802
I1
sg2803
F7
sg2798
g3113
sg2804
S'Slander Opposition'
p3120
sbsS'NATTER'
p3121
g1
(g10
g3
NtRp3122
(dp3123
g2772
F8
sg2773
S'asdf'
p3124
sg2775
I1
sg2776
F15
sg2777
F5
sg2778
S'Cunning'
p3125
sg2780
S'AllEnemy'
p3126
sg2782
F1
sg2783
I0
sg2784
(lp3127
sg2802
I1
sg2803
F10
sg2798
g3121
sg2804
S'Natter On'
p3128
sbsS'GOSSIP'
p3129
g1
(g10
g3
NtRp3130
(dp3131
g2772
F3
sg2773
S'asdf'
p3132
sg2775
I1
sg2776
F10
sg2777
F2
sg2778
S'Wit'
p3133
sg2780
S'AllEnemy'
p3134
sg2782
F2
sg2783
F2
sg2784
(lp3135
g2944
asg2802
I1
sg2803
F6
sg2798
g3129
sg2804
S'Gossip'
p3136
sbsS'MISSTURN'
p3137
g1
(g10
g3
NtRp3138
(dp3139
g2772
F0
sg2773
S'asdf'
p3140
sg2775
I1
sg2776
F0
sg2777
F0
sg2778
S''
sg2780
S'AllEnemy'
p3141
sg2782
F0
sg2783
I0
sg2784
(lp3142
sg2802
I1
sg2803
F0
sg2798
g3137
sg2804
S'Miss Turn'
p3143
sbsS'BIELECTION'
p3144
g1
(g10
g3
NtRp3145
(dp3146
g2772
F4
sg2773
S'Redistribute votes amongst targets'
p3147
sg2775
I1
sg2776
F0
sg2777
F0
sg2778
S'Wit'
p3148
sg2780
S'All'
p3149
sg2782
F-4
sg2783
F4
sg2784
(lp3150
sg2802
I8
sg2803
F0
sg2798
g3144
sg2804
S'Bielection'
p3151
sbsS'RUNAD'
p3152
g1
(g10
g3
NtRp3153
(dp3154
g2772
F0
sg2773
S'Gets back some votes by running an ad'
p3155
sg2775
I1
sg2776
F0
sg2777
F0
sg2778
S''
sg2780
S'AllFriendly'
p3156
sg2782
F0
sg2783
I0
sg2784
(lp3157
g1
(g2786
g3
NtRp3158
(dp3159
g2789
S'add_permanent'
p3160
sg2791
S''
sg2793
S'votes'
p3161
sg2795
F15
sg2796
F1
sg2797
F1
sg2798
S'Votes Restore Ad'
p3162
sg2800
S'TRUE'
p3163
sbasg2802
I1
sg2803
F0
sg2798
g3152
sg2804
S'Run Advertisement'
p3164
sbsS'PAYOFF'
p3165
g1
(g10
g3
NtRp3166
(dp3167
g2772
F8
sg2773
S'causes them to miss a number of turns'
p3168
sg2775
I1
sg2776
F8
sg2777
F2
sg2778
S'Wit'
p3169
sg2780
S'AllEnemy'
p3170
sg2782
F4
sg2783
F4
sg2784
(lp3171
g1
(g2786
g3
NtRp3172
(dp3173
g2789
S'miss_turn'
p3174
sg2791
S'(MISS)'
p3175
sg2793
S''
sg2795
F0
sg2796
F1
sg2797
F3
sg2798
S'Miss Turn Pay Off'
p3176
sg2800
S''
sbasg2802
I1
sg2803
F10
sg2798
g3165
sg2804
S'Pay Off'
p3177
sbsS'BUREAUCRACY'
p3178
g1
(g10
g3
NtRp3179
(dp3180
g2772
F5
sg2773
S'asdf'
p3181
sg2775
F6
sg2776
F10
sg2777
F2
sg2778
S'Cunning'
p3182
sg2780
S'AllEnemy'
p3183
sg2782
F2
sg2783
I0
sg2784
(lp3184
sg2802
I1
sg2803
F8
sg2798
g3178
sg2804
S'Bureaucracy'
p3185
sbsS'RALLYAUDIENCE'
p3186
g1
(g10
g3
NtRp3187
(dp3188
g2772
F8
sg2773
S'asdf'
p3189
sg2775
I1
sg2776
F0
sg2777
F0
sg2778
S'Wit'
p3190
sg2780
S'AllFriendly'
p3191
sg2782
F4
sg2783
F3
sg2784
(lp3192
g1
(g2786
g3
NtRp3193
(dp3194
g2789
S'add'
p3195
sg2791
S'(INCREASE)'
p3196
sg2793
S'charisma'
p3197
sg2795
F2
sg2796
F1
sg2797
F4
sg2798
S'Increase Charisma'
p3198
sg2800
S'TRUE'
p3199
sbasg2802
I1
sg2803
F0
sg2798
g3186
sg2804
S'Rally Audience'
p3200
sbsS'PORKBARREL'
p3201
g1
(g10
g3
NtRp3202
(dp3203
g2772
F8
sg2773
S'Do something that benefits them specifically. Not advised against politicians.'
p3204
sg2775
I1
sg2776
F0
sg2777
F0
sg2778
S'Wit'
p3205
sg2780
S'AllEnemy'
p3206
sg2782
F4
sg2783
F2
sg2784
(lp3207
sg2802
I1
sg2803
F0
sg2798
g3201
sg2804
S'Pork Barrel'
p3208
sbsS'INSPIRE'
p3209
g1
(g10
g3
NtRp3210
(dp3211
g2772
F0
sg2773
S'asdf'
p3212
sg2775
I1
sg2776
F0
sg2777
F0
sg2778
S'Wit'
p3213
sg2780
S'AllFriendly'
p3214
sg2782
F0
sg2783
F3
sg2784
(lp3215
g2787
asg2802
I4
sg2803
F0
sg2798
g3209
sg2804
S'Inspire'
p3216
sbsS'JOKE'
p3217
g1
(g10
g3
NtRp3218
(dp3219
g2772
F5
sg2773
S"Ha, ha, ha...what were we talking about? Diffuse the situation with some humour. High chance of critical hit. Knock 'em dead!"
p3220
sg2775
F3
sg2776
F20
sg2777
F15
sg2778
S'Cunning'
p3221
sg2780
S'AllEnemy'
p3222
sg2782
F2
sg2783
I0
sg2784
(lp3223
sg2802
I1
sg2803
F12
sg2798
g3217
sg2804
S'Joke'
p3224
sbsS'PRAYFORSOULS'
p3225
g1
(g10
g3
NtRp3226
(dp3227
g2772
F6
sg2773
S'asdf'
p3228
sg2775
F2
sg2776
F10
sg2777
F2
sg2778
S'Cunning'
p3229
sg2780
S'None'
p3230
sg2782
F3
sg2783
I0
sg2784
(lp3231
sg2802
I1
sg2803
F10
sg2798
g3225
sg2804
S'Pray'
p3232
sbsS'REVIVE'
p3233
g1
(g10
g3
NtRp3234
(dp3235
g2772
F0
sg2773
S'Revive a defeated comrade to half votes'
p3236
sg2775
I1
sg2776
F0
sg2777
F0
sg2778
S''
sg2780
S'DeadFriendly'
p3237
sg2782
F0
sg2783
F5
sg2784
(lp3238
g1
(g2786
g3
NtRp3239
(dp3240
g2789
S'revive'
p3241
sg2791
S''
sg2793
S''
sg2795
F0.5
sg2796
F0
sg2797
F0
sg2798
S'Revive'
p3242
sg2800
S''
sbasg2802
I1
sg2803
F0
sg2798
g3233
sg2804
S'Revive'
p3243
sbsS'HUMANSHIELD'
p3244
g1
(g10
g3
NtRp3245
(dp3246
g2772
F8
sg2773
S'No further questions. Step back, please.'
p3247
sg2775
I1
sg2776
F5
sg2777
F2
sg2778
S'Wit'
p3248
sg2780
S'AllEnemy'
p3249
sg2782
F4
sg2783
F4
sg2784
(lp3250
g3038
asg2802
I2
sg2803
F11
sg2798
g3244
sg2804
S'Human Shield'
p3251
sbsS'MAKEDEMANDS'
p3252
g1
(g10
g3
NtRp3253
(dp3254
g2772
F8
sg2773
S'asdf'
p3255
sg2775
I1
sg2776
F0
sg2777
F0
sg2778
S'Cunning'
p3256
sg2780
S'AllEnemy'
p3257
sg2782
F0
sg2783
I0
sg2784
(lp3258
g2821
asg2802
I1
sg2803
F0
sg2798
g3252
sg2804
S'Make Outrageous Demands'
p3259
sbsS'DEFENSE'
p3260
g1
(g10
g3
NtRp3261
(dp3262
g2772
F0
sg2773
S'Gather strenth; -50% to all incoming attacks'
p3263
sg2775
I1
sg2776
F0
sg2777
F0
sg2778
S''
sg2780
S'None'
p3264
sg2782
F0
sg2783
I0
sg2784
(lp3265
g1
(g2786
g3
NtRp3266
(dp3267
g2789
S'add'
p3268
sg2791
S'(DFND)'
p3269
sg2793
S'resistance'
p3270
sg2795
F0.5
sg2796
F1
sg2797
F1
sg2798
S'Defense'
p3271
sg2800
S'TRUE'
p3272
sbasg2802
I1
sg2803
F0
sg2798
g3260
sg2804
S'Defense'
p3273
sbsS'MISCONSTRUE'
p3274
g1
(g10
g3
NtRp3275
(dp3276
g2772
F8
sg2773
S'asdf'
p3277
sg2775
I1
sg2776
F0
sg2777
F0
sg2778
S'Cunning'
p3278
sg2780
S'AllEnemy'
p3279
sg2782
F0
sg2783
I0
sg2784
(lp3280
g2821
asg2802
I1
sg2803
F0
sg2798
g3274
sg2804
S'Misconstrue'
p3281
sbsS'NATIONALSECURITY'
p3282
g1
(g10
g3
NtRp3283
(dp3284
g2772
F7
sg2773
S"This is a matter of national security and they don't have codeword clearance"
p3285
sg2775
I1
sg2776
F10
sg2777
F2
sg2778
S'Cunning'
p3286
sg2780
S'AllEnemy'
p3287
sg2782
F2
sg2783
I0
sg2784
(lp3288
sg2802
I1
sg2803
F9
sg2798
g3282
sg2804
S'National Security'
p3289
sbsS'RALLY'
p3290
g1
(g10
g3
NtRp3291
(dp3292
g2772
F0
sg2773
S'Get back some votes by rallying supporters'
p3293
sg2775
I1
sg2776
F0
sg2777
F0
sg2778
S'Wit'
p3294
sg2780
S'AllFriendly'
p3295
sg2782
F0
sg2783
F3
sg2784
(lp3296
g1
(g2786
g3
NtRp3297
(dp3298
g2789
S'add_permanent'
p3299
sg2791
S''
sg2793
S'votes'
p3300
sg2795
F20
sg2796
F1
sg2797
F1
sg2798
S'Votes Restore Rally'
p3301
sg2800
S''
sbasg2802
I1
sg2803
F0
sg2798
g3290
sg2804
S'Rally Constituents'
p3302
sbsS'MESSAGE'
p3303
g1
(g10
g3
NtRp3304
(dp3305
g2772
F6
sg2773
S'You can certainly wear them down by repeating your party line over and over and over...if you want'
p3306
sg2775
F6
sg2776
F10
sg2777
F5
sg2778
S'Cunning'
p3307
sg2780
S'AllEnemy'
p3308
sg2782
F3
sg2783
I0
sg2784
(lp3309
sg2802
I1
sg2803
F10
sg2798
g3303
sg2804
S'Stay On Message'
p3310
sbsS'APPEALTOGOD'
p3311
g1
(g10
g3
NtRp3312
(dp3313
g2772
F10
sg2773
S'asdf'
p3314
sg2775
F3
sg2776
F5
sg2777
F2
sg2778
S'Wit'
p3315
sg2780
S'AllEnemy'
p3316
sg2782
F4
sg2783
F7
sg2784
(lp3317
sg2802
I4
sg2803
F13
sg2798
g3311
sg2804
S'Appeal To God'
p3318
sbssS'levels'
p3319
(lp3320
g1
(g10
g3
NtRp3321
(dp3322
S'votes'
p3323
F20
sS'level'
p3324
F1
sS'spin'
p3325
F5
sS'xp'
p3326
F0
sS'skill_points'
p3327
F0
sbag1
(g10
g3
NtRp3328
(dp3329
g3323
F12
sg3324
F2
sg3325
F5
sg3326
F100
sg3327
F2
sbag1
(g10
g3
NtRp3330
(dp3331
g3323
F15
sg3324
F3
sg3325
F6
sg3326
F200
sg3327
F2
sbag1
(g10
g3
NtRp3332
(dp3333
g3323
F20
sg3324
F4
sg3325
F6
sg3326
F500
sg3327
F2
sbag1
(g10
g3
NtRp3334
(dp3335
g3323
F25
sg3324
F5
sg3325
F7
sg3326
F1000
sg3327
F2
sbag1
(g10
g3
NtRp3336
(dp3337
g3323
F30
sg3324
F6
sg3325
F7
sg3326
F2000
sg3327
F2
sbag1
(g10
g3
NtRp3338
(dp3339
g3323
F35
sg3324
F7
sg3325
F8
sg3326
F5000
sg3327
F2
sbag1
(g10
g3
NtRp3340
(dp3341
g3323
F40
sg3324
F8
sg3325
F8
sg3326
F10000
sg3327
F2
sbag1
(g10
g3
NtRp3342
(dp3343
g3323
F45
sg3324
F9
sg3325
F9
sg3326
F15000
sg3327
F2
sbag1
(g10
g3
NtRp3344
(dp3345
g3323
F50
sg3324
F10
sg3325
F9
sg3326
F20000
sg3327
F2
sbag1
(g10
g3
NtRp3346
(dp3347
g3323
F55
sg3324
F11
sg3325
F10
sg3326
F40000
sg3327
F2
sbag1
(g10
g3
NtRp3348
(dp3349
g3323
S''
sg3324
F12
sg3325
S''
sg3326
S''
sg3327
S''
sbag1
(g10
g3
NtRp3350
(dp3351
g3323
S''
sg3324
F13
sg3325
S''
sg3326
S''
sg3327
S''
sbag1
(g10
g3
NtRp3352
(dp3353
g3323
S''
sg3324
F14
sg3325
S''
sg3326
S''
sg3327
S''
sbag1
(g10
g3
NtRp3354
(dp3355
g3323
S''
sg3324
F15
sg3325
S''
sg3326
S''
sg3327
S''
sbag1
(g10
g3
NtRp3356
(dp3357
g3323
S''
sg3324
F16
sg3325
S''
sg3326
S''
sg3327
S''
sbag1
(g10
g3
NtRp3358
(dp3359
g3323
S''
sg3324
F17
sg3325
S''
sg3326
S''
sg3327
S''
sbag1
(g10
g3
NtRp3360
(dp3361
g3323
S''
sg3324
F18
sg3325
S''
sg3326
S''
sg3327
S''
sbag1
(g10
g3
NtRp3362
(dp3363
g3323
S''
sg3324
F19
sg3325
S''
sg3326
S''
sg3327
S''
sbag1
(g10
g3
NtRp3364
(dp3365
g3323
S''
sg3324
F20
sg3325
S''
sg3326
S''
sg3327
S''
sbag1
(g10
g3
NtRp3366
(dp3367
g3323
S''
sg3324
F21
sg3325
S''
sg3326
S''
sg3327
S''
sbag1
(g10
g3
NtRp3368
(dp3369
g3323
S''
sg3324
F22
sg3325
S''
sg3326
S''
sg3327
S''
sbag1
(g10
g3
NtRp3370
(dp3371
g3323
S''
sg3324
F23
sg3325
S''
sg3326
S''
sg3327
S''
sbag1
(g10
g3
NtRp3372
(dp3373
g3323
S''
sg3324
F24
sg3325
S''
sg3326
S''
sg3327
S''
sbag1
(g10
g3
NtRp3374
(dp3375
g3323
S''
sg3324
F25
sg3325
S''
sg3326
S''
sg3327
S''
sbag1
(g10
g3
NtRp3376
(dp3377
g3323
S''
sg3324
F26
sg3325
S''
sg3326
S''
sg3327
S''
sbag1
(g10
g3
NtRp3378
(dp3379
g3323
S''
sg3324
F27
sg3325
S''
sg3326
S''
sg3327
S''
sbag1
(g10
g3
NtRp3380
(dp3381
g3323
S''
sg3324
F28
sg3325
S''
sg3326
S''
sg3327
S''
sbag1
(g10
g3
NtRp3382
(dp3383
g3323
S''
sg3324
F29
sg3325
S''
sg3326
S''
sg3327
S''
sbasg2784
(dp3384
g2799
g2787
sg2894
g2890
sg2969
g2965
sg3198
g3193
sg3042
g3038
sg2983
g2979
sg3162
g3158
sg3176
g3172
sg3103
g3099
sg3242
g3239
sg2949
g2944
sg2997
g2992
sg3271
g3266
sg2825
g2821
sg2840
g2835
sg3301
g3297
ssS'characters'
p3385
(dp3386
S'Teacher001'
p3387
(lp3388
g1
(g10
g3
NtRp3389
(dp3390
S'flair_base'
p3391
F1
sS'spin_base'
p3392
F4
sS'flair_lvl'
p3393
F1.1499999999999999
sS'wit_base'
p3394
F1
sS'resistance'
p3395
(lp3396
sS'wit_lvl'
p3397
F1.0900000000000001
sS'cunning_base'
p3398
F1
sg2798
g3387
sS'votes_base'
p3399
F10
sS'speed_lvl'
p3400
F1.0800000000000001
sS'standard_attacks'
p3401
(lp3402
g3261
ag3008
asS'cunning_lvl'
p3403
F1.1000000000000001
sS'charisma_lvl'
p3404
F1.1499999999999999
sS'spin_attacks'
p3405
(lp3406
g3106
ag3093
asS'spin_lvl'
p3407
F1.0800000000000001
sS'charisma_base'
p3408
F1
sS'weaknesses'
p3409
(lp3410
sS'attack_group'
p3411
S'Teacher'
p3412
sS'votes_lvl'
p3413
F1.2
sg2804
S'Teacher'
p3414
sS'speed_base'
p3415
F1
sS'immunities'
p3416
(lp3417
sbasS'Politician001'
p3418
(lp3419
g1
(g10
g3
NtRp3420
(dp3421
g3391
F1
sg3392
F4
sg3393
F1.1499999999999999
sg3394
F1
sg3395
(lp3422
g2815
asg3397
F1.0900000000000001
sg3398
F1
sg2798
g3418
sg3399
F10
sg3400
F1.0800000000000001
sg3401
(lp3423
g3304
ag3114
ag2815
ag3218
ag3261
asg3403
F1.1000000000000001
sg3404
F1.1499999999999999
sg3405
(lp3424
g3145
ag2930
ag3234
asg3407
F1.0800000000000001
sg3408
F1
sg3409
(lp3425
g2898
asg3411
S'Politician'
p3426
sg3413
F1.2
sg2804
S'Politician'
p3427
sg3415
F1
sg3416
(lp3428
g3202
asbasS'SecretAgent'
p3429
(lp3430
g1
(g10
g3
NtRp3431
(dp3432
g3391
F1
sg3392
F4
sg3393
F1.1499999999999999
sg3394
F1
sg3395
(lp3433
sg3397
F1.0900000000000001
sg3398
F1
sg2798
g3429
sg3399
F18
sg3400
F1.0800000000000001
sg3401
(lp3434
g3261
ag3283
ag3069
asg3403
F1.1000000000000001
sg3404
F1.1499999999999999
sg3405
(lp3435
g3245
ag3045
asg3407
F1.0800000000000001
sg3408
F1
sg3409
(lp3436
sg3411
S'SecretAgent'
p3437
sg3413
F1.2
sg2804
S'Agent Kawalski'
p3438
sg3415
F1
sg3416
(lp3439
sbasS'Bumpkin001'
p3440
(lp3441
g1
(g10
g3
NtRp3442
(dp3443
g3391
F1
sg3392
F4
sg3393
F1.1499999999999999
sg3394
F1
sg3395
(lp3444
sg3397
F1.0900000000000001
sg3398
F1
sg2798
g3440
sg3399
F10
sg3400
F1.0800000000000001
sg3401
(lp3445
g3218
ag2952
asg3403
F1.1000000000000001
sg3404
F1.1499999999999999
sg3405
(lp3446
g2914
ag3016
asg3407
F1.0800000000000001
sg3408
F1
sg3409
(lp3447
g2815
ag3114
ag3000
asg3411
S'Bumpkin'
p3448
sg3413
F1.2
sg2804
S'Bumpkin'
p3449
sg3415
F1
sg3416
(lp3450
sbasS'WarVet001'
p3451
(lp3452
g1
(g10
g3
NtRp3453
(dp3454
g3391
F1
sg3392
F4
sg3393
F1.1499999999999999
sg3394
F1
sg3395
(lp3455
sg3397
F1.0900000000000001
sg3398
F1
sg2798
g3451
sg3399
F10
sg3400
F1.0800000000000001
sg3401
(lp3456
g3253
ag3261
asg3403
F1.1000000000000001
sg3404
F1.1499999999999999
sg3405
(lp3457
g3210
ag3093
asg3407
F1.0800000000000001
sg3408
F1
sg3409
(lp3458
sg3411
S'WarVet'
p3459
sg3413
F1.2
sg2804
S'War Veteran'
p3460
sg3415
F1
sg3416
(lp3461
sbasS'Receptionist001'
p3462
(lp3463
g1
(g10
g3
NtRp3464
(dp3465
g3391
F1
sg3392
F4
sg3393
F1.1499999999999999
sg3394
F1
sg3395
(lp3466
sg3397
F1.0900000000000001
sg3398
F1
sg2798
g3462
sg3399
F8
sg3400
F1.0800000000000001
sg3401
(lp3467
g3179
ag3122
asg3403
F1.1000000000000001
sg3404
F1.1499999999999999
sg3405
(lp3468
g3130
ag2884
asg3407
F1.0800000000000001
sg3408
F0
sg3409
(lp3469
sg3411
S'Receptionist'
p3470
sg3413
F1.2
sg2804
S'Receptionist'
p3471
sg3415
F1
sg3416
(lp3472
sbasS'DeepThroat'
p3473
(lp3474
g1
(g10
g3
NtRp3475
(dp3476
g3391
F1
sg3392
F4
sg3393
F1.1499999999999999
sg3394
F1
sg3395
(lp3477
sg3397
F1.0900000000000001
sg3398
F1
sg2798
g3473
sg3399
F10
sg3400
F1.0800000000000001
sg3401
(lp3478
g3114
ag3261
ag3253
asg3403
F1.1000000000000001
sg3404
F1.1499999999999999
sg3405
(lp3479
g2986
asg3407
F1.0800000000000001
sg3408
F1
sg3409
(lp3480
sg3411
S'DeepThroat'
p3481
sg3413
F1.2
sg2804
S'Mr Er...?'
p3482
sg3415
F1
sg3416
(lp3483
sbasS'Leo'
p3484
(lp3485
g1
(g10
g3
NtRp3486
(dp3487
g3391
F1
sg3392
F4
sg3393
F1.1499999999999999
sg3394
F1
sg3395
(lp3488
sg3397
F1.0900000000000001
sg3398
F1
sg2798
g3484
sg3399
F14
sg3400
F1.0800000000000001
sg3401
(lp3489
g3304
ag3114
ag2815
ag3218
ag2898
asg3403
F1.1000000000000001
sg3404
F1.1499999999999999
sg3405
(lp3490
g3145
ag2930
ag3202
ag3032
asg3407
F1.0800000000000001
sg3408
F1
sg3409
(lp3491
sg3411
S'Theo'
p3492
sg3413
F1.2
sg2804
S'Theo'
p3493
sg3415
F1
sg3416
(lp3494
sbasS'HippyGirl001'
p3495
(lp3496
g1
(g10
g3
NtRp3497
(dp3498
g3391
F1
sg3392
F4
sg3393
F1.1499999999999999
sg3394
F1
sg3395
(lp3499
sg3397
F1.0900000000000001
sg3398
F1
sg2798
g3495
sg3399
F10
sg3400
F1.0800000000000001
sg3401
(lp3500
g2906
ag3008
ag3053
asg3403
F1.1000000000000001
sg3404
F1.1499999999999999
sg3405
(lp3501
g3077
ag3093
ag3234
asg3407
F1.0800000000000001
sg3408
F1
sg3409
(lp3502
g3218
asg3411
S'Hippy'
p3503
sg3413
F1.2
sg2804
S'Hippy Girl'
p3504
sg3415
F1
sg3416
(lp3505
sbasS'President'
p3506
(lp3507
g1
(g10
g3
NtRp3508
(dp3509
g3391
F1
sg3392
F4
sg3393
F1.1499999999999999
sg3394
F1
sg3395
(lp3510
sg3397
F1.0900000000000001
sg3398
F1
sg2798
g3506
sg3399
F10
sg3400
F1.0800000000000001
sg3401
(lp3511
g3304
ag3114
ag2815
ag3218
ag3261
asg3403
F1.1000000000000001
sg3404
F1.1499999999999999
sg3405
(lp3512
g3145
ag2930
ag3234
asg3407
F1.0800000000000001
sg3408
F1
sg3409
(lp3513
sg3411
S'Politician'
p3514
sg3413
F1.2
sg2804
S'President Allen'
p3515
sg3415
F1
sg3416
(lp3516
sbasS'Unionist001'
p3517
(lp3518
g1
(g10
g3
NtRp3519
(dp3520
g3391
F1
sg3392
F4
sg3393
F1.1499999999999999
sg3394
F1
sg3395
(lp3521
sg3397
F1.0900000000000001
sg3398
F1
sg2798
g3517
sg3399
F10
sg3400
F1.0800000000000001
sg3401
(lp3522
g3253
ag3261
ag3008
asg3403
F1.1000000000000001
sg3404
F1.1499999999999999
sg3405
(lp3523
g3106
asg3407
F1.0800000000000001
sg3408
F1
sg3409
(lp3524
sg3411
S'Unionist'
p3525
sg3413
F1.2
sg2804
S'Unionist'
p3526
sg3415
F1
sg3416
(lp3527
sbasS'Wife'
p3528
(lp3529
g1
(g10
g3
NtRp3530
(dp3531
g3391
F1
sg3392
F4
sg3393
F1.1499999999999999
sg3394
F1
sg3395
(lp3532
sg3397
F1.0900000000000001
sg3398
F1
sg2798
g3528
sg3399
F12
sg3400
F1.0800000000000001
sg3401
(lp3533
g3304
ag2815
ag3218
ag3261
asg3403
F1.1000000000000001
sg3404
F1.1499999999999999
sg3405
(lp3534
g3291
ag3234
ag2938
asg3407
F1.0800000000000001
sg3408
F1
sg3409
(lp3535
sg3411
S'Wife'
p3536
sg3413
F1.2
sg2804
S'Sarah Mossman'
p3537
sg3415
F1
sg3416
(lp3538
sbasS'PresidentAlien'
p3539
(lp3540
g1
(g10
g3
NtRp3541
(dp3542
g3391
F1
sg3392
F4
sg3393
F1.1499999999999999
sg3394
F1
sg3395
(lp3543
sg3397
F1.0900000000000001
sg3398
F1
sg2798
g3539
sg3399
F10
sg3400
F1.0800000000000001
sg3401
(lp3544
g3304
ag3114
ag2815
ag3218
ag3261
asg3403
F1.1000000000000001
sg3404
F1.1499999999999999
sg3405
(lp3545
g3145
ag2930
ag3234
asg3407
F1.0800000000000001
sg3408
F1
sg3409
(lp3546
sg3411
S'Politician'
p3547
sg3413
F1.2
sg2804
S'President Alien'
p3548
sg3415
F1
sg3416
(lp3549
sbasS'Governor'
p3550
(lp3551
g1
(g10
g3
NtRp3552
(dp3553
g3391
F1
sg3392
F4
sg3393
F1.1499999999999999
sg3394
F1
sg3395
(lp3554
sg3397
F1.0900000000000001
sg3398
F1
sg2798
g3550
sg3399
F10
sg3400
F1.0800000000000001
sg3401
(lp3555
g3304
ag3114
ag2815
ag3218
ag3261
asg3403
F1.1000000000000001
sg3404
F1.1499999999999999
sg3405
(lp3556
g3145
ag2930
ag3234
asg3407
F1.0800000000000001
sg3408
F1
sg3409
(lp3557
sg3411
S'Politician'
p3558
sg3413
F1.2
sg2804
g3550
sg3415
F1
sg3416
(lp3559
sbasS'Lobbyist001'
p3560
(lp3561
g1
(g10
g3
NtRp3562
(dp3563
g3391
F1
sg3392
F4
sg3393
F1.1499999999999999
sg3394
F1
sg3395
(lp3564
sg3397
F1.0900000000000001
sg3398
F1
sg2798
g3560
sg3399
F10
sg3400
F1.0800000000000001
sg3401
(lp3565
g3024
ag3253
asg3403
F1.1000000000000001
sg3404
F1.1499999999999999
sg3405
(lp3566
g3166
ag2986
asg3407
F1.0800000000000001
sg3408
F1
sg3409
(lp3567
g3202
asg3411
S'Lobbyist'
p3568
sg3413
F1.2
sg2804
S'Lobbyist'
p3569
sg3415
F1
sg3416
(lp3570
g2898
asbasS'Journalist001'
p3571
(lp3572
g1
(g10
g3
NtRp3573
(dp3574
g3391
F1
sg3392
F4
sg3393
F1.1499999999999999
sg3394
F1
sg3395
(lp3575
sg3397
F1.0900000000000001
sg3398
F1
sg2798
g3571
sg3399
F10
sg3400
F1.0800000000000001
sg3401
(lp3576
g2868
ag3275
asg3403
F1.1000000000000001
sg3404
F1.1499999999999999
sg3405
(lp3577
g3061
ag2770
ag2844
asg3407
F1.0800000000000001
sg3408
F1
sg3409
(lp3578
sg3411
S'Journalist'
p3579
sg3413
F1.2
sg2804
S'Journalist'
p3580
sg3415
F1
sg3416
(lp3581
sbasS'ReligiousNut001'
p3582
(lp3583
g1
(g10
g3
NtRp3584
(dp3585
g3391
F1
sg3392
F4
sg3393
F1.1499999999999999
sg3394
F1
sg3395
(lp3586
sg3397
F1.0900000000000001
sg3398
F1
sg2798
g3582
sg3399
F10
sg3400
F1.0800000000000001
sg3401
(lp3587
g2852
ag3226
ag3261
asg3403
F1.1000000000000001
sg3404
F1.1499999999999999
sg3405
(lp3588
g3312
ag2973
asg3407
F1.0800000000000001
sg3408
F1
sg3409
(lp3589
sg3411
S'Religious'
p3590
sg3413
F1.2
sg2804
S'Religious Nut'
p3591
sg3415
F1
sg3416
(lp3592
g3218
asbasS'JointChief001'
p3593
(lp3594
g1
(g10
g3
NtRp3595
(dp3596
g3391
F1
sg3392
F4
sg3393
F1.1499999999999999
sg3394
F1
sg3395
(lp3597
sg3397
F1.0900000000000001
sg3398
F1
sg2798
g3593
sg3399
F10
sg3400
F1.0800000000000001
sg3401
(lp3598
g3253
ag3261
ag3283
ag2922
asg3403
F1.1000000000000001
sg3404
F1.1499999999999999
sg3405
(lp3599
g3045
asg3407
F1.0800000000000001
sg3408
F1
sg3409
(lp3600
sg3411
S'JointChief'
p3601
sg3413
F1.2
sg2804
S'Joint Chief'
p3602
sg3415
F1
sg3416
(lp3603
sbasS'Protester001'
p3604
(lp3605
g1
(g10
g3
NtRp3606
(dp3607
g3391
F0.5
sg3392
F4
sg3393
F1.1000000000000001
sg3394
F1
sg3395
(lp3608
g3218
asg3397
F1.01
sg3398
F1
sg2798
g3604
sg3399
F8
sg3400
F1.01
sg3401
(lp3609
g3008
ag2860
ag2906
asg3403
F1.01
sg3404
F1.1000000000000001
sg3405
(lp3610
g3093
asg3407
F1.01
sg3408
F1
sg3409
(lp3611
sg3411
S'Protestor'
p3612
sg3413
F1.01
sg2804
S'Protester'
p3613
sg3415
F1
sg3416
(lp3614
sbasS'TVPersonality001'
p3615
(lp3616
g1
(g10
g3
NtRp3617
(dp3618
g3391
F1
sg3392
F4
sg3393
F1.1499999999999999
sg3394
F1
sg3395
(lp3619
sg3397
F1.0900000000000001
sg3398
F1
sg2798
g3615
sg3399
F10
sg3400
F1.0800000000000001
sg3401
(lp3620
g3218
ag2868
asg3403
F1.1000000000000001
sg3404
F1.1499999999999999
sg3405
(lp3621
g2844
ag2829
asg3407
F1.0800000000000001
sg3408
F1
sg3409
(lp3622
sg3411
S'TVPersonality'
p3623
sg3413
F1.2
sg2804
S"Hecules O'Grady"
p3624
sg3415
F1
sg3416
(lp3625
sbasS'Player'
p3626
(lp3627
g1
(g10
g3
NtRp3628
(dp3629
g3391
F1
sg3392
F5
sg3393
F1.1499999999999999
sg3394
F1
sg3395
(lp3630
sg3397
F1.0900000000000001
sg3398
F1
sg2798
g3626
sg3399
F15
sg3400
F1.0800000000000001
sg3401
(lp3631
g3304
ag2815
ag3218
asg3403
F1.1000000000000001
sg3404
F1.1499999999999999
sg3405
(lp3632
g2930
asg3407
F1.0800000000000001
sg3408
F1
sg3409
(lp3633
sg3411
S'Player'
p3634
sg3413
F1.2
sg2804
S'Phillip Mossman'
p3635
sg3415
F2
sg3416
(lp3636
sbasS'Computer'
p3637
(lp3638
g1
(g10
g3
NtRp3639
(dp3640
g3391
F1
sg3392
F4
sg3393
F1.1499999999999999
sg3394
F1
sg3395
(lp3641
sg3397
F1.0900000000000001
sg3398
F1
sg2798
g3637
sg3399
F10
sg3400
F1.0800000000000001
sg3401
(lp3642
g3304
ag3114
ag2815
ag3218
ag3261
asg3403
F1.1000000000000001
sg3404
F1.1499999999999999
sg3405
(lp3643
g3145
ag2930
ag3234
asg3407
F1.0800000000000001
sg3408
F1
sg3409
(lp3644
sg3411
S'Politician'
p3645
sg3413
F1.2
sg2804
S'N.O.T.B.A.D'
p3646
sg3415
F1
sg3416
(lp3647
sbasS'CabinetPolitician001'
p3648
(lp3649
g1
(g10
g3
NtRp3650
(dp3651
g3391
F1
sg3392
F4
sg3393
F1.1499999999999999
sg3394
F1
sg3395
(lp3652
sg3397
F1.0900000000000001
sg3398
F1
sg2798
g3648
sg3399
F10
sg3400
F1.0800000000000001
sg3401
(lp3653
g3304
ag3114
ag2815
ag3218
ag3261
asg3403
F1.1000000000000001
sg3404
F1.1499999999999999
sg3405
(lp3654
g3145
ag2930
ag3234
asg3407
F1.0800000000000001
sg3408
F1
sg3409
(lp3655
sg3411
S'Politician'
p3656
sg3413
F1.2
sg2804
S'Cabinet Politician'
p3657
sg3415
F1
sg3416
(lp3658
sbasS'Constituent001'
p3659
(lp3660
g1
(g10
g3
NtRp3661
(dp3662
g3391
F1
sg3392
F4
sg3393
F1.1499999999999999
sg3394
F1
sg3395
(lp3663
sg3397
F1.0900000000000001
sg3398
F1
sg2798
g3659
sg3399
F10
sg3400
F1.0800000000000001
sg3401
(lp3664
g3008
ag3024
ag3253
asg3403
F1.1000000000000001
sg3404
F1.1499999999999999
sg3405
(lp3665
g3234
asg3407
F1.0800000000000001
sg3408
F1
sg3409
(lp3666
sg3411
S'Constituent'
p3667
sg3413
F1.2
sg2804
S'Constituent'
p3668
sg3415
F1
sg3416
(lp3669
sbasS'Mayor'
p3670
(lp3671
g1
(g10
g3
NtRp3672
(dp3673
g3391
F1
sg3392
F4
sg3393
F1.1499999999999999
sg3394
F1
sg3395
(lp3674
sg3397
F1.0900000000000001
sg3398
F1
sg2798
g3670
sg3399
F10
sg3400
F1.0800000000000001
sg3401
(lp3675
g3304
ag3114
ag2815
ag3218
ag3261
asg3403
F1.1000000000000001
sg3404
F1.1499999999999999
sg3405
(lp3676
g3145
ag2930
ag3234
asg3407
F1.0800000000000001
sg3408
F1
sg3409
(lp3677
sg3411
S'Politician'
p3678
sg3413
F1.2
sg2804
S'Mayor Goodman'
p3679
sg3415
F1
sg3416
(lp3680
sbassS'quest_items'
p3681
(dp3682
S'PEN'
p3683
g1
(g10
g3
NtRp3684
(dp3685
g2773
S''
sg2798
g3683
sg2804
S'A pen'
p3686
sbsS'SOUTHWINGDOORKEY'
p3687
g1
(g10
g3
NtRp3688
(dp3689
g2773
S'It looks old.'
p3690
sg2798
g3687
sg2804
S'Key to the South Wing'
p3691
sbsS'INCRIMINATINGEVIDENCE'
p3692
g1
(g10
g3
NtRp3693
(dp3694
g2773
S'Very incriminating proof that something troubling is going on in the White House.'
p3695
sg2798
g3692
sg2804
S'Incriminating Evidence'
p3696
sbsS'BILLOFRIGHTS'
p3697
g1
(g10
g3
NtRp3698
(dp3699
g2773
S''
sg2798
g3697
sg2804
S"Citizens' Bill of Rights"
p3700
sbssg3401
(dp3701
S'Theo'
p3702
(lp3703
g3304
ag3114
ag2815
ag3218
ag2898
ag3145
ag2930
ag3202
ag3032
asS'JointChief'
p3704
(lp3705
g3253
ag3261
ag3283
ag3045
ag2922
asS'Politician'
p3706
(lp3707
g3304
ag3114
ag2815
ag3218
ag3145
ag2930
ag3234
ag3261
asS'Bumpkin'
p3708
(lp3709
g3218
ag2914
ag3016
ag2952
asS'Wife'
p3710
(lp3711
g3304
ag2815
ag3218
ag3291
ag3234
ag3261
ag2938
asS'Lobbyist'
p3712
(lp3713
g3024
ag3166
ag2986
ag3253
asS'DeepThroat'
p3714
(lp3715
g3114
ag3261
ag2986
ag3253
asS'Protestor'
p3716
(lp3717
g3093
ag3008
ag2860
ag2906
asS'SecretAgent'
p3718
(lp3719
g3261
ag3245
ag3283
ag3045
ag3069
asS'Teacher'
p3720
(lp3721
g3106
ag3261
ag3008
ag3093
asS'Player'
p3722
(lp3723
g3304
ag2815
ag3218
ag2930
asS'Computer'
p3724
(lp3725
g3045
ag3283
ag2876
ag2986
ag3253
ag3114
asS'Receptionist'
p3726
(lp3727
g3179
ag3122
ag3130
ag2884
asS'Hippy'
p3728
(lp3729
g2906
ag3008
ag3053
ag3077
ag3093
ag3234
asS'Constituent'
p3730
(lp3731
g3008
ag3234
ag3024
ag3253
asS'TVPersonality'
p3732
(lp3733
g3218
ag2844
ag2868
ag2829
asS'WarVet'
p3734
(lp3735
g3253
ag3261
ag3210
ag3093
asS'Religious'
p3736
(lp3737
g2852
ag3312
ag2973
ag3226
ag3261
asS'Unionist'
p3738
(lp3739
g3253
ag3261
ag3008
ag3106
asS'Journalist'
p3740
(lp3741
g2868
ag3275
ag3061
ag2770
ag2844
assS'shops'
p3742
(dp3743
sS'encounters'
p3744
(dp3745
S'P-hard-14'
p3746
g1
(g10
g3
NtRp3747
(dp3748
S'item_attack_drops'
p3749
(lp3750
sS'item_attacks'
p3751
(lp3752
sg2804
S''
sg3326
F25
sS'monster2_lvl'
p3753
S''
sS'bribe_cost'
p3754
F50
sS'monster3'
p3755
S''
sS'monster1_lvl'
p3756
F2
sS'monster3_lvl'
p3757
S''
sS'monster4_lvl'
p3758
S''
sS'monster4'
p3759
S''
sS'monster2'
p3760
S''
sg2798
g3746
sS'monster1'
p3761
S'Computer'
p3762
sbsS'P-hard-11'
p3763
g1
(g10
g3
NtRp3764
(dp3765
g3749
(lp3766
sg3751
(lp3767
sg2804
S''
sg3326
F25
sg3753
F2
sg3754
F50
sg3755
S'JointChief001'
p3768
sg3756
F2
sg3757
F2
sg3758
S''
sg3759
S''
sg3760
S'JointChief001'
p3769
sg2798
g3763
sg3761
S'JointChief001'
p3770
sbsS'P-hard-10'
p3771
g1
(g10
g3
NtRp3772
(dp3773
g3749
(lp3774
sg3751
(lp3775
sg2804
S''
sg3326
F25
sg3753
F2
sg3754
F50
sg3755
S'CabinetPolitician001'
p3776
sg3756
F2
sg3757
F2
sg3758
F2
sg3759
S'CabinetPolitician001'
p3777
sg3760
S'CabinetPolitician001'
p3778
sg2798
g3771
sg3761
S'CabinetPolitician001'
p3779
sbsS'P-hard-13'
p3780
g1
(g10
g3
NtRp3781
(dp3782
g3749
(lp3783
sg3751
(lp3784
sg2804
S''
sg3326
F25
sg3753
F2
sg3754
F50
sg3755
S'JointChief001'
p3785
sg3756
F2
sg3757
F2
sg3758
F2
sg3759
S'JointChief001'
p3786
sg3760
S'JointChief001'
p3787
sg2798
g3780
sg3761
S'JointChief001'
p3788
sbsS'P-hard-12'
p3789
g1
(g10
g3
NtRp3790
(dp3791
g3749
(lp3792
sg3751
(lp3793
sg2804
S''
sg3326
F25
sg3753
F2
sg3754
F50
sg3755
S'JointChief001'
p3794
sg3756
F2
sg3757
F2
sg3758
S''
sg3759
S''
sg3760
S'JointChief001'
p3795
sg2798
g3789
sg3761
S'JointChief001'
p3796
sbsS'P-easy-05'
p3797
g1
(g10
g3
NtRp3798
(dp3799
g3749
(lp3800
g1
(c__main__
ItemAttack
p3801
g3
NtRp3802
(dp3803
S'attack'
p3804
g3085
sS'quantity'
p3805
I1
sbasg3751
(lp3806
sg2804
S''
sg3326
F25
sg3753
S''
sg3754
F50
sg3755
S''
sg3756
F2
sg3757
S''
sg3758
S''
sg3759
S''
sg3760
S''
sg2798
g3797
sg3761
S'Journalist001'
p3807
sbsS'P-easy-04'
p3808
g1
(g10
g3
NtRp3809
(dp3810
g3749
(lp3811
g1
(g3801
g3
NtRp3812
(dp3813
g3804
g2960
sg3805
I1
sbasg3751
(lp3814
sg2804
S''
sg3326
F30
sg3753
F1
sg3754
F50
sg3755
S''
sg3756
F1
sg3757
S''
sg3758
S''
sg3759
S''
sg3760
S'Protester001'
p3815
sg2798
g3808
sg3761
S'Protester001'
p3816
sbsS'P-easy-07'
p3817
g1
(g10
g3
NtRp3818
(dp3819
g3749
(lp3820
g1
(g3801
g3
NtRp3821
(dp3822
g3804
g2960
sg3805
I1
sbasg3751
(lp3823
sg2804
S''
sg3326
F25
sg3753
S''
sg3754
F50
sg3755
S''
sg3756
F2
sg3757
S''
sg3758
S''
sg3759
S''
sg3760
S''
sg2798
g3817
sg3761
S'Constituent001'
p3824
sbsS'P-easy-06'
p3825
g1
(g10
g3
NtRp3826
(dp3827
g3749
(lp3828
g1
(g3801
g3
NtRp3829
(dp3830
g3804
g3234
sg3805
I1
sbasg3751
(lp3831
sg2804
S''
sg3326
F25
sg3753
F2
sg3754
F50
sg3755
S''
sg3756
F2
sg3757
S''
sg3758
S''
sg3759
S''
sg3760
S'Lobbyist001'
p3832
sg2798
g3825
sg3761
S'Lobbyist001'
p3833
sbsS'P-easy-01'
p3834
g1
(g10
g3
NtRp3835
(dp3836
g3749
(lp3837
g1
(g3801
g3
NtRp3838
(dp3839
g3804
g3153
sg3805
I1
sbasg3751
(lp3840
g1
(g3801
g3
NtRp3841
(dp3842
g3804
g3085
sg3805
I1
sbasg2804
S'The quest for pen'
p3843
sg3326
F10
sg3753
S''
sg3754
F50
sg3755
S''
sg3756
F1
sg3757
S''
sg3758
S''
sg3759
S''
sg3760
S''
sg2798
g3834
sg3761
S'Receptionist001'
p3844
sbsS'P-easy-03'
p3845
g1
(g10
g3
NtRp3846
(dp3847
g3749
(lp3848
g1
(g3801
g3
NtRp3849
(dp3850
g3804
g3153
sg3805
I1
sbasg3751
(lp3851
g1
(g3801
g3
NtRp3852
(dp3853
g3804
g3085
sg3805
I1
sbasg2804
S''
sg3326
F30
sg3753
F1
sg3754
F50
sg3755
S''
sg3756
F1
sg3757
S''
sg3758
S''
sg3759
S''
sg3760
S'Protester001'
p3854
sg2798
g3845
sg3761
S'Protester001'
p3855
sbsS'P-easy-02'
p3856
g1
(g10
g3
NtRp3857
(dp3858
g3749
(lp3859
sg3751
(lp3860
sg2804
S''
sg3326
F30
sg3753
F1
sg3754
F50
sg3755
S''
sg3756
F1
sg3757
S''
sg3758
S''
sg3759
S''
sg3760
S'Protester001'
p3861
sg2798
g3856
sg3761
S'Protester001'
p3862
sbsS'P-easy-09'
p3863
g1
(g10
g3
NtRp3864
(dp3865
g3749
(lp3866
g1
(g3801
g3
NtRp3867
(dp3868
g3804
g3153
sg3805
I1
sbasg3751
(lp3869
sg2804
S''
sg3326
F25
sg3753
F2
sg3754
F50
sg3755
S'Constituent001'
p3870
sg3756
F2
sg3757
F2
sg3758
S''
sg3759
S''
sg3760
S'Constituent001'
p3871
sg2798
g3863
sg3761
S'Constituent001'
p3872
sbsS'P-easy-08'
p3873
g1
(g10
g3
NtRp3874
(dp3875
g3749
(lp3876
sg3751
(lp3877
sg2804
S''
sg3326
F25
sg3753
F2
sg3754
F50
sg3755
S''
sg3756
F2
sg3757
S''
sg3758
S''
sg3759
S''
sg3760
S'Constituent001'
p3878
sg2798
g3873
sg3761
S'Constituent001'
p3879
sbsS'P-hard-08'
p3880
g1
(g10
g3
NtRp3881
(dp3882
g3749
(lp3883
sg3751
(lp3884
sg2804
S''
sg3326
F25
sg3753
F2
sg3754
F50
sg3755
S'CabinetPolitician001'
p3885
sg3756
F2
sg3757
F2
sg3758
S''
sg3759
S''
sg3760
S'CabinetPolitician001'
p3886
sg2798
g3880
sg3761
S'CabinetPolitician001'
p3887
sbsS'P-hard-09'
p3888
g1
(g10
g3
NtRp3889
(dp3890
g3749
(lp3891
sg3751
(lp3892
sg2804
S''
sg3326
F25
sg3753
F2
sg3754
F50
sg3755
S'CabinetPolitician001'
p3893
sg3756
F2
sg3757
F2
sg3758
F2
sg3759
S'CabinetPolitician001'
p3894
sg3760
S'CabinetPolitician001'
p3895
sg2798
g3888
sg3761
S'CabinetPolitician001'
p3896
sbsS'P-med-08'
p3897
g1
(g10
g3
NtRp3898
(dp3899
g3749
(lp3900
sg3751
(lp3901
sg2804
S''
sg3326
F25
sg3753
F2
sg3754
F50
sg3755
S'Politician001'
p3902
sg3756
F2
sg3757
F2
sg3758
S''
sg3759
S''
sg3760
S'Politician001'
p3903
sg2798
g3897
sg3761
S'Politician001'
p3904
sbsS'P-med-09'
p3905
g1
(g10
g3
NtRp3906
(dp3907
g3749
(lp3908
sg3751
(lp3909
sg2804
S''
sg3326
F25
sg3753
F2
sg3754
F50
sg3755
S'Politician001'
p3910
sg3756
F2
sg3757
F2
sg3758
S''
sg3759
S''
sg3760
S'ReligiousNut001'
p3911
sg2798
g3905
sg3761
S'Politician001'
p3912
sbsS'P-med-02'
p3913
g1
(g10
g3
NtRp3914
(dp3915
g3749
(lp3916
sg3751
(lp3917
sg2804
S''
sg3326
F25
sg3753
F2
sg3754
F50
sg3755
S''
sg3756
F2
sg3757
S''
sg3758
S''
sg3759
S''
sg3760
S'Politician001'
p3918
sg2798
g3913
sg3761
S'Politician001'
p3919
sbsS'P-med-03'
p3920
g1
(g10
g3
NtRp3921
(dp3922
g3749
(lp3923
sg3751
(lp3924
sg2804
S''
sg3326
F25
sg3753
F2
sg3754
F50
sg3755
S''
sg3756
F2
sg3757
S''
sg3758
S''
sg3759
S''
sg3760
S'Bumpkin001'
p3925
sg2798
g3920
sg3761
S'Bumpkin001'
p3926
sbsS'P-med-01'
p3927
g1
(g10
g3
NtRp3928
(dp3929
g3749
(lp3930
sg3751
(lp3931
sg2804
S''
sg3326
F25
sg3753
F2
sg3754
F50
sg3755
S''
sg3756
F2
sg3757
S''
sg3758
S''
sg3759
S''
sg3760
S'Politician001'
p3932
sg2798
g3927
sg3761
S'Politician001'
p3933
sbsS'P-med-06'
p3934
g1
(g10
g3
NtRp3935
(dp3936
g3749
(lp3937
sg3751
(lp3938
sg2804
S''
sg3326
F25
sg3753
F2
sg3754
F50
sg3755
S'Politician001'
p3939
sg3756
F2
sg3757
F2
sg3758
S''
sg3759
S''
sg3760
S'Governor'
p3940
sg2798
g3934
sg3761
S'Politician001'
p3941
sbsS'P-med-07'
p3942
g1
(g10
g3
NtRp3943
(dp3944
g3749
(lp3945
sg3751
(lp3946
sg2804
S''
sg3326
F25
sg3753
F2
sg3754
F50
sg3755
S''
sg3756
F2
sg3757
S''
sg3758
S''
sg3759
S''
sg3760
S'Journalist001'
p3947
sg2798
g3942
sg3761
S'Politician001'
p3948
sbsS'P-med-04'
p3949
g1
(g10
g3
NtRp3950
(dp3951
g3749
(lp3952
sg3751
(lp3953
sg2804
S''
sg3326
F25
sg3753
F2
sg3754
F50
sg3755
S'Bumpkin001'
p3954
sg3756
F2
sg3757
F2
sg3758
S''
sg3759
S''
sg3760
S'Bumpkin001'
p3955
sg2798
g3949
sg3761
S'Bumpkin001'
p3956
sbsS'P-med-05'
p3957
g1
(g10
g3
NtRp3958
(dp3959
g3749
(lp3960
sg3751
(lp3961
sg2804
S''
sg3326
F25
sg3753
F2
sg3754
F50
sg3755
S'Politician001'
p3962
sg3756
F2
sg3757
F2
sg3758
S''
sg3759
S''
sg3760
S'Journalist001'
p3963
sg2798
g3957
sg3761
S'Journalist001'
p3964
sbsS'P-med-24'
p3965
g1
(g10
g3
NtRp3966
(dp3967
g3749
(lp3968
sg3751
(lp3969
sg2804
S''
sg3326
F25
sg3753
F2
sg3754
F50
sg3755
S'Politician001'
p3970
sg3756
F2
sg3757
F2
sg3758
S''
sg3759
S''
sg3760
S'PresidentAlien'
p3971
sg2798
g3965
sg3761
S'Politician001'
p3972
sbsS'P-med-20'
p3973
g1
(g10
g3
NtRp3974
(dp3975
g3749
(lp3976
sg3751
(lp3977
sg2804
S''
sg3326
F25
sg3753
F2
sg3754
F50
sg3755
S'Journalist001'
p3978
sg3756
F2
sg3757
F2
sg3758
S''
sg3759
S''
sg3760
S'TVPersonality001'
p3979
sg2798
g3973
sg3761
S'Journalist001'
p3980
sbsS'P-med-21'
p3981
g1
(g10
g3
NtRp3982
(dp3983
g3749
(lp3984
sg3751
(lp3985
sg2804
S''
sg3326
F25
sg3753
F2
sg3754
F50
sg3755
S'Politician001'
p3986
sg3756
F2
sg3757
F2
sg3758
S''
sg3759
S''
sg3760
S'President'
p3987
sg2798
g3981
sg3761
S'Politician001'
p3988
sbsS'P-med-22'
p3989
g1
(g10
g3
NtRp3990
(dp3991
g3749
(lp3992
sg3751
(lp3993
sg2804
S''
sg3326
F25
sg3753
F2
sg3754
F50
sg3755
S''
sg3756
F2
sg3757
S''
sg3758
S''
sg3759
S''
sg3760
S'DeepThroat'
p3994
sg2798
g3989
sg3761
S'DeepThroat'
p3995
sbsS'P-med-23'
p3996
g1
(g10
g3
NtRp3997
(dp3998
g3749
(lp3999
sg3751
(lp4000
sg2804
S''
sg3326
F25
sg3753
F2
sg3754
F50
sg3755
S'Politician001'
p4001
sg3756
F2
sg3757
F2
sg3758
F2
sg3759
S'Politician001'
p4002
sg3760
S'President'
p4003
sg2798
g3996
sg3761
S'Politician001'
p4004
sbsS'P-hard-06'
p4005
g1
(g10
g3
NtRp4006
(dp4007
g3749
(lp4008
sg3751
(lp4009
sg2804
S''
sg3326
F25
sg3753
F2
sg3754
F50
sg3755
S'Teacher001'
p4010
sg3756
F2
sg3757
F2
sg3758
S''
sg3759
S''
sg3760
S'Teacher001'
p4011
sg2798
g4005
sg3761
S'Teacher001'
p4012
sbsS'P-hard-07'
p4013
g1
(g10
g3
NtRp4014
(dp4015
g3749
(lp4016
sg3751
(lp4017
sg2804
S''
sg3326
F25
sg3753
F2
sg3754
F50
sg3755
S'Teacher001'
p4018
sg3756
F2
sg3757
F2
sg3758
F2
sg3759
S'Teacher001'
p4019
sg3760
S'Teacher001'
p4020
sg2798
g4013
sg3761
S'Teacher001'
p4021
sbsS'P-hard-04'
p4022
g1
(g10
g3
NtRp4023
(dp4024
g3749
(lp4025
sg3751
(lp4026
sg2804
S''
sg3326
F25
sg3753
F2
sg3754
F50
sg3755
S'WarVet001'
p4027
sg3756
F2
sg3757
F2
sg3758
S''
sg3759
S''
sg3760
S'WarVet001'
p4028
sg2798
g4022
sg3761
S'WarVet001'
p4029
sbsS'P-hard-05'
p4030
g1
(g10
g3
NtRp4031
(dp4032
g3749
(lp4033
sg3751
(lp4034
sg2804
S''
sg3326
F25
sg3753
F2
sg3754
F50
sg3755
S'WarVet001'
p4035
sg3756
F2
sg3757
F2
sg3758
F2
sg3759
S'WarVet001'
p4036
sg3760
S'WarVet001'
p4037
sg2798
g4030
sg3761
S'WarVet001'
p4038
sbsS'P-hard-02'
p4039
g1
(g10
g3
NtRp4040
(dp4041
g3749
(lp4042
sg3751
(lp4043
sg2804
S''
sg3326
F25
sg3753
F2
sg3754
F50
sg3755
S'Journalist001'
p4044
sg3756
F2
sg3757
F2
sg3758
S''
sg3759
S''
sg3760
S'TVPersonality001'
p4045
sg2798
g4039
sg3761
S'Journalist001'
p4046
sbsS'P-hard-03'
p4047
g1
(g10
g3
NtRp4048
(dp4049
g3749
(lp4050
sg3751
(lp4051
sg2804
S''
sg3326
F25
sg3753
F2
sg3754
F50
sg3755
S'Journalist001'
p4052
sg3756
F2
sg3757
F2
sg3758
S''
sg3759
S''
sg3760
S'Journalist001'
p4053
sg2798
g4047
sg3761
S'TVPersonality001'
p4054
sbsS'P-hard-01'
p4055
g1
(g10
g3
NtRp4056
(dp4057
g3749
(lp4058
sg3751
(lp4059
sg2804
S''
sg3326
F25
sg3753
F2
sg3754
F50
sg3755
S'Journalist001'
p4060
sg3756
F2
sg3757
F2
sg3758
S''
sg3759
S''
sg3760
S'Journalist001'
p4061
sg2798
g4055
sg3761
S'Journalist001'
p4062
sbsS'P-easy-10'
p4063
g1
(g10
g3
NtRp4064
(dp4065
g3749
(lp4066
sg3751
(lp4067
sg2804
S''
sg3326
F25
sg3753
F2
sg3754
F50
sg3755
S'Politician001'
p4068
sg3756
F2
sg3757
F2
sg3758
S''
sg3759
S''
sg3760
S'Mayor'
p4069
sg2798
g4063
sg3761
S'Politician001'
p4070
sbsS'P-med-19'
p4071
g1
(g10
g3
NtRp4072
(dp4073
g3749
(lp4074
sg3751
(lp4075
sg2804
S''
sg3326
F25
sg3753
F2
sg3754
F50
sg3755
S''
sg3756
F2
sg3757
S''
sg3758
S''
sg3759
S''
sg3760
S'DeepThroat'
p4076
sg2798
g4071
sg3761
S'DeepThroat'
p4077
sbsS'P-med-18'
p4078
g1
(g10
g3
NtRp4079
(dp4080
g3749
(lp4081
sg3751
(lp4082
sg2804
S''
sg3326
F25
sg3753
F2
sg3754
F50
sg3755
S'ReligiousNut001'
p4083
sg3756
F2
sg3757
F2
sg3758
F2
sg3759
S'ReligiousNut001'
p4084
sg3760
S'ReligiousNut001'
p4085
sg2798
g4078
sg3761
S'ReligiousNut001'
p4086
sbsS'P-med-15'
p4087
g1
(g10
g3
NtRp4088
(dp4089
g3749
(lp4090
sg3751
(lp4091
sg2804
S''
sg3326
F25
sg3753
F2
sg3754
F50
sg3755
S''
sg3756
F2
sg3757
S''
sg3758
S''
sg3759
S''
sg3760
S'ReligiousNut001'
p4092
sg2798
g4087
sg3761
S'ReligiousNut001'
p4093
sbsS'P-med-14'
p4094
g1
(g10
g3
NtRp4095
(dp4096
g3749
(lp4097
sg3751
(lp4098
sg2804
S''
sg3326
F25
sg3753
F2
sg3754
F50
sg3755
S'Lobbyist001'
p4099
sg3756
F2
sg3757
F2
sg3758
F2
sg3759
S'Lobbyist001'
p4100
sg3760
S'Lobbyist001'
p4101
sg2798
g4094
sg3761
S'Lobbyist001'
p4102
sbsS'P-med-17'
p4103
g1
(g10
g3
NtRp4104
(dp4105
g3749
(lp4106
sg3751
(lp4107
sg2804
S''
sg3326
F25
sg3753
F2
sg3754
F50
sg3755
S'ReligiousNut001'
p4108
sg3756
F2
sg3757
F2
sg3758
S''
sg3759
S''
sg3760
S'ReligiousNut001'
p4109
sg2798
g4103
sg3761
S'ReligiousNut001'
p4110
sbsS'P-med-16'
p4111
g1
(g10
g3
NtRp4112
(dp4113
g3749
(lp4114
sg3751
(lp4115
sg2804
S''
sg3326
F25
sg3753
F2
sg3754
F50
sg3755
S'ReligiousNut001'
p4116
sg3756
F2
sg3757
F2
sg3758
S''
sg3759
S''
sg3760
S'ReligiousNut001'
p4117
sg2798
g4111
sg3761
S'ReligiousNut001'
p4118
sbsS'P-med-11'
p4119
g1
(g10
g3
NtRp4120
(dp4121
g3749
(lp4122
sg3751
(lp4123
sg2804
S''
sg3326
F25
sg3753
F2
sg3754
F50
sg3755
S'Politician001'
p4124
sg3756
F2
sg3757
F2
sg3758
F2
sg3759
S'Politician001'
p4125
sg3760
S'Politician001'
p4126
sg2798
g4119
sg3761
S'Politician001'
p4127
sbsS'P-med-10'
p4128
g1
(g10
g3
NtRp4129
(dp4130
g3749
(lp4131
sg3751
(lp4132
sg2804
S''
sg3326
F25
sg3753
F2
sg3754
F50
sg3755
S'ReligiousNut001'
p4133
sg3756
F2
sg3757
F2
sg3758
S''
sg3759
S''
sg3760
S'Politician001'
p4134
sg2798
g4128
sg3761
S'Politician001'
p4135
sbsS'P-med-13'
p4136
g1
(g10
g3
NtRp4137
(dp4138
g3749
(lp4139
sg3751
(lp4140
sg2804
S''
sg3326
F25
sg3753
F2
sg3754
F50
sg3755
S'Lobbyist001'
p4141
sg3756
F2
sg3757
F2
sg3758
S''
sg3759
S''
sg3760
S'Lobbyist001'
p4142
sg2798
g4136
sg3761
S'Lobbyist001'
p4143
sbsS'P-med-12'
p4144
g1
(g10
g3
NtRp4145
(dp4146
g3749
(lp4147
sg3751
(lp4148
sg2804
S''
sg3326
F25
sg3753
F2
sg3754
F50
sg3755
S'Lobbyist001'
p4149
sg3756
F2
sg3757
F2
sg3758
S''
sg3759
S''
sg3760
S'Lobbyist001'
p4150
sg2798
g4144
sg3761
S'Lobbyist001'
p4151
sbssb.