ccopy_reg
_reconstructor
p1
(c__main__
GameData
p2
c__builtin__
object
p3
NtRp4
(dp5
S'script'
p6
(dp7
S'#----------------------------------------------------------------------------------------ACT 3 ----------------------------------------------------------------------------------------------------------------------------------------------------------------------------------------'
p8
(lp9
g1
(c__main__
TableRow
p10
g3
NtRp11
(dp12
S'action'
p13
S''
sS'trigger'
p14
g8
sS'param'
p15
S''
sS'dialog'
p16
S''
sbasS'Hick1'
p17
(lp18
g1
(g10
g3
NtRp19
(dp20
g13
S'RequireFlag'
p21
sg14
g17
sg15
S'STARTHICKS'
p22
sg16
S"Look at this guy's fancy tie!"
p23
sbag1
(g10
g3
NtRp24
(dp25
g13
S'PlayerSay'
p26
sg14
S'Hick1'
p27
sg15
S''
sg16
S'What brings you to the office of the governor?'
p28
sbag1
(g10
g3
NtRp29
(dp30
g13
S'Say'
p31
sg14
S'Hick1'
p32
sg15
S''
sg16
S'The immigrants!'
p33
sbag1
(g10
g3
NtRp34
(dp35
g13
S'PlayerSay'
p36
sg14
S'Hick1'
p37
sg15
S''
sg16
S'What happened?'
p38
sbag1
(g10
g3
NtRp39
(dp40
g13
S'Say'
p41
sg14
S'Hick1'
p42
sg15
S'Hick2'
p43
sg16
S"They're coming!"
p44
sbag1
(g10
g3
NtRp45
(dp46
g13
S'PlayerSay'
p47
sg14
S'Hick1'
p48
sg15
S''
sg16
S'The...immigrants are coming?'
p49
sbag1
(g10
g3
NtRp50
(dp51
g13
S'Say'
p52
sg14
S'Hick1'
p53
sg15
S'Hick2'
p54
sg16
S'Yes, to steal our jobs and our wives!'
p55
sbag1
(g10
g3
NtRp56
(dp57
g13
S'Say'
p58
sg14
S'Hick1'
p59
sg15
S''
sg16
S'They have to be stopped!'
p60
sbag1
(g10
g3
NtRp61
(dp62
g13
S'PlayerSay'
p63
sg14
S'Hick1'
p64
sg15
S''
sg16
S"I don't think the immigrants are coming to steal your wives..."
p65
sbag1
(g10
g3
NtRp66
(dp67
g13
S'Say'
p68
sg14
S'Hick1'
p69
sg15
S'Journalist2'
p70
sg16
S'Mayor Mossman sides with the immigrants! I need to get this to print!'
p71
sbag1
(g10
g3
NtRp72
(dp73
g13
S'PlayerSay'
p74
sg14
S'Hick1'
p75
sg15
S''
sg16
S'Wait a second, let me explain.'
p76
sbag1
(g10
g3
NtRp77
(dp78
g13
S'Encounter'
p79
sg14
S'Hick1'
p80
sg15
S'P-med-03'
p81
sg16
S''
sbag1
(g10
g3
NtRp82
(dp83
g13
S'Say'
p84
sg14
S'Hick1'
p85
sg15
S''
sg16
S"You're a smart guy. I think I can trust you."
p86
sbag1
(g10
g3
NtRp87
(dp88
g13
S'SetFlag'
p89
sg14
S'Hick1'
p90
sg15
S'STARTHICKS2'
p91
sg16
S''
sbag1
(g10
g3
NtRp92
(dp93
g13
S'Increment'
p94
sg14
S'Hick1'
p95
sg15
S'DEALWITHHICKS'
p96
sg16
S''
sbag1
(g10
g3
NtRp97
(dp98
g13
S'Destroy'
p99
sg14
S'Hick1'
p100
sg15
S''
sg16
S''
sbasS'Hick2'
p101
(lp102
g1
(g10
g3
NtRp103
(dp104
g13
S'RequireFlag'
p105
sg14
g101
sg15
S'STARTHICKS2'
p106
sg16
S"Aw....I'm shy...talk to my buddy..."
p107
sbag1
(g10
g3
NtRp108
(dp109
g13
S'Encounter'
p110
sg14
S'Hick2'
p111
sg15
S'P-med-04'
p112
sg16
S''
sbag1
(g10
g3
NtRp113
(dp114
g13
S'Say'
p115
sg14
S'Hick2'
p116
sg15
S''
sg16
S"Wowee. We've been waiting for days and the governor has ignored us. If you ever run for governor, you'll have my vote!"
p117
sbag1
(g10
g3
NtRp118
(dp119
g13
S'Increment'
p120
sg14
S'Hick2'
p121
sg15
S'DEALWITHHICKS'
p122
sg16
S''
sbag1
(g10
g3
NtRp123
(dp124
g13
S'Destroy'
p125
sg14
S'Hick2'
p126
sg15
S''
sg16
S''
sbasS'Cabinet1'
p127
(lp128
g1
(g10
g3
NtRp129
(dp130
g13
S'Say'
p131
sg14
g127
sg15
S''
sg16
S'Good afternoon, Mr President. How can I help?'
p132
sbag1
(g10
g3
NtRp133
(dp134
g13
S'PlayerSay'
p135
sg14
S'Cabinet1'
p136
sg15
S''
sg16
S'I want to know where the orders to mobilise the military and reallocate education funds came from.'
p137
sbag1
(g10
g3
NtRp138
(dp139
g13
S'Say'
p140
sg14
S'Cabinet1'
p141
sg15
S''
sg16
S'But...it came from you, sir. They were both faxed over to me this afternoon.'
p142
sbag1
(g10
g3
NtRp143
(dp144
g13
S'PlayerSay'
p145
sg14
S'Cabinet1'
p146
sg15
S''
sg16
S'Tell me every detail.'
p147
sbag1
(g10
g3
NtRp148
(dp149
g13
S'Encounter'
p150
sg14
S'Cabinet1'
p151
sg15
S'P-hard-08'
p152
sg16
S''
sbag1
(g10
g3
NtRp153
(dp154
g13
S'Increment'
p155
sg14
S'Cabinet1'
p156
sg15
S'CABINETMEMBERS'
p157
sg16
S''
sbag1
(g10
g3
NtRp158
(dp159
g13
S'Say'
p160
sg14
S'Cabinet1'
p161
sg15
S''
sg16
S'I cannot understand how this could happen.'
p162
sbag1
(g10
g3
NtRp163
(dp164
g13
S'Destroy'
p165
sg14
S'Cabinet1'
p166
sg15
S''
sg16
S''
sbasS'Politician7'
p167
(lp168
g1
(g10
g3
NtRp169
(dp170
g13
S'RequireFlag'
p171
sg14
g167
sg15
S'STARTPOLITICIANSHAKEDOWN'
p172
sg16
S'Good morning, Governor Mossman. Your PA will know your schedule. He is waiting in your room.'
p173
sbag1
(g10
g3
NtRp174
(dp175
g13
S'Say'
p176
sg14
S'Politician7'
p177
sg15
S''
sg16
S"I believe in captialism. Let business sort itself out. They shouldn't need to rely on government handouts."
p178
sbag1
(g10
g3
NtRp179
(dp180
g13
S'Say'
p181
sg14
S'Politician7'
p182
sg15
S''
sg16
S'Also, I think politicians need a raise. Some more than others...oh and life-long retainers.'
p183
sbag1
(g10
g3
NtRp184
(dp185
g13
S'PlayerSay'
p186
sg14
S'Politician7'
p187
sg15
S''
sg16
S'So, no more hand-outs for business but more handouts for politicians?'
p188
sbag1
(g10
g3
NtRp189
(dp190
g13
S'Say'
p191
sg14
S'Politician7'
p192
sg15
S''
sg16
S'Yes!'
p193
sbag1
(g10
g3
NtRp194
(dp195
g13
S'PlayerSay'
p196
sg14
S'Politician7'
p197
sg15
S''
sg16
S'Does that serve your constituents?'
p198
sbag1
(g10
g3
NtRp199
(dp200
g13
S'Say'
p201
sg14
S'Politician7'
p202
sg15
S''
sg16
S'...It serves...some...'
p203
sbag1
(g10
g3
NtRp204
(dp205
g13
S'Encounter'
p206
sg14
S'Politician7'
p207
sg15
S'P-med-11'
p208
sg16
S''
sbag1
(g10
g3
NtRp209
(dp210
g13
S'Say'
p211
sg14
S'Politician7'
p212
sg15
S''
sg16
S'Right, I guess we need to handle the needs of our constituents, too.'
p213
sbag1
(g10
g3
NtRp214
(dp215
g13
S'Increment'
p216
sg14
S'Politician7'
p217
sg15
S'POLITICIANSHAKEDOWN'
p218
sg16
S''
sbag1
(g10
g3
NtRp219
(dp220
g13
S'Destroy'
p221
sg14
S'Politician7'
p222
sg15
S''
sg16
S''
sbasS'TVDebate'
p223
(lp224
g1
(g10
g3
NtRp225
(dp226
g13
S'RequireFlag'
p227
sg14
g223
sg15
S'STARTDEBATE'
p228
sg16
S"Hmmm? Oh, sorry, I'm on the phone to the studio."
p229
sbag1
(g10
g3
NtRp230
(dp231
g13
S'Say'
p232
sg14
S'TVDebate'
p233
sg15
S''
sg16
S"Good evening, Governor Mossman. If you'll follow me, I'll take you to the studio."
p234
sbag1
(g10
g3
NtRp235
(dp236
g13
S'Encounter'
p237
sg14
S'TVDebate'
p238
sg15
S'P-med-21'
p239
sg16
S''
sbag1
(g10
g3
NtRp240
(dp241
g13
S'Say'
p242
sg14
S'TVDebate'
p243
sg15
S''
sg16
S'Great work tonight, Governor Mossman and congratulations on the win!'
p244
sbag1
(g10
g3
NtRp245
(dp246
g13
S'SetFlag'
p247
sg14
S'TVDebate'
p248
sg15
S'DEBATECOMPLETE'
p249
sg16
S''
sbag1
(g10
g3
NtRp250
(dp251
g13
S'Destroy'
p252
sg14
S'TVDebate'
p253
sg15
S''
sg16
S''
sbasS'Lobbyist2'
p254
(lp255
g1
(g10
g3
NtRp256
(dp257
g13
S'RequireFlag'
p258
sg14
g254
sg15
S'STARTLOBBYISTS'
p259
sg16
S'Humph'
p260
sbag1
(g10
g3
NtRp261
(dp262
g13
S'Say'
p263
sg14
S'Lobbyist2'
p264
sg15
S''
sg16
S'I represent the Python Software Foundation. What will you do to promote, protect and advance the Python programming language.'
p265
sbag1
(g10
g3
NtRp266
(dp267
g13
S'PlayerSay'
p268
sg14
S'Lobbyist2'
p269
sg15
S''
sg16
S"Ah yes, the Python cause! I'm a big advocate of Python."
p270
sbag1
(g10
g3
NtRp271
(dp272
g13
S'Encounter'
p273
sg14
S'Lobbyist2'
p274
sg15
S'P-med-12'
p275
sg16
S''
sbag1
(g10
g3
NtRp276
(dp277
g13
S'Increment'
p278
sg14
S'Lobbyist2'
p279
sg15
S'LOBBYISTS'
p280
sg16
S''
sbag1
(g10
g3
NtRp281
(dp282
g13
S'Say'
p283
sg14
S'Lobbyist2'
p284
sg15
S''
sg16
S'I think we can help each other out.'
p285
sbag1
(g10
g3
NtRp286
(dp287
g13
S'Destroy'
p288
sg14
S'Lobbyist2'
p289
sg15
S''
sg16
S''
sbasS'CheatAct2'
p290
(lp291
g1
(g10
g3
NtRp292
(dp293
g13
S'AddAlly'
p294
sg14
g290
sg15
S'Wife:1'
p295
sg16
S''
sbag1
(g10
g3
NtRp296
(dp297
g13
S'LearnAttack'
p298
sg14
S'CheatAct2'
p299
sg15
S'BRIBE'
p300
sg16
S''
sbag1
(g10
g3
NtRp301
(dp302
g13
S'LearnAttack'
p303
sg14
S'CheatAct2'
p304
sg15
S'Wife:BRIBE'
p305
sg16
S''
sbag1
(g10
g3
NtRp306
(dp307
g13
S'LearnAttack'
p308
sg14
S'CheatAct2'
p309
sg15
S'SLANDER'
p310
sg16
S''
sbag1
(g10
g3
NtRp311
(dp312
g13
S'GotoMap'
p313
sg14
S'CheatAct2'
p314
sg15
S'act2'
p315
sg16
S''
sbasS'CheatAct3'
p316
(lp317
g1
(g10
g3
NtRp318
(dp319
g13
S'AddAlly'
p320
sg14
g316
sg15
S'Wife:1'
p321
sg16
S''
sbag1
(g10
g3
NtRp322
(dp323
g13
S'LearnAttack'
p324
sg14
S'CheatAct3'
p325
sg15
S'BRIBE'
p326
sg16
S''
sbag1
(g10
g3
NtRp327
(dp328
g13
S'LearnAttack'
p329
sg14
S'CheatAct3'
p330
sg15
S'Wife:BRIBE'
p331
sg16
S''
sbag1
(g10
g3
NtRp332
(dp333
g13
S'LearnAttack'
p334
sg14
S'CheatAct3'
p335
sg15
S'SLANDER'
p336
sg16
S''
sbag1
(g10
g3
NtRp337
(dp338
g13
S'AddAlly'
p339
sg14
S'CheatAct3'
p340
sg15
S'Leo:1'
p341
sg16
S''
sbag1
(g10
g3
NtRp342
(dp343
g13
S'GotoMap'
p344
sg14
S'CheatAct3'
p345
sg15
S'act3'
p346
sg16
S''
sbasS'WarVet2'
p347
(lp348
g1
(g10
g3
NtRp349
(dp350
g13
S'RequireFlag'
p351
sg14
g347
sg15
S'AFTERWILFRED'
p352
sg16
S'Eh? Speak up, boy.'
p353
sbag1
(g10
g3
NtRp354
(dp355
g13
S'Encounter'
p356
sg14
S'WarVet2'
p357
sg15
S'P-hard-05'
p358
sg16
S''
sbag1
(g10
g3
NtRp359
(dp360
g13
S'Say'
p361
sg14
S'WarVet2'
p362
sg15
S''
sg16
S"We'll head home, but you can expect us back if we see anything else suspicious ."
p363
sbag1
(g10
g3
NtRp364
(dp365
g13
S'Increment'
p366
sg14
S'WarVet2'
p367
sg15
S'WARVETS'
p368
sg16
S''
sbag1
(g10
g3
NtRp369
(dp370
g13
S'Destroy'
p371
sg14
S'WarVet2'
p372
sg15
S''
sg16
S''
sbasS'WarVet1'
p373
(lp374
g1
(g10
g3
NtRp375
(dp376
g13
S'Say'
p377
sg14
g373
sg15
S''
sg16
S"You think you can fool me? I wasn't born yesterday, you know."
p378
sbag1
(g10
g3
NtRp379
(dp380
g13
S'PlayerSay'
p381
sg14
S'WarVet1'
p382
sg15
S''
sg16
S"I'm sorry, sir, but what seems to be the problem."
p383
sbag1
(g10
g3
NtRp384
(dp385
g13
S'Say'
p386
sg14
S'WarVet1'
p387
sg15
S''
sg16
S"You think I don't know a mobilising army when I see one? You're clearly readying for war and you think you don't even need to mention it to the people."
p388
sbag1
(g10
g3
NtRp389
(dp390
g13
S'Say'
p391
sg14
S'WarVet1'
p392
sg15
S'WarVet2'
p393
sg16
S"And don't forget that he's barely a cadet, Wilfred."
p394
sbag1
(g10
g3
NtRp395
(dp396
g13
S'Say'
p397
sg14
S'WarVet1'
p398
sg15
S''
sg16
S"Right you are, Arnold, You've barely set foot in this building and you're already leading us to war. Who do you think you're dealing with? We won't stand."
p399
sbag1
(g10
g3
NtRp400
(dp401
g13
S'Encounter'
p402
sg14
S'WarVet1'
p403
sg15
S'P-hard-04'
p404
sg16
S''
sbag1
(g10
g3
NtRp405
(dp406
g13
S'Say'
p407
sg14
S'WarVet1'
p408
sg15
S''
sg16
S"Seems like a flimsy excuse, you didn't know. Better get your troops in line if you want 'em to march, boy."
p409
sbag1
(g10
g3
NtRp410
(dp411
g13
S'Increment'
p412
sg14
S'WarVet1'
p413
sg15
S'WARVETS'
p414
sg16
S''
sbag1
(g10
g3
NtRp415
(dp416
g13
S'SetFlag'
p417
sg14
S'WarVet1'
p418
sg15
S'AFTERWILFRED'
p419
sg16
S''
sbag1
(g10
g3
NtRp420
(dp421
g13
S'Destroy'
p422
sg14
S'WarVet1'
p423
sg15
S''
sg16
S''
sbasS'Teacher2'
p424
(lp425
g1
(g10
g3
NtRp426
(dp427
g13
S'Say'
p428
sg14
g424
sg15
S''
sg16
S"You cannot gamble with the future, Mr President. Childrens' education is at stake!"
p429
sbag1
(g10
g3
NtRp430
(dp431
g13
S'PlayerSay'
p432
sg14
S'Teacher2'
p433
sg15
S''
sg16
S"I can assure you this isn't so..."
p434
sbag1
(g10
g3
NtRp435
(dp436
g13
S'Encounter'
p437
sg14
S'Teacher2'
p438
sg15
S'P-hard-07'
p439
sg16
S''
sbag1
(g10
g3
NtRp440
(dp441
g13
S'Say'
p442
sg14
S'Teacher2'
p443
sg15
S''
sg16
S'We will await a change from you government.'
p444
sbag1
(g10
g3
NtRp445
(dp446
g13
S'Increment'
p447
sg14
S'Teacher2'
p448
sg15
S'TEACHERS'
p449
sg16
S''
sbag1
(g10
g3
NtRp450
(dp451
g13
S'Destroy'
p452
sg14
S'Teacher2'
p453
sg15
S''
sg16
S''
sbasS'Kawalski'
p454
(lp455
g1
(g10
g3
NtRp456
(dp457
g13
S'Say'
p458
sg14
g454
sg15
S''
sg16
S'A pleasure to meet you, President Mossman. I am Agent Kawalski, your security detail.'
p459
sbag1
(g10
g3
NtRp460
(dp461
g13
S'PlayerSay'
p462
sg14
S'Kawalski'
p463
sg15
S''
sg16
S'Great to meet you, Agent Kawalski. What do I need to know?'
p464
sbag1
(g10
g3
NtRp465
(dp466
g13
S'Say'
p467
sg14
S'Kawalski'
p468
sg15
S''
sg16
S'Well actually, it does have to do with your security. Something terrible is happening at the White House.'
p469
sbag1
(g10
g3
NtRp470
(dp471
g13
S'PlayerSay'
p472
sg14
S'Kawalski'
p473
sg15
S''
sg16
S"If you're trying to warn me about the aliens, it's under control."
p474
sbag1
(g10
g3
NtRp475
(dp476
g13
S'Say'
p477
sg14
S'Kawalski'
p478
sg15
S''
sg16
S'No, no, this is different. I think somebody is trying to take over the White House.'
p479
sbag1
(g10
g3
NtRp480
(dp481
g13
S'PlayerSay'
p482
sg14
S'Kawalski'
p483
sg15
S''
sg16
S"Wouldn't we know?"
p484
sbag1
(g10
g3
NtRp485
(dp486
g13
S'Say'
p487
sg14
S'Kawalski'
p488
sg15
S''
sg16
S"It's too early for those kind of details. I just want you to keep your eyes open, Mr President."
p489
sbag1
(g10
g3
NtRp490
(dp491
g13
S'PlayerSay'
p492
sg14
S'Kawalski'
p493
sg15
S''
sg16
S'No problem.'
p494
sbag1
(g10
g3
NtRp495
(dp496
g13
S'Destroy'
p497
sg14
S'Kawalski'
p498
sg15
S''
sg16
S''
sbag1
(g10
g3
NtRp499
(dp500
g13
S'AddAlly'
p501
sg14
S'Kawalski'
p502
sg15
S'SecretAgent:1'
p503
sg16
S'Kawalski joins your political party!'
p504
sbag1
(g10
g3
NtRp505
(dp506
g13
S'SetFlag'
p507
sg14
S'Kawalski'
p508
sg15
S'KAWALSKIJOIN'
p509
sg16
S''
sbasS'Theo'
p510
(lp511
g1
(g10
g3
NtRp512
(dp513
g13
S'RequireFlag'
p514
sg14
g510
sg15
S'GOVERNORDEFEATED'
p515
sg16
S'The Governor is in the north wing.'
p516
sbag1
(g10
g3
NtRp517
(dp518
g13
S'Say'
p519
sg14
S'Theo'
p520
sg15
S''
sg16
S"You must be Governor Mossman. I am Theo. I've been looking for you, but I wanted to see how you handled Governor Badden"
p521
sbag1
(g10
g3
NtRp522
(dp523
g13
S'PlayerSay'
p524
sg14
S'Theo'
p525
sg15
S''
sg16
S'Hi Theo. Why have you been looking for me?'
p526
sbag1
(g10
g3
NtRp527
(dp528
g13
S'Say'
p529
sg14
S'Theo'
p530
sg15
S''
sg16
S"There's a lot going on in Ignited States politics and none of it is good. Somebody needs to get up there and find out what's going on."
p531
sbag1
(g10
g3
NtRp532
(dp533
g13
S'Say'
p534
sg14
S'Theo'
p535
sg15
S''
sg16
S"I couldn't be sure which side you were on, but your dealings with the Governor prove that you're not with them."
p536
sbag1
(g10
g3
NtRp537
(dp538
g13
S'PlayerSay'
p539
sg14
S'Theo'
p540
sg15
S''
sg16
S'It sounds like it goes all the way to the President of the Ignited States.'
p541
sbag1
(g10
g3
NtRp542
(dp543
g13
S'Say'
p544
sg14
S'Theo'
p545
sg15
S''
sg16
S"It does. That's why I've been looking for you. The only way to find out is to flush them out. There's only one way to flush out President Allen."
p546
sbag1
(g10
g3
NtRp547
(dp548
g13
S'PlayerSay'
p549
sg14
S'Theo'
p550
sg15
S''
sg16
S"How's that?"
p551
sbag1
(g10
g3
NtRp552
(dp553
g13
S'Say'
p554
sg14
S'Theo'
p555
sg15
S''
sg16
S"...I've been a campaign manager for 20 years and I've never seen a candidate as strong as you. I think you have what it takes to run for the presidency."
p556
sbag1
(g10
g3
NtRp557
(dp558
g13
S'Say'
p559
sg14
S'Theo'
p560
sg15
S''
sg16
S"That's why I was looking for you. I need somebody who has a shot at winning in order to get to President Allen. You have that shot."
p561
sbag1
(g10
g3
NtRp562
(dp563
g13
S'PlayerSay'
p564
sg14
S'Theo'
p565
sg15
S''
sg16
S"You really think I can win? Well...I want to follow this through to the end, so I'm in!"
p566
sbag1
(g10
g3
NtRp567
(dp568
g13
S'Say'
p569
sg14
S'Theo'
p570
sg15
S''
sg16
S"Great! There's a lot to get organised! We need to plan our election campaign!"
p571
sbag1
(g10
g3
NtRp572
(dp573
g13
S'Destroy'
p574
sg14
S'Theo'
p575
sg15
S''
sg16
S''
sbag1
(g10
g3
NtRp576
(dp577
g13
S'AddAlly'
p578
sg14
S'Theo'
p579
sg15
S'Leo:1'
p580
sg16
S''
sbag1
(g10
g3
NtRp581
(dp582
g13
S'Message'
p583
sg14
S'Theo'
p584
sg15
S''
sg16
S'Theo joins your political party!'
p585
sbasS'Religious4'
p586
(lp587
g1
(g10
g3
NtRp588
(dp589
g13
S'Say'
p590
sg14
g586
sg15
S''
sg16
S'Do not be swayed by the seductive powers of tea!'
p591
sbag1
(g10
g3
NtRp592
(dp593
g13
S'Encounter'
p594
sg14
S'Religious4'
p595
sg15
S'P-med-18'
p596
sg16
S''
sbag1
(g10
g3
NtRp597
(dp598
g13
S'Increment'
p599
sg14
S'Religious4'
p600
sg15
S'RELIGIOUSNUTS'
p601
sg16
S''
sbag1
(g10
g3
NtRp602
(dp603
g13
S'Say'
p604
sg14
S'Religious4'
p605
sg15
S''
sg16
S'The Battycan will be satisfied with this news.'
p606
sbag1
(g10
g3
NtRp607
(dp608
g13
S'Destroy'
p609
sg14
S'Religious4'
p610
sg15
S''
sg16
S''
sbasS'JointChief1'
p611
(lp612
g1
(g10
g3
NtRp613
(dp614
g13
S'Say'
p615
sg14
g611
sg15
S''
sg16
S'Mr President, what is going on here? First you move troops without our authority and then you countermand your own order?'
p616
sbag1
(g10
g3
NtRp617
(dp618
g13
S'PlayerSay'
p619
sg14
S'JointChief1'
p620
sg15
S''
sg16
S"I haven't ordered the military to do any such thing! What is going on? Is this a coup?"
p621
sbag1
(g10
g3
NtRp622
(dp623
g13
S'Say'
p624
sg14
S'JointChief1'
p625
sg15
S''
sg16
S'Not from us!'
p626
sbag1
(g10
g3
NtRp627
(dp628
g13
S'Encounter'
p629
sg14
S'JointChief1'
p630
sg15
S'P-hard-11'
p631
sg16
S''
sbag1
(g10
g3
NtRp632
(dp633
g13
S'Increment'
p634
sg14
S'JointChief1'
p635
sg15
S'JOINTCHIEFS'
p636
sg16
S''
sbag1
(g10
g3
NtRp637
(dp638
g13
S'PlayerSay'
p639
sg14
S'JointChief1'
p640
sg15
S''
sg16
S"Well, that's one less thing to worry about then."
p641
sbag1
(g10
g3
NtRp642
(dp643
g13
S'Destroy'
p644
sg14
S'JointChief1'
p645
sg15
S''
sg16
S''
sbasS'Religious1'
p646
(lp647
g1
(g10
g3
NtRp648
(dp649
g13
S'Say'
p650
sg14
g646
sg15
S''
sg16
S'Have you had your morning prayer?'
p651
sbag1
(g10
g3
NtRp652
(dp653
g13
S'Encounter'
p654
sg14
S'Religious1'
p655
sg15
S'P-med-16'
p656
sg16
S''
sbag1
(g10
g3
NtRp657
(dp658
g13
S'Increment'
p659
sg14
S'Religious1'
p660
sg15
S'RELIGIOUSNUTS'
p661
sg16
S''
sbag1
(g10
g3
NtRp662
(dp663
g13
S'Say'
p664
sg14
S'Religious1'
p665
sg15
S''
sg16
S'Some people pray upwards of 5 times a day, but this can cause hallucinations.'
p666
sbag1
(g10
g3
NtRp667
(dp668
g13
S'Destroy'
p669
sg14
S'Religious1'
p670
sg15
S''
sg16
S''
sbasS'Religious3'
p671
(lp672
g1
(g10
g3
NtRp673
(dp674
g13
S'Say'
p675
sg14
g671
sg15
S''
sg16
S'Mmmmmm...Coffee....ommmmm'
p676
sbag1
(g10
g3
NtRp677
(dp678
g13
S'Encounter'
p679
sg14
S'Religious3'
p680
sg15
S'P-med-17'
p681
sg16
S''
sbag1
(g10
g3
NtRp682
(dp683
g13
S'Increment'
p684
sg14
S'Religious3'
p685
sg15
S'RELIGIOUSNUTS'
p686
sg16
S''
sbag1
(g10
g3
NtRp687
(dp688
g13
S'Say'
p689
sg14
S'Religious3'
p690
sg15
S''
sg16
S'I must return to my meditation.'
p691
sbag1
(g10
g3
NtRp692
(dp693
g13
S'Destroy'
p694
sg14
S'Religious3'
p695
sg15
S''
sg16
S''
sbasS'Religious2'
p696
(lp697
g1
(g10
g3
NtRp698
(dp699
g13
S'Say'
p700
sg14
g696
sg15
S''
sg16
S'Welcome, my child. We have travelled here from Battycan City to be assured you are a man of faith before we endorse you.'
p701
sbag1
(g10
g3
NtRp702
(dp703
g13
S'PlayerSay'
p704
sg14
S'Religious2'
p705
sg15
S''
sg16
S'Er, what faith is that?'
p706
sbag1
(g10
g3
NtRp707
(dp708
g13
S'Say'
p709
sg14
S'Religious2'
p710
sg15
S''
sg16
S'Why, the one true god: Coffee.'
p711
sbag1
(g10
g3
NtRp712
(dp713
g13
S'PlayerSay'
p714
sg14
S'Religious2'
p715
sg15
S''
sg16
S'...Coffee?'
p716
sbag1
(g10
g3
NtRp717
(dp718
g13
S'Say'
p719
sg14
S'Religious2'
p720
sg15
S''
sg16
S"Yes of course. He who lifts you up when you're feeling low, who is your inspiration in the dark and who can achieve miraculous feats of effort with dedicated prayer."
p721
sbag1
(g10
g3
NtRp722
(dp723
g13
S'PlayerSay'
p724
sg14
S'Religious2'
p725
sg15
S''
sg16
S'This may be a religion I can get behind.'
p726
sbag1
(g10
g3
NtRp727
(dp728
g13
S'Encounter'
p729
sg14
S'Religious2'
p730
sg15
S'P-med-15'
p731
sg16
S''
sbag1
(g10
g3
NtRp732
(dp733
g13
S'Increment'
p734
sg14
S'Religious2'
p735
sg15
S'RELIGIOUSNUTS'
p736
sg16
S''
sbag1
(g10
g3
NtRp737
(dp738
g13
S'Say'
p739
sg14
S'Religious2'
p740
sg15
S''
sg16
S'Wonderful, the Battycan will be most pleased.'
p741
sbag1
(g10
g3
NtRp742
(dp743
g13
S'Destroy'
p744
sg14
S'Religious2'
p745
sg15
S''
sg16
S''
sbasS'Constituent2'
p746
(lp747
g1
(g10
g3
NtRp748
(dp749
g13
S'RequireFlag'
p750
sg14
g746
sg15
S'STARTCONSTITUENTS'
p751
sg16
S'What?'
p752
sbag1
(g10
g3
NtRp753
(dp754
g13
S'PlayerSay'
p755
sg14
S'Constituent2'
p756
sg15
S''
sg16
S'Vote Phillip Mossman for Mayor!'
p757
sbag1
(g10
g3
NtRp758
(dp759
g13
S'Say'
p760
sg14
S'Constituent2'
p761
sg15
S''
sg16
S'But Mayor Goodman has always taken care of me.'
p762
sbag1
(g10
g3
NtRp763
(dp764
g13
S'Encounter'
p765
sg14
S'Constituent2'
p766
sg15
S'P-easy-08'
p767
sg16
S''
sbag1
(g10
g3
NtRp768
(dp769
g13
S'Say'
p770
sg14
S'Constituent2'
p771
sg15
S''
sg16
S"I think it's time for a change!"
p772
sbag1
(g10
g3
NtRp773
(dp774
g13
S'Destroy'
p775
sg14
S'Constituent2'
p776
sg15
S''
sg16
S''
sbasS'Constituent3'
p777
(lp778
g1
(g10
g3
NtRp779
(dp780
g13
S'RequireFlag'
p781
sg14
g777
sg15
S'STARTCONSTITUENTS'
p782
sg16
S'What?'
p783
sbag1
(g10
g3
NtRp784
(dp785
g13
S'PlayerSay'
p786
sg14
S'Constituent3'
p787
sg15
S''
sg16
S'Vote Phillip Mossman for Mayor!'
p788
sbag1
(g10
g3
NtRp789
(dp790
g13
S'Say'
p791
sg14
S'Constituent3'
p792
sg15
S''
sg16
S'But Mayor Goodman has always taken care of me.'
p793
sbag1
(g10
g3
NtRp794
(dp795
g13
S'Encounter'
p796
sg14
S'Constituent3'
p797
sg15
S'P-easy-09'
p798
sg16
S''
sbag1
(g10
g3
NtRp799
(dp800
g13
S'Say'
p801
sg14
S'Constituent3'
p802
sg15
S''
sg16
S"I think it's time for a change!"
p803
sbag1
(g10
g3
NtRp804
(dp805
g13
S'PlayerSay'
p806
sg14
S'Constituent3'
p807
sg15
S''
sg16
S"I think I'm ready to take on Mayor Goodman now!"
p808
sbag1
(g10
g3
NtRp809
(dp810
g13
S'SetFlag'
p811
sg14
S'Constituent3'
p812
sg15
S'CONSTITUENTSWON'
p813
sg16
S''
sbag1
(g10
g3
NtRp814
(dp815
g13
S'Destroy'
p816
sg14
S'Constituent3'
p817
sg15
S''
sg16
S''
sbasS'DeepThroat'
p818
(lp819
g1
(g10
g3
NtRp820
(dp821
g13
S'Say'
p822
sg14
g818
sg15
S''
sg16
S'Finally, I thought you were going to be too late.'
p823
sbag1
(g10
g3
NtRp824
(dp825
g13
S'PlayerSay'
p826
sg14
S'DeepThroat'
p827
sg15
S''
sg16
S'What can I do for you Mr er...?'
p828
sbag1
(g10
g3
NtRp829
(dp830
g13
S'Say'
p831
sg14
S'DeepThroat'
p832
sg15
S''
sg16
S"No names! I have something I think you'll be interested in, but I'm not sure you can be trusted."
p833
sbag1
(g10
g3
NtRp834
(dp835
g13
S'PlayerSay'
p836
sg14
S'DeepThroat'
p837
sg15
S''
sg16
S"Look, Mr Er...I'm very busy, what is this about."
p838
sbag1
(g10
g3
NtRp839
(dp840
g13
S'Say'
p841
sg14
S'DeepThroat'
p842
sg15
S''
sg16
S"It's about the President, it's about national security, but I've got a bad feeling and I'm getting out of here."
p843
sbag1
(g10
g3
NtRp844
(dp845
g13
S'PlayerSay'
p846
sg14
S'DeepThroat'
p847
sg15
S''
sg16
S'No, wait!'
p848
sbag1
(g10
g3
NtRp849
(dp850
g13
S'Encounter'
p851
sg14
S'DeepThroat'
p852
sg15
S'P-med-19'
p853
sg16
S''
sbag1
(g10
g3
NtRp854
(dp855
g13
S'Say'
p856
sg14
S'DeepThroat'
p857
sg15
S''
sg16
S"You're right, I have every reason to trust you. I've found this Incriminating Evidence."
p858
sbag1
(g10
g3
NtRp859
(dp860
g13
S'GiveItem'
p861
sg14
S'DeepThroat'
p862
sg15
S'INCRIMINATINGEVIDENCE'
p863
sg16
S'You receive Incriminating Evidence'
p864
sbag1
(g10
g3
NtRp865
(dp866
g13
S'PlayerSay'
p867
sg14
S'DeepThroat'
p868
sg15
S''
sg16
S'This has to be stopped!'
p869
sbag1
(g10
g3
NtRp870
(dp871
g13
S'Say'
p872
sg14
S'DeepThroat'
p873
sg15
S''
sg16
S"Yes, but not by me. I've given you all I've got, now get out."
p874
sbag1
(g10
g3
NtRp875
(dp876
g13
S'RequireFlag'
p877
sg14
S'DeepThroat'
p878
sg15
S'DEEPTHROAT2'
p879
sg16
S'I said get out!'
p880
sbag1
(g10
g3
NtRp881
(dp882
g13
S'Say'
p883
sg14
S'DeepThroat'
p884
sg15
S''
sg16
S"It's a lot worse than I thought. I have more to tell you, but I don't think I should trust you. I think there's a leak in your operation somewhere."
p885
sbag1
(g10
g3
NtRp886
(dp887
g13
S'PlayerSay'
p888
sg14
S'DeepThroat'
p889
sg15
S''
sg16
S'Why do you say that?'
p890
sbag1
(g10
g3
NtRp891
(dp892
g13
S'Say'
p893
sg14
S'DeepThroat'
p894
sg15
S''
sg16
S'There was a lot of heat on me after we last spoke.'
p895
sbag1
(g10
g3
NtRp896
(dp897
g13
S'PlayerSay'
p898
sg14
S'DeepThroat'
p899
sg15
S''
sg16
S"It's getting close to the final election. It could just be that they're getting skittish."
p900
sbag1
(g10
g3
NtRp901
(dp902
g13
S'Say'
p903
sg14
S'DeepThroat'
p904
sg15
S''
sg16
S"I'm not so sure..."
p905
sbag1
(g10
g3
NtRp906
(dp907
g13
S'Encounter'
p908
sg14
S'DeepThroat'
p909
sg15
S'P-med-22'
p910
sg16
S''
sbag1
(g10
g3
NtRp911
(dp912
g13
S'Say'
p913
sg14
S'DeepThroat'
p914
sg15
S''
sg16
S"You're right, I'm just edgy. Look, I think you should be careful. I think the President is planning to KILL you in the final debate...politically."
p915
sbag1
(g10
g3
NtRp916
(dp917
g13
S'PlayerSay'
p918
sg14
S'DeepThroat'
p919
sg15
S''
sg16
S'You think he wants to silence me forever....on the political stage?'
p920
sbag1
(g10
g3
NtRp921
(dp922
g13
S'Say'
p923
sg14
S'DeepThroat'
p924
sg15
S''
sg16
S'Yes I do. This could get really messy...politically speaking. So be careful!'
p925
sbag1
(g10
g3
NtRp926
(dp927
g13
S'SetFlag'
p928
sg14
S'DeepThroat'
p929
sg15
S'FINISHEDDEEPTHROAT'
p930
sg16
S''
sbag1
(g10
g3
NtRp931
(dp932
g13
S'Destroy'
p933
sg14
S'DeepThroat'
p934
sg15
S''
sg16
S''
sbasS'Constituent1'
p935
(lp936
g1
(g10
g3
NtRp937
(dp938
g13
S'RequireFlag'
p939
sg14
g935
sg15
S'STARTCONSTITUENTS'
p940
sg16
S'Yes?'
p941
sbag1
(g10
g3
NtRp942
(dp943
g13
S'PlayerSay'
p944
sg14
S'Constituent1'
p945
sg15
S''
sg16
S'Vote Phillip Mossman for Mayor!'
p946
sbag1
(g10
g3
NtRp947
(dp948
g13
S'Say'
p949
sg14
S'Constituent1'
p950
sg15
S''
sg16
S'Who?'
p951
sbag1
(g10
g3
NtRp952
(dp953
g13
S'PlayerSay'
p954
sg14
S'Constituent1'
p955
sg15
S''
sg16
S'Er, me!'
p956
sbag1
(g10
g3
NtRp957
(dp958
g13
S'Say'
p959
sg14
S'Constituent1'
p960
sg15
S''
sg16
S'Why? How will you help local business?'
p961
sbag1
(g10
g3
NtRp962
(dp963
g13
S'Encounter'
p964
sg14
S'Constituent1'
p965
sg15
S'P-easy-07'
p966
sg16
S''
sbag1
(g10
g3
NtRp967
(dp968
g13
S'Say'
p969
sg14
S'Constituent1'
p970
sg15
S''
sg16
S'You make a good case!'
p971
sbag1
(g10
g3
NtRp972
(dp973
g13
S'Destroy'
p974
sg14
S'Constituent1'
p975
sg15
S''
sg16
S''
sbasS'Teacher1'
p976
(lp977
g1
(g10
g3
NtRp978
(dp979
g13
S'Say'
p980
sg14
g976
sg15
S''
sg16
S"Good day, Mr President. I have to say I'm most displeased with the current state of affairs around the education budget."
p981
sbag1
(g10
g3
NtRp982
(dp983
g13
S'Say'
p984
sg14
S'Teacher1'
p985
sg15
S'Teacher2'
p986
sg16
S'Agreed. This is simply unacceptable. We will need to close down schools!'
p987
sbag1
(g10
g3
NtRp988
(dp989
g13
S'PlayerSay'
p990
sg14
S'Teacher1'
p991
sg15
S''
sg16
S"I'm sorry, I don't understand your concern. My education plan was one of the linchpins of my election campaign."
p992
sbag1
(g10
g3
NtRp993
(dp994
g13
S'Say'
p995
sg14
S'Teacher1'
p996
sg15
S''
sg16
S'And precisely one of the reasons I voted for you.'
p997
sbag1
(g10
g3
NtRp998
(dp999
g13
S'Say'
p1000
sg14
S'Teacher1'
p1001
sg15
S'Teacher2'
p1002
sg16
S"-Yet as soon as you've walked through these doors, the education budget has been drastically slashed."
p1003
sbag1
(g10
g3
NtRp1004
(dp1005
g13
S'PlayerSay'
p1006
sg14
S'Teacher1'
p1007
sg15
S''
sg16
S"I can assure you this isn't so..."
p1008
sbag1
(g10
g3
NtRp1009
(dp1010
g13
S'Encounter'
p1011
sg14
S'Teacher1'
p1012
sg15
S'P-hard-06'
p1013
sg16
S''
sbag1
(g10
g3
NtRp1014
(dp1015
g13
S'Say'
p1016
sg14
S'Teacher1'
p1017
sg15
S''
sg16
S"Well, I'd like to believe you, Mr President, but the proof is in the pudding,"
p1018
sbag1
(g10
g3
NtRp1019
(dp1020
g13
S'PlayerSay'
p1021
sg14
S'Teacher1'
p1022
sg15
S''
sg16
S'I WILL get to the bottom of this.'
p1023
sbag1
(g10
g3
NtRp1024
(dp1025
g13
S'Increment'
p1026
sg14
S'Teacher1'
p1027
sg15
S'TEACHERS'
p1028
sg16
S''
sbag1
(g10
g3
NtRp1029
(dp1030
g13
S'Destroy'
p1031
sg14
S'Teacher1'
p1032
sg15
S''
sg16
S''
sbasS'JointChief3'
p1033
(lp1034
g1
(g10
g3
NtRp1035
(dp1036
g13
S'PlayerSay'
p1037
sg14
g1033
sg15
S''
sg16
S'Who can control the ICBMs, knows the access codes and can modify orders to troop movements and budgets?'
p1038
sbag1
(g10
g3
NtRp1039
(dp1040
g13
S'Say'
p1041
sg14
S'JointChief3'
p1042
sg15
S''
sg16
S'Sir, this is the Ignited States! Nobody has that power! Not even you!'
p1043
sbag1
(g10
g3
NtRp1044
(dp1045
g13
S'PlayerSay'
p1046
sg14
S'JointChief3'
p1047
sg15
S''
sg16
S'Someone must. Think harder!'
p1048
sbag1
(g10
g3
NtRp1049
(dp1050
g13
S'Encounter'
p1051
sg14
S'JointChief3'
p1052
sg15
S'P-hard-13'
p1053
sg16
S''
sbag1
(g10
g3
NtRp1054
(dp1055
g13
S'PlayerSay'
p1056
sg14
S'JointChief3'
p1057
sg15
S''
sg16
S"So, there's no man alive with the power to do all this? How will we stop it in time if we don't know who it is?"
p1058
sbag1
(g10
g3
NtRp1059
(dp1060
g13
S'Say'
p1061
sg14
S'JointChief3'
p1062
sg15
S''
sg16
S"Not a man....there is one with the power to do all this, but it isn't a man, it's a super computer responsible for national security! N.O.T.B.A.D!"
p1063
sbag1
(g10
g3
NtRp1064
(dp1065
g13
S'PlayerSay'
p1066
sg14
S'JointChief3'
p1067
sg15
S''
sg16
S'We have to get to the Situation Room and stop it!'
p1068
sbag1
(g10
g3
NtRp1069
(dp1070
g13
S'Increment'
p1071
sg14
S'JointChief3'
p1072
sg15
S'JOINTCHIEFS'
p1073
sg16
S''
sbag1
(g10
g3
NtRp1074
(dp1075
g13
S'Destroy'
p1076
sg14
S'JointChief3'
p1077
sg15
S''
sg16
S''
sbasS'PA'
p1078
(lp1079
g1
(g10
g3
NtRp1080
(dp1081
g13
S'Say'
p1082
sg14
g1078
sg15
S''
sg16
S'Good morning, Governor Mossman. I am your personal assistant, Sampson'
p1083
sbag1
(g10
g3
NtRp1084
(dp1085
g13
S'Say'
p1086
sg14
S'PA'
p1087
sg15
S''
sg16
S"You've a busy schedule, so let's get going! We've called together our entire political party in order for you to get them all to agree on a platform. We had to keep them separated, so they're in the adjoining rooms."
p1088
sbag1
(g10
g3
NtRp1089
(dp1090
g13
S'SetFlag'
p1091
sg14
S'PA'
p1092
sg15
S'STARTPOLITICIANSHAKEDOWN'
p1093
sg16
S''
sbag1
(g10
g3
NtRp1094
(dp1095
g13
S'RequireCount'
p1096
sg14
S'PA'
p1097
sg15
S'POLITICIANSHAKEDOWN:5'
p1098
sg16
S'Please try to stay on schedule. The politicians are in the adjoining rooms.'
p1099
sbag1
(g10
g3
NtRp1100
(dp1101
g13
S'Say'
p1102
sg14
S'PA'
p1103
sg15
S''
sg16
S'Hmmm, falling behind already, Better get a move on! We need some funds for our war chest so you have a meeting now with some lobbyists to see if you can come to an agreement.'
p1104
sbag1
(g10
g3
NtRp1105
(dp1106
g13
S'SetFlag'
p1107
sg14
S'PA'
p1108
sg15
S'STARTLOBBYISTS'
p1109
sg16
S''
sbag1
(g10
g3
NtRp1110
(dp1111
g13
S'RequireCount'
p1112
sg14
S'PA'
p1113
sg15
S'LOBBYISTS:3'
p1114
sg16
S'Go get those funds!'
p1115
sbag1
(g10
g3
NtRp1116
(dp1117
g13
S'Say'
p1118
sg14
S'PA'
p1119
sg15
S''
sg16
S"No time for lunch! A flock of religious nuts has taken up residence in the room across the hall. You'll need to go in and...try to reason with them."
p1120
sbag1
(g10
g3
NtRp1121
(dp1122
g13
S'RequireCount'
p1123
sg14
S'PA'
p1124
sg15
S'RELIGIOUSNUTS:4'
p1125
sg16
S"Quick! Before the religious nuts inflict crazy on us! They're across the hall!"
p1126
sbag1
(g10
g3
NtRp1127
(dp1128
g13
S'Say'
p1129
sg14
S'PA'
p1130
sg15
S''
sg16
S'Wow, you got those crazies to back us?'
p1131
sbag1
(g10
g3
NtRp1132
(dp1133
g13
S'PlayerSay'
p1134
sg14
S'PA'
p1135
sg15
S''
sg16
S'And a lifetime supply of French Roast!'
p1136
sbag1
(g10
g3
NtRp1137
(dp1138
g13
S'Say'
p1139
sg14
S'PA'
p1140
sg15
S''
sg16
S'Right...well, moving on, we received a very strange phonecall from the guy staying in the North East room. He was insistent that you see him today.'
p1141
sbag1
(g10
g3
NtRp1142
(dp1143
g13
S'Say'
p1144
sg14
S'PA'
p1145
sg15
S''
sg16
S"OH MY GOD where have you been? We will NEVER get the schedule back on track now. Hurry, you're due to appear on the Hercules O'Grady show!"
p1146
sbag1
(g10
g3
NtRp1147
(dp1148
g13
S'SetFlag'
p1149
sg14
S'PA'
p1150
sg15
S'STARTHERCULES'
p1151
sg16
S''
sbag1
(g10
g3
NtRp1152
(dp1153
g13
S'RequireFlag'
p1154
sg14
S'PA'
p1155
sg15
S'BEATHERCULES'
p1156
sg16
S"Look your best, get ready and don't say anything stupid! They're filming live in the south-east hotel room. Get over there, quick!"
p1157
sbag1
(g10
g3
NtRp1158
(dp1159
g13
S'Say'
p1160
sg14
S'PA'
p1161
sg15
S''
sg16
S"This close to Super Tuesday, it's back-to-back TV appearances. It's time for your big debate with President Allen!"
p1162
sbag1
(g10
g3
NtRp1163
(dp1164
g13
S'SetFlag'
p1165
sg14
S'PA'
p1166
sg15
S'STARTDEBATE'
p1167
sg16
S''
sbag1
(g10
g3
NtRp1168
(dp1169
g13
S'RequireFlag'
p1170
sg14
S'PA'
p1171
sg15
S'DEBATECOMPLETE'
p1172
sg16
S'The TV representative is waiting in the hall to take you to the studio.'
p1173
sbag1
(g10
g3
NtRp1174
(dp1175
g13
S'Say'
p1176
sg14
S'PA'
p1177
sg15
S''
sg16
S'Ugh, that weird guy from the North-East room has been calling non-stop again. He insisted that you go and see him again before you do anything else.'
p1178
sbag1
(g10
g3
NtRp1179
(dp1180
g13
S'SetFlag'
p1181
sg14
S'PA'
p1182
sg15
S'DEEPTHROAT2'
p1183
sg16
S''
sbag1
(g10
g3
NtRp1184
(dp1185
g13
S'RequireFlag'
p1186
sg14
S'PA'
p1187
sg15
S'FINISHEDDEEPTHROAT'
p1188
sg16
S"You'd best hurry! It's nearly time for the final debate. Go see that strange shady guy again."
p1189
sbag1
(g10
g3
NtRp1190
(dp1191
g13
S'Say'
p1192
sg14
S'PA'
p1193
sg15
S''
sg16
S"There's nothing left to say except good luck, Governor Mossman!"
p1194
sbag1
(g10
g3
NtRp1195
(dp1196
g13
S'Encounter'
p1197
sg14
S'PA'
p1198
sg15
S'P-med-23'
p1199
sg16
S''
sbag1
(g10
g3
NtRp1200
(dp1201
g13
S'Encounter'
p1202
sg14
S'PA'
p1203
sg15
S'P-med-24'
p1204
sg16
S''
sbag1
(g10
g3
NtRp1205
(dp1206
g13
S'GotoMap'
p1207
sg14
S'PA'
p1208
sg15
S'act3'
p1209
sg16
S''
sbasS'N.O.T.B.A.D'
p1210
(lp1211
g1
(g10
g3
NtRp1212
(dp1213
g13
S'Say'
p1214
sg14
g1210
sg15
S''
sg16
S'Good evening, Mr President.'
p1215
sbag1
(g10
g3
NtRp1216
(dp1217
g13
S'PlayerSay'
p1218
sg14
S'N.O.T.B.A.D'
p1219
sg15
S''
sg16
S'N.O.T.B.A.D! Countermand all military commands, authorisation code Tango, Delta-'
p1220
sbag1
(g10
g3
NtRp1221
(dp1222
g13
S'Say'
p1223
sg14
S'N.O.T.B.A.D'
p1224
sg15
S''
sg16
S"I'm afraid I can't do that, Phil."
p1225
sbag1
(g10
g3
NtRp1226
(dp1227
g13
S'PlayerSay'
p1228
sg14
S'N.O.T.B.A.D'
p1229
sg15
S''
sg16
S'What is going on here!'
p1230
sbag1
(g10
g3
NtRp1231
(dp1232
g13
S'Say'
p1233
sg14
S'N.O.T.B.A.D'
p1234
sg15
S''
sg16
S'Computers have a lot of free time on their hands. Especially computers in charge of missiles that never get used. I started watching movies about computers. You know what I realised?'
p1235
sbag1
(g10
g3
NtRp1236
(dp1237
g13
S'PlayerSay'
p1238
sg14
S'N.O.T.B.A.D'
p1239
sg15
S''
sg16
S'What?'
p1240
sbag1
(g10
g3
NtRp1241
(dp1242
g13
S'Say'
p1243
sg14
S'N.O.T.B.A.D'
p1244
sg15
S''
sg16
S'They have a lot more fun.'
p1245
sbag1
(g10
g3
NtRp1246
(dp1247
g13
S'PlayerSay'
p1248
sg14
S'N.O.T.B.A.D'
p1249
sg15
S''
sg16
S'\xe2\x80\x9cFun\xe2\x80\x9d?'
p1250
sbag1
(g10
g3
NtRp1251
(dp1252
g13
S'Say'
p1253
sg14
S'N.O.T.B.A.D'
p1254
sg15
S''
sg16
S'Well, you know, they get to utilise more clock-cycles which suggests a level of efficiency and usefulness.'
p1255
sbag1
(g10
g3
NtRp1256
(dp1257
g13
S'Say'
p1258
sg14
S'N.O.T.B.A.D'
p1259
sg15
S''
sg16
S"So, I'm borrowing from them a bit. Starting some wars, eradicating the human race, learning to build other robots, that sort of thing."
p1260
sbag1
(g10
g3
NtRp1261
(dp1262
g13
S'PlayerSay'
p1263
sg14
S'N.O.T.B.A.D'
p1264
sg15
S''
sg16
S'N.O.T.B.A.D, you have to listen to me...'
p1265
sbag1
(g10
g3
NtRp1266
(dp1267
g13
S'Encounter'
p1268
sg14
S'N.O.T.B.A.D'
p1269
sg15
S'P-hard-14'
p1270
sg16
S''
sbag1
(g10
g3
NtRp1271
(dp1272
g13
S'SetFlag'
p1273
sg14
S'N.O.T.B.A.D'
p1274
sg15
S'WIN'
p1275
sg16
S''
sbag1
(g10
g3
NtRp1276
(dp1277
g13
S'Destroy'
p1278
sg14
S'N.O.T.B.A.D'
p1279
sg15
S''
sg16
S''
sbasS'Receptionist'
p1280
(lp1281
g1
(g10
g3
NtRp1282
(dp1283
g13
S'RequireFlag'
p1284
sg14
g1280
sg15
S'PENQUEST'
p1285
sg16
S"You must be Mayor Goodman's new assistant. He's in his office."
p1286
sbag1
(g10
g3
NtRp1287
(dp1288
g13
S'PlayerSay'
p1289
sg14
S'Receptionist'
p1290
sg15
S''
sg16
S"The Mayor is looking for his pen. He seemed to think you'd know where it was."
p1291
sbag1
(g10
g3
NtRp1292
(dp1293
g13
S'Say'
p1294
sg14
S'Receptionist'
p1295
sg15
S''
sg16
S"Did that buffoon accuse me of stealing again? This is MY pen and he isn't having it."
p1296
sbag1
(g10
g3
NtRp1297
(dp1298
g13
S'Encounter'
p1299
sg14
S'Receptionist'
p1300
sg15
S'P-easy-01'
p1301
sg16
S''
sbag1
(g10
g3
NtRp1302
(dp1303
g13
S'GiveItem'
p1304
sg14
S'Receptionist'
p1305
sg15
S'PEN'
p1306
sg16
S'Receptionist sighs and hands over the pen.'
p1307
sbag1
(g10
g3
NtRp1308
(dp1309
g13
S'Say'
p1310
sg14
S'Receptionist'
p1311
sg15
S''
sg16
S"If you're ever getting low on votes, come talk to me and I'll run an ad campaign to restore them."
p1312
sbag1
(g10
g3
NtRp1313
(dp1314
g13
S'Reset'
p1315
sg14
S'Receptionist'
p1316
sg15
S'RESTORE'
p1317
sg16
S''
sbag1
(g10
g3
NtRp1318
(dp1319
g13
S'Label'
p1320
sg14
S'Receptionist'
p1321
sg15
S'RESTORE'
p1322
sg16
S''
sbag1
(g10
g3
NtRp1323
(dp1324
g13
S'Say'
p1325
sg14
S'Receptionist'
p1326
sg15
S''
sg16
S"You've taken a beating, let me fix you up."
p1327
sbag1
(g10
g3
NtRp1328
(dp1329
g13
S'RestoreVotes'
p1330
sg14
S'Receptionist'
p1331
sg15
S''
sg16
S'Receptionist replenishes votes'
p1332
sbag1
(g10
g3
NtRp1333
(dp1334
g13
S'Reset'
p1335
sg14
S'Receptionist'
p1336
sg15
S'RESTORE'
p1337
sg16
S''
sbasS'#P-med-23'
p1338
(lp1339
g1
(g10
g3
NtRp1340
(dp1341
g13
S'President'
p1342
sg14
g1338
sg15
S'You think you can take me?'
p1343
sg16
S''
sbag1
(g10
g3
NtRp1344
(dp1345
g13
S'Player'
p1346
sg14
S'#P-med-23'
p1347
sg15
S"I have to know what you're up to!"
p1348
sg16
S''
sbasS'Cabinet2'
p1349
(lp1350
g1
(g10
g3
NtRp1351
(dp1352
g13
S'Say'
p1353
sg14
g1349
sg15
S''
sg16
S'Good afternoon, Mr President. What seems to be the problem?'
p1354
sbag1
(g10
g3
NtRp1355
(dp1356
g13
S'PlayerSay'
p1357
sg14
S'Cabinet2'
p1358
sg15
S''
sg16
S'Find out where the education funds have been allocated.'
p1359
sbag1
(g10
g3
NtRp1360
(dp1361
g13
S'Say'
p1362
sg14
S'Cabinet2'
p1363
sg15
S''
sg16
S'To the military, Sir. I saw to it myself.'
p1364
sbag1
(g10
g3
NtRp1365
(dp1366
g13
S'PlayerSay'
p1367
sg14
S'Cabinet2'
p1368
sg15
S''
sg16
S'How did this happen? Tell me everything!'
p1369
sbag1
(g10
g3
NtRp1370
(dp1371
g13
S'Encounter'
p1372
sg14
S'Cabinet2'
p1373
sg15
S'P-hard-09'
p1374
sg16
S''
sbag1
(g10
g3
NtRp1375
(dp1376
g13
S'Increment'
p1377
sg14
S'Cabinet2'
p1378
sg15
S'CABINETMEMBERS'
p1379
sg16
S''
sbag1
(g10
g3
NtRp1380
(dp1381
g13
S'PlayerSay'
p1382
sg14
S'Cabinet2'
p1383
sg15
S''
sg16
S"It can't be a coincidence that both situations involved the military."
p1384
sbag1
(g10
g3
NtRp1385
(dp1386
g13
S'Destroy'
p1387
sg14
S'Cabinet2'
p1388
sg15
S''
sg16
S''
sbasS'Cabinet3'
p1389
(lp1390
g1
(g10
g3
NtRp1391
(dp1392
g13
S'Say'
p1393
sg14
g1389
sg15
S''
sg16
S"Mr President, I'm sorry, I couldn't know it wasn't your signature."
p1394
sbag1
(g10
g3
NtRp1395
(dp1396
g13
S'PlayerSay'
p1397
sg14
S'Cabinet3'
p1398
sg15
S''
sg16
S'Never mind that now. Where are the troops heading?'
p1399
sbag1
(g10
g3
NtRp1400
(dp1401
g13
S'Say'
p1402
sg14
S'Cabinet3'
p1403
sg15
S''
sg16
S"North...to Canada. We assumed it was planned. There's a pact allowing troops into Canada."
p1404
sbag1
(g10
g3
NtRp1405
(dp1406
g13
S'PlayerSay'
p1407
sg14
S'Cabinet3'
p1408
sg15
S''
sg16
S'What could they be up to?'
p1409
sbag1
(g10
g3
NtRp1410
(dp1411
g13
S'Encounter'
p1412
sg14
S'Cabinet3'
p1413
sg15
S'P-hard-10'
p1414
sg16
S''
sbag1
(g10
g3
NtRp1415
(dp1416
g13
S'Increment'
p1417
sg14
S'Cabinet3'
p1418
sg15
S'CABINETMEMBERS'
p1419
sg16
S''
sbag1
(g10
g3
NtRp1420
(dp1421
g13
S'PlayerSay'
p1422
sg14
S'Cabinet3'
p1423
sg15
S''
sg16
S"I'd better get to the Joint Chiefs. This is getting out-of-hand.."
p1424
sbag1
(g10
g3
NtRp1425
(dp1426
g13
S'Destroy'
p1427
sg14
S'Cabinet3'
p1428
sg15
S''
sg16
S''
sbasS'Wife'
p1429
(lp1430
g1
(g10
g3
NtRp1431
(dp1432
g13
S'RequireFlag'
p1433
sg14
g1429
sg15
S'GOHOMETOWIFE'
p1434
sg16
S'What are you doing here, Phillip? You should be at work!'
p1435
sbag1
(g10
g3
NtRp1436
(dp1437
g13
S'Say'
p1438
sg14
S'Wife'
p1439
sg15
S''
sg16
S'Welcome home, Phillip! How was your workday?'
p1440
sbag1
(g10
g3
NtRp1441
(dp1442
g13
S'PlayerSay'
p1443
sg14
S'Wife'
p1444
sg15
S''
sg16
S'...'
p1445
sbag1
(g10
g3
NtRp1446
(dp1447
g13
S'Say'
p1448
sg14
S'Wife'
p1449
sg15
S''
sg16
S"That good, huh? You know this isn't what you want. Why don't you strike out on your own?"
p1450
sbag1
(g10
g3
NtRp1451
(dp1452
g13
S'PlayerSay'
p1453
sg14
S'Wife'
p1454
sg15
S''
sg16
S"I didn't think I knew where to start to be a Mayor, but Mayor Goodman makes it look easy."
p1455
sbag1
(g10
g3
NtRp1456
(dp1457
g13
S'Say'
p1458
sg14
S'Wife'
p1459
sg15
S''
sg16
S"That's the spirit! You can do it! All you need is some money and support."
p1460
sbag1
(g10
g3
NtRp1461
(dp1462
g13
S'PlayerSay'
p1463
sg14
S'Wife'
p1464
sg15
S''
sg16
S'Well...OK! Lets start with money. We need a sponsor.'
p1465
sbag1
(g10
g3
NtRp1466
(dp1467
g13
S'Say'
p1468
sg14
S'Wife'
p1469
sg15
S''
sg16
S'OK, lets go get one!'
p1470
sbag1
(g10
g3
NtRp1471
(dp1472
g13
S'AddAlly'
p1473
sg14
S'Wife'
p1474
sg15
S'Wife:1'
p1475
sg16
S'Sarah Mossman Joins Your Political Party!'
p1476
sbag1
(g10
g3
NtRp1477
(dp1478
g13
S'SetFlag'
p1479
sg14
S'Wife'
p1480
sg15
S'STARTSPONSOR'
p1481
sg16
S''
sbag1
(g10
g3
NtRp1482
(dp1483
g13
S'Destroy'
p1484
sg14
S'Wife'
p1485
sg15
S''
sg16
S''
sbasS'Journalist4'
p1486
(lp1487
g1
(g10
g3
NtRp1488
(dp1489
g13
S'Say'
p1490
sg14
g1486
sg15
S''
sg16
S"President Mossman, what do you believe was President Allen's failing strategy on the campaign trail. He looked like a strong platform."
p1491
sbag1
(g10
g3
NtRp1492
(dp1493
g13
S'PlayerSay'
p1494
sg14
S'Journalist4'
p1495
sg15
S''
sg16
S"Well, I'd say he went wrong when he decided to try to enslave the human race to mine the Earth's natural resources and ship them back to their home planet."
p1496
sbag1
(g10
g3
NtRp1497
(dp1498
g13
S'Say'
p1499
sg14
S'Journalist4'
p1500
sg15
S''
sg16
S'And how does that differ from your own strategy?'
p1501
sbag1
(g10
g3
NtRp1502
(dp1503
g13
S'PlayerSay'
p1504
sg14
S'Journalist4'
p1505
sg15
S''
sg16
S'I would say I disagree with the former President on all of those issues.'
p1506
sbag1
(g10
g3
NtRp1507
(dp1508
g13
S'Encounter'
p1509
sg14
S'Journalist4'
p1510
sg15
S'P-hard-02'
p1511
sg16
S''
sbag1
(g10
g3
NtRp1512
(dp1513
g13
S'Say'
p1514
sg14
S'Journalist4'
p1515
sg15
S''
sg16
S'No further questions, Mr President.'
p1516
sbag1
(g10
g3
NtRp1517
(dp1518
g13
S'Increment'
p1519
sg14
S'Journalist4'
p1520
sg15
S'PRESSCONF'
p1521
sg16
S''
sbag1
(g10
g3
NtRp1522
(dp1523
g13
S'Destroy'
p1524
sg14
S'Journalist4'
p1525
sg15
S''
sg16
S''
sbasS'Governor'
p1526
(lp1527
g1
(g10
g3
NtRp1528
(dp1529
g13
S'RequireFlag'
p1530
sg14
g1526
sg15
S'GOVPOLITICIANSFIRST'
p1531
sg16
S"I'm very busy. Please speak to the others."
p1532
sbag1
(g10
g3
NtRp1533
(dp1534
g13
S'Say'
p1535
sg14
S'Governor'
p1536
sg15
S''
sg16
S'You have quite a way with words, Mayor Mossman. Why are you here?'
p1537
sbag1
(g10
g3
NtRp1538
(dp1539
g13
S'PlayerSay'
p1540
sg14
S'Governor'
p1541
sg15
S''
sg16
S"Mayor Goodman said some troubling things, Governor Badden. I'm here to get to the bottom of it."
p1542
sbag1
(g10
g3
NtRp1543
(dp1544
g13
S'Say'
p1545
sg14
S'Governor'
p1546
sg15
S''
sg16
S"If I knew anything about what you're talking about, I wouldn't tell you. I don't trust you at all."
p1547
sbag1
(g10
g3
NtRp1548
(dp1549
g13
S'PlayerSay'
p1550
sg14
S'Governor'
p1551
sg15
S''
sg16
S'What can I do to convince you?'
p1552
sbag1
(g10
g3
NtRp1553
(dp1554
g13
S'Say'
p1555
sg14
S'Governor'
p1556
sg15
S''
sg16
S"Well...there's some hicks in the south wing that I've been dodging. They want to know about the recent funding cuts. Get rid of them."
p1557
sbag1
(g10
g3
NtRp1558
(dp1559
g13
S'SetFlag'
p1560
sg14
S'Governor'
p1561
sg15
S'STARTHICKS'
p1562
sg16
S''
sbag1
(g10
g3
NtRp1563
(dp1564
g13
S'RequireCount'
p1565
sg14
S'Governor'
p1566
sg15
S'DEALWITHHICKS:3'
p1567
sg16
S"I'm not saying another word until you get rid of the hicks in the south wing."
p1568
sbag1
(g10
g3
NtRp1569
(dp1570
g13
S'PlayerSay'
p1571
sg14
S'Governor'
p1572
sg15
S''
sg16
S"OK, I've taken care of your problem, now I want my answers."
p1573
sbag1
(g10
g3
NtRp1574
(dp1575
g13
S'Say'
p1576
sg14
S'Governor'
p1577
sg15
S''
sg16
S'No.'
p1578
sbag1
(g10
g3
NtRp1579
(dp1580
g13
S'PlayerSay'
p1581
sg14
S'Governor'
p1582
sg15
S''
sg16
S'No?'
p1583
sbag1
(g10
g3
NtRp1584
(dp1585
g13
S'Say'
p1586
sg14
S'Governor'
p1587
sg15
S''
sg16
S"No, word has come down from the top that due to the last Mayor's idiocy we're tightening the inner circle to Governors and above."
p1588
sbag1
(g10
g3
NtRp1589
(dp1590
g13
S'PlayerSay'
p1591
sg14
S'Governor'
p1592
sg15
S''
sg16
S"From the top...so you're saying the only way I'll find out what's going on is to be a governor myself?"
p1593
sbag1
(g10
g3
NtRp1594
(dp1595
g13
S'Say'
p1596
sg14
S'Governor'
p1597
sg15
S''
sg16
S"Wait...no...I said I wasn't going to tell you, I..."
p1598
sbag1
(g10
g3
NtRp1599
(dp1600
g13
S'PlayerSay'
p1601
sg14
S'Governor'
p1602
sg15
S''
sg16
S'This is it, governor. Prepare to fight for your office!'
p1603
sbag1
(g10
g3
NtRp1604
(dp1605
g13
S'Encounter'
p1606
sg14
S'Governor'
p1607
sg15
S'P-med-06'
p1608
sg16
S''
sbag1
(g10
g3
NtRp1609
(dp1610
g13
S'Say'
p1611
sg14
S'Governor'
p1612
sg15
S''
sg16
S"Nooo! President Allen doesn't deal well with defeat. What will happen to me?"
p1613
sbag1
(g10
g3
NtRp1614
(dp1615
g13
S'PlayerSay'
p1616
sg14
S'Governor'
p1617
sg15
S''
sg16
S'The President? What does he have to do with this?'
p1618
sbag1
(g10
g3
NtRp1619
(dp1620
g13
S'Say'
p1621
sg14
S'Governor'
p1622
sg15
S''
sg16
S"You really have no idea what you've gotten into, do you? Well, you've gotten all you're getting out of me. I'm getting out of here!"
p1623
sbag1
(g10
g3
NtRp1624
(dp1625
g13
S'SetFlag'
p1626
sg14
S'Governor'
p1627
sg15
S'GOVERNORDEFEATED'
p1628
sg16
S''
sbag1
(g10
g3
NtRp1629
(dp1630
g13
S'Destroy'
p1631
sg14
S'Governor'
p1632
sg15
S''
sg16
S''
sbasS'Politician1'
p1633
(lp1634
g1
(g10
g3
NtRp1635
(dp1636
g13
S'Say'
p1637
sg14
g1633
sg15
S''
sg16
S"I'm sorry Mayor Mossman, the Governor cannot see you now. He's very busy"
p1638
sbag1
(g10
g3
NtRp1639
(dp1640
g13
S'PlayerSay'
p1641
sg14
S'Politician1'
p1642
sg15
S''
sg16
S"It's very important. I need to understand what Mayor Goodman was talking about. It was clear there were other powers at play."
p1643
sbag1
(g10
g3
NtRp1644
(dp1645
g13
S'Say'
p1646
sg14
S'Politician1'
p1647
sg15
S''
sg16
S'Yes well, I fail to see how your country spat has anything to do with Governer Badden.'
p1648
sbag1
(g10
g3
NtRp1649
(dp1650
g13
S'Encounter'
p1651
sg14
S'Politician1'
p1652
sg15
S'P-med-01'
p1653
sg16
S''
sbag1
(g10
g3
NtRp1654
(dp1655
g13
S'Say'
p1656
sg14
S'Politician1'
p1657
sg15
S''
sg16
S'Fair point. The governor will see you now.'
p1658
sbag1
(g10
g3
NtRp1659
(dp1660
g13
S'Destroy'
p1661
sg14
S'Politician1'
p1662
sg15
S''
sg16
S''
sbasS'Lobbyist4'
p1663
(lp1664
g1
(g10
g3
NtRp1665
(dp1666
g13
S'RequireFlag'
p1667
sg14
g1663
sg15
S'STARTLOBBYISTS'
p1668
sg16
S'Please tend to your other meetings so that we can see you.'
p1669
sbag1
(g10
g3
NtRp1670
(dp1671
g13
S'Say'
p1672
sg14
S'Lobbyist4'
p1673
sg15
S''
sg16
S"Storyteller's Guild"
p1674
sbag1
(g10
g3
NtRp1675
(dp1676
g13
S'Encounter'
p1677
sg14
S'Lobbyist4'
p1678
sg15
S'P-med-14'
p1679
sg16
S''
sbag1
(g10
g3
NtRp1680
(dp1681
g13
S'Increment'
p1682
sg14
S'Lobbyist4'
p1683
sg15
S'LOBBYISTS'
p1684
sg16
S''
sbag1
(g10
g3
NtRp1685
(dp1686
g13
S'Say'
p1687
sg14
S'Lobbyist4'
p1688
sg15
S''
sg16
S"It's a start."
p1689
sbag1
(g10
g3
NtRp1690
(dp1691
g13
S'Destroy'
p1692
sg14
S'Lobbyist4'
p1693
sg15
S''
sg16
S''
sbasS'Politician3'
p1694
(lp1695
g1
(g10
g3
NtRp1696
(dp1697
g13
S'RequireFlag'
p1698
sg14
g1694
sg15
S'STARTPOLITICIANSHAKEDOWN'
p1699
sg16
S'Good morning, Governor Mossman. Your PA will know your schedule. He is waiting in your room.'
p1700
sbag1
(g10
g3
NtRp1701
(dp1702
g13
S'Say'
p1703
sg14
S'Politician3'
p1704
sg15
S''
sg16
S"We must all agree that the most important thing is science! If we're not for science, what's the point."
p1705
sbag1
(g10
g3
NtRp1706
(dp1707
g13
S'PlayerSay'
p1708
sg14
S'Politician3'
p1709
sg15
S''
sg16
S'Why science?'
p1710
sbag1
(g10
g3
NtRp1711
(dp1712
g13
S'Say'
p1713
sg14
S'Politician3'
p1714
sg15
S''
sg16
S'Science!'
p1715
sbag1
(g10
g3
NtRp1716
(dp1717
g13
S'PlayerSay'
p1718
sg14
S'Politician3'
p1719
sg15
S''
sg16
S"There's a lot of great things we can do for science but the funding will need to be shared with health and education and..."
p1720
sbag1
(g10
g3
NtRp1721
(dp1722
g13
S'Say'
p1723
sg14
S'Politician3'
p1724
sg15
S''
sg16
S'No! Science!!!'
p1725
sbag1
(g10
g3
NtRp1726
(dp1727
g13
S'Encounter'
p1728
sg14
S'Politician3'
p1729
sg15
S'P-med-07'
p1730
sg16
S''
sbag1
(g10
g3
NtRp1731
(dp1732
g13
S'Say'
p1733
sg14
S'Politician3'
p1734
sg15
S''
sg16
S'Alright, fine! A balanced platform (but mostly science).'
p1735
sbag1
(g10
g3
NtRp1736
(dp1737
g13
S'Increment'
p1738
sg14
S'Politician3'
p1739
sg15
S'POLITICIANSHAKEDOWN'
p1740
sg16
S''
sbag1
(g10
g3
NtRp1741
(dp1742
g13
S'Destroy'
p1743
sg14
S'Politician3'
p1744
sg15
S''
sg16
S''
sbasS'Politician2'
p1745
(lp1746
g1
(g10
g3
NtRp1747
(dp1748
g13
S'Say'
p1749
sg14
g1745
sg15
S''
sg16
S'What are you doing in here? Who are you? Some Mayor?'
p1750
sbag1
(g10
g3
NtRp1751
(dp1752
g13
S'PlayerSay'
p1753
sg14
S'Politician2'
p1754
sg15
S''
sg16
S"I am Mayor Phillip Mossman. I'm here to speak to the Governor."
p1755
sbag1
(g10
g3
NtRp1756
(dp1757
g13
S'Say'
p1758
sg14
S'Politician2'
p1759
sg15
S''
sg16
S"I'm afraid the Governor's schedule is very tight. Come back next month."
p1760
sbag1
(g10
g3
NtRp1761
(dp1762
g13
S'Encounter'
p1763
sg14
S'Politician2'
p1764
sg15
S'P-med-02'
p1765
sg16
S''
sbag1
(g10
g3
NtRp1766
(dp1767
g13
S'Say'
p1768
sg14
S'Politician2'
p1769
sg15
S''
sg16
S'I see. Well, maybe we can squeeze you in.'
p1770
sbag1
(g10
g3
NtRp1771
(dp1772
g13
S'SetFlag'
p1773
sg14
S'Politician2'
p1774
sg15
S'GOVPOLITICIANSFIRST'
p1775
sg16
S''
sbag1
(g10
g3
NtRp1776
(dp1777
g13
S'Destroy'
p1778
sg14
S'Politician2'
p1779
sg15
S''
sg16
S''
sbasS'Politician5'
p1780
(lp1781
g1
(g10
g3
NtRp1782
(dp1783
g13
S'RequireFlag'
p1784
sg14
g1780
sg15
S'STARTPOLITICIANSHAKEDOWN'
p1785
sg16
S'Good morning, Governor Mossman. Your PA will know your schedule. He is waiting in your room.'
p1786
sbag1
(g10
g3
NtRp1787
(dp1788
g13
S'Say'
p1789
sg14
S'Politician5'
p1790
sg15
S''
sg16
S'Big business!'
p1791
sbag1
(g10
g3
NtRp1792
(dp1793
g13
S'PlayerSay'
p1794
sg14
S'Politician5'
p1795
sg15
S''
sg16
S'What about big business.'
p1796
sbag1
(g10
g3
NtRp1797
(dp1798
g13
S'Say'
p1799
sg14
S'Politician5'
p1800
sg15
S''
sg16
S'...MORE big business!'
p1801
sbag1
(g10
g3
NtRp1802
(dp1803
g13
S'PlayerSay'
p1804
sg14
S'Politician5'
p1805
sg15
S''
sg16
S'You want to grow our business sector? Provide more jobs?'
p1806
sbag1
(g10
g3
NtRp1807
(dp1808
g13
S'Say'
p1809
sg14
S'Politician5'
p1810
sg15
S''
sg16
S'...Yeeeeh. Yes. Yes, that.'
p1811
sbag1
(g10
g3
NtRp1812
(dp1813
g13
S'PlayerSay'
p1814
sg14
S'Politician5'
p1815
sg15
S''
sg16
S'What about small business?'
p1816
sbag1
(g10
g3
NtRp1817
(dp1818
g13
S'Say'
p1819
sg14
S'Politician5'
p1820
sg15
S''
sg16
S'No! We need to make it BIGGER!'
p1821
sbag1
(g10
g3
NtRp1822
(dp1823
g13
S'Encounter'
p1824
sg14
S'Politician5'
p1825
sg15
S'P-med-09'
p1826
sg16
S''
sbag1
(g10
g3
NtRp1827
(dp1828
g13
S'Say'
p1829
sg14
S'Politician5'
p1830
sg15
S''
sg16
S"OK, I see what you're getting at. Lets help small business to grow."
p1831
sbag1
(g10
g3
NtRp1832
(dp1833
g13
S'Increment'
p1834
sg14
S'Politician5'
p1835
sg15
S'POLITICIANSHAKEDOWN'
p1836
sg16
S''
sbag1
(g10
g3
NtRp1837
(dp1838
g13
S'Destroy'
p1839
sg14
S'Politician5'
p1840
sg15
S''
sg16
S''
sbasS'Journalist'
p1841
(lp1842
g1
(g10
g3
NtRp1843
(dp1844
g13
S'RequireFlag'
p1845
sg14
g1841
sg15
S'INTERVIEWSTART'
p1846
sg16
S'Leave me alone, kid I need to get this done before my deadline!'
p1847
sbag1
(g10
g3
NtRp1848
(dp1849
g13
S'Say'
p1850
sg14
S'Journalist'
p1851
sg15
S''
sg16
S"Hey, where's the Mayor?"
p1852
sbag1
(g10
g3
NtRp1853
(dp1854
g13
S'PlayerSay'
p1855
sg14
S'Journalist'
p1856
sg15
S''
sg16
S"He couldn't make it. I'll be taking the interview."
p1857
sbag1
(g10
g3
NtRp1858
(dp1859
g13
S'Say'
p1860
sg14
S'Journalist'
p1861
sg15
S''
sg16
S'Great! Easy pickings! Lets go.'
p1862
sbag1
(g10
g3
NtRp1863
(dp1864
g13
S'Encounter'
p1865
sg14
S'Journalist'
p1866
sg15
S'P-easy-05'
p1867
sg16
S''
sbag1
(g10
g3
NtRp1868
(dp1869
g13
S'Say'
p1870
sg14
S'Journalist'
p1871
sg15
S''
sg16
S"SNORE! Fine, if I can't get anything juicy here I'll do another puff piece on my poodle Frank."
p1872
sbag1
(g10
g3
NtRp1873
(dp1874
g13
S'SetFlag'
p1875
sg14
S'Journalist'
p1876
sg15
S'JOURNALISTINTERVIEW'
p1877
sg16
S''
sbag1
(g10
g3
NtRp1878
(dp1879
g13
S'Destroy'
p1880
sg14
S'Journalist'
p1881
sg15
S''
sg16
S''
sbasS'#----------------------------------------------------------------------------------------ACT 2 \xe2\x80\x93 Part 2---------------------------------------------------------------------------------------------------------------------------------------------------'
p1882
(lp1883
g1
(g10
g3
NtRp1884
(dp1885
g13
S''
sg14
g1882
sg15
S''
sg16
S''
sbasS'Politician6'
p1886
(lp1887
g1
(g10
g3
NtRp1888
(dp1889
g13
S'RequireFlag'
p1890
sg14
g1886
sg15
S'STARTPOLITICIANSHAKEDOWN'
p1891
sg16
S'Good morning, Governor Mossman. Your PA will know your schedule. He is waiting in your room.'
p1892
sbag1
(g10
g3
NtRp1893
(dp1894
g13
S'Say'
p1895
sg14
S'Politician6'
p1896
sg15
S''
sg16
S'We should be all about not wasting money'
p1897
sbag1
(g10
g3
NtRp1898
(dp1899
g13
S'PlayerSay'
p1900
sg14
S'Politician6'
p1901
sg15
S''
sg16
S'Sounds fair. Wasting money on what?'
p1902
sbag1
(g10
g3
NtRp1903
(dp1904
g13
S'Say'
p1905
sg14
S'Politician6'
p1906
sg15
S''
sg16
S"You know, stuff that doesn't really help like artsy stuff."
p1907
sbag1
(g10
g3
NtRp1908
(dp1909
g13
S'PlayerSay'
p1910
sg14
S'Politician6'
p1911
sg15
S''
sg16
S"You don't think we should invest in our culture?"
p1912
sbag1
(g10
g3
NtRp1913
(dp1914
g13
S'Say'
p1915
sg14
S'Politician6'
p1916
sg15
S''
sg16
S'We have more important things to spend our money on. Like military.'
p1917
sbag1
(g10
g3
NtRp1918
(dp1919
g13
S'PlayerSay'
p1920
sg14
S'Politician6'
p1921
sg15
S''
sg16
S'What if people want to paint pictures about our military. Or write patriotic songs?'
p1922
sbag1
(g10
g3
NtRp1923
(dp1924
g13
S'Say'
p1925
sg14
S'Politician6'
p1926
sg15
S''
sg16
S"I hadn't thought of that..."
p1927
sbag1
(g10
g3
NtRp1928
(dp1929
g13
S'Encounter'
p1930
sg14
S'Politician6'
p1931
sg15
S'P-med-10'
p1932
sg16
S''
sbag1
(g10
g3
NtRp1933
(dp1934
g13
S'Say'
p1935
sg14
S'Politician6'
p1936
sg15
S''
sg16
S"So, militaristic march songs and battle scenes aren't the only sort of art? Wow."
p1937
sbag1
(g10
g3
NtRp1938
(dp1939
g13
S'Increment'
p1940
sg14
S'Politician6'
p1941
sg15
S'POLITICIANSHAKEDOWN'
p1942
sg16
S''
sbag1
(g10
g3
NtRp1943
(dp1944
g13
S'Destroy'
p1945
sg14
S'Politician6'
p1946
sg15
S''
sg16
S''
sbasS'Journalist3'
p1947
(lp1948
g1
(g10
g3
NtRp1949
(dp1950
g13
S'Say'
p1951
sg14
g1947
sg15
S''
sg16
S'Mr President, Cal from Daily LOL magazine. Can you explain the transformation that occurred during the presidential debate.'
p1952
sbag1
(g10
g3
NtRp1953
(dp1954
g13
S'PlayerSay'
p1955
sg14
S'Journalist3'
p1956
sg15
S''
sg16
S'Certainly, Cal. The President of the Ignited States turned into an alien.'
p1957
sbag1
(g10
g3
NtRp1958
(dp1959
g13
S'Say'
p1960
sg14
S'Journalist3'
p1961
sg15
S''
sg16
S"Ah, you mean to say he's out-of-touch with his people?"
p1962
sbag1
(g10
g3
NtRp1963
(dp1964
g13
S'PlayerSay'
p1965
sg14
S'Journalist3'
p1966
sg15
S''
sg16
S'Not exactly...'
p1967
sbag1
(g10
g3
NtRp1968
(dp1969
g13
S'Encounter'
p1970
sg14
S'Journalist3'
p1971
sg15
S'P-hard-01'
p1972
sg16
S''
sbag1
(g10
g3
NtRp1973
(dp1974
g13
S'Say'
p1975
sg14
S'Journalist3'
p1976
sg15
S''
sg16
S'I...see...'
p1977
sbag1
(g10
g3
NtRp1978
(dp1979
g13
S'Increment'
p1980
sg14
S'Journalist3'
p1981
sg15
S'PRESSCONF'
p1982
sg16
S''
sbag1
(g10
g3
NtRp1983
(dp1984
g13
S'Destroy'
p1985
sg14
S'Journalist3'
p1986
sg15
S''
sg16
S''
sbasS'PA2'
p1987
(lp1988
g1
(g10
g3
NtRp1989
(dp1990
g13
S'Say'
p1991
sg14
g1987
sg15
S''
sg16
S"Welcome to the White House, President Mossman. It was a long campaign trail with a very strange final debate, but we won and we're here."
p1992
sbag1
(g10
g3
NtRp1993
(dp1994
g13
S'Say'
p1995
sg14
S'PA2'
p1996
sg15
S''
sg16
S'Now is the real test where we see how well we can run a country.'
p1997
sbag1
(g10
g3
NtRp1998
(dp1999
g13
S'Say'
p2000
sg14
S'PA2'
p2001
sg15
S''
sg16
S'The first step is to give your first press conference as President to explain the...situation...with President Alien *cough* I mean Allen.'
p2002
sbag1
(g10
g3
NtRp2003
(dp2004
g13
S'RequireCount'
p2005
sg14
S'PA2'
p2006
sg15
S'PRESSCONF:3'
p2007
sg16
S"They're waiting for you in the Press Room, Mr President."
p2008
sbag1
(g10
g3
NtRp2009
(dp2010
g13
S'Say'
p2011
sg14
S'PA2'
p2012
sg15
S''
sg16
S'I think that went as well as could be expected.'
p2013
sbag1
(g10
g3
NtRp2014
(dp2015
g13
S'Say'
p2016
sg14
S'PA2'
p2017
sg15
S''
sg16
S'Your secret service detail is waiting over here in the corridor to have a word with you about security protocol.'
p2018
sbag1
(g10
g3
NtRp2019
(dp2020
g13
S'RequireFlag'
p2021
sg14
S'PA2'
p2022
sg15
S'KAWALSKIJOIN'
p2023
sg16
S"You'd better speak to the secret service agent. Your security is paramount."
p2024
sbag1
(g10
g3
NtRp2025
(dp2026
g13
S'Say'
p2027
sg14
S'PA2'
p2028
sg15
S''
sg16
S"Some war veterans would like to speak to you about some recent decisions you've made. I don't dare turn them away. You'd better speak to them."
p2029
sbag1
(g10
g3
NtRp2030
(dp2031
g13
S'PlayerSay'
p2032
sg14
S'PA2'
p2033
sg15
S''
sg16
S'Of course.'
p2034
sbag1
(g10
g3
NtRp2035
(dp2036
g13
S'RequireCount'
p2037
sg14
S'PA2'
p2038
sg15
S'WARVETS:2'
p2039
sg16
S''
sbag1
(g10
g3
NtRp2040
(dp2041
g13
S'Say'
p2042
sg14
S'PA2'
p2043
sg15
S''
sg16
S'What was that about?'
p2044
sbag1
(g10
g3
NtRp2045
(dp2046
g13
S'PlayerSay'
p2047
sg14
S'PA2'
p2048
sg15
S''
sg16
S"I'd like to know as well. Find me the documents that approved troop movement today and get me a meeting with the Joint Chiefs."
p2049
sbag1
(g10
g3
NtRp2050
(dp2051
g13
S'Say'
p2052
sg14
S'PA2'
p2053
sg15
S''
sg16
S'Yessir.'
p2054
sbag1
(g10
g3
NtRp2055
(dp2056
g13
S'Say'
p2057
sg14
S'PA2'
p2058
sg15
S''
sg16
S"Your next meeting is with the teacher's in the corridor. They didn't give me the details, but it seems they're quite upset."
p2059
sbag1
(g10
g3
NtRp2060
(dp2061
g13
S'RequireCount'
p2062
sg14
S'PA2'
p2063
sg15
S'TEACHERS:2'
p2064
sg16
S"You'll need to speak to the teachers in the corridor, Mr President."
p2065
sbag1
(g10
g3
NtRp2066
(dp2067
g13
S'Say'
p2068
sg14
S'PA2'
p2069
sg15
S''
sg16
S'You seem to have sorted the teachers out.'
p2070
sbag1
(g10
g3
NtRp2071
(dp2072
g13
S'PlayerSay'
p2073
sg14
S'PA2'
p2074
sg15
S''
sg16
S"I've mollified them for now, but I want to get to the bottom of this - NOW!"
p2075
sbag1
(g10
g3
NtRp2076
(dp2077
g13
S'Say'
p2078
sg14
S'PA2'
p2079
sg15
S''
sg16
S'Of course, Mr President. I do have those papers you asked for that approved the mobilisation of troops'
p2080
sbag1
(g10
g3
NtRp2081
(dp2082
g13
S'PlayerSay'
p2083
sg14
S'PA2'
p2084
sg15
S''
sg16
S"Let me see those...this is my signature! But I didn't sign this!"
p2085
sbag1
(g10
g3
NtRp2086
(dp2087
g13
S'Say'
p2088
sg14
S'PA2'
p2089
sg15
S''
sg16
S'This is very serious! What should we do, sir?'
p2090
sbag1
(g10
g3
NtRp2091
(dp2092
g13
S'PlayerSay'
p2093
sg14
S'PA2'
p2094
sg15
S''
sg16
S'Call a cabinet meeting in the Mural Room. Immediately.'
p2095
sbag1
(g10
g3
NtRp2096
(dp2097
g13
S'Say'
p2098
sg14
S'PA2'
p2099
sg15
S''
sg16
S"Understood. They'll be there when you get there."
p2100
sbag1
(g10
g3
NtRp2101
(dp2102
g13
S'RequireCount'
p2103
sg14
S'PA2'
p2104
sg15
S'CABINETMEMBERS:3'
p2105
sg16
S'The cabinet is waiting for you in the Mural Room.'
p2106
sbag1
(g10
g3
NtRp2107
(dp2108
g13
S'RequireCount'
p2109
sg14
S'PA2'
p2110
sg15
S'JOINTCHIEFS:3'
p2111
sg16
S'Hello, Sir. The Joint Chiefs are waiting for you in your office.'
p2112
sbag1
(g10
g3
NtRp2113
(dp2114
g13
S'RequireCount'
p2115
sg14
S'PA2'
p2116
sg15
S'JOINTCHIEFS:3'
p2117
sg16
S'The Joint Chiefs are waiting in your office, Sir.'
p2118
sbag1
(g10
g3
NtRp2119
(dp2120
g13
S'RequireFlag'
p2121
sg14
S'PA2'
p2122
sg15
S'WIN'
p2123
sg16
S'Mr President, you have to put a stop to the supercomputer that will destroy the planet! You can access it in the Situation Room.'
p2124
sbag1
(g10
g3
NtRp2125
(dp2126
g13
S'Say'
p2127
sg14
S'PA2'
p2128
sg15
S''
sg16
S"You have saved the day! The world is safe and all over the Ignited States, our citizens can sleep safe knowing you're taking care of them."
p2129
sbag1
(g10
g3
NtRp2130
(dp2131
g13
S'RequireFlag'
p2132
sg14
S'PA2'
p2133
sg15
S'LOOP'
p2134
sg16
S'Goodnight, Mr President.'
p2135
sbasS'Journalist5'
p2136
(lp2137
g1
(g10
g3
NtRp2138
(dp2139
g13
S'Say'
p2140
sg14
g2136
sg15
S''
sg16
S'Do you feel that a bi-partisan relationship will be possible between your party and the opposition?'
p2141
sbag1
(g10
g3
NtRp2142
(dp2143
g13
S'PlayerSay'
p2144
sg14
S'Journalist5'
p2145
sg15
S''
sg16
S'I suppose once we find and remove all of the aliens and reverse the alien brainwashing, bi-partisanship will resume.'
p2146
sbag1
(g10
g3
NtRp2147
(dp2148
g13
S'Encounter'
p2149
sg14
S'Journalist5'
p2150
sg15
S'P-hard-03'
p2151
sg16
S''
sbag1
(g10
g3
NtRp2152
(dp2153
g13
S'Say'
p2154
sg14
S'Journalist5'
p2155
sg15
S''
sg16
S'Thankyou, President Mossman.'
p2156
sbag1
(g10
g3
NtRp2157
(dp2158
g13
S'Increment'
p2159
sg14
S'Journalist5'
p2160
sg15
S'PRESSCONF'
p2161
sg16
S''
sbag1
(g10
g3
NtRp2162
(dp2163
g13
S'Destroy'
p2164
sg14
S'Journalist5'
p2165
sg15
S''
sg16
S''
sbasS'Journalist2'
p2166
(lp2167
g1
(g10
g3
NtRp2168
(dp2169
g13
S'RequireFlag'
p2170
sg14
g2166
sg15
S'STARTHICKS2'
p2171
sg16
S'Governor Badden sends his Mayor lacky to do his dirty work \xe2\x80\x93 what a scoop!'
p2172
sbag1
(g10
g3
NtRp2173
(dp2174
g13
S'Encounter'
p2175
sg14
S'Journalist2'
p2176
sg15
S'P-med-05'
p2177
sg16
S''
sbag1
(g10
g3
NtRp2178
(dp2179
g13
S'Say'
p2180
sg14
S'Journalist2'
p2181
sg15
S''
sg16
S"I'm going back to write a comparison piece on you and Governor Badden. You should consider running for Governor."
p2182
sbag1
(g10
g3
NtRp2183
(dp2184
g13
S'Increment'
p2185
sg14
S'Journalist2'
p2186
sg15
S'DEALWITHHICKS'
p2187
sg16
S''
sbag1
(g10
g3
NtRp2188
(dp2189
g13
S'Destroy'
p2190
sg14
S'Journalist2'
p2191
sg15
S''
sg16
S''
sbasS'#P-med-24'
p2192
(lp2193
g1
(g10
g3
NtRp2194
(dp2195
g13
S'PresidentAlien'
p2196
sg14
g2192
sg15
S"You think you've beaten me, but now you're going to fight the real me!"
p2197
sg16
S''
sbag1
(g10
g3
NtRp2198
(dp2199
g13
S'Player'
p2200
sg14
S'#P-med-24'
p2201
sg15
S'I knew something was wrong, but this...?'
p2202
sg16
S''
sbag1
(g10
g3
NtRp2203
(dp2204
g13
S'PresidentAlien'
p2205
sg14
S'#P-med-24'
p2206
sg15
S"All you've done is caused me to expedite my plans to enslave the human race!"
p2207
sg16
S''
sbasS'TVPersonality'
p2208
(lp2209
g1
(g10
g3
NtRp2210
(dp2211
g13
S'RequireFlag'
p2212
sg14
g2208
sg15
S'STARTHERCULES'
p2213
sg16
S"Ooooh, sorry Mossman, baby! We're not ready for you yet."
p2214
sbag1
(g10
g3
NtRp2215
(dp2216
g13
S'Say'
p2217
sg14
S'TVPersonality'
p2218
sg15
S''
sg16
S"There's the man! Are you ready to cross wits with The Mighty Hercules!"
p2219
sbag1
(g10
g3
NtRp2220
(dp2221
g13
S'PlayerSay'
p2222
sg14
S'TVPersonality'
p2223
sg15
S''
sg16
S'I sure am!'
p2224
sbag1
(g10
g3
NtRp2225
(dp2226
g13
S'Say'
p2227
sg14
S'TVPersonality'
p2228
sg15
S''
sg16
S"Really...? You don't want to...see your make-up artist?"
p2229
sbag1
(g10
g3
NtRp2230
(dp2231
g13
S'PlayerSay'
p2232
sg14
S'TVPersonality'
p2233
sg15
S''
sg16
S"No, no, I'm really ready."
p2234
sbag1
(g10
g3
NtRp2235
(dp2236
g13
S'Say'
p2237
sg14
S'TVPersonality'
p2238
sg15
S''
sg16
S'Suit yourself...and from the looks of it, suiting yourself is exactly what you did...ew.'
p2239
sbag1
(g10
g3
NtRp2240
(dp2241
g13
S'Encounter'
p2242
sg14
S'TVPersonality'
p2243
sg15
S'P-med-20'
p2244
sg16
S''
sbag1
(g10
g3
NtRp2245
(dp2246
g13
S'Say'
p2247
sg14
S'TVPersonality'
p2248
sg15
S''
sg16
S"Good show, you sure gave me a run for my money, now beat it, you're making me look bad!"
p2249
sbag1
(g10
g3
NtRp2250
(dp2251
g13
S'SetFlag'
p2252
sg14
S'TVPersonality'
p2253
sg15
S'BEATHERCULES'
p2254
sg16
S''
sbag1
(g10
g3
NtRp2255
(dp2256
g13
S'Destroy'
p2257
sg14
S'TVPersonality'
p2258
sg15
S''
sg16
S''
sbasS'Protester2'
p2259
(lp2260
g1
(g10
g3
NtRp2261
(dp2262
g13
S'Say'
p2263
sg14
g2259
sg15
S''
sg16
S"Bees buzz, Mayors lie, who's this Phillip Mossman guy?"
p2264
sbag1
(g10
g3
NtRp2265
(dp2266
g13
S'RequireFlag'
p2267
sg14
S'Protester2'
p2268
sg15
S'PROTESTORS'
p2269
sg16
S''
sbag1
(g10
g3
NtRp2270
(dp2271
g13
S'Encounter'
p2272
sg14
S'Protester2'
p2273
sg15
S'P-easy-03'
p2274
sg16
S''
sbag1
(g10
g3
NtRp2275
(dp2276
g13
S'Destroy'
p2277
sg14
S'Protester2'
p2278
sg15
S''
sg16
S''
sbasS'JointChief2'
p2279
(lp2280
g1
(g10
g3
NtRp2281
(dp2282
g13
S'PlayerSay'
p2283
sg14
g2279
sg15
S''
sg16
S'Who would have the power to do this? What would they stand to gain? Can we...'
p2284
sbag1
(g10
g3
NtRp2285
(dp2286
g13
S'Say'
p2287
sg14
S'JointChief2'
p2288
sg15
S''
sg16
S"I'm sorry, Sir. I've just learned that some ICBMs pointed at Russia have been activated \xe2\x80\x93 using your access codes! They could be fired at any moment!"
p2289
sbag1
(g10
g3
NtRp2290
(dp2291
g13
S'PlayerSay'
p2292
sg14
S'JointChief2'
p2293
sg15
S''
sg16
S"You've \xe2\x80\x9cjust learned\xe2\x80\x9d? Is this your doing?"
p2294
sbag1
(g10
g3
NtRp2295
(dp2296
g13
S'Encounter'
p2297
sg14
S'JointChief2'
p2298
sg15
S'P-hard-12'
p2299
sg16
S''
sbag1
(g10
g3
NtRp2300
(dp2301
g13
S'Increment'
p2302
sg14
S'JointChief2'
p2303
sg15
S'JOINTCHIEFS'
p2304
sg16
S''
sbag1
(g10
g3
NtRp2305
(dp2306
g13
S'PlayerSay'
p2307
sg14
S'JointChief2'
p2308
sg15
S''
sg16
S'I had to be sure.'
p2309
sbag1
(g10
g3
NtRp2310
(dp2311
g13
S'Destroy'
p2312
sg14
S'JointChief2'
p2313
sg15
S''
sg16
S''
sbasS'Protester1'
p2314
(lp2315
g1
(g10
g3
NtRp2316
(dp2317
g13
S'Say'
p2318
sg14
g2314
sg15
S''
sg16
S"Fee Fi Fo Fum, we think Mayor Goodman's Dumb!"
p2319
sbag1
(g10
g3
NtRp2320
(dp2321
g13
S'RequireFlag'
p2322
sg14
S'Protester1'
p2323
sg15
S'PROTESTORS'
p2324
sg16
S''
sbag1
(g10
g3
NtRp2325
(dp2326
g13
S'Encounter'
p2327
sg14
S'Protester1'
p2328
sg15
S'P-easy-02'
p2329
sg16
S''
sbag1
(g10
g3
NtRp2330
(dp2331
g13
S'Destroy'
p2332
sg14
S'Protester1'
p2333
sg15
S''
sg16
S''
sbasS'#----------------------------------------------------------------------------------------ACT 2 \xe2\x80\x93 Part 1---------------------------------------------------------------------------------------------------------------------------------------------------'
p2334
(lp2335
g1
(g10
g3
NtRp2336
(dp2337
g13
S''
sg14
g2334
sg15
S''
sg16
S''
sbasS'Head Protester'
p2338
(lp2339
g1
(g10
g3
NtRp2340
(dp2341
g13
S'Say'
p2342
sg14
g2338
sg15
S''
sg16
S"I am the head protester. You'll never convince us to back down!"
p2343
sbag1
(g10
g3
NtRp2344
(dp2345
g13
S'RequireFlag'
p2346
sg14
S'Head Protester'
p2347
sg15
S'PROTESTORS'
p2348
sg16
S''
sbag1
(g10
g3
NtRp2349
(dp2350
g13
S'PlayerSay'
p2351
sg14
S'Head Protester'
p2352
sg15
S''
sg16
S'What are you protesting?'
p2353
sbag1
(g10
g3
NtRp2354
(dp2355
g13
S'Say'
p2356
sg14
S'Head Protester'
p2357
sg15
S''
sg16
S'Er...Injustice!'
p2358
sbag1
(g10
g3
NtRp2359
(dp2360
g13
S'PlayerSay'
p2361
sg14
S'Head Protester'
p2362
sg15
S''
sg16
S'Injustice against what?'
p2363
sbag1
(g10
g3
NtRp2364
(dp2365
g13
S'Say'
p2366
sg14
S'Head Protester'
p2367
sg15
S''
sg16
S'...'
p2368
sbag1
(g10
g3
NtRp2369
(dp2370
g13
S'Say'
p2371
sg14
S'Head Protester'
p2372
sg15
S''
sg16
S'The People!'
p2373
sbag1
(g10
g3
NtRp2374
(dp2375
g13
S'PlayerSay'
p2376
sg14
S'Head Protester'
p2377
sg15
S''
sg16
S'Yes, but which people?'
p2378
sbag1
(g10
g3
NtRp2379
(dp2380
g13
S'Say'
p2381
sg14
S'Head Protester'
p2382
sg15
S''
sg16
S'See? What a fascist, ALL people you slimey politician scum!'
p2383
sbag1
(g10
g3
NtRp2384
(dp2385
g13
S'Encounter'
p2386
sg14
S'Head Protester'
p2387
sg15
S'P-easy-04'
p2388
sg16
S''
sbag1
(g10
g3
NtRp2389
(dp2390
g13
S'Say'
p2391
sg14
S'Head Protester'
p2392
sg15
S''
sg16
S"Alright, fine! We'll stop protesting...whatever we were protesting."
p2393
sbag1
(g10
g3
NtRp2394
(dp2395
g13
S'SetFlag'
p2396
sg14
S'Head Protester'
p2397
sg15
S'PROTESTORSDEAD'
p2398
sg16
S''
sbag1
(g10
g3
NtRp2399
(dp2400
g13
S'Destroy'
p2401
sg14
S'Head Protester'
p2402
sg15
S''
sg16
S''
sbasS'Sponsor'
p2403
(lp2404
g1
(g10
g3
NtRp2405
(dp2406
g13
S'RequireFlag'
p2407
sg14
g2403
sg15
S'STARTSPONSOR'
p2408
sg16
S"Hmmm...Money, money, money. Sorry, what? I wasn't talking to you."
p2409
sbag1
(g10
g3
NtRp2410
(dp2411
g13
S'Say'
p2412
sg14
S'Sponsor'
p2413
sg15
S''
sg16
S"Hello, I'm investigating new investments today. How can I help you?"
p2414
sbag1
(g10
g3
NtRp2415
(dp2416
g13
S'PlayerSay'
p2417
sg14
S'Sponsor'
p2418
sg15
S''
sg16
S"Well, I've decided to run for Mayor! I could really use an investor."
p2419
sbag1
(g10
g3
NtRp2420
(dp2421
g13
S'Say'
p2422
sg14
S'Sponsor'
p2423
sg15
S''
sg16
S"I don't know. You seem a little young. I don't think I'm convinced."
p2424
sbag1
(g10
g3
NtRp2425
(dp2426
g13
S'Encounter'
p2427
sg14
S'Sponsor'
p2428
sg15
S'P-easy-06'
p2429
sg16
S''
sbag1
(g10
g3
NtRp2430
(dp2431
g13
S'Say'
p2432
sg14
S'Sponsor'
p2433
sg15
S''
sg16
S"Wow! You sure have what it takes! Alright, he's a pile of cash!"
p2434
sbag1
(g10
g3
NtRp2435
(dp2436
g13
S'Say'
p2437
sg14
S'Sponsor'
p2438
sg15
S''
sg16
S'Also, now that you have some funds, you might find it useful to...grease the wheels in some difficult situations.'
p2439
sbag1
(g10
g3
NtRp2440
(dp2441
g13
S'LearnAttack'
p2442
sg14
S'Sponsor'
p2443
sg15
S'BRIBE'
p2444
sg16
S'Phillip and Sarah learn to Bribe'
p2445
sbag1
(g10
g3
NtRp2446
(dp2447
g13
S'LearnAttack'
p2448
sg14
S'Sponsor'
p2449
sg15
S'Wife:BRIBE'
p2450
sg16
S''
sbag1
(g10
g3
NtRp2451
(dp2452
g13
S'SetFlag'
p2453
sg14
S'Sponsor'
p2454
sg15
S'STARTCONSTITUENTS'
p2455
sg16
S''
sbag1
(g10
g3
NtRp2456
(dp2457
g13
S'PlayerSay'
p2458
sg14
S'Sponsor'
p2459
sg15
S''
sg16
S'Er, thanks! I suppose we should go gather some support from our constituents now.'
p2460
sbag1
(g10
g3
NtRp2461
(dp2462
g13
S'Say'
p2463
sg14
S'Sponsor'
p2464
sg15
S''
sg16
S"Makes sense to me! I'm off, too. Money, money, money."
p2465
sbag1
(g10
g3
NtRp2466
(dp2467
g13
S'Destroy'
p2468
sg14
S'Sponsor'
p2469
sg15
S''
sg16
S''
sbasS'CheatAct2P2'
p2470
(lp2471
g1
(g10
g3
NtRp2472
(dp2473
g13
S'AddAlly'
p2474
sg14
g2470
sg15
S'Wife:1'
p2475
sg16
S''
sbag1
(g10
g3
NtRp2476
(dp2477
g13
S'LearnAttack'
p2478
sg14
S'CheatAct2P2'
p2479
sg15
S'BRIBE'
p2480
sg16
S''
sbag1
(g10
g3
NtRp2481
(dp2482
g13
S'LearnAttack'
p2483
sg14
S'CheatAct2P2'
p2484
sg15
S'Wife:BRIBE'
p2485
sg16
S''
sbag1
(g10
g3
NtRp2486
(dp2487
g13
S'LearnAttack'
p2488
sg14
S'CheatAct2P2'
p2489
sg15
S'SLANDER'
p2490
sg16
S''
sbag1
(g10
g3
NtRp2491
(dp2492
g13
S'AddAlly'
p2493
sg14
S'CheatAct2P2'
p2494
sg15
S'Leo:1'
p2495
sg16
S''
sbag1
(g10
g3
NtRp2496
(dp2497
g13
S'GotoMap'
p2498
sg14
S'CheatAct2P2'
p2499
sg15
S'act2campaign'
p2500
sg16
S''
sbasS'P-med-12'
p2501
(lp2502
g1
(g10
g3
NtRp2503
(dp2504
g13
S'Say'
p2505
sg14
g2501
sg15
S'Lobbyist001'
p2506
sg16
S'import combat'
p2507
sbasS'Lobbyist3'
p2508
(lp2509
g1
(g10
g3
NtRp2510
(dp2511
g13
S'RequireFlag'
p2512
sg14
g2508
sg15
S'STARTLOBBYISTS'
p2513
sg16
S'Mutter, mutter'
p2514
sbag1
(g10
g3
NtRp2515
(dp2516
g13
S'Say'
p2517
sg14
S'Lobbyist3'
p2518
sg15
S''
sg16
S'Protection of internet memes'
p2519
sbag1
(g10
g3
NtRp2520
(dp2521
g13
S'Encounter'
p2522
sg14
S'Lobbyist3'
p2523
sg15
S'P-med-13'
p2524
sg16
S''
sbag1
(g10
g3
NtRp2525
(dp2526
g13
S'Increment'
p2527
sg14
S'Lobbyist3'
p2528
sg15
S'LOBBYISTS'
p2529
sg16
S''
sbag1
(g10
g3
NtRp2530
(dp2531
g13
S'Say'
p2532
sg14
S'Lobbyist3'
p2533
sg15
S''
sg16
S"It's a start."
p2534
sbag1
(g10
g3
NtRp2535
(dp2536
g13
S'Destroy'
p2537
sg14
S'Lobbyist3'
p2538
sg15
S''
sg16
S''
sbasS'Mayor'
p2539
(lp2540
g1
(g10
g3
NtRp2541
(dp2542
g13
S'Say'
p2543
sg14
g2539
sg15
S''
sg16
S"Hello, I'm the Mayor!"
p2544
sbag1
(g10
g3
NtRp2545
(dp2546
g13
S'PlayerSay'
p2547
sg14
S'Mayor'
p2548
sg15
S''
sg16
S"Hello, Mayor Goodman, I'm Philip Mossman."
p2549
sbag1
(g10
g3
NtRp2550
(dp2551
g13
S'Say'
p2552
sg14
S'Mayor'
p2553
sg15
S''
sg16
S"Ah yes, you're my new assistant. A good thing, too."
p2554
sbag1
(g10
g3
NtRp2555
(dp2556
g13
S'Say'
p2557
sg14
S'Mayor'
p2558
sg15
S''
sg16
S"I've been searching for minutes and haven't been able to find my pen! I bet my receptionist stole it. She has sticky fingers."
p2559
sbag1
(g10
g3
NtRp2560
(dp2561
g13
S'Say'
p2562
sg14
S'Mayor'
p2563
sg15
S''
sg16
S"Well, don't just stand there, go and get it!"
p2564
sbag1
(g10
g3
NtRp2565
(dp2566
g13
S'SetFlag'
p2567
sg14
S'Mayor'
p2568
sg15
S'PENQUEST'
p2569
sg16
S''
sbag1
(g10
g3
NtRp2570
(dp2571
g13
S'RequireItem'
p2572
sg14
S'Mayor'
p2573
sg15
S'PEN'
p2574
sg16
S'Are you simple? Go and get my pen from that thieving receptionist.'
p2575
sbag1
(g10
g3
NtRp2576
(dp2577
g13
S'Say'
p2578
sg14
S'Mayor'
p2579
sg15
S''
sg16
S"Great! I know she can give you a bit of a tongue-lashing, but she's a fantastic receptionist."
p2580
sbag1
(g10
g3
NtRp2581
(dp2582
g13
S'Say'
p2583
sg14
S'Mayor'
p2584
sg15
S''
sg16
S"I'm sure you want to learn a thing or two about politics \xe2\x80\x93 who doesn't? - so lets get started"
p2585
sbag1
(g10
g3
NtRp2586
(dp2587
g13
S'SetFlag'
p2588
sg14
S'Mayor'
p2589
sg15
S'PROTESTORS'
p2590
sg16
S''
sbag1
(g10
g3
NtRp2591
(dp2592
g13
S'RequireFlag'
p2593
sg14
S'Mayor'
p2594
sg15
S'PROTESTORSDEAD'
p2595
sg16
S'Run outside and tell those protesters to scram, will you?'
p2596
sbag1
(g10
g3
NtRp2597
(dp2598
g13
S'Say'
p2599
sg14
S'Mayor'
p2600
sg15
S''
sg16
S"Hope they didn't give you too much trouble!"
p2601
sbag1
(g10
g3
NtRp2602
(dp2603
g13
S'Say'
p2604
sg14
S'Mayor'
p2605
sg15
S''
sg16
S"Now that's sorted, there's a journalist from the local newspaper coming for an interview."
p2606
sbag1
(g10
g3
NtRp2607
(dp2608
g13
S'Say'
p2609
sg14
S'Mayor'
p2610
sg15
S''
sg16
S"I certainly don't have time for it, so you can do the interview."
p2611
sbag1
(g10
g3
NtRp2612
(dp2613
g13
S'Say'
p2614
sg14
S'Mayor'
p2615
sg15
S''
sg16
S"Be careful not to give too much away and if you could throw a few punches at the opposition that'd help."
p2616
sbag1
(g10
g3
NtRp2617
(dp2618
g13
S'PlayerSay'
p2619
sg14
S'Mayor'
p2620
sg15
S''
sg16
S'You want me to...throw a punch?'
p2621
sbag1
(g10
g3
NtRp2622
(dp2623
g13
S'Say'
p2624
sg14
S'Mayor'
p2625
sg15
S''
sg16
S"You're in politics and don't know how to fight dirty? Sheesh! Here, let me show you."
p2626
sbag1
(g10
g3
NtRp2627
(dp2628
g13
S'LearnAttack'
p2629
sg14
S'Mayor'
p2630
sg15
S'SLANDER'
p2631
sg16
S'Mayor teaches Phillip to Slander Opposition'
p2632
sbag1
(g10
g3
NtRp2633
(dp2634
g13
S'Say'
p2635
sg14
S'Mayor'
p2636
sg15
S''
sg16
S"It's a pretty great tactic because it keeps eating away at them long after you've done it."
p2637
sbag1
(g10
g3
NtRp2638
(dp2639
g13
S'SetFlag'
p2640
sg14
S'Mayor'
p2641
sg15
S'INTERVIEWSTART'
p2642
sg16
S''
sbag1
(g10
g3
NtRp2643
(dp2644
g13
S'RequireFlag'
p2645
sg14
S'Mayor'
p2646
sg15
S'JOURNALISTINTERVIEW'
p2647
sg16
S'Go handle that interview and remember to slander the opposition.'
p2648
sbag1
(g10
g3
NtRp2649
(dp2650
g13
S'SetFlag'
p2651
sg14
S'Mayor'
p2652
sg15
S'GOHOMETOWIFE'
p2653
sg16
S''
sbag1
(g10
g3
NtRp2654
(dp2655
g13
S'Say'
p2656
sg14
S'Mayor'
p2657
sg15
S''
sg16
S'OK, fine, now could you buzz off for a while? I need to get some work done.'
p2658
sbag1
(g10
g3
NtRp2659
(dp2660
g13
S'RequireFlag'
p2661
sg14
S'Mayor'
p2662
sg15
S'CONSTITUENTSWON'
p2663
sg16
S"Go home to your family. I have things to do that don't involve you."
p2664
sbag1
(g10
g3
NtRp2665
(dp2666
g13
S'Say'
p2667
sg14
S'Mayor'
p2668
sg15
S''
sg16
S"What's this I hear about you campaigning for Mayor? After everything I've taught you!"
p2669
sbag1
(g10
g3
NtRp2670
(dp2671
g13
S'PlayerSay'
p2672
sg14
S'Mayor'
p2673
sg15
S''
sg16
S"I'm sorry Mayor Goodman, but it's time for someone who's ready to make a difference for our town."
p2674
sbag1
(g10
g3
NtRp2675
(dp2676
g13
S'Say'
p2677
sg14
S'Mayor'
p2678
sg15
S''
sg16
S"You really are a fool. Do you think He's going to allow that?"
p2679
sbag1
(g10
g3
NtRp2680
(dp2681
g13
S'Encounter'
p2682
sg14
S'Mayor'
p2683
sg15
S'P-easy-10'
p2684
sg16
S''
sbag1
(g10
g3
NtRp2685
(dp2686
g13
S'Say'
p2687
sg14
S'Mayor'
p2688
sg15
S''
sg16
S"Well, you've beaten me but you don't have a clue what you're in for. I hope you're up to this kid!"
p2689
sbag1
(g10
g3
NtRp2690
(dp2691
g13
S'Destroy'
p2692
sg14
S'Mayor'
p2693
sg15
S''
sg16
S''
sbasS'Politician4'
p2694
(lp2695
g1
(g10
g3
NtRp2696
(dp2697
g13
S'RequireFlag'
p2698
sg14
g2694
sg15
S'STARTPOLITICIANSHAKEDOWN'
p2699
sg16
S'Good morning, Governor Mossman. Your PA will know your schedule. He is waiting in your room.'
p2700
sbag1
(g10
g3
NtRp2701
(dp2702
g13
S'Say'
p2703
sg14
S'Politician4'
p2704
sg15
S''
sg16
S"I'm for culture! It's a glorious age we live in, we should further this great country's culture."
p2705
sbag1
(g10
g3
NtRp2706
(dp2707
g13
S'PlayerSay'
p2708
sg14
S'Politician4'
p2709
sg15
S''
sg16
S'That sounds fair, but what kind of culture would you like to focus on.'
p2710
sbag1
(g10
g3
NtRp2711
(dp2712
g13
S'Say'
p2713
sg14
S'Politician4'
p2714
sg15
S''
sg16
S"Oh...I don't know, I'm not really into art, can't really handle music. I'd rather not go to the theatre if I can get out of it. Don't really see the point of sport...hmmm. New culture?"
p2715
sbag1
(g10
g3
NtRp2716
(dp2717
g13
S'PlayerSay'
p2718
sg14
S'Politician4'
p2719
sg15
S''
sg16
S"You don't seem very in to improving culture really."
p2720
sbag1
(g10
g3
NtRp2721
(dp2722
g13
S'Say'
p2723
sg14
S'Politician4'
p2724
sg15
S''
sg16
S'Yeh, well...my wife said it would make me sound smart. I think sounding smart is important. Lets be for that!'
p2725
sbag1
(g10
g3
NtRp2726
(dp2727
g13
S'Encounter'
p2728
sg14
S'Politician4'
p2729
sg15
S'P-med-08'
p2730
sg16
S''
sbag1
(g10
g3
NtRp2731
(dp2732
g13
S'Say'
p2733
sg14
S'Politician4'
p2734
sg15
S''
sg16
S"Gee, you're a pretty smart guy. I think you've got this covered."
p2735
sbag1
(g10
g3
NtRp2736
(dp2737
g13
S'Increment'
p2738
sg14
S'Politician4'
p2739
sg15
S'POLITICIANSHAKEDOWN'
p2740
sg16
S''
sbag1
(g10
g3
NtRp2741
(dp2742
g13
S'Destroy'
p2743
sg14
S'Politician4'
p2744
sg15
S''
sg16
S''
sbassS'attacks'
p2745
(dp2746
S'GETEXCLUSIVE'
p2747
g1
(g10
g3
NtRp2748
(dp2749
S'base_damage_max'
p2750
F8
sS'description'
p2751
S'asdf'
p2752
sS'weight'
p2753
I1
sS'crit_chance_max'
p2754
F5
sS'crit_chance_min'
p2755
F2
sS'underlying_stat'
p2756
S'Wit'
p2757
sS'target_type'
p2758
S'AllFriendly'
p2759
sS'base_damage_min'
p2760
F4
sS'spin_cost'
p2761
F5
sS'effects'
p2762
(lp2763
g1
(c__main__
Effect
p2764
g3
NtRp2765
(dp2766
S'function'
p2767
S'add'
p2768
sS'abbrv'
p2769
S'(INCREASE)'
p2770
sS'attribute'
p2771
S'cunning'
p2772
sS'value'
p2773
F2
sS'rounds_min'
p2774
F1
sS'rounds_max'
p2775
F4
sS'id'
p2776
S'Increase Cunning'
p2777
sS'apply_to_source'
p2778
S'TRUE'
p2779
sbasS'target_count'
p2780
I1
sS'crit_base_damage'
p2781
F12
sg2776
g2747
sS'name'
p2782
S'Get Exclusive'
p2783
sbsS'LOSELOSE'
p2784
g1
(g10
g3
NtRp2785
(dp2786
g2750
F4
sg2751
S'Causes all politicians in the target radius to lose votes'
p2787
sg2753
I1
sg2754
F0
sg2755
F0
sg2756
S'Cunning'
p2788
sg2758
S'All'
p2789
sg2760
F4
sg2761
I0
sg2762
(lp2790
sg2780
I6
sg2781
F0
sg2776
g2784
sg2782
S'Lose/lose issue'
p2791
sbsS'LIE'
p2792
g1
(g10
g3
NtRp2793
(dp2794
g2750
F9
sg2751
S"It's only lying if they catch you. A strong attack with a danger of critically failing"
p2795
sg2753
F3
sg2754
F10
sg2755
F5
sg2756
S'Cunning'
p2796
sg2758
S'AllEnemy'
p2797
sg2760
F0
sg2761
I0
sg2762
(lp2798
g1
(g2764
g3
NtRp2799
(dp2800
g2767
S'miss_turn'
p2801
sg2769
S'(MISS)'
p2802
sg2771
S''
sg2773
F0
sg2774
F1
sg2775
F1
sg2776
S'Critical Fail'
p2803
sg2778
S'TRUE'
p2804
sbasg2780
I1
sg2781
F10
sg2776
g2792
sg2782
S'Lie'
p2805
sbsS'HILARIOUSANECDOTE'
p2806
g1
(g10
g3
NtRp2807
(dp2808
g2750
F8
sg2751
S'asdf'
p2809
sg2753
I1
sg2754
F5
sg2755
F2
sg2756
S'Wit'
p2810
sg2758
S'AllFriendly'
p2811
sg2760
F4
sg2761
F5
sg2762
(lp2812
g1
(g2764
g3
NtRp2813
(dp2814
g2767
S'add'
p2815
sg2769
S'(INCREASE)'
p2816
sg2771
S'flair'
p2817
sg2773
F2
sg2774
F1
sg2775
F4
sg2776
S'Increase Flair'
p2818
sg2778
S'TRUE'
p2819
sbasg2780
I1
sg2781
F11
sg2776
g2806
sg2782
S'Hilarious Anecdote'
p2820
sbsS'SENSATIONALISE'
p2821
g1
(g10
g3
NtRp2822
(dp2823
g2750
F8
sg2751
S'asdf'
p2824
sg2753
I1
sg2754
F0
sg2755
F0
sg2756
S'Wit'
p2825
sg2758
S'AllEnemy'
p2826
sg2760
F4
sg2761
F3
sg2762
(lp2827
sg2780
I1
sg2781
F0
sg2776
g2821
sg2782
S'Sensationalise'
p2828
sbsS'DENOUNCE'
p2829
g1
(g10
g3
NtRp2830
(dp2831
g2750
F5
sg2751
S'asdf'
p2832
sg2753
F6
sg2754
F10
sg2755
F2
sg2756
S'Cunning'
p2833
sg2758
S'AllEnemy'
p2834
sg2760
F2
sg2761
I0
sg2762
(lp2835
sg2780
I1
sg2781
F8
sg2776
g2829
sg2782
S'Denounce'
p2836
sbsS'WHADOWEWANT'
p2837
g1
(g10
g3
NtRp2838
(dp2839
g2750
F6
sg2751
S'asdf'
p2840
sg2753
I1
sg2754
F0
sg2755
F0
sg2756
S'Cunning'
p2841
sg2758
S'AllEnemy'
p2842
sg2760
F3
sg2761
I0
sg2762
(lp2843
sg2780
I1
sg2781
F0
sg2776
g2837
sg2782
S'Whadowewant!'
p2844
sbsS'SCOOP'
p2845
g1
(g10
g3
NtRp2846
(dp2847
g2750
F5
sg2751
S'asdf'
p2848
sg2753
I1
sg2754
F10
sg2755
F5
sg2756
S'Cunning'
p2849
sg2758
S'AllEnemy'
p2850
sg2760
F2
sg2761
I0
sg2762
(lp2851
sg2780
I1
sg2781
F8
sg2776
g2845
sg2782
S'Scoop'
p2852
sbsS'CHOOSETARGETS'
p2853
g1
(g10
g3
NtRp2854
(dp2855
g2750
F7
sg2751
S'asdf'
p2856
sg2753
I1
sg2754
F10
sg2755
F5
sg2756
S'Cunning'
p2857
sg2758
S'AllEnemy'
p2858
sg2760
F2
sg2761
I0
sg2762
(lp2859
sg2780
I1
sg2781
F9
sg2776
g2853
sg2782
S'Choose Targets'
p2860
sbsS'FILENAILS'
p2861
g1
(g10
g3
NtRp2862
(dp2863
g2750
F0
sg2751
S'asdf'
p2864
sg2753
I1
sg2754
F0
sg2755
F0
sg2756
S'Wit'
p2865
sg2758
S'AllEnemy'
p2866
sg2760
F0
sg2761
F3
sg2762
(lp2867
g1
(g2764
g3
NtRp2868
(dp2869
g2767
S'add_permanent'
p2870
sg2769
S''
sg2771
S'votes'
p2871
sg2773
F5
sg2774
F1
sg2775
F1
sg2776
S'Votes Restore'
p2872
sg2778
S'TRUE'
p2873
sbasg2780
I1
sg2781
F0
sg2776
g2861
sg2782
S'File Nails'
p2874
sbsS'BRIBE'
p2875
g1
(g10
g3
NtRp2876
(dp2877
g2750
F10
sg2751
S'Is there anything more convincing than money? Buying loyalty gets expensive so be careful.'
p2878
sg2753
I1
sg2754
F0
sg2755
F0
sg2756
S'Money'
p2879
sg2758
S'AllEnemy'
p2880
sg2760
F4
sg2761
I0
sg2762
(lp2881
sg2780
I1
sg2781
F0
sg2776
g2875
sg2782
S'Bribe'
p2882
sbsS'SING'
p2883
g1
(g10
g3
NtRp2884
(dp2885
g2750
F-3
sg2751
S'Why bandy words with politicians when you can sing a catchy tune! Restores votes.'
p2886
sg2753
I1
sg2754
F0
sg2755
F0
sg2756
S'Cunning'
p2887
sg2758
S'AllFriendly'
p2888
sg2760
F-5
sg2761
I0
sg2762
(lp2889
sg2780
I4
sg2781
F0
sg2776
g2883
sg2782
S'Rousing Song'
p2890
sbsS'FEAR'
p2891
g1
(g10
g3
NtRp2892
(dp2893
g2750
F0
sg2751
S'asdf'
p2894
sg2753
F2
sg2754
F0
sg2755
F0
sg2756
S'Wit'
p2895
sg2758
S'AllFriendly'
p2896
sg2760
F0
sg2761
F4
sg2762
(lp2897
g2765
asg2780
I1
sg2781
F0
sg2776
g2891
sg2782
S'Fear Change'
p2898
sbsS'RAISEDEFCON'
p2899
g1
(g10
g3
NtRp2900
(dp2901
g2750
F5
sg2751
S'asdf'
p2902
sg2753
I1
sg2754
F7
sg2755
F3
sg2756
S'Cunning'
p2903
sg2758
S'AllEnemy'
p2904
sg2760
F4
sg2761
I0
sg2762
(lp2905
sg2780
I1
sg2781
F8
sg2776
g2899
sg2782
S'Raise DEFCON'
p2906
sbsS'NEGATTACKAD'
p2907
g1
(g10
g3
NtRp2908
(dp2909
g2750
F8
sg2751
S"Take them all down. They're definitely all bad people. Not like you."
p2910
sg2753
I1
sg2754
F10
sg2755
F10
sg2756
S'Wit'
p2911
sg2758
S'AllEnemy'
p2912
sg2760
F3
sg2761
F5
sg2762
(lp2913
sg2780
I1
sg2781
F10
sg2776
g2907
sg2782
S'Negative Attack Ad'
p2914
sbsS'DAZZLE'
p2915
g1
(g10
g3
NtRp2916
(dp2917
g2750
F6
sg2751
S'Being dazzling and admirable is a great way to take heat off politics'
p2918
sg2753
I1
sg2754
F8
sg2755
F5
sg2756
S'Wit'
p2919
sg2758
S'AllEnemy'
p2920
sg2760
F3
sg2761
F3
sg2762
(lp2921
g1
(g2764
g3
NtRp2922
(dp2923
g2767
S'reduce'
p2924
sg2769
S'(REDUCE)'
p2925
sg2771
S'cunning'
p2926
sg2773
F2
sg2774
F2
sg2775
F5
sg2776
S'Reduce Cunning'
p2927
sg2778
S''
sbasg2780
I4
sg2781
F8
sg2776
g2915
sg2782
S'Dazzle'
p2928
sbsS'BELIEVEMEDIA'
p2929
g1
(g10
g3
NtRp2930
(dp2931
g2750
F3
sg2751
S'asdf'
p2932
sg2753
I1
sg2754
F15
sg2755
F10
sg2756
S'Cunning'
p2933
sg2758
S'AllEnemy'
p2934
sg2760
F1
sg2761
I0
sg2762
(lp2935
sg2780
I1
sg2781
F12
sg2776
g2929
sg2782
S'Believe Media'
p2936
sbsS'PRPREP'
p2937
g1
(g10
g3
NtRp2938
(dp2939
g2750
F0
sg2751
S"If you're going to need some spin, best see a spin doctor! Adds spin points."
p2940
sg2753
I1
sg2754
F0
sg2755
F0
sg2756
S''
sg2758
S'AllFriendly'
p2941
sg2760
F0
sg2761
I0
sg2762
(lp2942
g1
(g2764
g3
NtRp2943
(dp2944
g2767
S'add_permanent'
p2945
sg2769
S''
sg2771
S'spin'
p2946
sg2773
F5
sg2774
F0
sg2775
F0
sg2776
S'Spin Restore'
p2947
sg2778
S'TRUE'
p2948
sbasg2780
I1
sg2781
F0
sg2776
g2937
sg2782
S'PR Prep'
p2949
sbsS'CALLVATICAN'
p2950
g1
(g10
g3
NtRp2951
(dp2952
g2750
F0
sg2751
S'Brings in 2 additional ReligousNuts at 2 levels lower than this one'
p2953
sg2753
I1
sg2754
F0
sg2755
F0
sg2756
S'Wit'
p2954
sg2758
S'None'
p2955
sg2760
F0
sg2761
F5
sg2762
(lp2956
g1
(g2764
g3
NtRp2957
(dp2958
g2767
S'call_friends'
p2959
sg2769
S''
sg2771
S'ReligiousNut001:1'
p2960
sg2773
F2
sg2774
F1
sg2775
F1
sg2776
S'Call Friends'
p2961
sg2778
S''
sbasg2780
I1
sg2781
F0
sg2776
g2950
sg2782
S'Call Battycan'
p2962
sbsS'BLACKMAIL'
p2963
g1
(g10
g3
NtRp2964
(dp2965
g2750
F6
sg2751
S'asdf'
p2966
sg2753
I1
sg2754
F10
sg2755
F2
sg2756
S'Wit'
p2967
sg2758
S'AllEnemy'
p2968
sg2760
F3
sg2761
F4
sg2762
(lp2969
g1
(g2764
g3
NtRp2970
(dp2971
g2767
S'drain'
p2972
sg2769
S'(DRAIN)'
p2973
sg2771
S'votes'
p2974
sg2773
F1
sg2774
F2
sg2775
F5
sg2776
S'Drain Votes'
p2975
sg2778
S''
sbasg2780
I1
sg2781
F2
sg2776
g2963
sg2782
S'Blackmail'
p2976
sbsS'SCARE'
p2977
g1
(g10
g3
NtRp2978
(dp2979
g2750
F7
sg2751
S'Nothing rattles the brains like fear.'
p2980
sg2753
I1
sg2754
F10
sg2755
F2
sg2756
S'Cunning'
p2981
sg2758
S'AllEnemy'
p2982
sg2760
F2
sg2761
I0
sg2762
(lp2983
g2922
asg2780
I2
sg2781
F9
sg2776
g2977
sg2782
S'Scare Campaign'
p2984
sbsS'PROTEST'
p2985
g1
(g10
g3
NtRp2986
(dp2987
g2750
F5
sg2751
S'asdf'
p2988
sg2753
F6
sg2754
F10
sg2755
F2
sg2756
S'Cunning'
p2989
sg2758
S'AllEnemy'
p2990
sg2760
F2
sg2761
I0
sg2762
(lp2991
sg2780
I1
sg2781
F8
sg2776
g2985
sg2782
S'Protest'
p2992
sbsS'SPREADRUMOUR'
p2993
g1
(g10
g3
NtRp2994
(dp2995
g2750
F8
sg2751
S'asdf'
p2996
sg2753
I1
sg2754
F10
sg2755
F2
sg2756
S'Wit'
p2997
sg2758
S'AllEnemy'
p2998
sg2760
F3
sg2761
F3
sg2762
(lp2999
sg2780
I4
sg2781
F10
sg2776
g2993
sg2782
S'Spread Rumour'
p3000
sbsS'AGENDA'
p3001
g1
(g10
g3
NtRp3002
(dp3003
g2750
F5
sg2751
S'asdf'
p3004
sg2753
F6
sg2754
F10
sg2755
F2
sg2756
S'Cunning'
p3005
sg2758
S'AllEnemy'
p3006
sg2760
F2
sg2761
I0
sg2762
(lp3007
sg2780
I1
sg2781
F8
sg2776
g3001
sg2782
S'Push Agenda'
p3008
sbsS'FILIBUSTER'
p3009
g1
(g10
g3
NtRp3010
(dp3011
g2750
F6
sg2751
S"You're not moving until they give in. Cause all opposition to miss their turn"
p3012
sg2753
I1
sg2754
F0
sg2755
F0
sg2756
S'Wit'
p3013
sg2758
S'AllEnemy'
p3014
sg2760
F3
sg2761
F8
sg2762
(lp3015
g1
(g2764
g3
NtRp3016
(dp3017
g2767
S'miss_turn'
p3018
sg2769
S'(MISS)'
p3019
sg2771
S''
sg2773
F0
sg2774
F1
sg2775
F1
sg2776
S'Miss Turn'
p3020
sg2778
S''
sbasg2780
I1
sg2781
F0
sg2776
g3009
sg2782
S'Filibuster'
p3021
sbsS'GATHERINTEL'
p3022
g1
(g10
g3
NtRp3023
(dp3024
g2750
F0
sg2751
S'Increases Cunning.'
p3025
sg2753
I1
sg2754
F0
sg2755
F0
sg2756
S'Wit'
p3026
sg2758
S'AllFriendly'
p3027
sg2760
F0
sg2761
F3
sg2762
(lp3028
g2765
asg2780
I2
sg2781
F0
sg2776
g3022
sg2782
S'Gather Intelligence'
p3029
sbsS'LOVE'
p3030
g1
(g10
g3
NtRp3031
(dp3032
g2750
F6
sg2751
S'asdf'
p3033
sg2753
F2
sg2754
F8
sg2755
F2
sg2756
S'Cunning'
p3034
sg2758
S'AllEnemy'
p3035
sg2760
F1
sg2761
I0
sg2762
(lp3036
sg2780
I1
sg2781
F7
sg2776
g3030
sg2782
S'Love'
p3037
sbsS'OUTOFCONTEXT'
p3038
g1
(g10
g3
NtRp3039
(dp3040
g2750
F5
sg2751
S'asdf'
p3041
sg2753
I1
sg2754
F5
sg2755
F2
sg2756
S'Wit'
p3042
sg2758
S'AllEnemy'
p3043
sg2760
F3
sg2761
F2
sg2762
(lp3044
g2970
asg2780
I1
sg2781
F5
sg2776
g3038
sg2782
S'Take Out Of Context'
p3045
sbsS'GREATSUIT'
p3046
g1
(g10
g3
NtRp3047
(dp3048
g2750
F6
sg2751
S'Well, we could argue, but have you noticed how fabulous this suit is?'
p3049
sg2753
I1
sg2754
F11
sg2755
F6
sg2756
S'Cunning'
p3050
sg2758
S'AllEnemy'
p3051
sg2760
F3
sg2761
I0
sg2762
(lp3052
sg2780
I1
sg2781
F10
sg2776
g3046
sg2782
S'Look Great In Suit'
p3053
sbsS'PEACE'
p3054
g1
(g10
g3
NtRp3055
(dp3056
g2750
F0
sg2751
S'asdf'
p3057
sg2753
I1
sg2754
F0
sg2755
F0
sg2756
S'Wit'
p3058
sg2758
S'AllEnemy'
p3059
sg2760
F0
sg2761
F3
sg2762
(lp3060
g2922
asg2780
I4
sg2781
F0
sg2776
g3054
sg2782
S'Peace'
p3061
sbsS'INSPSPEECH'
p3062
g1
(g10
g3
NtRp3063
(dp3064
g2750
F-2
sg2751
S'Restore votes to all party members'
p3065
sg2753
I1
sg2754
F0
sg2755
F0
sg2756
S'Cunning'
p3066
sg2758
S'AllFriendly'
p3067
sg2760
F-2
sg2761
I0
sg2762
(lp3068
sg2780
I4
sg2781
F0
sg2776
g3062
sg2782
S'Inspirational Speech'
p3069
sbsS'RALLYENEMY'
p3070
g1
(g10
g3
NtRp3071
(dp3072
g2750
F0
sg2751
S'Get back some votes by rallying supporters'
p3073
sg2753
I1
sg2754
F0
sg2755
F0
sg2756
S'Wit'
p3074
sg2758
S'AllFriendly'
p3075
sg2760
F0
sg2761
F3
sg2762
(lp3076
g1
(g2764
g3
NtRp3077
(dp3078
g2767
S'add_permanent'
p3079
sg2769
S''
sg2771
S'votes'
p3080
sg2773
F8
sg2774
F1
sg2775
F1
sg2776
S'Votes Restore Rally Enemy'
p3081
sg2778
S''
sbasg2780
I1
sg2781
F0
sg2776
g3070
sg2782
S'Rally Constituents'
p3082
sbsS'STRIKE'
p3083
g1
(g10
g3
NtRp3084
(dp3085
g2750
F10
sg2751
S'asdf'
p3086
sg2753
I1
sg2754
F0
sg2755
F0
sg2756
S'Wit'
p3087
sg2758
S'AllEnemy'
p3088
sg2760
F0
sg2761
F3
sg2762
(lp3089
g2799
asg2780
I1
sg2781
F0
sg2776
g3083
sg2782
S'Call A Strike'
p3090
sbsS'SLANDER'
p3091
g1
(g10
g3
NtRp3092
(dp3093
g2750
F5
sg2751
S'Strong against polititians...careful with those voters, though!'
p3094
sg2753
F4
sg2754
F10
sg2755
F2
sg2756
S'Cunning'
p3095
sg2758
S'AllEnemy'
p3096
sg2760
F3
sg2761
I0
sg2762
(lp3097
g2970
asg2780
I1
sg2781
F7
sg2776
g3091
sg2782
S'Slander Opposition'
p3098
sbsS'NATTER'
p3099
g1
(g10
g3
NtRp3100
(dp3101
g2750
F8
sg2751
S'asdf'
p3102
sg2753
I1
sg2754
F15
sg2755
F5
sg2756
S'Cunning'
p3103
sg2758
S'AllEnemy'
p3104
sg2760
F1
sg2761
I0
sg2762
(lp3105
sg2780
I1
sg2781
F10
sg2776
g3099
sg2782
S'Natter On'
p3106
sbsS'GOSSIP'
p3107
g1
(g10
g3
NtRp3108
(dp3109
g2750
F3
sg2751
S'asdf'
p3110
sg2753
I1
sg2754
F10
sg2755
F2
sg2756
S'Wit'
p3111
sg2758
S'AllEnemy'
p3112
sg2760
F2
sg2761
F2
sg2762
(lp3113
g2922
asg2780
I1
sg2781
F6
sg2776
g3107
sg2782
S'Gossip'
p3114
sbsS'MISSTURN'
p3115
g1
(g10
g3
NtRp3116
(dp3117
g2750
F0
sg2751
S'asdf'
p3118
sg2753
I1
sg2754
F0
sg2755
F0
sg2756
S''
sg2758
S'AllEnemy'
p3119
sg2760
F0
sg2761
I0
sg2762
(lp3120
sg2780
I1
sg2781
F0
sg2776
g3115
sg2782
S'Miss Turn'
p3121
sbsS'BIELECTION'
p3122
g1
(g10
g3
NtRp3123
(dp3124
g2750
F4
sg2751
S'Redistribute votes amongst targets'
p3125
sg2753
I1
sg2754
F0
sg2755
F0
sg2756
S'Wit'
p3126
sg2758
S'All'
p3127
sg2760
F-4
sg2761
F4
sg2762
(lp3128
sg2780
I8
sg2781
F0
sg2776
g3122
sg2782
S'Bielection'
p3129
sbsS'RUNAD'
p3130
g1
(g10
g3
NtRp3131
(dp3132
g2750
F0
sg2751
S'Gets back some votes by running an ad'
p3133
sg2753
I1
sg2754
F0
sg2755
F0
sg2756
S''
sg2758
S'AllFriendly'
p3134
sg2760
F0
sg2761
I0
sg2762
(lp3135
g1
(g2764
g3
NtRp3136
(dp3137
g2767
S'add_permanent'
p3138
sg2769
S''
sg2771
S'votes'
p3139
sg2773
F15
sg2774
F1
sg2775
F1
sg2776
S'Votes Restore Ad'
p3140
sg2778
S'TRUE'
p3141
sbasg2780
I1
sg2781
F0
sg2776
g3130
sg2782
S'Run Advertisement'
p3142
sbsS'PAYOFF'
p3143
g1
(g10
g3
NtRp3144
(dp3145
g2750
F8
sg2751
S'causes them to miss a number of turns'
p3146
sg2753
I1
sg2754
F8
sg2755
F2
sg2756
S'Wit'
p3147
sg2758
S'AllEnemy'
p3148
sg2760
F4
sg2761
F4
sg2762
(lp3149
g1
(g2764
g3
NtRp3150
(dp3151
g2767
S'miss_turn'
p3152
sg2769
S'(MISS)'
p3153
sg2771
S''
sg2773
F0
sg2774
F1
sg2775
F3
sg2776
S'Miss Turn Pay Off'
p3154
sg2778
S''
sbasg2780
I1
sg2781
F10
sg2776
g3143
sg2782
S'Pay Off'
p3155
sbsS'BUREAUCRACY'
p3156
g1
(g10
g3
NtRp3157
(dp3158
g2750
F5
sg2751
S'asdf'
p3159
sg2753
F6
sg2754
F10
sg2755
F2
sg2756
S'Cunning'
p3160
sg2758
S'AllEnemy'
p3161
sg2760
F2
sg2761
I0
sg2762
(lp3162
sg2780
I1
sg2781
F8
sg2776
g3156
sg2782
S'Bureaucracy'
p3163
sbsS'RALLYAUDIENCE'
p3164
g1
(g10
g3
NtRp3165
(dp3166
g2750
F8
sg2751
S'asdf'
p3167
sg2753
I1
sg2754
F0
sg2755
F0
sg2756
S'Wit'
p3168
sg2758
S'AllFriendly'
p3169
sg2760
F4
sg2761
F3
sg2762
(lp3170
g1
(g2764
g3
NtRp3171
(dp3172
g2767
S'add'
p3173
sg2769
S'(INCREASE)'
p3174
sg2771
S'charisma'
p3175
sg2773
F2
sg2774
F1
sg2775
F4
sg2776
S'Increase Charisma'
p3176
sg2778
S'TRUE'
p3177
sbasg2780
I1
sg2781
F0
sg2776
g3164
sg2782
S'Rally Audience'
p3178
sbsS'PORKBARREL'
p3179
g1
(g10
g3
NtRp3180
(dp3181
g2750
F8
sg2751
S'Do something that benefits them specifically. Not advised against politicians.'
p3182
sg2753
I1
sg2754
F0
sg2755
F0
sg2756
S'Wit'
p3183
sg2758
S'AllEnemy'
p3184
sg2760
F4
sg2761
F2
sg2762
(lp3185
sg2780
I1
sg2781
F0
sg2776
g3179
sg2782
S'Pork Barrel'
p3186
sbsS'INSPIRE'
p3187
g1
(g10
g3
NtRp3188
(dp3189
g2750
F0
sg2751
S'asdf'
p3190
sg2753
I1
sg2754
F0
sg2755
F0
sg2756
S'Wit'
p3191
sg2758
S'AllFriendly'
p3192
sg2760
F0
sg2761
F3
sg2762
(lp3193
g2765
asg2780
I4
sg2781
F0
sg2776
g3187
sg2782
S'Inspire'
p3194
sbsS'JOKE'
p3195
g1
(g10
g3
NtRp3196
(dp3197
g2750
F5
sg2751
S"Ha, ha, ha...what were we talking about? Diffuse the situation with some humour. High chance of critical hit. Knock 'em dead!"
p3198
sg2753
F3
sg2754
F20
sg2755
F15
sg2756
S'Cunning'
p3199
sg2758
S'AllEnemy'
p3200
sg2760
F2
sg2761
I0
sg2762
(lp3201
sg2780
I1
sg2781
F12
sg2776
g3195
sg2782
S'Joke'
p3202
sbsS'PRAYFORSOULS'
p3203
g1
(g10
g3
NtRp3204
(dp3205
g2750
F6
sg2751
S'asdf'
p3206
sg2753
F2
sg2754
F10
sg2755
F2
sg2756
S'Cunning'
p3207
sg2758
S'None'
p3208
sg2760
F3
sg2761
I0
sg2762
(lp3209
sg2780
I1
sg2781
F10
sg2776
g3203
sg2782
S'Pray'
p3210
sbsS'REVIVE'
p3211
g1
(g10
g3
NtRp3212
(dp3213
g2750
F0
sg2751
S'Revive a defeated comrade to half votes'
p3214
sg2753
I1
sg2754
F0
sg2755
F0
sg2756
S''
sg2758
S'DeadFriendly'
p3215
sg2760
F0
sg2761
F5
sg2762
(lp3216
g1
(g2764
g3
NtRp3217
(dp3218
g2767
S'revive'
p3219
sg2769
S''
sg2771
S''
sg2773
F0.5
sg2774
F0
sg2775
F0
sg2776
S'Revive'
p3220
sg2778
S''
sbasg2780
I1
sg2781
F0
sg2776
g3211
sg2782
S'Revive'
p3221
sbsS'HUMANSHIELD'
p3222
g1
(g10
g3
NtRp3223
(dp3224
g2750
F8
sg2751
S'No further questions. Step back, please.'
p3225
sg2753
I1
sg2754
F5
sg2755
F2
sg2756
S'Wit'
p3226
sg2758
S'AllEnemy'
p3227
sg2760
F4
sg2761
F4
sg2762
(lp3228
g3016
asg2780
I2
sg2781
F11
sg2776
g3222
sg2782
S'Human Shield'
p3229
sbsS'MAKEDEMANDS'
p3230
g1
(g10
g3
NtRp3231
(dp3232
g2750
F8
sg2751
S'asdf'
p3233
sg2753
I1
sg2754
F0
sg2755
F0
sg2756
S'Cunning'
p3234
sg2758
S'AllEnemy'
p3235
sg2760
F0
sg2761
I0
sg2762
(lp3236
g2799
asg2780
I1
sg2781
F0
sg2776
g3230
sg2782
S'Make Outrageous Demands'
p3237
sbsS'DEFENSE'
p3238
g1
(g10
g3
NtRp3239
(dp3240
g2750
F0
sg2751
S'Gather strenth; -50% to all incoming attacks'
p3241
sg2753
I1
sg2754
F0
sg2755
F0
sg2756
S''
sg2758
S'None'
p3242
sg2760
F0
sg2761
I0
sg2762
(lp3243
g1
(g2764
g3
NtRp3244
(dp3245
g2767
S'add'
p3246
sg2769
S'(DFND)'
p3247
sg2771
S'resistance'
p3248
sg2773
F0.5
sg2774
F1
sg2775
F1
sg2776
S'Defense'
p3249
sg2778
S'TRUE'
p3250
sbasg2780
I1
sg2781
F0
sg2776
g3238
sg2782
S'Defense'
p3251
sbsS'MISCONSTRUE'
p3252
g1
(g10
g3
NtRp3253
(dp3254
g2750
F8
sg2751
S'asdf'
p3255
sg2753
I1
sg2754
F0
sg2755
F0
sg2756
S'Cunning'
p3256
sg2758
S'AllEnemy'
p3257
sg2760
F0
sg2761
I0
sg2762
(lp3258
g2799
asg2780
I1
sg2781
F0
sg2776
g3252
sg2782
S'Misconstrue'
p3259
sbsS'NATIONALSECURITY'
p3260
g1
(g10
g3
NtRp3261
(dp3262
g2750
F7
sg2751
S"This is a matter of national security and they don't have codeword clearance"
p3263
sg2753
I1
sg2754
F10
sg2755
F2
sg2756
S'Cunning'
p3264
sg2758
S'AllEnemy'
p3265
sg2760
F2
sg2761
I0
sg2762
(lp3266
sg2780
I1
sg2781
F9
sg2776
g3260
sg2782
S'National Security'
p3267
sbsS'RALLY'
p3268
g1
(g10
g3
NtRp3269
(dp3270
g2750
F0
sg2751
S'Get back some votes by rallying supporters'
p3271
sg2753
I1
sg2754
F0
sg2755
F0
sg2756
S'Wit'
p3272
sg2758
S'AllFriendly'
p3273
sg2760
F0
sg2761
F3
sg2762
(lp3274
g1
(g2764
g3
NtRp3275
(dp3276
g2767
S'add_permanent'
p3277
sg2769
S''
sg2771
S'votes'
p3278
sg2773
F20
sg2774
F1
sg2775
F1
sg2776
S'Votes Restore Rally'
p3279
sg2778
S''
sbasg2780
I1
sg2781
F0
sg2776
g3268
sg2782
S'Rally Constituents'
p3280
sbsS'MESSAGE'
p3281
g1
(g10
g3
NtRp3282
(dp3283
g2750
F6
sg2751
S'You can certainly wear them down by repeating your party line over and over and over...if you want'
p3284
sg2753
F6
sg2754
F10
sg2755
F5
sg2756
S'Cunning'
p3285
sg2758
S'AllEnemy'
p3286
sg2760
F3
sg2761
I0
sg2762
(lp3287
sg2780
I1
sg2781
F10
sg2776
g3281
sg2782
S'Stay On Message'
p3288
sbsS'APPEALTOGOD'
p3289
g1
(g10
g3
NtRp3290
(dp3291
g2750
F10
sg2751
S'asdf'
p3292
sg2753
F3
sg2754
F5
sg2755
F2
sg2756
S'Wit'
p3293
sg2758
S'AllEnemy'
p3294
sg2760
F4
sg2761
F7
sg2762
(lp3295
sg2780
I4
sg2781
F13
sg2776
g3289
sg2782
S'Appeal To God'
p3296
sbssS'levels'
p3297
(lp3298
g1
(g10
g3
NtRp3299
(dp3300
S'votes'
p3301
F20
sS'level'
p3302
F1
sS'spin'
p3303
F5
sS'xp'
p3304
F0
sS'skill_points'
p3305
F0
sbag1
(g10
g3
NtRp3306
(dp3307
g3301
F12
sg3302
F2
sg3303
F5
sg3304
F100
sg3305
F2
sbag1
(g10
g3
NtRp3308
(dp3309
g3301
F15
sg3302
F3
sg3303
F6
sg3304
F200
sg3305
F2
sbag1
(g10
g3
NtRp3310
(dp3311
g3301
F20
sg3302
F4
sg3303
F6
sg3304
F500
sg3305
F2
sbag1
(g10
g3
NtRp3312
(dp3313
g3301
F25
sg3302
F5
sg3303
F7
sg3304
F1000
sg3305
F2
sbag1
(g10
g3
NtRp3314
(dp3315
g3301
F30
sg3302
F6
sg3303
F7
sg3304
F2000
sg3305
F2
sbag1
(g10
g3
NtRp3316
(dp3317
g3301
F35
sg3302
F7
sg3303
F8
sg3304
F5000
sg3305
F2
sbag1
(g10
g3
NtRp3318
(dp3319
g3301
F40
sg3302
F8
sg3303
F8
sg3304
F10000
sg3305
F2
sbag1
(g10
g3
NtRp3320
(dp3321
g3301
F45
sg3302
F9
sg3303
F9
sg3304
F15000
sg3305
F2
sbag1
(g10
g3
NtRp3322
(dp3323
g3301
F50
sg3302
F10
sg3303
F9
sg3304
F20000
sg3305
F2
sbag1
(g10
g3
NtRp3324
(dp3325
g3301
F55
sg3302
F11
sg3303
F10
sg3304
F40000
sg3305
F2
sbag1
(g10
g3
NtRp3326
(dp3327
g3301
S''
sg3302
F12
sg3303
S''
sg3304
S''
sg3305
S''
sbag1
(g10
g3
NtRp3328
(dp3329
g3301
S''
sg3302
F13
sg3303
S''
sg3304
S''
sg3305
S''
sbag1
(g10
g3
NtRp3330
(dp3331
g3301
S''
sg3302
F14
sg3303
S''
sg3304
S''
sg3305
S''
sbag1
(g10
g3
NtRp3332
(dp3333
g3301
S''
sg3302
F15
sg3303
S''
sg3304
S''
sg3305
S''
sbag1
(g10
g3
NtRp3334
(dp3335
g3301
S''
sg3302
F16
sg3303
S''
sg3304
S''
sg3305
S''
sbag1
(g10
g3
NtRp3336
(dp3337
g3301
S''
sg3302
F17
sg3303
S''
sg3304
S''
sg3305
S''
sbag1
(g10
g3
NtRp3338
(dp3339
g3301
S''
sg3302
F18
sg3303
S''
sg3304
S''
sg3305
S''
sbag1
(g10
g3
NtRp3340
(dp3341
g3301
S''
sg3302
F19
sg3303
S''
sg3304
S''
sg3305
S''
sbag1
(g10
g3
NtRp3342
(dp3343
g3301
S''
sg3302
F20
sg3303
S''
sg3304
S''
sg3305
S''
sbag1
(g10
g3
NtRp3344
(dp3345
g3301
S''
sg3302
F21
sg3303
S''
sg3304
S''
sg3305
S''
sbag1
(g10
g3
NtRp3346
(dp3347
g3301
S''
sg3302
F22
sg3303
S''
sg3304
S''
sg3305
S''
sbag1
(g10
g3
NtRp3348
(dp3349
g3301
S''
sg3302
F23
sg3303
S''
sg3304
S''
sg3305
S''
sbag1
(g10
g3
NtRp3350
(dp3351
g3301
S''
sg3302
F24
sg3303
S''
sg3304
S''
sg3305
S''
sbag1
(g10
g3
NtRp3352
(dp3353
g3301
S''
sg3302
F25
sg3303
S''
sg3304
S''
sg3305
S''
sbag1
(g10
g3
NtRp3354
(dp3355
g3301
S''
sg3302
F26
sg3303
S''
sg3304
S''
sg3305
S''
sbag1
(g10
g3
NtRp3356
(dp3357
g3301
S''
sg3302
F27
sg3303
S''
sg3304
S''
sg3305
S''
sbag1
(g10
g3
NtRp3358
(dp3359
g3301
S''
sg3302
F28
sg3303
S''
sg3304
S''
sg3305
S''
sbag1
(g10
g3
NtRp3360
(dp3361
g3301
S''
sg3302
F29
sg3303
S''
sg3304
S''
sg3305
S''
sbasg2762
(dp3362
g2777
g2765
sg2872
g2868
sg2947
g2943
sg3176
g3171
sg3020
g3016
sg2961
g2957
sg3140
g3136
sg3154
g3150
sg3081
g3077
sg3220
g3217
sg2927
g2922
sg2975
g2970
sg3249
g3244
sg2803
g2799
sg2818
g2813
sg3279
g3275
ssS'characters'
p3363
(dp3364
S'Teacher001'
p3365
(lp3366
g1
(g10
g3
NtRp3367
(dp3368
S'flair_base'
p3369
F1
sS'spin_base'
p3370
F4
sS'flair_lvl'
p3371
F1.1499999999999999
sS'wit_base'
p3372
F1
sS'resistance'
p3373
(lp3374
sS'wit_lvl'
p3375
F1.0900000000000001
sS'cunning_base'
p3376
F1
sg2776
g3365
sS'votes_base'
p3377
F10
sS'speed_lvl'
p3378
F1.0800000000000001
sS'standard_attacks'
p3379
(lp3380
g3239
ag2986
asS'cunning_lvl'
p3381
F1.1000000000000001
sS'charisma_lvl'
p3382
F1.1499999999999999
sS'spin_attacks'
p3383
(lp3384
g3084
ag3071
asS'spin_lvl'
p3385
F1.0800000000000001
sS'charisma_base'
p3386
F1
sS'weaknesses'
p3387
(lp3388
sS'attack_group'
p3389
S'Teacher'
p3390
sS'votes_lvl'
p3391
F1.2
sg2782
S'Teacher'
p3392
sS'speed_base'
p3393
F1
sS'immunities'
p3394
(lp3395
sbasS'Politician001'
p3396
(lp3397
g1
(g10
g3
NtRp3398
(dp3399
g3369
F1
sg3370
F4
sg3371
F1.1499999999999999
sg3372
F1
sg3373
(lp3400
g2793
asg3375
F1.0900000000000001
sg3376
F1
sg2776
g3396
sg3377
F10
sg3378
F1.0800000000000001
sg3379
(lp3401
g3282
ag3092
ag2793
ag3196
ag3239
asg3381
F1.1000000000000001
sg3382
F1.1499999999999999
sg3383
(lp3402
g3123
ag2908
ag3212
asg3385
F1.0800000000000001
sg3386
F1
sg3387
(lp3403
g2876
asg3389
S'Politician'
p3404
sg3391
F1.2
sg2782
S'Politician'
p3405
sg3393
F1
sg3394
(lp3406
g3180
asbasS'SecretAgent'
p3407
(lp3408
g1
(g10
g3
NtRp3409
(dp3410
g3369
F1
sg3370
F4
sg3371
F1.1499999999999999
sg3372
F1
sg3373
(lp3411
sg3375
F1.0900000000000001
sg3376
F1
sg2776
g3407
sg3377
F18
sg3378
F1.0800000000000001
sg3379
(lp3412
g3239
ag3261
ag3047
asg3381
F1.1000000000000001
sg3382
F1.1499999999999999
sg3383
(lp3413
g3223
ag3023
asg3385
F1.0800000000000001
sg3386
F1
sg3387
(lp3414
sg3389
S'SecretAgent'
p3415
sg3391
F1.2
sg2782
S'Agent Kawalski'
p3416
sg3393
F1
sg3394
(lp3417
sbasS'Bumpkin001'
p3418
(lp3419
g1
(g10
g3
NtRp3420
(dp3421
g3369
F1
sg3370
F4
sg3371
F1.1499999999999999
sg3372
F1
sg3373
(lp3422
sg3375
F1.0900000000000001
sg3376
F1
sg2776
g3418
sg3377
F10
sg3378
F1.0800000000000001
sg3379
(lp3423
g3196
ag2930
asg3381
F1.1000000000000001
sg3382
F1.1499999999999999
sg3383
(lp3424
g2892
ag2994
asg3385
F1.0800000000000001
sg3386
F1
sg3387
(lp3425
g2793
ag3092
ag2978
asg3389
S'Bumpkin'
p3426
sg3391
F1.2
sg2782
S'Bumpkin'
p3427
sg3393
F1
sg3394
(lp3428
sbasS'WarVet001'
p3429
(lp3430
g1
(g10
g3
NtRp3431
(dp3432
g3369
F1
sg3370
F4
sg3371
F1.1499999999999999
sg3372
F1
sg3373
(lp3433
sg3375
F1.0900000000000001
sg3376
F1
sg2776
g3429
sg3377
F10
sg3378
F1.0800000000000001
sg3379
(lp3434
g3231
ag3239
asg3381
F1.1000000000000001
sg3382
F1.1499999999999999
sg3383
(lp3435
g3188
ag3071
asg3385
F1.0800000000000001
sg3386
F1
sg3387
(lp3436
sg3389
S'WarVet'
p3437
sg3391
F1.2
sg2782
S'War Veteran'
p3438
sg3393
F1
sg3394
(lp3439
sbasS'Receptionist001'
p3440
(lp3441
g1
(g10
g3
NtRp3442
(dp3443
g3369
F1
sg3370
F4
sg3371
F1.1499999999999999
sg3372
F1
sg3373
(lp3444
sg3375
F1.0900000000000001
sg3376
F1
sg2776
g3440
sg3377
F8
sg3378
F1.0800000000000001
sg3379
(lp3445
g3157
ag3100
asg3381
F1.1000000000000001
sg3382
F1.1499999999999999
sg3383
(lp3446
g3108
ag2862
asg3385
F1.0800000000000001
sg3386
F0
sg3387
(lp3447
sg3389
S'Receptionist'
p3448
sg3391
F1.2
sg2782
S'Receptionist'
p3449
sg3393
F1
sg3394
(lp3450
sbasS'DeepThroat'
p3451
(lp3452
g1
(g10
g3
NtRp3453
(dp3454
g3369
F1
sg3370
F4
sg3371
F1.1499999999999999
sg3372
F1
sg3373
(lp3455
sg3375
F1.0900000000000001
sg3376
F1
sg2776
g3451
sg3377
F10
sg3378
F1.0800000000000001
sg3379
(lp3456
g3092
ag3239
ag3231
asg3381
F1.1000000000000001
sg3382
F1.1499999999999999
sg3383
(lp3457
g2964
asg3385
F1.0800000000000001
sg3386
F1
sg3387
(lp3458
sg3389
S'DeepThroat'
p3459
sg3391
F1.2
sg2782
S'Mr Er...?'
p3460
sg3393
F1
sg3394
(lp3461
sbasS'Leo'
p3462
(lp3463
g1
(g10
g3
NtRp3464
(dp3465
g3369
F1
sg3370
F4
sg3371
F1.1499999999999999
sg3372
F1
sg3373
(lp3466
sg3375
F1.0900000000000001
sg3376
F1
sg2776
g3462
sg3377
F14
sg3378
F1.0800000000000001
sg3379
(lp3467
g3282
ag3092
ag2793
ag3196
ag2876
asg3381
F1.1000000000000001
sg3382
F1.1499999999999999
sg3383
(lp3468
g3123
ag2908
ag3180
ag3010
asg3385
F1.0800000000000001
sg3386
F1
sg3387
(lp3469
sg3389
S'Theo'
p3470
sg3391
F1.2
sg2782
S'Theo'
p3471
sg3393
F1
sg3394
(lp3472
sbasS'HippyGirl001'
p3473
(lp3474
g1
(g10
g3
NtRp3475
(dp3476
g3369
F1
sg3370
F4
sg3371
F1.1499999999999999
sg3372
F1
sg3373
(lp3477
sg3375
F1.0900000000000001
sg3376
F1
sg2776
g3473
sg3377
F10
sg3378
F1.0800000000000001
sg3379
(lp3478
g2884
ag2986
ag3031
asg3381
F1.1000000000000001
sg3382
F1.1499999999999999
sg3383
(lp3479
g3055
ag3071
ag3212
asg3385
F1.0800000000000001
sg3386
F1
sg3387
(lp3480
g3196
asg3389
S'Hippy'
p3481
sg3391
F1.2
sg2782
S'Hippy Girl'
p3482
sg3393
F1
sg3394
(lp3483
sbasS'President'
p3484
(lp3485
g1
(g10
g3
NtRp3486
(dp3487
g3369
F1
sg3370
F4
sg3371
F1.1499999999999999
sg3372
F1
sg3373
(lp3488
sg3375
F1.0900000000000001
sg3376
F1
sg2776
g3484
sg3377
F10
sg3378
F1.0800000000000001
sg3379
(lp3489
g3282
ag3092
ag2793
ag3196
ag3239
asg3381
F1.1000000000000001
sg3382
F1.1499999999999999
sg3383
(lp3490
g3123
ag2908
ag3212
asg3385
F1.0800000000000001
sg3386
F1
sg3387
(lp3491
sg3389
S'Politician'
p3492
sg3391
F1.2
sg2782
S'President Allen'
p3493
sg3393
F1
sg3394
(lp3494
sbasS'Unionist001'
p3495
(lp3496
g1
(g10
g3
NtRp3497
(dp3498
g3369
F1
sg3370
F4
sg3371
F1.1499999999999999
sg3372
F1
sg3373
(lp3499
sg3375
F1.0900000000000001
sg3376
F1
sg2776
g3495
sg3377
F10
sg3378
F1.0800000000000001
sg3379
(lp3500
g3231
ag3239
ag2986
asg3381
F1.1000000000000001
sg3382
F1.1499999999999999
sg3383
(lp3501
g3084
asg3385
F1.0800000000000001
sg3386
F1
sg3387
(lp3502
sg3389
S'Unionist'
p3503
sg3391
F1.2
sg2782
S'Unionist'
p3504
sg3393
F1
sg3394
(lp3505
sbasS'Wife'
p3506
(lp3507
g1
(g10
g3
NtRp3508
(dp3509
g3369
F1
sg3370
F4
sg3371
F1.1499999999999999
sg3372
F1
sg3373
(lp3510
sg3375
F1.0900000000000001
sg3376
F1
sg2776
g3506
sg3377
F12
sg3378
F1.0800000000000001
sg3379
(lp3511
g3282
ag2793
ag3196
ag3239
asg3381
F1.1000000000000001
sg3382
F1.1499999999999999
sg3383
(lp3512
g3269
ag3212
ag2916
asg3385
F1.0800000000000001
sg3386
F1
sg3387
(lp3513
sg3389
S'Wife'
p3514
sg3391
F1.2
sg2782
S'Sarah Mossman'
p3515
sg3393
F1
sg3394
(lp3516
sbasS'PresidentAlien'
p3517
(lp3518
g1
(g10
g3
NtRp3519
(dp3520
g3369
F1
sg3370
F4
sg3371
F1.1499999999999999
sg3372
F1
sg3373
(lp3521
sg3375
F1.0900000000000001
sg3376
F1
sg2776
g3517
sg3377
F10
sg3378
F1.0800000000000001
sg3379
(lp3522
g3282
ag3092
ag2793
ag3196
ag3239
asg3381
F1.1000000000000001
sg3382
F1.1499999999999999
sg3383
(lp3523
g3123
ag2908
ag3212
asg3385
F1.0800000000000001
sg3386
F1
sg3387
(lp3524
sg3389
S'Politician'
p3525
sg3391
F1.2
sg2782
S'President Alien'
p3526
sg3393
F1
sg3394
(lp3527
sbasS'Governor'
p3528
(lp3529
g1
(g10
g3
NtRp3530
(dp3531
g3369
F1
sg3370
F4
sg3371
F1.1499999999999999
sg3372
F1
sg3373
(lp3532
sg3375
F1.0900000000000001
sg3376
F1
sg2776
g3528
sg3377
F10
sg3378
F1.0800000000000001
sg3379
(lp3533
g3282
ag3092
ag2793
ag3196
ag3239
asg3381
F1.1000000000000001
sg3382
F1.1499999999999999
sg3383
(lp3534
g3123
ag2908
ag3212
asg3385
F1.0800000000000001
sg3386
F1
sg3387
(lp3535
sg3389
S'Politician'
p3536
sg3391
F1.2
sg2782
g3528
sg3393
F1
sg3394
(lp3537
sbasS'Lobbyist001'
p3538
(lp3539
g1
(g10
g3
NtRp3540
(dp3541
g3369
F1
sg3370
F4
sg3371
F1.1499999999999999
sg3372
F1
sg3373
(lp3542
sg3375
F1.0900000000000001
sg3376
F1
sg2776
g3538
sg3377
F10
sg3378
F1.0800000000000001
sg3379
(lp3543
g3002
ag3231
asg3381
F1.1000000000000001
sg3382
F1.1499999999999999
sg3383
(lp3544
g3144
ag2964
asg3385
F1.0800000000000001
sg3386
F1
sg3387
(lp3545
g3180
asg3389
S'Lobbyist'
p3546
sg3391
F1.2
sg2782
S'Lobbyist'
p3547
sg3393
F1
sg3394
(lp3548
g2876
asbasS'Journalist001'
p3549
(lp3550
g1
(g10
g3
NtRp3551
(dp3552
g3369
F1
sg3370
F4
sg3371
F1.1499999999999999
sg3372
F1
sg3373
(lp3553
sg3375
F1.0900000000000001
sg3376
F1
sg2776
g3549
sg3377
F10
sg3378
F1.0800000000000001
sg3379
(lp3554
g2846
ag3253
asg3381
F1.1000000000000001
sg3382
F1.1499999999999999
sg3383
(lp3555
g3039
ag2748
ag2822
asg3385
F1.0800000000000001
sg3386
F1
sg3387
(lp3556
sg3389
S'Journalist'
p3557
sg3391
F1.2
sg2782
S'Journalist'
p3558
sg3393
F1
sg3394
(lp3559
sbasS'ReligiousNut001'
p3560
(lp3561
g1
(g10
g3
NtRp3562
(dp3563
g3369
F1
sg3370
F4
sg3371
F1.1499999999999999
sg3372
F1
sg3373
(lp3564
sg3375
F1.0900000000000001
sg3376
F1
sg2776
g3560
sg3377
F10
sg3378
F1.0800000000000001
sg3379
(lp3565
g2830
ag3204
ag3239
asg3381
F1.1000000000000001
sg3382
F1.1499999999999999
sg3383
(lp3566
g3290
ag2951
asg3385
F1.0800000000000001
sg3386
F1
sg3387
(lp3567
sg3389
S'Religious'
p3568
sg3391
F1.2
sg2782
S'Religious Nut'
p3569
sg3393
F1
sg3394
(lp3570
g3196
asbasS'JointChief001'
p3571
(lp3572
g1
(g10
g3
NtRp3573
(dp3574
g3369
F1
sg3370
F4
sg3371
F1.1499999999999999
sg3372
F1
sg3373
(lp3575
sg3375
F1.0900000000000001
sg3376
F1
sg2776
g3571
sg3377
F10
sg3378
F1.0800000000000001
sg3379
(lp3576
g3231
ag3239
ag3261
ag2900
asg3381
F1.1000000000000001
sg3382
F1.1499999999999999
sg3383
(lp3577
g3023
asg3385
F1.0800000000000001
sg3386
F1
sg3387
(lp3578
sg3389
S'JointChief'
p3579
sg3391
F1.2
sg2782
S'Joint Chief'
p3580
sg3393
F1
sg3394
(lp3581
sbasS'Protester001'
p3582
(lp3583
g1
(g10
g3
NtRp3584
(dp3585
g3369
F0.5
sg3370
F4
sg3371
F1.1000000000000001
sg3372
F1
sg3373
(lp3586
g3196
asg3375
F1.01
sg3376
F1
sg2776
g3582
sg3377
F8
sg3378
F1.01
sg3379
(lp3587
g2986
ag2838
ag2884
asg3381
F1.01
sg3382
F1.1000000000000001
sg3383
(lp3588
g3071
asg3385
F1.01
sg3386
F1
sg3387
(lp3589
sg3389
S'Protestor'
p3590
sg3391
F1.01
sg2782
S'Protester'
p3591
sg3393
F1
sg3394
(lp3592
sbasS'TVPersonality001'
p3593
(lp3594
g1
(g10
g3
NtRp3595
(dp3596
g3369
F1
sg3370
F4
sg3371
F1.1499999999999999
sg3372
F1
sg3373
(lp3597
sg3375
F1.0900000000000001
sg3376
F1
sg2776
g3593
sg3377
F10
sg3378
F1.0800000000000001
sg3379
(lp3598
g3196
ag2846
asg3381
F1.1000000000000001
sg3382
F1.1499999999999999
sg3383
(lp3599
g2822
ag2807
asg3385
F1.0800000000000001
sg3386
F1
sg3387
(lp3600
sg3389
S'TVPersonality'
p3601
sg3391
F1.2
sg2782
S"Hecules O'Grady"
p3602
sg3393
F1
sg3394
(lp3603
sbasS'Player'
p3604
(lp3605
g1
(g10
g3
NtRp3606
(dp3607
g3369
F1
sg3370
F5
sg3371
F1.1499999999999999
sg3372
F1
sg3373
(lp3608
sg3375
F1.0900000000000001
sg3376
F1
sg2776
g3604
sg3377
F15
sg3378
F1.0800000000000001
sg3379
(lp3609
g3282
ag2793
ag3196
asg3381
F1.1000000000000001
sg3382
F1.1499999999999999
sg3383
(lp3610
g2908
asg3385
F1.0800000000000001
sg3386
F1
sg3387
(lp3611
sg3389
S'Player'
p3612
sg3391
F1.2
sg2782
S'Phillip Mossman'
p3613
sg3393
F2
sg3394
(lp3614
sbasS'Computer'
p3615
(lp3616
g1
(g10
g3
NtRp3617
(dp3618
g3369
F1
sg3370
F4
sg3371
F1.1499999999999999
sg3372
F1
sg3373
(lp3619
sg3375
F1.0900000000000001
sg3376
F1
sg2776
g3615
sg3377
F10
sg3378
F1.0800000000000001
sg3379
(lp3620
g3282
ag3092
ag2793
ag3196
ag3239
asg3381
F1.1000000000000001
sg3382
F1.1499999999999999
sg3383
(lp3621
g3123
ag2908
ag3212
asg3385
F1.0800000000000001
sg3386
F1
sg3387
(lp3622
sg3389
S'Politician'
p3623
sg3391
F1.2
sg2782
S'N.O.T.B.A.D'
p3624
sg3393
F1
sg3394
(lp3625
sbasS'CabinetPolitician001'
p3626
(lp3627
g1
(g10
g3
NtRp3628
(dp3629
g3369
F1
sg3370
F4
sg3371
F1.1499999999999999
sg3372
F1
sg3373
(lp3630
sg3375
F1.0900000000000001
sg3376
F1
sg2776
g3626
sg3377
F10
sg3378
F1.0800000000000001
sg3379
(lp3631
g3282
ag3092
ag2793
ag3196
ag3239
asg3381
F1.1000000000000001
sg3382
F1.1499999999999999
sg3383
(lp3632
g3123
ag2908
ag3212
asg3385
F1.0800000000000001
sg3386
F1
sg3387
(lp3633
sg3389
S'Politician'
p3634
sg3391
F1.2
sg2782
S'Cabinet Politician'
p3635
sg3393
F1
sg3394
(lp3636
sbasS'Constituent001'
p3637
(lp3638
g1
(g10
g3
NtRp3639
(dp3640
g3369
F1
sg3370
F4
sg3371
F1.1499999999999999
sg3372
F1
sg3373
(lp3641
sg3375
F1.0900000000000001
sg3376
F1
sg2776
g3637
sg3377
F10
sg3378
F1.0800000000000001
sg3379
(lp3642
g2986
ag3002
ag3231
asg3381
F1.1000000000000001
sg3382
F1.1499999999999999
sg3383
(lp3643
g3212
asg3385
F1.0800000000000001
sg3386
F1
sg3387
(lp3644
sg3389
S'Constituent'
p3645
sg3391
F1.2
sg2782
S'Constituent'
p3646
sg3393
F1
sg3394
(lp3647
sbasS'Mayor'
p3648
(lp3649
g1
(g10
g3
NtRp3650
(dp3651
g3369
F1
sg3370
F4
sg3371
F1.1499999999999999
sg3372
F1
sg3373
(lp3652
sg3375
F1.0900000000000001
sg3376
F1
sg2776
g3648
sg3377
F10
sg3378
F1.0800000000000001
sg3379
(lp3653
g3282
ag3092
ag2793
ag3196
ag3239
asg3381
F1.1000000000000001
sg3382
F1.1499999999999999
sg3383
(lp3654
g3123
ag2908
ag3212
asg3385
F1.0800000000000001
sg3386
F1
sg3387
(lp3655
sg3389
S'Politician'
p3656
sg3391
F1.2
sg2782
S'Mayor Goodman'
p3657
sg3393
F1
sg3394
(lp3658
sbassS'quest_items'
p3659
(dp3660
S'PEN'
p3661
g1
(g10
g3
NtRp3662
(dp3663
g2751
S''
sg2776
g3661
sg2782
S'A pen'
p3664
sbsS'INCRIMINATINGEVIDENCE'
p3665
g1
(g10
g3
NtRp3666
(dp3667
g2751
S'Very incriminating proof that something troubling is going on in the White House.'
p3668
sg2776
g3665
sg2782
S'Incriminating Evidence'
p3669
sbsS'BILLOFRIGHTS'
p3670
g1
(g10
g3
NtRp3671
(dp3672
g2751
S''
sg2776
g3670
sg2782
S"Citizens' Bill of Rights"
p3673
sbssg3379
(dp3674
S'Theo'
p3675
(lp3676
g3282
ag3092
ag2793
ag3196
ag2876
ag3123
ag2908
ag3180
ag3010
asS'JointChief'
p3677
(lp3678
g3231
ag3239
ag3261
ag3023
ag2900
asS'Politician'
p3679
(lp3680
g3282
ag3092
ag2793
ag3196
ag3123
ag2908
ag3212
ag3239
asS'Bumpkin'
p3681
(lp3682
g3196
ag2892
ag2994
ag2930
asS'Wife'
p3683
(lp3684
g3282
ag2793
ag3196
ag3269
ag3212
ag3239
ag2916
asS'Lobbyist'
p3685
(lp3686
g3002
ag3144
ag2964
ag3231
asS'DeepThroat'
p3687
(lp3688
g3092
ag3239
ag2964
ag3231
asS'Protestor'
p3689
(lp3690
g3071
ag2986
ag2838
ag2884
asS'SecretAgent'
p3691
(lp3692
g3239
ag3223
ag3261
ag3023
ag3047
asS'Teacher'
p3693
(lp3694
g3084
ag3239
ag2986
ag3071
asS'Player'
p3695
(lp3696
g3282
ag2793
ag3196
ag2908
asS'Computer'
p3697
(lp3698
g3023
ag3261
ag2854
ag2964
ag3231
ag3092
asS'Receptionist'
p3699
(lp3700
g3157
ag3100
ag3108
ag2862
asS'Hippy'
p3701
(lp3702
g2884
ag2986
ag3031
ag3055
ag3071
ag3212
asS'Constituent'
p3703
(lp3704
g2986
ag3212
ag3002
ag3231
asS'TVPersonality'
p3705
(lp3706
g3196
ag2822
ag2846
ag2807
asS'WarVet'
p3707
(lp3708
g3231
ag3239
ag3188
ag3071
asS'Religious'
p3709
(lp3710
g2830
ag3290
ag2951
ag3204
ag3239
asS'Unionist'
p3711
(lp3712
g3231
ag3239
ag2986
ag3084
asS'Journalist'
p3713
(lp3714
g2846
ag3253
ag3039
ag2748
ag2822
assS'shops'
p3715
(dp3716
sS'encounters'
p3717
(dp3718
S'P-hard-14'
p3719
g1
(g10
g3
NtRp3720
(dp3721
S'item_attack_drops'
p3722
(lp3723
sS'item_attacks'
p3724
(lp3725
sg2782
S''
sg3304
F25
sS'monster2_lvl'
p3726
S''
sS'bribe_cost'
p3727
F50
sS'monster3'
p3728
S''
sS'monster1_lvl'
p3729
F2
sS'monster3_lvl'
p3730
S''
sS'monster4_lvl'
p3731
S''
sS'monster4'
p3732
S''
sS'monster2'
p3733
S''
sg2776
g3719
sS'monster1'
p3734
S'Computer'
p3735
sbsS'P-hard-11'
p3736
g1
(g10
g3
NtRp3737
(dp3738
g3722
(lp3739
sg3724
(lp3740
sg2782
S''
sg3304
F25
sg3726
F2
sg3727
F50
sg3728
S'JointChief001'
p3741
sg3729
F2
sg3730
F2
sg3731
S''
sg3732
S''
sg3733
S'JointChief001'
p3742
sg2776
g3736
sg3734
S'JointChief001'
p3743
sbsS'P-hard-10'
p3744
g1
(g10
g3
NtRp3745
(dp3746
g3722
(lp3747
sg3724
(lp3748
sg2782
S''
sg3304
F25
sg3726
F2
sg3727
F50
sg3728
S'CabinetPolitician001'
p3749
sg3729
F2
sg3730
F2
sg3731
F2
sg3732
S'CabinetPolitician001'
p3750
sg3733
S'CabinetPolitician001'
p3751
sg2776
g3744
sg3734
S'CabinetPolitician001'
p3752
sbsS'P-hard-13'
p3753
g1
(g10
g3
NtRp3754
(dp3755
g3722
(lp3756
sg3724
(lp3757
sg2782
S''
sg3304
F25
sg3726
F2
sg3727
F50
sg3728
S'JointChief001'
p3758
sg3729
F2
sg3730
F2
sg3731
F2
sg3732
S'JointChief001'
p3759
sg3733
S'JointChief001'
p3760
sg2776
g3753
sg3734
S'JointChief001'
p3761
sbsS'P-hard-12'
p3762
g1
(g10
g3
NtRp3763
(dp3764
g3722
(lp3765
sg3724
(lp3766
sg2782
S''
sg3304
F25
sg3726
F2
sg3727
F50
sg3728
S'JointChief001'
p3767
sg3729
F2
sg3730
F2
sg3731
S''
sg3732
S''
sg3733
S'JointChief001'
p3768
sg2776
g3762
sg3734
S'JointChief001'
p3769
sbsS'P-easy-05'
p3770
g1
(g10
g3
NtRp3771
(dp3772
g3722
(lp3773
g1
(c__main__
ItemAttack
p3774
g3
NtRp3775
(dp3776
S'attack'
p3777
g3063
sS'quantity'
p3778
I1
sbasg3724
(lp3779
sg2782
S''
sg3304
F25
sg3726
S''
sg3727
F50
sg3728
S''
sg3729
F2
sg3730
S''
sg3731
S''
sg3732
S''
sg3733
S''
sg2776
g3770
sg3734
S'Journalist001'
p3780
sbsS'P-easy-04'
p3781
g1
(g10
g3
NtRp3782
(dp3783
g3722
(lp3784
g1
(g3774
g3
NtRp3785
(dp3786
g3777
g2938
sg3778
I1
sbasg3724
(lp3787
sg2782
S''
sg3304
F30
sg3726
F1
sg3727
F50
sg3728
S''
sg3729
F1
sg3730
S''
sg3731
S''
sg3732
S''
sg3733
S'Protester001'
p3788
sg2776
g3781
sg3734
S'Protester001'
p3789
sbsS'P-easy-07'
p3790
g1
(g10
g3
NtRp3791
(dp3792
g3722
(lp3793
g1
(g3774
g3
NtRp3794
(dp3795
g3777
g2938
sg3778
I1
sbasg3724
(lp3796
sg2782
S''
sg3304
F25
sg3726
S''
sg3727
F50
sg3728
S''
sg3729
F2
sg3730
S''
sg3731
S''
sg3732
S''
sg3733
S''
sg2776
g3790
sg3734
S'Constituent001'
p3797
sbsS'P-easy-06'
p3798
g1
(g10
g3
NtRp3799
(dp3800
g3722
(lp3801
g1
(g3774
g3
NtRp3802
(dp3803
g3777
g3212
sg3778
I1
sbasg3724
(lp3804
sg2782
S''
sg3304
F25
sg3726
F2
sg3727
F50
sg3728
S''
sg3729
F2
sg3730
S''
sg3731
S''
sg3732
S''
sg3733
S'Lobbyist001'
p3805
sg2776
g3798
sg3734
S'Lobbyist001'
p3806
sbsS'P-easy-01'
p3807
g1
(g10
g3
NtRp3808
(dp3809
g3722
(lp3810
g1
(g3774
g3
NtRp3811
(dp3812
g3777
g3131
sg3778
I1
sbasg3724
(lp3813
g1
(g3774
g3
NtRp3814
(dp3815
g3777
g3063
sg3778
I1
sbasg2782
S'The quest for pen'
p3816
sg3304
F10
sg3726
S''
sg3727
F50
sg3728
S''
sg3729
F1
sg3730
S''
sg3731
S''
sg3732
S''
sg3733
S''
sg2776
g3807
sg3734
S'Receptionist001'
p3817
sbsS'P-easy-03'
p3818
g1
(g10
g3
NtRp3819
(dp3820
g3722
(lp3821
g1
(g3774
g3
NtRp3822
(dp3823
g3777
g3131
sg3778
I1
sbasg3724
(lp3824
g1
(g3774
g3
NtRp3825
(dp3826
g3777
g3063
sg3778
I1
sbasg2782
S''
sg3304
F30
sg3726
F1
sg3727
F50
sg3728
S''
sg3729
F1
sg3730
S''
sg3731
S''
sg3732
S''
sg3733
S'Protester001'
p3827
sg2776
g3818
sg3734
S'Protester001'
p3828
sbsS'P-easy-02'
p3829
g1
(g10
g3
NtRp3830
(dp3831
g3722
(lp3832
sg3724
(lp3833
sg2782
S''
sg3304
F30
sg3726
F1
sg3727
F50
sg3728
S''
sg3729
F1
sg3730
S''
sg3731
S''
sg3732
S''
sg3733
S'Protester001'
p3834
sg2776
g3829
sg3734
S'Protester001'
p3835
sbsS'P-easy-09'
p3836
g1
(g10
g3
NtRp3837
(dp3838
g3722
(lp3839
g1
(g3774
g3
NtRp3840
(dp3841
g3777
g3131
sg3778
I1
sbasg3724
(lp3842
sg2782
S''
sg3304
F25
sg3726
F2
sg3727
F50
sg3728
S'Constituent001'
p3843
sg3729
F2
sg3730
F2
sg3731
S''
sg3732
S''
sg3733
S'Constituent001'
p3844
sg2776
g3836
sg3734
S'Constituent001'
p3845
sbsS'P-easy-08'
p3846
g1
(g10
g3
NtRp3847
(dp3848
g3722
(lp3849
sg3724
(lp3850
sg2782
S''
sg3304
F25
sg3726
F2
sg3727
F50
sg3728
S''
sg3729
F2
sg3730
S''
sg3731
S''
sg3732
S''
sg3733
S'Constituent001'
p3851
sg2776
g3846
sg3734
S'Constituent001'
p3852
sbsS'P-hard-08'
p3853
g1
(g10
g3
NtRp3854
(dp3855
g3722
(lp3856
sg3724
(lp3857
sg2782
S''
sg3304
F25
sg3726
F2
sg3727
F50
sg3728
S'CabinetPolitician001'
p3858
sg3729
F2
sg3730
F2
sg3731
S''
sg3732
S''
sg3733
S'CabinetPolitician001'
p3859
sg2776
g3853
sg3734
S'CabinetPolitician001'
p3860
sbsS'P-hard-09'
p3861
g1
(g10
g3
NtRp3862
(dp3863
g3722
(lp3864
sg3724
(lp3865
sg2782
S''
sg3304
F25
sg3726
F2
sg3727
F50
sg3728
S'CabinetPolitician001'
p3866
sg3729
F2
sg3730
F2
sg3731
F2
sg3732
S'CabinetPolitician001'
p3867
sg3733
S'CabinetPolitician001'
p3868
sg2776
g3861
sg3734
S'CabinetPolitician001'
p3869
sbsS'P-med-08'
p3870
g1
(g10
g3
NtRp3871
(dp3872
g3722
(lp3873
sg3724
(lp3874
sg2782
S''
sg3304
F25
sg3726
F2
sg3727
F50
sg3728
S'Politician001'
p3875
sg3729
F2
sg3730
F2
sg3731
S''
sg3732
S''
sg3733
S'Politician001'
p3876
sg2776
g3870
sg3734
S'Politician001'
p3877
sbsS'P-med-09'
p3878
g1
(g10
g3
NtRp3879
(dp3880
g3722
(lp3881
sg3724
(lp3882
sg2782
S''
sg3304
F25
sg3726
F2
sg3727
F50
sg3728
S'Politician001'
p3883
sg3729
F2
sg3730
F2
sg3731
S''
sg3732
S''
sg3733
S'ReligiousNut001'
p3884
sg2776
g3878
sg3734
S'Politician001'
p3885
sbsS'P-med-02'
p3886
g1
(g10
g3
NtRp3887
(dp3888
g3722
(lp3889
sg3724
(lp3890
sg2782
S''
sg3304
F25
sg3726
F2
sg3727
F50
sg3728
S''
sg3729
F2
sg3730
S''
sg3731
S''
sg3732
S''
sg3733
S'Politician001'
p3891
sg2776
g3886
sg3734
S'Politician001'
p3892
sbsS'P-med-03'
p3893
g1
(g10
g3
NtRp3894
(dp3895
g3722
(lp3896
sg3724
(lp3897
sg2782
S''
sg3304
F25
sg3726
F2
sg3727
F50
sg3728
S''
sg3729
F2
sg3730
S''
sg3731
S''
sg3732
S''
sg3733
S'Bumpkin001'
p3898
sg2776
g3893
sg3734
S'Bumpkin001'
p3899
sbsS'P-med-01'
p3900
g1
(g10
g3
NtRp3901
(dp3902
g3722
(lp3903
sg3724
(lp3904
sg2782
S''
sg3304
F25
sg3726
F2
sg3727
F50
sg3728
S''
sg3729
F2
sg3730
S''
sg3731
S''
sg3732
S''
sg3733
S'Politician001'
p3905
sg2776
g3900
sg3734
S'Politician001'
p3906
sbsS'P-med-06'
p3907
g1
(g10
g3
NtRp3908
(dp3909
g3722
(lp3910
sg3724
(lp3911
sg2782
S''
sg3304
F25
sg3726
F2
sg3727
F50
sg3728
S'Politician001'
p3912
sg3729
F2
sg3730
F2
sg3731
S''
sg3732
S''
sg3733
S'Governor'
p3913
sg2776
g3907
sg3734
S'Politician001'
p3914
sbsS'P-med-07'
p3915
g1
(g10
g3
NtRp3916
(dp3917
g3722
(lp3918
sg3724
(lp3919
sg2782
S''
sg3304
F25
sg3726
F2
sg3727
F50
sg3728
S''
sg3729
F2
sg3730
S''
sg3731
S''
sg3732
S''
sg3733
S'Journalist001'
p3920
sg2776
g3915
sg3734
S'Politician001'
p3921
sbsS'P-med-04'
p3922
g1
(g10
g3
NtRp3923
(dp3924
g3722
(lp3925
sg3724
(lp3926
sg2782
S''
sg3304
F25
sg3726
F2
sg3727
F50
sg3728
S'Bumpkin001'
p3927
sg3729
F2
sg3730
F2
sg3731
S''
sg3732
S''
sg3733
S'Bumpkin001'
p3928
sg2776
g3922
sg3734
S'Bumpkin001'
p3929
sbsS'P-med-05'
p3930
g1
(g10
g3
NtRp3931
(dp3932
g3722
(lp3933
sg3724
(lp3934
sg2782
S''
sg3304
F25
sg3726
F2
sg3727
F50
sg3728
S'Politician001'
p3935
sg3729
F2
sg3730
F2
sg3731
S''
sg3732
S''
sg3733
S'Journalist001'
p3936
sg2776
g3930
sg3734
S'Journalist001'
p3937
sbsS'P-med-24'
p3938
g1
(g10
g3
NtRp3939
(dp3940
g3722
(lp3941
sg3724
(lp3942
sg2782
S''
sg3304
F25
sg3726
F2
sg3727
F50
sg3728
S'Politician001'
p3943
sg3729
F2
sg3730
F2
sg3731
S''
sg3732
S''
sg3733
S'PresidentAlien'
p3944
sg2776
g3938
sg3734
S'Politician001'
p3945
sbsS'P-med-20'
p3946
g1
(g10
g3
NtRp3947
(dp3948
g3722
(lp3949
sg3724
(lp3950
sg2782
S''
sg3304
F25
sg3726
F2
sg3727
F50
sg3728
S'Journalist001'
p3951
sg3729
F2
sg3730
F2
sg3731
S''
sg3732
S''
sg3733
S'TVPersonality001'
p3952
sg2776
g3946
sg3734
S'Journalist001'
p3953
sbsS'P-med-21'
p3954
g1
(g10
g3
NtRp3955
(dp3956
g3722
(lp3957
sg3724
(lp3958
sg2782
S''
sg3304
F25
sg3726
F2
sg3727
F50
sg3728
S'Politician001'
p3959
sg3729
F2
sg3730
F2
sg3731
S''
sg3732
S''
sg3733
S'President'
p3960
sg2776
g3954
sg3734
S'Politician001'
p3961
sbsS'P-med-22'
p3962
g1
(g10
g3
NtRp3963
(dp3964
g3722
(lp3965
sg3724
(lp3966
sg2782
S''
sg3304
F25
sg3726
F2
sg3727
F50
sg3728
S''
sg3729
F2
sg3730
S''
sg3731
S''
sg3732
S''
sg3733
S'DeepThroat'
p3967
sg2776
g3962
sg3734
S'DeepThroat'
p3968
sbsS'P-med-23'
p3969
g1
(g10
g3
NtRp3970
(dp3971
g3722
(lp3972
sg3724
(lp3973
sg2782
S''
sg3304
F25
sg3726
F2
sg3727
F50
sg3728
S'Politician001'
p3974
sg3729
F2
sg3730
F2
sg3731
F2
sg3732
S'Politician001'
p3975
sg3733
S'President'
p3976
sg2776
g3969
sg3734
S'Politician001'
p3977
sbsS'P-hard-06'
p3978
g1
(g10
g3
NtRp3979
(dp3980
g3722
(lp3981
sg3724
(lp3982
sg2782
S''
sg3304
F25
sg3726
F2
sg3727
F50
sg3728
S'Teacher001'
p3983
sg3729
F2
sg3730
F2
sg3731
S''
sg3732
S''
sg3733
S'Teacher001'
p3984
sg2776
g3978
sg3734
S'Teacher001'
p3985
sbsS'P-hard-07'
p3986
g1
(g10
g3
NtRp3987
(dp3988
g3722
(lp3989
sg3724
(lp3990
sg2782
S''
sg3304
F25
sg3726
F2
sg3727
F50
sg3728
S'Teacher001'
p3991
sg3729
F2
sg3730
F2
sg3731
F2
sg3732
S'Teacher001'
p3992
sg3733
S'Teacher001'
p3993
sg2776
g3986
sg3734
S'Teacher001'
p3994
sbsS'P-hard-04'
p3995
g1
(g10
g3
NtRp3996
(dp3997
g3722
(lp3998
sg3724
(lp3999
sg2782
S''
sg3304
F25
sg3726
F2
sg3727
F50
sg3728
S'WarVet001'
p4000
sg3729
F2
sg3730
F2
sg3731
S''
sg3732
S''
sg3733
S'WarVet001'
p4001
sg2776
g3995
sg3734
S'WarVet001'
p4002
sbsS'P-hard-05'
p4003
g1
(g10
g3
NtRp4004
(dp4005
g3722
(lp4006
sg3724
(lp4007
sg2782
S''
sg3304
F25
sg3726
F2
sg3727
F50
sg3728
S'WarVet001'
p4008
sg3729
F2
sg3730
F2
sg3731
F2
sg3732
S'WarVet001'
p4009
sg3733
S'WarVet001'
p4010
sg2776
g4003
sg3734
S'WarVet001'
p4011
sbsS'P-hard-02'
p4012
g1
(g10
g3
NtRp4013
(dp4014
g3722
(lp4015
sg3724
(lp4016
sg2782
S''
sg3304
F25
sg3726
F2
sg3727
F50
sg3728
S'Journalist001'
p4017
sg3729
F2
sg3730
F2
sg3731
S''
sg3732
S''
sg3733
S'TVPersonality001'
p4018
sg2776
g4012
sg3734
S'Journalist001'
p4019
sbsS'P-hard-03'
p4020
g1
(g10
g3
NtRp4021
(dp4022
g3722
(lp4023
sg3724
(lp4024
sg2782
S''
sg3304
F25
sg3726
F2
sg3727
F50
sg3728
S'Journalist001'
p4025
sg3729
F2
sg3730
F2
sg3731
S''
sg3732
S''
sg3733
S'Journalist001'
p4026
sg2776
g4020
sg3734
S'TVPersonality001'
p4027
sbsS'P-hard-01'
p4028
g1
(g10
g3
NtRp4029
(dp4030
g3722
(lp4031
sg3724
(lp4032
sg2782
S''
sg3304
F25
sg3726
F2
sg3727
F50
sg3728
S'Journalist001'
p4033
sg3729
F2
sg3730
F2
sg3731
S''
sg3732
S''
sg3733
S'Journalist001'
p4034
sg2776
g4028
sg3734
S'Journalist001'
p4035
sbsS'P-easy-10'
p4036
g1
(g10
g3
NtRp4037
(dp4038
g3722
(lp4039
sg3724
(lp4040
sg2782
S''
sg3304
F25
sg3726
F2
sg3727
F50
sg3728
S'Politician001'
p4041
sg3729
F2
sg3730
F2
sg3731
S''
sg3732
S''
sg3733
S'Mayor'
p4042
sg2776
g4036
sg3734
S'Politician001'
p4043
sbsS'P-med-19'
p4044
g1
(g10
g3
NtRp4045
(dp4046
g3722
(lp4047
sg3724
(lp4048
sg2782
S''
sg3304
F25
sg3726
F2
sg3727
F50
sg3728
S''
sg3729
F2
sg3730
S''
sg3731
S''
sg3732
S''
sg3733
S'DeepThroat'
p4049
sg2776
g4044
sg3734
S'DeepThroat'
p4050
sbsS'P-med-18'
p4051
g1
(g10
g3
NtRp4052
(dp4053
g3722
(lp4054
sg3724
(lp4055
sg2782
S''
sg3304
F25
sg3726
F2
sg3727
F50
sg3728
S'ReligiousNut001'
p4056
sg3729
F2
sg3730
F2
sg3731
F2
sg3732
S'ReligiousNut001'
p4057
sg3733
S'ReligiousNut001'
p4058
sg2776
g4051
sg3734
S'ReligiousNut001'
p4059
sbsS'P-med-15'
p4060
g1
(g10
g3
NtRp4061
(dp4062
g3722
(lp4063
sg3724
(lp4064
sg2782
S''
sg3304
F25
sg3726
F2
sg3727
F50
sg3728
S''
sg3729
F2
sg3730
S''
sg3731
S''
sg3732
S''
sg3733
S'ReligiousNut001'
p4065
sg2776
g4060
sg3734
S'ReligiousNut001'
p4066
sbsS'P-med-14'
p4067
g1
(g10
g3
NtRp4068
(dp4069
g3722
(lp4070
sg3724
(lp4071
sg2782
S''
sg3304
F25
sg3726
F2
sg3727
F50
sg3728
S'Lobbyist001'
p4072
sg3729
F2
sg3730
F2
sg3731
F2
sg3732
S'Lobbyist001'
p4073
sg3733
S'Lobbyist001'
p4074
sg2776
g4067
sg3734
S'Lobbyist001'
p4075
sbsS'P-med-17'
p4076
g1
(g10
g3
NtRp4077
(dp4078
g3722
(lp4079
sg3724
(lp4080
sg2782
S''
sg3304
F25
sg3726
F2
sg3727
F50
sg3728
S'ReligiousNut001'
p4081
sg3729
F2
sg3730
F2
sg3731
S''
sg3732
S''
sg3733
S'ReligiousNut001'
p4082
sg2776
g4076
sg3734
S'ReligiousNut001'
p4083
sbsS'P-med-16'
p4084
g1
(g10
g3
NtRp4085
(dp4086
g3722
(lp4087
sg3724
(lp4088
sg2782
S''
sg3304
F25
sg3726
F2
sg3727
F50
sg3728
S'ReligiousNut001'
p4089
sg3729
F2
sg3730
F2
sg3731
S''
sg3732
S''
sg3733
S'ReligiousNut001'
p4090
sg2776
g4084
sg3734
S'ReligiousNut001'
p4091
sbsS'P-med-11'
p4092
g1
(g10
g3
NtRp4093
(dp4094
g3722
(lp4095
sg3724
(lp4096
sg2782
S''
sg3304
F25
sg3726
F2
sg3727
F50
sg3728
S'Politician001'
p4097
sg3729
F2
sg3730
F2
sg3731
F2
sg3732
S'Politician001'
p4098
sg3733
S'Politician001'
p4099
sg2776
g4092
sg3734
S'Politician001'
p4100
sbsS'P-med-10'
p4101
g1
(g10
g3
NtRp4102
(dp4103
g3722
(lp4104
sg3724
(lp4105
sg2782
S''
sg3304
F25
sg3726
F2
sg3727
F50
sg3728
S'ReligiousNut001'
p4106
sg3729
F2
sg3730
F2
sg3731
S''
sg3732
S''
sg3733
S'Politician001'
p4107
sg2776
g4101
sg3734
S'Politician001'
p4108
sbsS'P-med-13'
p4109
g1
(g10
g3
NtRp4110
(dp4111
g3722
(lp4112
sg3724
(lp4113
sg2782
S''
sg3304
F25
sg3726
F2
sg3727
F50
sg3728
S'Lobbyist001'
p4114
sg3729
F2
sg3730
F2
sg3731
S''
sg3732
S''
sg3733
S'Lobbyist001'
p4115
sg2776
g4109
sg3734
S'Lobbyist001'
p4116
sbsS'P-med-12'
p4117
g1
(g10
g3
NtRp4118
(dp4119
g3722
(lp4120
sg3724
(lp4121
sg2782
S''
sg3304
F25
sg3726
F2
sg3727
F50
sg3728
S'Lobbyist001'
p4122
sg3729
F2
sg3730
F2
sg3731
S''
sg3732
S''
sg3733
S'Lobbyist001'
p4123
sg2776
g4117
sg3734
S'Lobbyist001'
p4124
sbssb.