ccopy_reg
_reconstructor
p1
(c__main__
GameData
p2
c__builtin__
object
p3
NtRp4
(dp5
S'attacks'
p6
(dp7
S'Lie'
p8
g1
(c__main__
TableRow
p9
g3
NtRp10
(dp11
S'base_damage_max'
p12
F8
sS'description'
p13
S'ghi'
p14
sS'name'
p15
g8
sS'crit_chance_max'
p16
F10
sS'crit_chance_min'
p17
F2
sS'target_type'
p18
S'AllEnemy'
p19
sS'base_damage_min'
p20
F0
sS'effects'
p21
(lp22
g1
(c__main__
Effect
p23
g3
NtRp24
(dp25
S'function'
p26
S'miss_turn'
p27
sS'attribute'
p28
S''
sS'rounds_max'
p29
F1
sS'rounds_min'
p30
F1
sS'value'
p31
F0
sS'id'
p32
S'Critical Fail'
p33
sS'apply_to_source'
p34
S'TRUE'
p35
sbasS'target_count'
p36
I4
sS'crit_base_damage'
p37
F15
sS'underlying_stat'
p38
S'Cunning'
p39
sbsS'Lose/lose issue'
p40
g1
(g9
g3
NtRp41
(dp42
g12
F4
sg13
S'Causes all politicians in the target radius to lose votes'
p43
sg15
g40
sg16
F4
sg17
F4
sg18
S'All'
p44
sg20
F4
sg21
(lp45
sg36
I6
sg37
F4
sg38
S'Cunning'
p46
sbsS'Stay On Message'
p47
g1
(g9
g3
NtRp48
(dp49
g12
F5
sg13
S'abc'
p50
sg15
g47
sg16
F10
sg17
F2
sg18
S'AllEnemy'
p51
sg20
F2
sg21
(lp52
sg36
I2
sg37
F8
sg38
S'Cunning'
p53
sbsS'Joke'
p54
g1
(g9
g3
NtRp55
(dp56
g12
F3
sg13
S'jkl'
p57
sg15
g54
sg16
F10
sg17
F2
sg18
S'AllEnemy'
p58
sg20
F1
sg21
(lp59
g1
(g23
g3
NtRp60
(dp61
g26
S'reduce'
p62
sg28
S'cunning'
p63
sg29
F5
sg30
F2
sg31
F2
sg32
S'Reduce Cunning'
p64
sg34
S''
sbasg36
I1
sg37
F6
sg38
S'Wit'
p65
sbsS'Slander Opposition'
p66
g1
(g9
g3
NtRp67
(dp68
g12
F3
sg13
S'def'
p69
sg15
g66
sg16
F10
sg17
F2
sg18
S'AllEnemy'
p70
sg20
F1
sg21
(lp71
g1
(g23
g3
NtRp72
(dp73
g26
S'drain'
p74
sg28
S'votes'
p75
sg29
F5
sg30
F2
sg31
F1
sg32
S'Drain Votes'
p76
sg34
S''
sbasg36
I3
sg37
F5
sg38
S'Cunning'
p77
sbsS'Bribe'
p78
g1
(g9
g3
NtRp79
(dp80
g12
F1
sg13
S'mno'
p81
sg15
g78
sg16
F1
sg17
F1
sg18
S'AllEnemy'
p82
sg20
F1
sg21
(lp83
sg36
I1
sg37
F1
sg38
S'Money'
p84
sbsS'Inspirational Speech'
p85
g1
(g9
g3
NtRp86
(dp87
g12
F-2
sg13
S'Restore votes to all party members'
p88
sg15
g85
sg16
F0
sg17
F0
sg18
S'AllFriendly'
p89
sg20
F-2
sg21
(lp90
sg36
I4
sg37
F0
sg38
S'Cunning'
p91
sbssS'encounters'
p92
(dp93
S'P-easy-01'
p94
g1
(g9
g3
NtRp95
(dp96
S'monster2_lvl'
p97
F1
sg32
g94
sS'monster1_lvl'
p98
F1
sS'monster3_lvl'
p99
F1
sS'monster4_lvl'
p100
F1
sS'monster4'
p101
S'Politician001'
p102
sS'monster2'
p103
S'Politician001'
p104
sS'monster3'
p105
S'Politician001'
p106
sS'monster1'
p107
S'Politician001'
p108
sbssg21
(dp109
g33
g24
sg64
g60
sg76
g72
ssS'characters'
p110
(dp111
S'Player'
p112
(lp113
g1
(g9
g3
NtRp114
(dp115
S'flair_base'
p116
F1
sS'charisma_lvl'
p117
F1.1499999999999999
sS'spin_lvl'
p118
F1.0800000000000001
sS'flair_lvl'
p119
F1.1499999999999999
sS'votes_lvl'
p120
F1.2
sS'charisma_base'
p121
F2
sS'wit_base'
p122
F2
sS'speed_base'
p123
F2
sS'weaknesses'
p124
(lp125
sS'resistance'
p126
(lp127
sS'spin_base'
p128
F5
sS'votes_base'
p129
F10
sS'wit_lvl'
p130
F1.0900000000000001
sS'speed_lvl'
p131
F1.0800000000000001
sS'cunning_lvl'
p132
F1.1000000000000001
sS'cunning_base'
p133
F2
sS'immunities'
p134
(lp135
sg32
g112
sbasS'ReligiousNut001'
p136
(lp137
g1
(g9
g3
NtRp138
(dp139
g116
S''
sg117
S''
sg118
S''
sg119
S''
sg120
S''
sg121
S''
sg122
S''
sg123
S''
sg124
(lp140
sg126
(lp141
sg128
S''
sg129
S''
sg130
S''
sg131
S''
sg132
S''
sg133
S''
sg134
(lp142
g55
asg32
g136
sbasS'Lobbyist001'
p143
(lp144
g1
(g9
g3
NtRp145
(dp146
g116
S''
sg117
S''
sg118
S''
sg119
S''
sg120
S''
sg121
S''
sg122
S''
sg123
S''
sg124
(lp147
sg126
(lp148
sg128
S''
sg129
S''
sg130
S''
sg131
S''
sg132
S''
sg133
S''
sg134
(lp149
g79
asg32
g143
sbasS'Politician001'
p150
(lp151
g1
(g9
g3
NtRp152
(dp153
g116
F1
sg117
F1.1499999999999999
sg118
F1.0800000000000001
sg119
F1.1499999999999999
sg120
F1.2
sg121
F1
sg122
F1
sg123
F1
sg124
(lp154
g79
asg126
(lp155
g10
asg128
F4
sg129
F20
sg130
F1.0900000000000001
sg131
F1.0800000000000001
sg132
F1.1000000000000001
sg133
F1
sg134
(lp156
g48
asg32
g150
sbasS'Bumpkin001'
p157
(lp158
g1
(g9
g3
NtRp159
(dp160
g116
S''
sg117
S''
sg118
S''
sg119
S''
sg120
S''
sg121
S''
sg122
S''
sg123
S''
sg124
(lp161
g10
asg126
(lp162
sg128
S''
sg129
S''
sg130
S''
sg131
S''
sg132
S''
sg133
S''
sg134
(lp163
sg32
g157
sbassb.