ccopy_reg
_reconstructor
p1
(c__main__
GameData
p2
c__builtin__
object
p3
NtRp4
(dp5
S'script'
p6
(dp7
S'#----------------------------------------------------------------------------------------ACT 3 ----------------------------------------------------------------------------------------------------------------------------------------------------------------------------------------'
p8
(lp9
g1
(c__main__
TableRow
p10
g3
NtRp11
(dp12
S'action'
p13
S''
sS'trigger'
p14
g8
sS'param'
p15
S''
sS'dialog'
p16
S''
sbasS'Hick1'
p17
(lp18
g1
(g10
g3
NtRp19
(dp20
g13
S'RequireFlag'
p21
sg14
g17
sg15
S'STARTHICKS'
p22
sg16
S"Look at this guy's fancy tie!"
p23
sbag1
(g10
g3
NtRp24
(dp25
g13
S'PlayerSay'
p26
sg14
S'Hick1'
p27
sg15
S''
sg16
S'What brings you to the office of the governor?'
p28
sbag1
(g10
g3
NtRp29
(dp30
g13
S'Say'
p31
sg14
S'Hick1'
p32
sg15
S''
sg16
S'The immigrants!'
p33
sbag1
(g10
g3
NtRp34
(dp35
g13
S'PlayerSay'
p36
sg14
S'Hick1'
p37
sg15
S''
sg16
S'What happened?'
p38
sbag1
(g10
g3
NtRp39
(dp40
g13
S'Say'
p41
sg14
S'Hick1'
p42
sg15
S'Hick2'
p43
sg16
S"They're coming!"
p44
sbag1
(g10
g3
NtRp45
(dp46
g13
S'PlayerSay'
p47
sg14
S'Hick1'
p48
sg15
S''
sg16
S'The...immigrants are coming?'
p49
sbag1
(g10
g3
NtRp50
(dp51
g13
S'Say'
p52
sg14
S'Hick1'
p53
sg15
S'Hick2'
p54
sg16
S'Yes, to steal our jobs and our wives!'
p55
sbag1
(g10
g3
NtRp56
(dp57
g13
S'Say'
p58
sg14
S'Hick1'
p59
sg15
S''
sg16
S'They have to be stopped!'
p60
sbag1
(g10
g3
NtRp61
(dp62
g13
S'PlayerSay'
p63
sg14
S'Hick1'
p64
sg15
S''
sg16
S"I don't think the immigrants are coming to steal your wives..."
p65
sbag1
(g10
g3
NtRp66
(dp67
g13
S'Say'
p68
sg14
S'Hick1'
p69
sg15
S'Journalist2'
p70
sg16
S'Mayor Mossman sides with the immigrants! I need to get this to print!'
p71
sbag1
(g10
g3
NtRp72
(dp73
g13
S'PlayerSay'
p74
sg14
S'Hick1'
p75
sg15
S''
sg16
S'Wait a second, let me explain.'
p76
sbag1
(g10
g3
NtRp77
(dp78
g13
S'Encounter'
p79
sg14
S'Hick1'
p80
sg15
S'P-med-03'
p81
sg16
S''
sbag1
(g10
g3
NtRp82
(dp83
g13
S'Say'
p84
sg14
S'Hick1'
p85
sg15
S''
sg16
S"You're a smart guy. I think I can trust you."
p86
sbag1
(g10
g3
NtRp87
(dp88
g13
S'SetFlag'
p89
sg14
S'Hick1'
p90
sg15
S'STARTHICKS2'
p91
sg16
S''
sbag1
(g10
g3
NtRp92
(dp93
g13
S'Increment'
p94
sg14
S'Hick1'
p95
sg15
S'DEALWITHHICKS'
p96
sg16
S''
sbag1
(g10
g3
NtRp97
(dp98
g13
S'Destroy'
p99
sg14
S'Hick1'
p100
sg15
S''
sg16
S''
sbasS'Hick2'
p101
(lp102
g1
(g10
g3
NtRp103
(dp104
g13
S'RequireFlag'
p105
sg14
g101
sg15
S'STARTHICKS2'
p106
sg16
S"Aw....I'm shy...talk to my buddy..."
p107
sbag1
(g10
g3
NtRp108
(dp109
g13
S'Encounter'
p110
sg14
S'Hick2'
p111
sg15
S'P-med-04'
p112
sg16
S''
sbag1
(g10
g3
NtRp113
(dp114
g13
S'Say'
p115
sg14
S'Hick2'
p116
sg15
S''
sg16
S"Wowee. We've been waiting for days and the governor has ignored us. If you ever run for governor, you'll have my vote!"
p117
sbag1
(g10
g3
NtRp118
(dp119
g13
S'Increment'
p120
sg14
S'Hick2'
p121
sg15
S'DEALWITHHICKS'
p122
sg16
S''
sbag1
(g10
g3
NtRp123
(dp124
g13
S'Destroy'
p125
sg14
S'Hick2'
p126
sg15
S''
sg16
S''
sbasS'Politician7'
p127
(lp128
g1
(g10
g3
NtRp129
(dp130
g13
S'RequireFlag'
p131
sg14
g127
sg15
S'STARTPOLITICIANSHAKEDOWN'
p132
sg16
S'Good morning, Governor Mossman. Your PA will know your schedule. He is waiting in your room.'
p133
sbag1
(g10
g3
NtRp134
(dp135
g13
S'Say'
p136
sg14
S'Politician7'
p137
sg15
S''
sg16
S"I believe in captialism. Let business sort itself out. They shouldn't need to rely on government handouts."
p138
sbag1
(g10
g3
NtRp139
(dp140
g13
S'Say'
p141
sg14
S'Politician7'
p142
sg15
S''
sg16
S'Also, I think politicians need a raise. Some more than others...oh and life-long retainers.'
p143
sbag1
(g10
g3
NtRp144
(dp145
g13
S'PlayerSay'
p146
sg14
S'Politician7'
p147
sg15
S''
sg16
S'So, no more hand-outs for business but more handouts for politicians?'
p148
sbag1
(g10
g3
NtRp149
(dp150
g13
S'Say'
p151
sg14
S'Politician7'
p152
sg15
S''
sg16
S'Yes!'
p153
sbag1
(g10
g3
NtRp154
(dp155
g13
S'PlayerSay'
p156
sg14
S'Politician7'
p157
sg15
S''
sg16
S'Does that serve your constituents?'
p158
sbag1
(g10
g3
NtRp159
(dp160
g13
S'Say'
p161
sg14
S'Politician7'
p162
sg15
S''
sg16
S'...It serves...some...'
p163
sbag1
(g10
g3
NtRp164
(dp165
g13
S'Encounter'
p166
sg14
S'Politician7'
p167
sg15
S'P-med-11'
p168
sg16
S''
sbag1
(g10
g3
NtRp169
(dp170
g13
S'Say'
p171
sg14
S'Politician7'
p172
sg15
S''
sg16
S'Right, I guess we need to handle the needs of our constituents, too.'
p173
sbag1
(g10
g3
NtRp174
(dp175
g13
S'Increment'
p176
sg14
S'Politician7'
p177
sg15
S'POLITICIANSHAKEDOWN'
p178
sg16
S''
sbag1
(g10
g3
NtRp179
(dp180
g13
S'Destroy'
p181
sg14
S'Politician7'
p182
sg15
S''
sg16
S''
sbasS'TVDebate'
p183
(lp184
g1
(g10
g3
NtRp185
(dp186
g13
S'RequireFlag'
p187
sg14
g183
sg15
S'STARTDEBATE'
p188
sg16
S"Hmmm? Oh, sorry, I'm on the phone to the studio."
p189
sbag1
(g10
g3
NtRp190
(dp191
g13
S'Say'
p192
sg14
S'TVDebate'
p193
sg15
S''
sg16
S"Good evening, Governor Mossman. If you'll follow me, I'll take you to the studio."
p194
sbag1
(g10
g3
NtRp195
(dp196
g13
S'Encounter'
p197
sg14
S'TVDebate'
p198
sg15
S'P-med-21'
p199
sg16
S''
sbag1
(g10
g3
NtRp200
(dp201
g13
S'Say'
p202
sg14
S'TVDebate'
p203
sg15
S''
sg16
S'Great work tonight, Governor Mossman and congratulations on the win!'
p204
sbag1
(g10
g3
NtRp205
(dp206
g13
S'SetFlag'
p207
sg14
S'TVDebate'
p208
sg15
S'DEBATECOMPLETE'
p209
sg16
S''
sbag1
(g10
g3
NtRp210
(dp211
g13
S'Destroy'
p212
sg14
S'TVDebate'
p213
sg15
S''
sg16
S''
sbasS'Lobbyist2'
p214
(lp215
g1
(g10
g3
NtRp216
(dp217
g13
S'RequireFlag'
p218
sg14
g214
sg15
S'STARTLOBBYISTS'
p219
sg16
S'Humph'
p220
sbag1
(g10
g3
NtRp221
(dp222
g13
S'Say'
p223
sg14
S'Lobbyist2'
p224
sg15
S''
sg16
S'I represent the Python Software Foundation. What will you do to promote, protect and advance the Python programming language.'
p225
sbag1
(g10
g3
NtRp226
(dp227
g13
S'PlayerSay'
p228
sg14
S'Lobbyist2'
p229
sg15
S''
sg16
S"Ah yes, the Python cause! I'm a big advocate of Python."
p230
sbag1
(g10
g3
NtRp231
(dp232
g13
S'Encounter'
p233
sg14
S'Lobbyist2'
p234
sg15
S'P-med-12'
p235
sg16
S''
sbag1
(g10
g3
NtRp236
(dp237
g13
S'Increment'
p238
sg14
S'Lobbyist2'
p239
sg15
S'LOBBYISTS'
p240
sg16
S''
sbag1
(g10
g3
NtRp241
(dp242
g13
S'Say'
p243
sg14
S'Lobbyist2'
p244
sg15
S''
sg16
S'I think we can help each other out.'
p245
sbag1
(g10
g3
NtRp246
(dp247
g13
S'Destroy'
p248
sg14
S'Lobbyist2'
p249
sg15
S''
sg16
S''
sbasS'CheatAct2'
p250
(lp251
g1
(g10
g3
NtRp252
(dp253
g13
S'AddAlly'
p254
sg14
g250
sg15
S'Wife:1'
p255
sg16
S''
sbag1
(g10
g3
NtRp256
(dp257
g13
S'LearnAttack'
p258
sg14
S'CheatAct2'
p259
sg15
S'BRIBE'
p260
sg16
S''
sbag1
(g10
g3
NtRp261
(dp262
g13
S'LearnAttack'
p263
sg14
S'CheatAct2'
p264
sg15
S'Wife:BRIBE'
p265
sg16
S''
sbag1
(g10
g3
NtRp266
(dp267
g13
S'LearnAttack'
p268
sg14
S'CheatAct2'
p269
sg15
S'SLANDER'
p270
sg16
S''
sbag1
(g10
g3
NtRp271
(dp272
g13
S'GotoMap'
p273
sg14
S'CheatAct2'
p274
sg15
S'act2'
p275
sg16
S''
sbasS'CheatAct3'
p276
(lp277
g1
(g10
g3
NtRp278
(dp279
g13
S'AddAlly'
p280
sg14
g276
sg15
S'Wife:1'
p281
sg16
S''
sbag1
(g10
g3
NtRp282
(dp283
g13
S'LearnAttack'
p284
sg14
S'CheatAct3'
p285
sg15
S'BRIBE'
p286
sg16
S''
sbag1
(g10
g3
NtRp287
(dp288
g13
S'LearnAttack'
p289
sg14
S'CheatAct3'
p290
sg15
S'Wife:BRIBE'
p291
sg16
S''
sbag1
(g10
g3
NtRp292
(dp293
g13
S'LearnAttack'
p294
sg14
S'CheatAct3'
p295
sg15
S'SLANDER'
p296
sg16
S''
sbag1
(g10
g3
NtRp297
(dp298
g13
S'AddAlly'
p299
sg14
S'CheatAct3'
p300
sg15
S'Leo:1'
p301
sg16
S''
sbag1
(g10
g3
NtRp302
(dp303
g13
S'GotoMap'
p304
sg14
S'CheatAct3'
p305
sg15
S'act3'
p306
sg16
S''
sbasS'WarVet2'
p307
(lp308
g1
(g10
g3
NtRp309
(dp310
g13
S'RequireFlag'
p311
sg14
g307
sg15
S'AFTERWILFRED'
p312
sg16
S'Eh? Speak up, boy.'
p313
sbag1
(g10
g3
NtRp314
(dp315
g13
S'Encounter'
p316
sg14
S'WarVet2'
p317
sg15
S'P-hard-05'
p318
sg16
S''
sbag1
(g10
g3
NtRp319
(dp320
g13
S'Say'
p321
sg14
S'WarVet2'
p322
sg15
S''
sg16
S"We'll head home, but you can expect us back if we see anything else suspicious ."
p323
sbag1
(g10
g3
NtRp324
(dp325
g13
S'Increment'
p326
sg14
S'WarVet2'
p327
sg15
S'WARVETS'
p328
sg16
S''
sbag1
(g10
g3
NtRp329
(dp330
g13
S'Destroy'
p331
sg14
S'WarVet2'
p332
sg15
S''
sg16
S''
sbasS'WarVet1'
p333
(lp334
g1
(g10
g3
NtRp335
(dp336
g13
S'Say'
p337
sg14
g333
sg15
S''
sg16
S"You think you can fool me? I wasn't born yesterday, you know."
p338
sbag1
(g10
g3
NtRp339
(dp340
g13
S'PlayerSay'
p341
sg14
S'WarVet1'
p342
sg15
S''
sg16
S"I'm sorry, sir, but what seems to be the problem."
p343
sbag1
(g10
g3
NtRp344
(dp345
g13
S'Say'
p346
sg14
S'WarVet1'
p347
sg15
S''
sg16
S"You think I don't know a mobilising army when I see one? You're clearly readying for war and you think you don't even need to mention it to the people."
p348
sbag1
(g10
g3
NtRp349
(dp350
g13
S'Say'
p351
sg14
S'WarVet1'
p352
sg15
S'WarVet2'
p353
sg16
S"And don't forget that he's barely a cadet, Wilfred."
p354
sbag1
(g10
g3
NtRp355
(dp356
g13
S'Say'
p357
sg14
S'WarVet1'
p358
sg15
S''
sg16
S"Right you are, Arnold, You've barely set foot in this building and you're already leading us to war. Who do you think you're dealing with? We won't stand."
p359
sbag1
(g10
g3
NtRp360
(dp361
g13
S'Encounter'
p362
sg14
S'WarVet1'
p363
sg15
S'P-hard-04'
p364
sg16
S''
sbag1
(g10
g3
NtRp365
(dp366
g13
S'Say'
p367
sg14
S'WarVet1'
p368
sg15
S''
sg16
S"Seems like a flimsy excuse, you didn't know. Better get your troops in line if you want 'em to march, boy."
p369
sbag1
(g10
g3
NtRp370
(dp371
g13
S'Increment'
p372
sg14
S'WarVet1'
p373
sg15
S'WARVETS'
p374
sg16
S''
sbag1
(g10
g3
NtRp375
(dp376
g13
S'SetFlag'
p377
sg14
S'WarVet1'
p378
sg15
S'AFTERWILFRED'
p379
sg16
S''
sbag1
(g10
g3
NtRp380
(dp381
g13
S'Destroy'
p382
sg14
S'WarVet1'
p383
sg15
S''
sg16
S''
sbasS'Kawalski'
p384
(lp385
g1
(g10
g3
NtRp386
(dp387
g13
S'Say'
p388
sg14
g384
sg15
S''
sg16
S'A pleasure to meet you, President Mossman. I am Agent Kawalski, your security detail.'
p389
sbag1
(g10
g3
NtRp390
(dp391
g13
S'PlayerSay'
p392
sg14
S'Kawalski'
p393
sg15
S''
sg16
S'Great to meet you, Agent Kawalski. What do I need to know?'
p394
sbag1
(g10
g3
NtRp395
(dp396
g13
S'Say'
p397
sg14
S'Kawalski'
p398
sg15
S''
sg16
S'Well actually, it does have to do with your security. Something terrible is happening at the White House.'
p399
sbag1
(g10
g3
NtRp400
(dp401
g13
S'PlayerSay'
p402
sg14
S'Kawalski'
p403
sg15
S''
sg16
S"If you're trying to warn me about the aliens, it's under control."
p404
sbag1
(g10
g3
NtRp405
(dp406
g13
S'Say'
p407
sg14
S'Kawalski'
p408
sg15
S''
sg16
S'No, no, this is different. I think somebody is trying to take over the White House.'
p409
sbag1
(g10
g3
NtRp410
(dp411
g13
S'PlayerSay'
p412
sg14
S'Kawalski'
p413
sg15
S''
sg16
S"Wouldn't we know?"
p414
sbag1
(g10
g3
NtRp415
(dp416
g13
S'Say'
p417
sg14
S'Kawalski'
p418
sg15
S''
sg16
S"It's too early for those kind of details. I just want you to keep your eyes open, Mr President."
p419
sbag1
(g10
g3
NtRp420
(dp421
g13
S'PlayerSay'
p422
sg14
S'Kawalski'
p423
sg15
S''
sg16
S'No problem.'
p424
sbag1
(g10
g3
NtRp425
(dp426
g13
S'Destroy'
p427
sg14
S'Kawalski'
p428
sg15
S''
sg16
S''
sbag1
(g10
g3
NtRp429
(dp430
g13
S'AddAlly'
p431
sg14
S'Kawalski'
p432
sg15
S'SecretAgent:1'
p433
sg16
S'Kawalski joins your political party!'
p434
sbag1
(g10
g3
NtRp435
(dp436
g13
S'SetFlag'
p437
sg14
S'Kawalski'
p438
sg15
S'KAWALSKIJOIN'
p439
sg16
S''
sbasS'Theo'
p440
(lp441
g1
(g10
g3
NtRp442
(dp443
g13
S'RequireFlag'
p444
sg14
g440
sg15
S'GOVERNORDEFEATED'
p445
sg16
S'The Governor is in the north wing.'
p446
sbag1
(g10
g3
NtRp447
(dp448
g13
S'Say'
p449
sg14
S'Theo'
p450
sg15
S''
sg16
S"You must be Governor Mossman. I am Theo. I've been looking for you, but I wanted to see how you handled Governor Badden"
p451
sbag1
(g10
g3
NtRp452
(dp453
g13
S'PlayerSay'
p454
sg14
S'Theo'
p455
sg15
S''
sg16
S'Hi Theo. Why have you been looking for me?'
p456
sbag1
(g10
g3
NtRp457
(dp458
g13
S'Say'
p459
sg14
S'Theo'
p460
sg15
S''
sg16
S"There's a lot going on in Ignited States politics and none of it is good. Somebody needs to get up there and find out what's going on."
p461
sbag1
(g10
g3
NtRp462
(dp463
g13
S'Say'
p464
sg14
S'Theo'
p465
sg15
S''
sg16
S"I couldn't be sure which side you were on, but your dealings with the Governor prove that you're not with them."
p466
sbag1
(g10
g3
NtRp467
(dp468
g13
S'PlayerSay'
p469
sg14
S'Theo'
p470
sg15
S''
sg16
S'It sounds like it goes all the way to the President of the Ignited States.'
p471
sbag1
(g10
g3
NtRp472
(dp473
g13
S'Say'
p474
sg14
S'Theo'
p475
sg15
S''
sg16
S"It does. That's why I've been looking for you. The only way to find out is to flush them out. There's only one way to flush out President Allen."
p476
sbag1
(g10
g3
NtRp477
(dp478
g13
S'PlayerSay'
p479
sg14
S'Theo'
p480
sg15
S''
sg16
S"How's that?"
p481
sbag1
(g10
g3
NtRp482
(dp483
g13
S'Say'
p484
sg14
S'Theo'
p485
sg15
S''
sg16
S"...I've been a campaign manager for 20 years and I've never seen a candidate as strong as you. I think you have what it takes to run for the presidency."
p486
sbag1
(g10
g3
NtRp487
(dp488
g13
S'Say'
p489
sg14
S'Theo'
p490
sg15
S''
sg16
S"That's why I was looking for you. I need somebody who has a shot at winning in order to get to President Allen. You have that shot."
p491
sbag1
(g10
g3
NtRp492
(dp493
g13
S'PlayerSay'
p494
sg14
S'Theo'
p495
sg15
S''
sg16
S"You really think I can win? Well...I want to follow this through to the end, so I'm in!"
p496
sbag1
(g10
g3
NtRp497
(dp498
g13
S'Say'
p499
sg14
S'Theo'
p500
sg15
S''
sg16
S"Great! There's a lot to get organised! We need to plan our election campaign!"
p501
sbag1
(g10
g3
NtRp502
(dp503
g13
S'Destroy'
p504
sg14
S'Theo'
p505
sg15
S''
sg16
S''
sbag1
(g10
g3
NtRp506
(dp507
g13
S'AddAlly'
p508
sg14
S'Theo'
p509
sg15
S'Leo:1'
p510
sg16
S''
sbag1
(g10
g3
NtRp511
(dp512
g13
S'Message'
p513
sg14
S'Theo'
p514
sg15
S''
sg16
S'Theo joins your political party!'
p515
sbasS'Religious4'
p516
(lp517
g1
(g10
g3
NtRp518
(dp519
g13
S'Say'
p520
sg14
g516
sg15
S''
sg16
S'Do not be swayed by the seductive powers of tea!'
p521
sbag1
(g10
g3
NtRp522
(dp523
g13
S'Encounter'
p524
sg14
S'Religious4'
p525
sg15
S'P-med-18'
p526
sg16
S''
sbag1
(g10
g3
NtRp527
(dp528
g13
S'Increment'
p529
sg14
S'Religious4'
p530
sg15
S'RELIGIOUSNUTS'
p531
sg16
S''
sbag1
(g10
g3
NtRp532
(dp533
g13
S'Say'
p534
sg14
S'Religious4'
p535
sg15
S''
sg16
S'The Battycan will be satisfied with this news.'
p536
sbag1
(g10
g3
NtRp537
(dp538
g13
S'Destroy'
p539
sg14
S'Religious4'
p540
sg15
S''
sg16
S''
sbasS'Religious1'
p541
(lp542
g1
(g10
g3
NtRp543
(dp544
g13
S'Say'
p545
sg14
g541
sg15
S''
sg16
S'Have you had your morning prayer?'
p546
sbag1
(g10
g3
NtRp547
(dp548
g13
S'Encounter'
p549
sg14
S'Religious1'
p550
sg15
S'P-med-16'
p551
sg16
S''
sbag1
(g10
g3
NtRp552
(dp553
g13
S'Increment'
p554
sg14
S'Religious1'
p555
sg15
S'RELIGIOUSNUTS'
p556
sg16
S''
sbag1
(g10
g3
NtRp557
(dp558
g13
S'Say'
p559
sg14
S'Religious1'
p560
sg15
S''
sg16
S'Some people pray upwards of 5 times a day, but this can cause hallucinations.'
p561
sbag1
(g10
g3
NtRp562
(dp563
g13
S'Destroy'
p564
sg14
S'Religious1'
p565
sg15
S''
sg16
S''
sbasS'Religious3'
p566
(lp567
g1
(g10
g3
NtRp568
(dp569
g13
S'Say'
p570
sg14
g566
sg15
S''
sg16
S'Mmmmmm...Coffee....ommmmm'
p571
sbag1
(g10
g3
NtRp572
(dp573
g13
S'Encounter'
p574
sg14
S'Religious3'
p575
sg15
S'P-med-17'
p576
sg16
S''
sbag1
(g10
g3
NtRp577
(dp578
g13
S'Increment'
p579
sg14
S'Religious3'
p580
sg15
S'RELIGIOUSNUTS'
p581
sg16
S''
sbag1
(g10
g3
NtRp582
(dp583
g13
S'Say'
p584
sg14
S'Religious3'
p585
sg15
S''
sg16
S'I must return to my meditation.'
p586
sbag1
(g10
g3
NtRp587
(dp588
g13
S'Destroy'
p589
sg14
S'Religious3'
p590
sg15
S''
sg16
S''
sbasS'Religious2'
p591
(lp592
g1
(g10
g3
NtRp593
(dp594
g13
S'Say'
p595
sg14
g591
sg15
S''
sg16
S'Welcome, my child. We have travelled here from Battycan City to be assured you are a man of faith before we endorse you.'
p596
sbag1
(g10
g3
NtRp597
(dp598
g13
S'PlayerSay'
p599
sg14
S'Religious2'
p600
sg15
S''
sg16
S'Er, what faith is that?'
p601
sbag1
(g10
g3
NtRp602
(dp603
g13
S'Say'
p604
sg14
S'Religious2'
p605
sg15
S''
sg16
S'Why, the one true god: Coffee.'
p606
sbag1
(g10
g3
NtRp607
(dp608
g13
S'PlayerSay'
p609
sg14
S'Religious2'
p610
sg15
S''
sg16
S'...Coffee?'
p611
sbag1
(g10
g3
NtRp612
(dp613
g13
S'Say'
p614
sg14
S'Religious2'
p615
sg15
S''
sg16
S"Yes of course. He who lifts you up when you're feeling low, who is your inspiration in the dark and who can achieve miraculous feats of effort with dedicated prayer."
p616
sbag1
(g10
g3
NtRp617
(dp618
g13
S'PlayerSay'
p619
sg14
S'Religious2'
p620
sg15
S''
sg16
S'This may be a religion I can get behind.'
p621
sbag1
(g10
g3
NtRp622
(dp623
g13
S'Encounter'
p624
sg14
S'Religious2'
p625
sg15
S'P-med-15'
p626
sg16
S''
sbag1
(g10
g3
NtRp627
(dp628
g13
S'Increment'
p629
sg14
S'Religious2'
p630
sg15
S'RELIGIOUSNUTS'
p631
sg16
S''
sbag1
(g10
g3
NtRp632
(dp633
g13
S'Say'
p634
sg14
S'Religious2'
p635
sg15
S''
sg16
S'Wonderful, the Battycan will be most pleased.'
p636
sbag1
(g10
g3
NtRp637
(dp638
g13
S'Destroy'
p639
sg14
S'Religious2'
p640
sg15
S''
sg16
S''
sbasS'Constituent2'
p641
(lp642
g1
(g10
g3
NtRp643
(dp644
g13
S'RequireFlag'
p645
sg14
g641
sg15
S'STARTCONSTITUENTS'
p646
sg16
S'What?'
p647
sbag1
(g10
g3
NtRp648
(dp649
g13
S'PlayerSay'
p650
sg14
S'Constituent2'
p651
sg15
S''
sg16
S'Vote Phillip Mossman for Mayor!'
p652
sbag1
(g10
g3
NtRp653
(dp654
g13
S'Say'
p655
sg14
S'Constituent2'
p656
sg15
S''
sg16
S'But Mayor Goodman has always taken care of me.'
p657
sbag1
(g10
g3
NtRp658
(dp659
g13
S'Encounter'
p660
sg14
S'Constituent2'
p661
sg15
S'P-easy-08'
p662
sg16
S''
sbag1
(g10
g3
NtRp663
(dp664
g13
S'Say'
p665
sg14
S'Constituent2'
p666
sg15
S''
sg16
S"I think it's time for a change!"
p667
sbag1
(g10
g3
NtRp668
(dp669
g13
S'Destroy'
p670
sg14
S'Constituent2'
p671
sg15
S''
sg16
S''
sbasS'Constituent3'
p672
(lp673
g1
(g10
g3
NtRp674
(dp675
g13
S'RequireFlag'
p676
sg14
g672
sg15
S'STARTCONSTITUENTS'
p677
sg16
S'What?'
p678
sbag1
(g10
g3
NtRp679
(dp680
g13
S'PlayerSay'
p681
sg14
S'Constituent3'
p682
sg15
S''
sg16
S'Vote Phillip Mossman for Mayor!'
p683
sbag1
(g10
g3
NtRp684
(dp685
g13
S'Say'
p686
sg14
S'Constituent3'
p687
sg15
S''
sg16
S'But Mayor Goodman has always taken care of me.'
p688
sbag1
(g10
g3
NtRp689
(dp690
g13
S'Encounter'
p691
sg14
S'Constituent3'
p692
sg15
S'P-easy-09'
p693
sg16
S''
sbag1
(g10
g3
NtRp694
(dp695
g13
S'Say'
p696
sg14
S'Constituent3'
p697
sg15
S''
sg16
S"I think it's time for a change!"
p698
sbag1
(g10
g3
NtRp699
(dp700
g13
S'PlayerSay'
p701
sg14
S'Constituent3'
p702
sg15
S''
sg16
S"I think I'm ready to take on Mayor Goodman now!"
p703
sbag1
(g10
g3
NtRp704
(dp705
g13
S'SetFlag'
p706
sg14
S'Constituent3'
p707
sg15
S'CONSTITUENTSWON'
p708
sg16
S''
sbag1
(g10
g3
NtRp709
(dp710
g13
S'Destroy'
p711
sg14
S'Constituent3'
p712
sg15
S''
sg16
S''
sbasS'DeepThroat'
p713
(lp714
g1
(g10
g3
NtRp715
(dp716
g13
S'Say'
p717
sg14
g713
sg15
S''
sg16
S'Finally, I thought you were going to be too late.'
p718
sbag1
(g10
g3
NtRp719
(dp720
g13
S'PlayerSay'
p721
sg14
S'DeepThroat'
p722
sg15
S''
sg16
S'What can I do for you Mr er...?'
p723
sbag1
(g10
g3
NtRp724
(dp725
g13
S'Say'
p726
sg14
S'DeepThroat'
p727
sg15
S''
sg16
S"No names! I have something I think you'll be interested in, but I'm not sure you can be trusted."
p728
sbag1
(g10
g3
NtRp729
(dp730
g13
S'PlayerSay'
p731
sg14
S'DeepThroat'
p732
sg15
S''
sg16
S"Look, Mr Er...I'm very busy, what is this about."
p733
sbag1
(g10
g3
NtRp734
(dp735
g13
S'Say'
p736
sg14
S'DeepThroat'
p737
sg15
S''
sg16
S"It's about the President, it's about national security, but I've got a bad feeling and I'm getting out of here."
p738
sbag1
(g10
g3
NtRp739
(dp740
g13
S'PlayerSay'
p741
sg14
S'DeepThroat'
p742
sg15
S''
sg16
S'No, wait!'
p743
sbag1
(g10
g3
NtRp744
(dp745
g13
S'Encounter'
p746
sg14
S'DeepThroat'
p747
sg15
S'P-med-19'
p748
sg16
S''
sbag1
(g10
g3
NtRp749
(dp750
g13
S'Say'
p751
sg14
S'DeepThroat'
p752
sg15
S''
sg16
S"You're right, I have every reason to trust you. I've found this Incriminating Evidence."
p753
sbag1
(g10
g3
NtRp754
(dp755
g13
S'GiveItem'
p756
sg14
S'DeepThroat'
p757
sg15
S'INCRIMINATINGEVIDENCE'
p758
sg16
S'You receive Incriminating Evidence'
p759
sbag1
(g10
g3
NtRp760
(dp761
g13
S'PlayerSay'
p762
sg14
S'DeepThroat'
p763
sg15
S''
sg16
S'This has to be stopped!'
p764
sbag1
(g10
g3
NtRp765
(dp766
g13
S'Say'
p767
sg14
S'DeepThroat'
p768
sg15
S''
sg16
S"Yes, but not by me. I've given you all I've got, now get out."
p769
sbag1
(g10
g3
NtRp770
(dp771
g13
S'RequireFlag'
p772
sg14
S'DeepThroat'
p773
sg15
S'DEEPTHROAT2'
p774
sg16
S'I said get out!'
p775
sbag1
(g10
g3
NtRp776
(dp777
g13
S'Say'
p778
sg14
S'DeepThroat'
p779
sg15
S''
sg16
S"It's a lot worse than I thought. I have more to tell you, but I don't think I should trust you. I think there's a leak in your operation somewhere."
p780
sbag1
(g10
g3
NtRp781
(dp782
g13
S'PlayerSay'
p783
sg14
S'DeepThroat'
p784
sg15
S''
sg16
S'Why do you say that?'
p785
sbag1
(g10
g3
NtRp786
(dp787
g13
S'Say'
p788
sg14
S'DeepThroat'
p789
sg15
S''
sg16
S'There was a lot of heat on me after we last spoke.'
p790
sbag1
(g10
g3
NtRp791
(dp792
g13
S'PlayerSay'
p793
sg14
S'DeepThroat'
p794
sg15
S''
sg16
S"It's getting close to the final election. It could just be that they're getting skittish."
p795
sbag1
(g10
g3
NtRp796
(dp797
g13
S'Say'
p798
sg14
S'DeepThroat'
p799
sg15
S''
sg16
S"I'm not so sure..."
p800
sbag1
(g10
g3
NtRp801
(dp802
g13
S'Encounter'
p803
sg14
S'DeepThroat'
p804
sg15
S'P-med-22'
p805
sg16
S''
sbag1
(g10
g3
NtRp806
(dp807
g13
S'Say'
p808
sg14
S'DeepThroat'
p809
sg15
S''
sg16
S"You're right, I'm just edgy. Look, I think you should be careful. I think the President is planning to KILL you in the final debate...politically."
p810
sbag1
(g10
g3
NtRp811
(dp812
g13
S'PlayerSay'
p813
sg14
S'DeepThroat'
p814
sg15
S''
sg16
S'You think he wants to silence me forever....on the political stage?'
p815
sbag1
(g10
g3
NtRp816
(dp817
g13
S'Say'
p818
sg14
S'DeepThroat'
p819
sg15
S''
sg16
S'Yes I do. This could get really messy...politically speaking. So be careful!'
p820
sbag1
(g10
g3
NtRp821
(dp822
g13
S'SetFlag'
p823
sg14
S'DeepThroat'
p824
sg15
S'FINISHEDDEEPTHROAT'
p825
sg16
S''
sbag1
(g10
g3
NtRp826
(dp827
g13
S'Destroy'
p828
sg14
S'DeepThroat'
p829
sg15
S''
sg16
S''
sbasS'Constituent1'
p830
(lp831
g1
(g10
g3
NtRp832
(dp833
g13
S'RequireFlag'
p834
sg14
g830
sg15
S'STARTCONSTITUENTS'
p835
sg16
S'Yes?'
p836
sbag1
(g10
g3
NtRp837
(dp838
g13
S'PlayerSay'
p839
sg14
S'Constituent1'
p840
sg15
S''
sg16
S'Vote Phillip Mossman for Mayor!'
p841
sbag1
(g10
g3
NtRp842
(dp843
g13
S'Say'
p844
sg14
S'Constituent1'
p845
sg15
S''
sg16
S'Who?'
p846
sbag1
(g10
g3
NtRp847
(dp848
g13
S'PlayerSay'
p849
sg14
S'Constituent1'
p850
sg15
S''
sg16
S'Er, me!'
p851
sbag1
(g10
g3
NtRp852
(dp853
g13
S'Say'
p854
sg14
S'Constituent1'
p855
sg15
S''
sg16
S'Why? How will you help local business?'
p856
sbag1
(g10
g3
NtRp857
(dp858
g13
S'Encounter'
p859
sg14
S'Constituent1'
p860
sg15
S'P-easy-07'
p861
sg16
S''
sbag1
(g10
g3
NtRp862
(dp863
g13
S'Say'
p864
sg14
S'Constituent1'
p865
sg15
S''
sg16
S'You make a good case!'
p866
sbag1
(g10
g3
NtRp867
(dp868
g13
S'Destroy'
p869
sg14
S'Constituent1'
p870
sg15
S''
sg16
S''
sbasS'PA'
p871
(lp872
g1
(g10
g3
NtRp873
(dp874
g13
S'Say'
p875
sg14
g871
sg15
S''
sg16
S'Good morning, Governor Mossman. I am your personal assistant, Sampson'
p876
sbag1
(g10
g3
NtRp877
(dp878
g13
S'Say'
p879
sg14
S'PA'
p880
sg15
S''
sg16
S"You've a busy schedule, so let's get going! We've called together our entire political party in order for you to get them all to agree on a platform. We had to keep them separated, so they're in the adjoining rooms."
p881
sbag1
(g10
g3
NtRp882
(dp883
g13
S'SetFlag'
p884
sg14
S'PA'
p885
sg15
S'STARTPOLITICIANSHAKEDOWN'
p886
sg16
S''
sbag1
(g10
g3
NtRp887
(dp888
g13
S'RequireCount'
p889
sg14
S'PA'
p890
sg15
S'POLITICIANSHAKEDOWN:5'
p891
sg16
S'Please try to stay on schedule. The politicians are in the adjoining rooms.'
p892
sbag1
(g10
g3
NtRp893
(dp894
g13
S'Say'
p895
sg14
S'PA'
p896
sg15
S''
sg16
S'Hmmm, falling behind already, Better get a move on! We need some funds for our war chest so you have a meeting now with some lobbyists to see if you can come to an agreement.'
p897
sbag1
(g10
g3
NtRp898
(dp899
g13
S'SetFlag'
p900
sg14
S'PA'
p901
sg15
S'STARTLOBBYISTS'
p902
sg16
S''
sbag1
(g10
g3
NtRp903
(dp904
g13
S'RequireCount'
p905
sg14
S'PA'
p906
sg15
S'LOBBYISTS:3'
p907
sg16
S'Go get those funds!'
p908
sbag1
(g10
g3
NtRp909
(dp910
g13
S'Say'
p911
sg14
S'PA'
p912
sg15
S''
sg16
S"No time for lunch! A flock of religious nuts has taken up residence in the room across the hall. You'll need to go in and...try to reason with them."
p913
sbag1
(g10
g3
NtRp914
(dp915
g13
S'RequireCount'
p916
sg14
S'PA'
p917
sg15
S'RELIGIOUSNUTS:4'
p918
sg16
S"Quick! Before the religious nuts inflict crazy on us! They're across the hall!"
p919
sbag1
(g10
g3
NtRp920
(dp921
g13
S'Say'
p922
sg14
S'PA'
p923
sg15
S''
sg16
S'Wow, you got those crazies to back us?'
p924
sbag1
(g10
g3
NtRp925
(dp926
g13
S'PlayerSay'
p927
sg14
S'PA'
p928
sg15
S''
sg16
S'And a lifetime supply of French Roast!'
p929
sbag1
(g10
g3
NtRp930
(dp931
g13
S'Say'
p932
sg14
S'PA'
p933
sg15
S''
sg16
S'Right...well, moving on, we received a very strange phonecall from the guy staying in the North East room. He was insistent that you see him today.'
p934
sbag1
(g10
g3
NtRp935
(dp936
g13
S'Say'
p937
sg14
S'PA'
p938
sg15
S''
sg16
S"OH MY GOD where have you been? We will NEVER get the schedule back on track now. Hurry, you're due to appear on the Hercules O'Grady show!"
p939
sbag1
(g10
g3
NtRp940
(dp941
g13
S'SetFlag'
p942
sg14
S'PA'
p943
sg15
S'STARTHERCULES'
p944
sg16
S''
sbag1
(g10
g3
NtRp945
(dp946
g13
S'RequireFlag'
p947
sg14
S'PA'
p948
sg15
S'BEATHERCULES'
p949
sg16
S"Look your best, get ready and don't say anything stupid! They're filming live in the south-east hotel room. Get over there, quick!"
p950
sbag1
(g10
g3
NtRp951
(dp952
g13
S'Say'
p953
sg14
S'PA'
p954
sg15
S''
sg16
S"This close to Super Tuesday, it's back-to-back TV appearances. It's time for your big debate with President Allen!"
p955
sbag1
(g10
g3
NtRp956
(dp957
g13
S'SetFlag'
p958
sg14
S'PA'
p959
sg15
S'STARTDEBATE'
p960
sg16
S''
sbag1
(g10
g3
NtRp961
(dp962
g13
S'RequireFlag'
p963
sg14
S'PA'
p964
sg15
S'DEBATECOMPLETE'
p965
sg16
S'The TV representative is waiting in the hall to take you to the studio.'
p966
sbag1
(g10
g3
NtRp967
(dp968
g13
S'Say'
p969
sg14
S'PA'
p970
sg15
S''
sg16
S'Ugh, that weird guy from the North-East room has been calling non-stop again. He insisted that you go and see him again before you do anything else.'
p971
sbag1
(g10
g3
NtRp972
(dp973
g13
S'SetFlag'
p974
sg14
S'PA'
p975
sg15
S'DEEPTHROAT2'
p976
sg16
S''
sbag1
(g10
g3
NtRp977
(dp978
g13
S'RequireFlag'
p979
sg14
S'PA'
p980
sg15
S'FINISHEDDEEPTHROAT'
p981
sg16
S"You'd best hurry! It's nearly time for the final debate. Go see that strange shady guy again."
p982
sbag1
(g10
g3
NtRp983
(dp984
g13
S'Say'
p985
sg14
S'PA'
p986
sg15
S''
sg16
S"There's nothing left to say except good luck, Governor Mossman!"
p987
sbag1
(g10
g3
NtRp988
(dp989
g13
S'Encounter'
p990
sg14
S'PA'
p991
sg15
S'P-med-23'
p992
sg16
S''
sbag1
(g10
g3
NtRp993
(dp994
g13
S'Encounter'
p995
sg14
S'PA'
p996
sg15
S'P-med-24'
p997
sg16
S''
sbag1
(g10
g3
NtRp998
(dp999
g13
S'GotoMap'
p1000
sg14
S'PA'
p1001
sg15
S'act3'
p1002
sg16
S''
sbasS'Receptionist'
p1003
(lp1004
g1
(g10
g3
NtRp1005
(dp1006
g13
S'Say'
p1007
sg14
g1003
sg15
S''
sg16
S'...'
p1008
sbag1
(g10
g3
NtRp1009
(dp1010
g13
S'RequireFlag'
p1011
sg14
S'Receptionist'
p1012
sg15
S'PENQUEST'
p1013
sg16
S"You must be Mayor Goodman's new assistant. He's in his office."
p1014
sbag1
(g10
g3
NtRp1015
(dp1016
g13
S'PlayerSay'
p1017
sg14
S'Receptionist'
p1018
sg15
S''
sg16
S"The Mayor is looking for his pen. He seemed to think you'd know where it was."
p1019
sbag1
(g10
g3
NtRp1020
(dp1021
g13
S'Say'
p1022
sg14
S'Receptionist'
p1023
sg15
S''
sg16
S"Did that buffoon accuse me of stealing again? This is MY pen and he isn't having it."
p1024
sbag1
(g10
g3
NtRp1025
(dp1026
g13
S'Encounter'
p1027
sg14
S'Receptionist'
p1028
sg15
S'P-easy-01'
p1029
sg16
S''
sbag1
(g10
g3
NtRp1030
(dp1031
g13
S'GiveItem'
p1032
sg14
S'Receptionist'
p1033
sg15
S'PEN'
p1034
sg16
S'Receptionist sighs and hands over the pen.'
p1035
sbag1
(g10
g3
NtRp1036
(dp1037
g13
S'Destroy'
p1038
sg14
S'Receptionist'
p1039
sg15
S''
sg16
S''
sbasS'#P-med-23'
p1040
(lp1041
g1
(g10
g3
NtRp1042
(dp1043
g13
S'President'
p1044
sg14
g1040
sg15
S'You think you can take me?'
p1045
sg16
S''
sbag1
(g10
g3
NtRp1046
(dp1047
g13
S'Player'
p1048
sg14
S'#P-med-23'
p1049
sg15
S"I have to know what you're up to!"
p1050
sg16
S''
sbasS'Wife'
p1051
(lp1052
g1
(g10
g3
NtRp1053
(dp1054
g13
S'RequireFlag'
p1055
sg14
g1051
sg15
S'GOHOMETOWIFE'
p1056
sg16
S'What are you doing here, Phillip? You should be at work!'
p1057
sbag1
(g10
g3
NtRp1058
(dp1059
g13
S'Say'
p1060
sg14
S'Wife'
p1061
sg15
S''
sg16
S'Welcome home, Phillip! How was your workday?'
p1062
sbag1
(g10
g3
NtRp1063
(dp1064
g13
S'PlayerSay'
p1065
sg14
S'Wife'
p1066
sg15
S''
sg16
S'...'
p1067
sbag1
(g10
g3
NtRp1068
(dp1069
g13
S'Say'
p1070
sg14
S'Wife'
p1071
sg15
S''
sg16
S"That good, huh? You know this isn't what you want. Why don't you strike out on your own?"
p1072
sbag1
(g10
g3
NtRp1073
(dp1074
g13
S'PlayerSay'
p1075
sg14
S'Wife'
p1076
sg15
S''
sg16
S"I didn't think I knew where to start to be a Mayor, but Mayor Goodman makes it look easy."
p1077
sbag1
(g10
g3
NtRp1078
(dp1079
g13
S'Say'
p1080
sg14
S'Wife'
p1081
sg15
S''
sg16
S"That's the spirit! You can do it! All you need is some money and support."
p1082
sbag1
(g10
g3
NtRp1083
(dp1084
g13
S'PlayerSay'
p1085
sg14
S'Wife'
p1086
sg15
S''
sg16
S'Well...OK! Lets start with money. We need a sponsor.'
p1087
sbag1
(g10
g3
NtRp1088
(dp1089
g13
S'Say'
p1090
sg14
S'Wife'
p1091
sg15
S''
sg16
S'OK, lets go get one!'
p1092
sbag1
(g10
g3
NtRp1093
(dp1094
g13
S'AddAlly'
p1095
sg14
S'Wife'
p1096
sg15
S'Wife:1'
p1097
sg16
S'Sarah Mossman Joins Your Political Party!'
p1098
sbag1
(g10
g3
NtRp1099
(dp1100
g13
S'SetFlag'
p1101
sg14
S'Wife'
p1102
sg15
S'STARTSPONSOR'
p1103
sg16
S''
sbag1
(g10
g3
NtRp1104
(dp1105
g13
S'Destroy'
p1106
sg14
S'Wife'
p1107
sg15
S''
sg16
S''
sbasS'Journalist4'
p1108
(lp1109
g1
(g10
g3
NtRp1110
(dp1111
g13
S'Say'
p1112
sg14
g1108
sg15
S''
sg16
S"President Mossman, what do you believe was President Allen's failing strategy on the campaign trail. He looked like a strong platform."
p1113
sbag1
(g10
g3
NtRp1114
(dp1115
g13
S'PlayerSay'
p1116
sg14
S'Journalist4'
p1117
sg15
S''
sg16
S"Well, I'd say he went wrong when he decided to try to enslave the human race to mine the Earth's natural resources and ship them back to their home planet."
p1118
sbag1
(g10
g3
NtRp1119
(dp1120
g13
S'Say'
p1121
sg14
S'Journalist4'
p1122
sg15
S''
sg16
S'And how does that differ from your own strategy?'
p1123
sbag1
(g10
g3
NtRp1124
(dp1125
g13
S'PlayerSay'
p1126
sg14
S'Journalist4'
p1127
sg15
S''
sg16
S'I would say I disagree with the former President on all of those issues.'
p1128
sbag1
(g10
g3
NtRp1129
(dp1130
g13
S'Encounter'
p1131
sg14
S'Journalist4'
p1132
sg15
S'P-hard-02'
p1133
sg16
S''
sbag1
(g10
g3
NtRp1134
(dp1135
g13
S'Say'
p1136
sg14
S'Journalist4'
p1137
sg15
S''
sg16
S'No further questions, Mr President.'
p1138
sbag1
(g10
g3
NtRp1139
(dp1140
g13
S'Increment'
p1141
sg14
S'Journalist4'
p1142
sg15
S'PRESSCONF'
p1143
sg16
S''
sbag1
(g10
g3
NtRp1144
(dp1145
g13
S'Destroy'
p1146
sg14
S'Journalist4'
p1147
sg15
S''
sg16
S''
sbasS'Governor'
p1148
(lp1149
g1
(g10
g3
NtRp1150
(dp1151
g13
S'RequireFlag'
p1152
sg14
g1148
sg15
S'GOVPOLITICIANSFIRST'
p1153
sg16
S"I'm very busy. Please speak to the others."
p1154
sbag1
(g10
g3
NtRp1155
(dp1156
g13
S'Say'
p1157
sg14
S'Governor'
p1158
sg15
S''
sg16
S'You have quite a way with words, Mayor Mossman. Why are you here?'
p1159
sbag1
(g10
g3
NtRp1160
(dp1161
g13
S'PlayerSay'
p1162
sg14
S'Governor'
p1163
sg15
S''
sg16
S"Mayor Goodman said some troubling things, Governor Badden. I'm here to get to the bottom of it."
p1164
sbag1
(g10
g3
NtRp1165
(dp1166
g13
S'Say'
p1167
sg14
S'Governor'
p1168
sg15
S''
sg16
S"If I knew anything about what you're talking about, I wouldn't tell you. I don't trust you at all."
p1169
sbag1
(g10
g3
NtRp1170
(dp1171
g13
S'PlayerSay'
p1172
sg14
S'Governor'
p1173
sg15
S''
sg16
S'What can I do to convince you?'
p1174
sbag1
(g10
g3
NtRp1175
(dp1176
g13
S'Say'
p1177
sg14
S'Governor'
p1178
sg15
S''
sg16
S"Well...there's some hicks in the south wing that I've been dodging. They want to know about the recent funding cuts. Get rid of them."
p1179
sbag1
(g10
g3
NtRp1180
(dp1181
g13
S'SetFlag'
p1182
sg14
S'Governor'
p1183
sg15
S'STARTHICKS'
p1184
sg16
S''
sbag1
(g10
g3
NtRp1185
(dp1186
g13
S'RequireCount'
p1187
sg14
S'Governor'
p1188
sg15
S'DEALWITHHICKS:3'
p1189
sg16
S"I'm not saying another word until you get rid of the hicks in the south wing."
p1190
sbag1
(g10
g3
NtRp1191
(dp1192
g13
S'PlayerSay'
p1193
sg14
S'Governor'
p1194
sg15
S''
sg16
S"OK, I've taken care of your problem, now I want my answers."
p1195
sbag1
(g10
g3
NtRp1196
(dp1197
g13
S'Say'
p1198
sg14
S'Governor'
p1199
sg15
S''
sg16
S'No.'
p1200
sbag1
(g10
g3
NtRp1201
(dp1202
g13
S'PlayerSay'
p1203
sg14
S'Governor'
p1204
sg15
S''
sg16
S'No?'
p1205
sbag1
(g10
g3
NtRp1206
(dp1207
g13
S'Say'
p1208
sg14
S'Governor'
p1209
sg15
S''
sg16
S"No, word has come down from the top that due to the last Mayor's idiocy we're tightening the inner circle to Governors and above."
p1210
sbag1
(g10
g3
NtRp1211
(dp1212
g13
S'PlayerSay'
p1213
sg14
S'Governor'
p1214
sg15
S''
sg16
S"From the top...so you're saying the only way I'll find out what's going on is to be a governor myself?"
p1215
sbag1
(g10
g3
NtRp1216
(dp1217
g13
S'Say'
p1218
sg14
S'Governor'
p1219
sg15
S''
sg16
S"Wait...no...I said I wasn't going to tell you, I..."
p1220
sbag1
(g10
g3
NtRp1221
(dp1222
g13
S'PlayerSay'
p1223
sg14
S'Governor'
p1224
sg15
S''
sg16
S'This is it, governor. Prepare to fight for your office!'
p1225
sbag1
(g10
g3
NtRp1226
(dp1227
g13
S'Encounter'
p1228
sg14
S'Governor'
p1229
sg15
S'P-med-06'
p1230
sg16
S''
sbag1
(g10
g3
NtRp1231
(dp1232
g13
S'Say'
p1233
sg14
S'Governor'
p1234
sg15
S''
sg16
S"Nooo! President Allen doesn't deal well with defeat. What will happen to me?"
p1235
sbag1
(g10
g3
NtRp1236
(dp1237
g13
S'PlayerSay'
p1238
sg14
S'Governor'
p1239
sg15
S''
sg16
S'The President? What does he have to do with this?'
p1240
sbag1
(g10
g3
NtRp1241
(dp1242
g13
S'Say'
p1243
sg14
S'Governor'
p1244
sg15
S''
sg16
S"You really have no idea what you've gotten into, do you? Well, you've gotten all you're getting out of me. I'm getting out of here!"
p1245
sbag1
(g10
g3
NtRp1246
(dp1247
g13
S'SetFlag'
p1248
sg14
S'Governor'
p1249
sg15
S'GOVERNORDEFEATED'
p1250
sg16
S''
sbag1
(g10
g3
NtRp1251
(dp1252
g13
S'Destroy'
p1253
sg14
S'Governor'
p1254
sg15
S''
sg16
S''
sbasS'Politician1'
p1255
(lp1256
g1
(g10
g3
NtRp1257
(dp1258
g13
S'Say'
p1259
sg14
g1255
sg15
S''
sg16
S"I'm sorry Mayor Mossman, the Governor cannot see you now. He's very busy"
p1260
sbag1
(g10
g3
NtRp1261
(dp1262
g13
S'PlayerSay'
p1263
sg14
S'Politician1'
p1264
sg15
S''
sg16
S"It's very important. I need to understand what Mayor Goodman was talking about. It was clear there were other powers at play."
p1265
sbag1
(g10
g3
NtRp1266
(dp1267
g13
S'Say'
p1268
sg14
S'Politician1'
p1269
sg15
S''
sg16
S'Yes well, I fail to see how your country spat has anything to do with Governer Badden.'
p1270
sbag1
(g10
g3
NtRp1271
(dp1272
g13
S'Encounter'
p1273
sg14
S'Politician1'
p1274
sg15
S'P-med-01'
p1275
sg16
S''
sbag1
(g10
g3
NtRp1276
(dp1277
g13
S'Say'
p1278
sg14
S'Politician1'
p1279
sg15
S''
sg16
S'Fair point. The governor will see you now.'
p1280
sbag1
(g10
g3
NtRp1281
(dp1282
g13
S'Destroy'
p1283
sg14
S'Politician1'
p1284
sg15
S''
sg16
S''
sbasS'Lobbyist4'
p1285
(lp1286
g1
(g10
g3
NtRp1287
(dp1288
g13
S'RequireFlag'
p1289
sg14
g1285
sg15
S'STARTLOBBYISTS'
p1290
sg16
S'Please tend to your other meetings so that we can see you.'
p1291
sbag1
(g10
g3
NtRp1292
(dp1293
g13
S'Say'
p1294
sg14
S'Lobbyist4'
p1295
sg15
S''
sg16
S"Storyteller's Guild"
p1296
sbag1
(g10
g3
NtRp1297
(dp1298
g13
S'Encounter'
p1299
sg14
S'Lobbyist4'
p1300
sg15
S'P-med-14'
p1301
sg16
S''
sbag1
(g10
g3
NtRp1302
(dp1303
g13
S'Increment'
p1304
sg14
S'Lobbyist4'
p1305
sg15
S'LOBBYISTS'
p1306
sg16
S''
sbag1
(g10
g3
NtRp1307
(dp1308
g13
S'Say'
p1309
sg14
S'Lobbyist4'
p1310
sg15
S''
sg16
S"It's a start."
p1311
sbag1
(g10
g3
NtRp1312
(dp1313
g13
S'Destroy'
p1314
sg14
S'Lobbyist4'
p1315
sg15
S''
sg16
S''
sbasS'Politician3'
p1316
(lp1317
g1
(g10
g3
NtRp1318
(dp1319
g13
S'RequireFlag'
p1320
sg14
g1316
sg15
S'STARTPOLITICIANSHAKEDOWN'
p1321
sg16
S'Good morning, Governor Mossman. Your PA will know your schedule. He is waiting in your room.'
p1322
sbag1
(g10
g3
NtRp1323
(dp1324
g13
S'Say'
p1325
sg14
S'Politician3'
p1326
sg15
S''
sg16
S"We must all agree that the most important thing is science! If we're not for science, what's the point."
p1327
sbag1
(g10
g3
NtRp1328
(dp1329
g13
S'PlayerSay'
p1330
sg14
S'Politician3'
p1331
sg15
S''
sg16
S'Why science?'
p1332
sbag1
(g10
g3
NtRp1333
(dp1334
g13
S'Say'
p1335
sg14
S'Politician3'
p1336
sg15
S''
sg16
S'Science!'
p1337
sbag1
(g10
g3
NtRp1338
(dp1339
g13
S'PlayerSay'
p1340
sg14
S'Politician3'
p1341
sg15
S''
sg16
S"There's a lot of great things we can do for science but the funding will need to be shared with health and education and..."
p1342
sbag1
(g10
g3
NtRp1343
(dp1344
g13
S'Say'
p1345
sg14
S'Politician3'
p1346
sg15
S''
sg16
S'No! Science!!!'
p1347
sbag1
(g10
g3
NtRp1348
(dp1349
g13
S'Encounter'
p1350
sg14
S'Politician3'
p1351
sg15
S'P-med-07'
p1352
sg16
S''
sbag1
(g10
g3
NtRp1353
(dp1354
g13
S'Say'
p1355
sg14
S'Politician3'
p1356
sg15
S''
sg16
S'Alright, fine! A balanced platform (but mostly science).'
p1357
sbag1
(g10
g3
NtRp1358
(dp1359
g13
S'Increment'
p1360
sg14
S'Politician3'
p1361
sg15
S'POLITICIANSHAKEDOWN'
p1362
sg16
S''
sbag1
(g10
g3
NtRp1363
(dp1364
g13
S'Destroy'
p1365
sg14
S'Politician3'
p1366
sg15
S''
sg16
S''
sbasS'Politician2'
p1367
(lp1368
g1
(g10
g3
NtRp1369
(dp1370
g13
S'Say'
p1371
sg14
g1367
sg15
S''
sg16
S'What are you doing in here? Who are you? Some Mayor?'
p1372
sbag1
(g10
g3
NtRp1373
(dp1374
g13
S'PlayerSay'
p1375
sg14
S'Politician2'
p1376
sg15
S''
sg16
S"I am Mayor Phillip Mossman. I'm here to speak to the Governor."
p1377
sbag1
(g10
g3
NtRp1378
(dp1379
g13
S'Say'
p1380
sg14
S'Politician2'
p1381
sg15
S''
sg16
S"I'm afraid the Governor's schedule is very tight. Come back next month."
p1382
sbag1
(g10
g3
NtRp1383
(dp1384
g13
S'Encounter'
p1385
sg14
S'Politician2'
p1386
sg15
S'P-med-02'
p1387
sg16
S''
sbag1
(g10
g3
NtRp1388
(dp1389
g13
S'Say'
p1390
sg14
S'Politician2'
p1391
sg15
S''
sg16
S'I see. Well, maybe we can squeeze you in.'
p1392
sbag1
(g10
g3
NtRp1393
(dp1394
g13
S'SetFlag'
p1395
sg14
S'Politician2'
p1396
sg15
S'GOVPOLITICIANSFIRST'
p1397
sg16
S''
sbag1
(g10
g3
NtRp1398
(dp1399
g13
S'Destroy'
p1400
sg14
S'Politician2'
p1401
sg15
S''
sg16
S''
sbasS'Politician5'
p1402
(lp1403
g1
(g10
g3
NtRp1404
(dp1405
g13
S'RequireFlag'
p1406
sg14
g1402
sg15
S'STARTPOLITICIANSHAKEDOWN'
p1407
sg16
S'Good morning, Governor Mossman. Your PA will know your schedule. He is waiting in your room.'
p1408
sbag1
(g10
g3
NtRp1409
(dp1410
g13
S'Say'
p1411
sg14
S'Politician5'
p1412
sg15
S''
sg16
S'Big business!'
p1413
sbag1
(g10
g3
NtRp1414
(dp1415
g13
S'PlayerSay'
p1416
sg14
S'Politician5'
p1417
sg15
S''
sg16
S'What about big business.'
p1418
sbag1
(g10
g3
NtRp1419
(dp1420
g13
S'Say'
p1421
sg14
S'Politician5'
p1422
sg15
S''
sg16
S'...MORE big business!'
p1423
sbag1
(g10
g3
NtRp1424
(dp1425
g13
S'PlayerSay'
p1426
sg14
S'Politician5'
p1427
sg15
S''
sg16
S'You want to grow our business sector? Provide more jobs?'
p1428
sbag1
(g10
g3
NtRp1429
(dp1430
g13
S'Say'
p1431
sg14
S'Politician5'
p1432
sg15
S''
sg16
S'...Yeeeeh. Yes. Yes, that.'
p1433
sbag1
(g10
g3
NtRp1434
(dp1435
g13
S'PlayerSay'
p1436
sg14
S'Politician5'
p1437
sg15
S''
sg16
S'What about small business?'
p1438
sbag1
(g10
g3
NtRp1439
(dp1440
g13
S'Say'
p1441
sg14
S'Politician5'
p1442
sg15
S''
sg16
S'No! We need to make it BIGGER!'
p1443
sbag1
(g10
g3
NtRp1444
(dp1445
g13
S'Encounter'
p1446
sg14
S'Politician5'
p1447
sg15
S'P-med-09'
p1448
sg16
S''
sbag1
(g10
g3
NtRp1449
(dp1450
g13
S'Say'
p1451
sg14
S'Politician5'
p1452
sg15
S''
sg16
S"OK, I see what you're getting at. Lets help small business to grow."
p1453
sbag1
(g10
g3
NtRp1454
(dp1455
g13
S'Increment'
p1456
sg14
S'Politician5'
p1457
sg15
S'POLITICIANSHAKEDOWN'
p1458
sg16
S''
sbag1
(g10
g3
NtRp1459
(dp1460
g13
S'Destroy'
p1461
sg14
S'Politician5'
p1462
sg15
S''
sg16
S''
sbasS'Journalist'
p1463
(lp1464
g1
(g10
g3
NtRp1465
(dp1466
g13
S'RequireFlag'
p1467
sg14
g1463
sg15
S'INTERVIEWSTART'
p1468
sg16
S'Leave me alone, kid I need to get this done before my deadline!'
p1469
sbag1
(g10
g3
NtRp1470
(dp1471
g13
S'Say'
p1472
sg14
S'Journalist'
p1473
sg15
S''
sg16
S"Hey, where's the Mayor?"
p1474
sbag1
(g10
g3
NtRp1475
(dp1476
g13
S'PlayerSay'
p1477
sg14
S'Journalist'
p1478
sg15
S''
sg16
S"He couldn't make it. I'll be taking the interview."
p1479
sbag1
(g10
g3
NtRp1480
(dp1481
g13
S'Say'
p1482
sg14
S'Journalist'
p1483
sg15
S''
sg16
S'Great! Easy pickings! Lets go.'
p1484
sbag1
(g10
g3
NtRp1485
(dp1486
g13
S'Encounter'
p1487
sg14
S'Journalist'
p1488
sg15
S'P-easy-05'
p1489
sg16
S''
sbag1
(g10
g3
NtRp1490
(dp1491
g13
S'Say'
p1492
sg14
S'Journalist'
p1493
sg15
S''
sg16
S"SNORE! Fine, if I can't get anything juicy here I'll do another puff piece on my poodle Frank."
p1494
sbag1
(g10
g3
NtRp1495
(dp1496
g13
S'SetFlag'
p1497
sg14
S'Journalist'
p1498
sg15
S'JOURNALISTINTERVIEW'
p1499
sg16
S''
sbag1
(g10
g3
NtRp1500
(dp1501
g13
S'Destroy'
p1502
sg14
S'Journalist'
p1503
sg15
S''
sg16
S''
sbasS'#----------------------------------------------------------------------------------------ACT 2 \xe2\x80\x93 Part 2---------------------------------------------------------------------------------------------------------------------------------------------------'
p1504
(lp1505
g1
(g10
g3
NtRp1506
(dp1507
g13
S''
sg14
g1504
sg15
S''
sg16
S''
sbasS'Politician6'
p1508
(lp1509
g1
(g10
g3
NtRp1510
(dp1511
g13
S'RequireFlag'
p1512
sg14
g1508
sg15
S'STARTPOLITICIANSHAKEDOWN'
p1513
sg16
S'Good morning, Governor Mossman. Your PA will know your schedule. He is waiting in your room.'
p1514
sbag1
(g10
g3
NtRp1515
(dp1516
g13
S'Say'
p1517
sg14
S'Politician6'
p1518
sg15
S''
sg16
S'We should be all about not wasting money'
p1519
sbag1
(g10
g3
NtRp1520
(dp1521
g13
S'PlayerSay'
p1522
sg14
S'Politician6'
p1523
sg15
S''
sg16
S'Sounds fair. Wasting money on what?'
p1524
sbag1
(g10
g3
NtRp1525
(dp1526
g13
S'Say'
p1527
sg14
S'Politician6'
p1528
sg15
S''
sg16
S"You know, stuff that doesn't really help like artsy stuff."
p1529
sbag1
(g10
g3
NtRp1530
(dp1531
g13
S'PlayerSay'
p1532
sg14
S'Politician6'
p1533
sg15
S''
sg16
S"You don't think we should invest in our culture?"
p1534
sbag1
(g10
g3
NtRp1535
(dp1536
g13
S'Say'
p1537
sg14
S'Politician6'
p1538
sg15
S''
sg16
S'We have more important things to spend our money on. Like military.'
p1539
sbag1
(g10
g3
NtRp1540
(dp1541
g13
S'PlayerSay'
p1542
sg14
S'Politician6'
p1543
sg15
S''
sg16
S'What if people want to paint pictures about our military. Or write patriotic songs?'
p1544
sbag1
(g10
g3
NtRp1545
(dp1546
g13
S'Say'
p1547
sg14
S'Politician6'
p1548
sg15
S''
sg16
S"I hadn't thought of that..."
p1549
sbag1
(g10
g3
NtRp1550
(dp1551
g13
S'Encounter'
p1552
sg14
S'Politician6'
p1553
sg15
S'P-med-10'
p1554
sg16
S''
sbag1
(g10
g3
NtRp1555
(dp1556
g13
S'Say'
p1557
sg14
S'Politician6'
p1558
sg15
S''
sg16
S"So, militaristic march songs and battle scenes aren't the only sort of art? Wow."
p1559
sbag1
(g10
g3
NtRp1560
(dp1561
g13
S'Increment'
p1562
sg14
S'Politician6'
p1563
sg15
S'POLITICIANSHAKEDOWN'
p1564
sg16
S''
sbag1
(g10
g3
NtRp1565
(dp1566
g13
S'Destroy'
p1567
sg14
S'Politician6'
p1568
sg15
S''
sg16
S''
sbasS'Journalist3'
p1569
(lp1570
g1
(g10
g3
NtRp1571
(dp1572
g13
S'Say'
p1573
sg14
g1569
sg15
S''
sg16
S'Mr President, Cal from Daily LOL magazine. Can you explain the transformation that occurred during the presidential debate.'
p1574
sbag1
(g10
g3
NtRp1575
(dp1576
g13
S'PlayerSay'
p1577
sg14
S'Journalist3'
p1578
sg15
S''
sg16
S'Certainly, Cal. The President of the Ignited States turned into an alien.'
p1579
sbag1
(g10
g3
NtRp1580
(dp1581
g13
S'Say'
p1582
sg14
S'Journalist3'
p1583
sg15
S''
sg16
S"Ah, you mean to say he's out-of-touch with his people?"
p1584
sbag1
(g10
g3
NtRp1585
(dp1586
g13
S'PlayerSay'
p1587
sg14
S'Journalist3'
p1588
sg15
S''
sg16
S'Not exactly...'
p1589
sbag1
(g10
g3
NtRp1590
(dp1591
g13
S'Encounter'
p1592
sg14
S'Journalist3'
p1593
sg15
S'P-hard-01'
p1594
sg16
S''
sbag1
(g10
g3
NtRp1595
(dp1596
g13
S'Say'
p1597
sg14
S'Journalist3'
p1598
sg15
S''
sg16
S'I...see...'
p1599
sbag1
(g10
g3
NtRp1600
(dp1601
g13
S'Increment'
p1602
sg14
S'Journalist3'
p1603
sg15
S'PRESSCONF'
p1604
sg16
S''
sbag1
(g10
g3
NtRp1605
(dp1606
g13
S'Destroy'
p1607
sg14
S'Journalist3'
p1608
sg15
S''
sg16
S''
sbasS'PA2'
p1609
(lp1610
g1
(g10
g3
NtRp1611
(dp1612
g13
S'Say'
p1613
sg14
g1609
sg15
S''
sg16
S"Welcome to the White House, President Mossman. It was a long campaign trail with a very strange final debate, but we won and we're here."
p1614
sbag1
(g10
g3
NtRp1615
(dp1616
g13
S'Say'
p1617
sg14
S'PA2'
p1618
sg15
S''
sg16
S'Now is the real test where we see how well we can run a country.'
p1619
sbag1
(g10
g3
NtRp1620
(dp1621
g13
S'Say'
p1622
sg14
S'PA2'
p1623
sg15
S''
sg16
S'The first step is to give your first press conference as President to explain the...situation...with President Alien *cough* I mean Allen.'
p1624
sbag1
(g10
g3
NtRp1625
(dp1626
g13
S'RequireCount'
p1627
sg14
S'PA2'
p1628
sg15
S'PRESSCONF:3'
p1629
sg16
S"They're waiting for you in the Press Room, Mr President."
p1630
sbag1
(g10
g3
NtRp1631
(dp1632
g13
S'Say'
p1633
sg14
S'PA2'
p1634
sg15
S''
sg16
S'I think that went as well as could be expected.'
p1635
sbag1
(g10
g3
NtRp1636
(dp1637
g13
S'Say'
p1638
sg14
S'PA2'
p1639
sg15
S''
sg16
S'Your secret service detail is waiting over here in the corridor to have a word with you about security protocol.'
p1640
sbag1
(g10
g3
NtRp1641
(dp1642
g13
S'RequireFlag'
p1643
sg14
S'PA2'
p1644
sg15
S'KAWALSKIJOIN'
p1645
sg16
S"You'd better speak to the secret service agent. Your security is paramount."
p1646
sbag1
(g10
g3
NtRp1647
(dp1648
g13
S'Say'
p1649
sg14
S'PA2'
p1650
sg15
S''
sg16
S"Some war veterans would like to speak to you about some recent decisions you've made. I don't dare turn them away. You'd better speak to them."
p1651
sbag1
(g10
g3
NtRp1652
(dp1653
g13
S'PlayerSay'
p1654
sg14
S'PA2'
p1655
sg15
S''
sg16
S'Of course.'
p1656
sbag1
(g10
g3
NtRp1657
(dp1658
g13
S'RequireCount'
p1659
sg14
S'PA2'
p1660
sg15
S'WARVETS:2'
p1661
sg16
S''
sbag1
(g10
g3
NtRp1662
(dp1663
g13
S'Say'
p1664
sg14
S'PA2'
p1665
sg15
S''
sg16
S'What was that about?'
p1666
sbag1
(g10
g3
NtRp1667
(dp1668
g13
S'PlayerSay'
p1669
sg14
S'PA2'
p1670
sg15
S''
sg16
S"I'd like to know as well. Find me the documents that ordered troop movement today and get me a meeting with the Joint Chiefs."
p1671
sbasS'Journalist5'
p1672
(lp1673
g1
(g10
g3
NtRp1674
(dp1675
g13
S'Say'
p1676
sg14
g1672
sg15
S''
sg16
S'Do you feel that a bi-partisan relationship will be possible between your party and the opposition?'
p1677
sbag1
(g10
g3
NtRp1678
(dp1679
g13
S'PlayerSay'
p1680
sg14
S'Journalist5'
p1681
sg15
S''
sg16
S'I suppose once we find and remove all of the aliens and reverse the alien brainwashing, bi-partisanship will resume.'
p1682
sbag1
(g10
g3
NtRp1683
(dp1684
g13
S'Encounter'
p1685
sg14
S'Journalist5'
p1686
sg15
S'P-hard-03'
p1687
sg16
S''
sbag1
(g10
g3
NtRp1688
(dp1689
g13
S'Say'
p1690
sg14
S'Journalist5'
p1691
sg15
S''
sg16
S'Thankyou, President Mossman.'
p1692
sbag1
(g10
g3
NtRp1693
(dp1694
g13
S'Increment'
p1695
sg14
S'Journalist5'
p1696
sg15
S'PRESSCONF'
p1697
sg16
S''
sbag1
(g10
g3
NtRp1698
(dp1699
g13
S'Destroy'
p1700
sg14
S'Journalist5'
p1701
sg15
S''
sg16
S''
sbasS'Journalist2'
p1702
(lp1703
g1
(g10
g3
NtRp1704
(dp1705
g13
S'RequireFlag'
p1706
sg14
g1702
sg15
S'STARTHICKS2'
p1707
sg16
S'Governor Badden sends his Mayor lacky to do his dirty work \xe2\x80\x93 what a scoop!'
p1708
sbag1
(g10
g3
NtRp1709
(dp1710
g13
S'Encounter'
p1711
sg14
S'Journalist2'
p1712
sg15
S'P-med-05'
p1713
sg16
S''
sbag1
(g10
g3
NtRp1714
(dp1715
g13
S'Say'
p1716
sg14
S'Journalist2'
p1717
sg15
S''
sg16
S"I'm going back to write a comparison piece on you and Governor Badden. You should consider running for Governor."
p1718
sbag1
(g10
g3
NtRp1719
(dp1720
g13
S'Increment'
p1721
sg14
S'Journalist2'
p1722
sg15
S'DEALWITHHICKS'
p1723
sg16
S''
sbag1
(g10
g3
NtRp1724
(dp1725
g13
S'Destroy'
p1726
sg14
S'Journalist2'
p1727
sg15
S''
sg16
S''
sbasS'#P-med-24'
p1728
(lp1729
g1
(g10
g3
NtRp1730
(dp1731
g13
S'PresidentAlien'
p1732
sg14
g1728
sg15
S"You think you've beaten me, but now you're going to fight the real me!"
p1733
sg16
S''
sbag1
(g10
g3
NtRp1734
(dp1735
g13
S'Player'
p1736
sg14
S'#P-med-24'
p1737
sg15
S'I knew something was wrong, but this...?'
p1738
sg16
S''
sbag1
(g10
g3
NtRp1739
(dp1740
g13
S'PresidentAlien'
p1741
sg14
S'#P-med-24'
p1742
sg15
S"All you've done is caused me to expedite my plans to enslave the human race!"
p1743
sg16
S''
sbasS'TVPersonality'
p1744
(lp1745
g1
(g10
g3
NtRp1746
(dp1747
g13
S'RequireFlag'
p1748
sg14
g1744
sg15
S'STARTHERCULES'
p1749
sg16
S"Ooooh, sorry Mossman, baby! We're not ready for you yet."
p1750
sbag1
(g10
g3
NtRp1751
(dp1752
g13
S'Say'
p1753
sg14
S'TVPersonality'
p1754
sg15
S''
sg16
S"There's the man! Are you ready to cross wits with The Mighty Hercules!"
p1755
sbag1
(g10
g3
NtRp1756
(dp1757
g13
S'PlayerSay'
p1758
sg14
S'TVPersonality'
p1759
sg15
S''
sg16
S'I sure am!'
p1760
sbag1
(g10
g3
NtRp1761
(dp1762
g13
S'Say'
p1763
sg14
S'TVPersonality'
p1764
sg15
S''
sg16
S"Really...? You don't want to...see your make-up artist?"
p1765
sbag1
(g10
g3
NtRp1766
(dp1767
g13
S'PlayerSay'
p1768
sg14
S'TVPersonality'
p1769
sg15
S''
sg16
S"No, no, I'm really ready."
p1770
sbag1
(g10
g3
NtRp1771
(dp1772
g13
S'Say'
p1773
sg14
S'TVPersonality'
p1774
sg15
S''
sg16
S'Suit yourself...and from the looks of it, suiting yourself is exactly what you did...ew.'
p1775
sbag1
(g10
g3
NtRp1776
(dp1777
g13
S'Encounter'
p1778
sg14
S'TVPersonality'
p1779
sg15
S'P-med-20'
p1780
sg16
S''
sbag1
(g10
g3
NtRp1781
(dp1782
g13
S'Say'
p1783
sg14
S'TVPersonality'
p1784
sg15
S''
sg16
S"Good show, you sure gave me a run for my money, now beat it, you're making me look bad!"
p1785
sbag1
(g10
g3
NtRp1786
(dp1787
g13
S'SetFlag'
p1788
sg14
S'TVPersonality'
p1789
sg15
S'BEATHERCULES'
p1790
sg16
S''
sbag1
(g10
g3
NtRp1791
(dp1792
g13
S'Destroy'
p1793
sg14
S'TVPersonality'
p1794
sg15
S''
sg16
S''
sbasS'Protester2'
p1795
(lp1796
g1
(g10
g3
NtRp1797
(dp1798
g13
S'Say'
p1799
sg14
g1795
sg15
S''
sg16
S"Bees buzz, Mayors lie, who's this Phillip Mossman guy?"
p1800
sbag1
(g10
g3
NtRp1801
(dp1802
g13
S'RequireFlag'
p1803
sg14
S'Protester2'
p1804
sg15
S'PROTESTORS'
p1805
sg16
S''
sbag1
(g10
g3
NtRp1806
(dp1807
g13
S'Encounter'
p1808
sg14
S'Protester2'
p1809
sg15
S'P-easy-03'
p1810
sg16
S''
sbag1
(g10
g3
NtRp1811
(dp1812
g13
S'Destroy'
p1813
sg14
S'Protester2'
p1814
sg15
S''
sg16
S''
sbasS'Protester1'
p1815
(lp1816
g1
(g10
g3
NtRp1817
(dp1818
g13
S'Say'
p1819
sg14
g1815
sg15
S''
sg16
S"Fee Fi Fo Fum, we think Mayor Goodman's Dumb!"
p1820
sbag1
(g10
g3
NtRp1821
(dp1822
g13
S'RequireFlag'
p1823
sg14
S'Protester1'
p1824
sg15
S'PROTESTORS'
p1825
sg16
S''
sbag1
(g10
g3
NtRp1826
(dp1827
g13
S'Encounter'
p1828
sg14
S'Protester1'
p1829
sg15
S'P-easy-02'
p1830
sg16
S''
sbag1
(g10
g3
NtRp1831
(dp1832
g13
S'Destroy'
p1833
sg14
S'Protester1'
p1834
sg15
S''
sg16
S''
sbasS'#----------------------------------------------------------------------------------------ACT 2 \xe2\x80\x93 Part 1---------------------------------------------------------------------------------------------------------------------------------------------------'
p1835
(lp1836
g1
(g10
g3
NtRp1837
(dp1838
g13
S''
sg14
g1835
sg15
S''
sg16
S''
sbasS'Head Protester'
p1839
(lp1840
g1
(g10
g3
NtRp1841
(dp1842
g13
S'Say'
p1843
sg14
g1839
sg15
S''
sg16
S"I am the head protester. You'll never convince us to back down!"
p1844
sbag1
(g10
g3
NtRp1845
(dp1846
g13
S'RequireFlag'
p1847
sg14
S'Head Protester'
p1848
sg15
S'PROTESTORS'
p1849
sg16
S''
sbag1
(g10
g3
NtRp1850
(dp1851
g13
S'PlayerSay'
p1852
sg14
S'Head Protester'
p1853
sg15
S''
sg16
S'What are you protesting?'
p1854
sbag1
(g10
g3
NtRp1855
(dp1856
g13
S'Say'
p1857
sg14
S'Head Protester'
p1858
sg15
S''
sg16
S'Er...Injustice!'
p1859
sbag1
(g10
g3
NtRp1860
(dp1861
g13
S'PlayerSay'
p1862
sg14
S'Head Protester'
p1863
sg15
S''
sg16
S'Injustice against what?'
p1864
sbag1
(g10
g3
NtRp1865
(dp1866
g13
S'Say'
p1867
sg14
S'Head Protester'
p1868
sg15
S''
sg16
S'...'
p1869
sbag1
(g10
g3
NtRp1870
(dp1871
g13
S'Say'
p1872
sg14
S'Head Protester'
p1873
sg15
S''
sg16
S'The People!'
p1874
sbag1
(g10
g3
NtRp1875
(dp1876
g13
S'PlayerSay'
p1877
sg14
S'Head Protester'
p1878
sg15
S''
sg16
S'Yes, but which people?'
p1879
sbag1
(g10
g3
NtRp1880
(dp1881
g13
S'Say'
p1882
sg14
S'Head Protester'
p1883
sg15
S''
sg16
S'See? What a fascist, ALL people you slimey politician scum!'
p1884
sbag1
(g10
g3
NtRp1885
(dp1886
g13
S'Encounter'
p1887
sg14
S'Head Protester'
p1888
sg15
S'P-easy-04'
p1889
sg16
S''
sbag1
(g10
g3
NtRp1890
(dp1891
g13
S'Say'
p1892
sg14
S'Head Protester'
p1893
sg15
S''
sg16
S"Alright, fine! We'll stop protesting...whatever we were protesting."
p1894
sbag1
(g10
g3
NtRp1895
(dp1896
g13
S'SetFlag'
p1897
sg14
S'Head Protester'
p1898
sg15
S'PROTESTORSDEAD'
p1899
sg16
S''
sbag1
(g10
g3
NtRp1900
(dp1901
g13
S'Destroy'
p1902
sg14
S'Head Protester'
p1903
sg15
S''
sg16
S''
sbasS'Sponsor'
p1904
(lp1905
g1
(g10
g3
NtRp1906
(dp1907
g13
S'RequireFlag'
p1908
sg14
g1904
sg15
S'STARTSPONSOR'
p1909
sg16
S"Hmmm...Money, money, money. Sorry, what? I wasn't talking to you."
p1910
sbag1
(g10
g3
NtRp1911
(dp1912
g13
S'Say'
p1913
sg14
S'Sponsor'
p1914
sg15
S''
sg16
S"Hello, I'm investigating new investments today. How can I help you?"
p1915
sbag1
(g10
g3
NtRp1916
(dp1917
g13
S'PlayerSay'
p1918
sg14
S'Sponsor'
p1919
sg15
S''
sg16
S"Well, I've decided to run for Mayor! I could really use an investor."
p1920
sbag1
(g10
g3
NtRp1921
(dp1922
g13
S'Say'
p1923
sg14
S'Sponsor'
p1924
sg15
S''
sg16
S"I don't know. You seem a little young. I don't think I'm convinced."
p1925
sbag1
(g10
g3
NtRp1926
(dp1927
g13
S'Encounter'
p1928
sg14
S'Sponsor'
p1929
sg15
S'P-easy-06'
p1930
sg16
S''
sbag1
(g10
g3
NtRp1931
(dp1932
g13
S'Say'
p1933
sg14
S'Sponsor'
p1934
sg15
S''
sg16
S"Wow! You sure have what it takes! Alright, he's a pile of cash!"
p1935
sbag1
(g10
g3
NtRp1936
(dp1937
g13
S'Say'
p1938
sg14
S'Sponsor'
p1939
sg15
S''
sg16
S'Also, now that you have some funds, you might find it useful to...grease the wheels in some difficult situations.'
p1940
sbag1
(g10
g3
NtRp1941
(dp1942
g13
S'LearnAttack'
p1943
sg14
S'Sponsor'
p1944
sg15
S'BRIBE'
p1945
sg16
S'Phillip and Sarah learn to Bribe'
p1946
sbag1
(g10
g3
NtRp1947
(dp1948
g13
S'LearnAttack'
p1949
sg14
S'Sponsor'
p1950
sg15
S'Wife:BRIBE'
p1951
sg16
S''
sbag1
(g10
g3
NtRp1952
(dp1953
g13
S'SetFlag'
p1954
sg14
S'Sponsor'
p1955
sg15
S'STARTCONSTITUENTS'
p1956
sg16
S''
sbag1
(g10
g3
NtRp1957
(dp1958
g13
S'PlayerSay'
p1959
sg14
S'Sponsor'
p1960
sg15
S''
sg16
S'Er, thanks! I suppose we should go gather some support from our constituents now.'
p1961
sbag1
(g10
g3
NtRp1962
(dp1963
g13
S'Say'
p1964
sg14
S'Sponsor'
p1965
sg15
S''
sg16
S"Makes sense to me! I'm off, too. Money, money, money."
p1966
sbag1
(g10
g3
NtRp1967
(dp1968
g13
S'Destroy'
p1969
sg14
S'Sponsor'
p1970
sg15
S''
sg16
S''
sbasS'CheatAct2P2'
p1971
(lp1972
g1
(g10
g3
NtRp1973
(dp1974
g13
S'AddAlly'
p1975
sg14
g1971
sg15
S'Wife:1'
p1976
sg16
S''
sbag1
(g10
g3
NtRp1977
(dp1978
g13
S'LearnAttack'
p1979
sg14
S'CheatAct2P2'
p1980
sg15
S'BRIBE'
p1981
sg16
S''
sbag1
(g10
g3
NtRp1982
(dp1983
g13
S'LearnAttack'
p1984
sg14
S'CheatAct2P2'
p1985
sg15
S'Wife:BRIBE'
p1986
sg16
S''
sbag1
(g10
g3
NtRp1987
(dp1988
g13
S'LearnAttack'
p1989
sg14
S'CheatAct2P2'
p1990
sg15
S'SLANDER'
p1991
sg16
S''
sbag1
(g10
g3
NtRp1992
(dp1993
g13
S'AddAlly'
p1994
sg14
S'CheatAct2P2'
p1995
sg15
S'Leo:1'
p1996
sg16
S''
sbag1
(g10
g3
NtRp1997
(dp1998
g13
S'GotoMap'
p1999
sg14
S'CheatAct2P2'
p2000
sg15
S'act2campaign'
p2001
sg16
S''
sbasS'P-med-12'
p2002
(lp2003
g1
(g10
g3
NtRp2004
(dp2005
g13
S'Say'
p2006
sg14
g2002
sg15
S'Lobbyist001'
p2007
sg16
S'import combat'
p2008
sbasS'Lobbyist3'
p2009
(lp2010
g1
(g10
g3
NtRp2011
(dp2012
g13
S'RequireFlag'
p2013
sg14
g2009
sg15
S'STARTLOBBYISTS'
p2014
sg16
S'Mutter, mutter'
p2015
sbag1
(g10
g3
NtRp2016
(dp2017
g13
S'Say'
p2018
sg14
S'Lobbyist3'
p2019
sg15
S''
sg16
S'Protection of internet memes'
p2020
sbag1
(g10
g3
NtRp2021
(dp2022
g13
S'Encounter'
p2023
sg14
S'Lobbyist3'
p2024
sg15
S'P-med-13'
p2025
sg16
S''
sbag1
(g10
g3
NtRp2026
(dp2027
g13
S'Increment'
p2028
sg14
S'Lobbyist3'
p2029
sg15
S'LOBBYISTS'
p2030
sg16
S''
sbag1
(g10
g3
NtRp2031
(dp2032
g13
S'Say'
p2033
sg14
S'Lobbyist3'
p2034
sg15
S''
sg16
S"It's a start."
p2035
sbag1
(g10
g3
NtRp2036
(dp2037
g13
S'Destroy'
p2038
sg14
S'Lobbyist3'
p2039
sg15
S''
sg16
S''
sbasS'Mayor'
p2040
(lp2041
g1
(g10
g3
NtRp2042
(dp2043
g13
S'Say'
p2044
sg14
g2040
sg15
S''
sg16
S"Hello, I'm the Mayor!"
p2045
sbag1
(g10
g3
NtRp2046
(dp2047
g13
S'PlayerSay'
p2048
sg14
S'Mayor'
p2049
sg15
S''
sg16
S"Hello, Mayor Goodman, I'm Philip Mossman."
p2050
sbag1
(g10
g3
NtRp2051
(dp2052
g13
S'Say'
p2053
sg14
S'Mayor'
p2054
sg15
S''
sg16
S"Ah yes, you're my new assistant. A good thing, too."
p2055
sbag1
(g10
g3
NtRp2056
(dp2057
g13
S'Say'
p2058
sg14
S'Mayor'
p2059
sg15
S''
sg16
S"I've been searching for minutes and haven't been able to find my pen! I bet my receptionist stole it. She has sticky fingers."
p2060
sbag1
(g10
g3
NtRp2061
(dp2062
g13
S'Say'
p2063
sg14
S'Mayor'
p2064
sg15
S''
sg16
S"Well, don't just stand there, go and get it!"
p2065
sbag1
(g10
g3
NtRp2066
(dp2067
g13
S'SetFlag'
p2068
sg14
S'Mayor'
p2069
sg15
S'PENQUEST'
p2070
sg16
S''
sbag1
(g10
g3
NtRp2071
(dp2072
g13
S'RequireItem'
p2073
sg14
S'Mayor'
p2074
sg15
S'PEN'
p2075
sg16
S'Are you simple? Go and get my pen from that thieving receptionist.'
p2076
sbag1
(g10
g3
NtRp2077
(dp2078
g13
S'Say'
p2079
sg14
S'Mayor'
p2080
sg15
S''
sg16
S"Great! I know she can give you a bit of a tongue-lashing, but she's a fantastic receptionist."
p2081
sbag1
(g10
g3
NtRp2082
(dp2083
g13
S'Say'
p2084
sg14
S'Mayor'
p2085
sg15
S''
sg16
S"You seem a little down, don't take her to heart"
p2086
sbag1
(g10
g3
NtRp2087
(dp2088
g13
S'RestoreVotes'
p2089
sg14
S'Mayor'
p2090
sg15
S''
sg16
S'Mayor Goodman restores votes.'
p2091
sbag1
(g10
g3
NtRp2092
(dp2093
g13
S'Say'
p2094
sg14
S'Mayor'
p2095
sg15
S''
sg16
S"I'm sure you want to learn a thing or two about politics \xe2\x80\x93 who doesn't? - so lets get started"
p2096
sbag1
(g10
g3
NtRp2097
(dp2098
g13
S'SetFlag'
p2099
sg14
S'Mayor'
p2100
sg15
S'PROTESTORS'
p2101
sg16
S''
sbag1
(g10
g3
NtRp2102
(dp2103
g13
S'RequireFlag'
p2104
sg14
S'Mayor'
p2105
sg15
S'PROTESTORSDEAD'
p2106
sg16
S'Run outside and tell those protesters to scram, will you?'
p2107
sbag1
(g10
g3
NtRp2108
(dp2109
g13
S'Say'
p2110
sg14
S'Mayor'
p2111
sg15
S''
sg16
S"Hope they didn't give you too much trouble!"
p2112
sbag1
(g10
g3
NtRp2113
(dp2114
g13
S'Say'
p2115
sg14
S'Mayor'
p2116
sg15
S''
sg16
S"Now that's sorted, there's a journalist from the local newspaper coming for an interview."
p2117
sbag1
(g10
g3
NtRp2118
(dp2119
g13
S'Say'
p2120
sg14
S'Mayor'
p2121
sg15
S''
sg16
S"I certainly don't have time for it, so you can do the interview."
p2122
sbag1
(g10
g3
NtRp2123
(dp2124
g13
S'Say'
p2125
sg14
S'Mayor'
p2126
sg15
S''
sg16
S"Be careful not to give too much away and if you could throw a few punches at the opposition that'd help."
p2127
sbag1
(g10
g3
NtRp2128
(dp2129
g13
S'PlayerSay'
p2130
sg14
S'Mayor'
p2131
sg15
S''
sg16
S'You want me to...throw a punch?'
p2132
sbag1
(g10
g3
NtRp2133
(dp2134
g13
S'Say'
p2135
sg14
S'Mayor'
p2136
sg15
S''
sg16
S"You're in politics and don't know how to fight dirty? Sheesh! Here, let me show you."
p2137
sbag1
(g10
g3
NtRp2138
(dp2139
g13
S'LearnAttack'
p2140
sg14
S'Mayor'
p2141
sg15
S'SLANDER'
p2142
sg16
S'Mayor teaches Phillip to Slander Opposition'
p2143
sbag1
(g10
g3
NtRp2144
(dp2145
g13
S'Say'
p2146
sg14
S'Mayor'
p2147
sg15
S''
sg16
S"It's a pretty great tactic because it keeps eating away at them long after you've done it."
p2148
sbag1
(g10
g3
NtRp2149
(dp2150
g13
S'SetFlag'
p2151
sg14
S'Mayor'
p2152
sg15
S'INTERVIEWSTART'
p2153
sg16
S''
sbag1
(g10
g3
NtRp2154
(dp2155
g13
S'RequireFlag'
p2156
sg14
S'Mayor'
p2157
sg15
S'JOURNALISTINTERVIEW'
p2158
sg16
S'Go handle that interview and remember to slander the opposition.'
p2159
sbag1
(g10
g3
NtRp2160
(dp2161
g13
S'SetFlag'
p2162
sg14
S'Mayor'
p2163
sg15
S'GOHOMETOWIFE'
p2164
sg16
S''
sbag1
(g10
g3
NtRp2165
(dp2166
g13
S'Say'
p2167
sg14
S'Mayor'
p2168
sg15
S''
sg16
S'OK, fine, now could you buzz off for a while? I need to get some work done.'
p2169
sbag1
(g10
g3
NtRp2170
(dp2171
g13
S'RequireFlag'
p2172
sg14
S'Mayor'
p2173
sg15
S'CONSTITUENTSWON'
p2174
sg16
S"Go home to your family. I have things to do that don't involve you."
p2175
sbag1
(g10
g3
NtRp2176
(dp2177
g13
S'Say'
p2178
sg14
S'Mayor'
p2179
sg15
S''
sg16
S"What's this I hear about you campaigning for Mayor? After everything I've taught you!"
p2180
sbag1
(g10
g3
NtRp2181
(dp2182
g13
S'PlayerSay'
p2183
sg14
S'Mayor'
p2184
sg15
S''
sg16
S"I'm sorry Mayor Goodman, but it's time for someone who's ready to make a difference for our town."
p2185
sbag1
(g10
g3
NtRp2186
(dp2187
g13
S'Say'
p2188
sg14
S'Mayor'
p2189
sg15
S''
sg16
S"You really are a fool. Do you think He's going to allow that?"
p2190
sbag1
(g10
g3
NtRp2191
(dp2192
g13
S'Encounter'
p2193
sg14
S'Mayor'
p2194
sg15
S'P-easy-10'
p2195
sg16
S''
sbag1
(g10
g3
NtRp2196
(dp2197
g13
S'Say'
p2198
sg14
S'Mayor'
p2199
sg15
S''
sg16
S"Well, you've beaten me but you don't have a clue what you're in for. I hope you're up to this kid!"
p2200
sbag1
(g10
g3
NtRp2201
(dp2202
g13
S'Destroy'
p2203
sg14
S'Mayor'
p2204
sg15
S''
sg16
S''
sbasS'Politician4'
p2205
(lp2206
g1
(g10
g3
NtRp2207
(dp2208
g13
S'RequireFlag'
p2209
sg14
g2205
sg15
S'STARTPOLITICIANSHAKEDOWN'
p2210
sg16
S'Good morning, Governor Mossman. Your PA will know your schedule. He is waiting in your room.'
p2211
sbag1
(g10
g3
NtRp2212
(dp2213
g13
S'Say'
p2214
sg14
S'Politician4'
p2215
sg15
S''
sg16
S"I'm for culture! It's a glorious age we live in, we should further this great country's culture."
p2216
sbag1
(g10
g3
NtRp2217
(dp2218
g13
S'PlayerSay'
p2219
sg14
S'Politician4'
p2220
sg15
S''
sg16
S'That sounds fair, but what kind of culture would you like to focus on.'
p2221
sbag1
(g10
g3
NtRp2222
(dp2223
g13
S'Say'
p2224
sg14
S'Politician4'
p2225
sg15
S''
sg16
S"Oh...I don't know, I'm not really into art, can't really handle music. I'd rather not go to the theatre if I can get out of it. Don't really see the point of sport...hmmm. New culture?"
p2226
sbag1
(g10
g3
NtRp2227
(dp2228
g13
S'PlayerSay'
p2229
sg14
S'Politician4'
p2230
sg15
S''
sg16
S"You don't seem very in to improving culture really."
p2231
sbag1
(g10
g3
NtRp2232
(dp2233
g13
S'Say'
p2234
sg14
S'Politician4'
p2235
sg15
S''
sg16
S'Yeh, well...my wife said it would make me sound smart. I think sounding smart is important. Lets be for that!'
p2236
sbag1
(g10
g3
NtRp2237
(dp2238
g13
S'Encounter'
p2239
sg14
S'Politician4'
p2240
sg15
S'P-med-08'
p2241
sg16
S''
sbag1
(g10
g3
NtRp2242
(dp2243
g13
S'Say'
p2244
sg14
S'Politician4'
p2245
sg15
S''
sg16
S"Gee, you're a pretty smart guy. I think you've got this covered."
p2246
sbag1
(g10
g3
NtRp2247
(dp2248
g13
S'Increment'
p2249
sg14
S'Politician4'
p2250
sg15
S'POLITICIANSHAKEDOWN'
p2251
sg16
S''
sbag1
(g10
g3
NtRp2252
(dp2253
g13
S'Destroy'
p2254
sg14
S'Politician4'
p2255
sg15
S''
sg16
S''
sbassS'attacks'
p2256
(dp2257
S'GETEXCLUSIVE'
p2258
g1
(g10
g3
NtRp2259
(dp2260
S'base_damage_max'
p2261
F4
sS'description'
p2262
S'asdf'
p2263
sS'weight'
p2264
I1
sS'crit_chance_max'
p2265
F5
sS'crit_chance_min'
p2266
F2
sS'underlying_stat'
p2267
S'Wit'
p2268
sS'target_type'
p2269
S'AllFriendly'
p2270
sS'base_damage_min'
p2271
F2
sS'spin_cost'
p2272
F5
sS'effects'
p2273
(lp2274
g1
(c__main__
Effect
p2275
g3
NtRp2276
(dp2277
S'function'
p2278
S'add'
p2279
sS'abbrv'
p2280
S'(INCREASE)'
p2281
sS'attribute'
p2282
S'cunning'
p2283
sS'value'
p2284
F2
sS'rounds_min'
p2285
F1
sS'rounds_max'
p2286
F4
sS'id'
p2287
S'Increase Cunning'
p2288
sS'apply_to_source'
p2289
S'TRUE'
p2290
sbasS'target_count'
p2291
I1
sS'crit_base_damage'
p2292
F8
sg2287
g2258
sS'name'
p2293
S'Get Exclusive'
p2294
sbsS'LOSELOSE'
p2295
g1
(g10
g3
NtRp2296
(dp2297
g2261
F4
sg2262
S'Causes all politicians in the target radius to lose votes'
p2298
sg2264
I1
sg2265
F0
sg2266
F0
sg2267
S'Cunning'
p2299
sg2269
S'All'
p2300
sg2271
F4
sg2272
I0
sg2273
(lp2301
sg2291
I6
sg2292
F0
sg2287
g2295
sg2293
S'Lose/lose issue'
p2302
sbsS'LIE'
p2303
g1
(g10
g3
NtRp2304
(dp2305
g2261
F6
sg2262
S"It's only lying if they catch you. A strong attack with a danger of failing entirely and leaving you high and dry."
p2306
sg2264
F3
sg2265
F10
sg2266
F2
sg2267
S'Wit'
p2307
sg2269
S'AllEnemy'
p2308
sg2271
F0
sg2272
I0
sg2273
(lp2309
g1
(g2275
g3
NtRp2310
(dp2311
g2278
S'miss_turn'
p2312
sg2280
S'(MISS)'
p2313
sg2282
S''
sg2284
F0
sg2285
F1
sg2286
F1
sg2287
S'Critical Fail'
p2314
sg2289
S'TRUE'
p2315
sbasg2291
I1
sg2292
F10
sg2287
g2303
sg2293
S'Lie'
p2316
sbsS'HILARIOUSANECDOTE'
p2317
g1
(g10
g3
NtRp2318
(dp2319
g2261
F8
sg2262
S'asdf'
p2320
sg2264
I1
sg2265
F0
sg2266
F0
sg2267
S'Wit'
p2321
sg2269
S'AllFriendly'
p2322
sg2271
F4
sg2272
F5
sg2273
(lp2323
g1
(g2275
g3
NtRp2324
(dp2325
g2278
S'add'
p2326
sg2280
S'(INCREASE)'
p2327
sg2282
S'flair'
p2328
sg2284
F2
sg2285
F1
sg2286
F4
sg2287
S'Increase Flair'
p2329
sg2289
S'TRUE'
p2330
sbasg2291
I1
sg2292
F0
sg2287
g2317
sg2293
S'Hilarious Anecdote'
p2331
sbsS'SENSATIONALISE'
p2332
g1
(g10
g3
NtRp2333
(dp2334
g2261
F8
sg2262
S'asdf'
p2335
sg2264
I1
sg2265
F0
sg2266
F0
sg2267
S'Wit'
p2336
sg2269
S'AllEnemy'
p2337
sg2271
F4
sg2272
F3
sg2273
(lp2338
sg2291
I1
sg2292
F0
sg2287
g2332
sg2293
S'Sensationalise'
p2339
sbsS'DENOUNCE'
p2340
g1
(g10
g3
NtRp2341
(dp2342
g2261
F5
sg2262
S'asdf'
p2343
sg2264
F6
sg2265
F10
sg2266
F2
sg2267
S'Cunning'
p2344
sg2269
S'AllEnemy'
p2345
sg2271
F2
sg2272
I0
sg2273
(lp2346
sg2291
I1
sg2292
F8
sg2287
g2340
sg2293
S'Denounce'
p2347
sbsS'WHADOWEWANT'
p2348
g1
(g10
g3
NtRp2349
(dp2350
g2261
F6
sg2262
S'asdf'
p2351
sg2264
I1
sg2265
F0
sg2266
F0
sg2267
S'Cunning'
p2352
sg2269
S'AllEnemy'
p2353
sg2271
F3
sg2272
I0
sg2273
(lp2354
sg2291
I1
sg2292
F0
sg2287
g2348
sg2293
S'Whadowewant!'
p2355
sbsS'SCOOP'
p2356
g1
(g10
g3
NtRp2357
(dp2358
g2261
F5
sg2262
S'asdf'
p2359
sg2264
I1
sg2265
F10
sg2266
F5
sg2267
S'Cunning'
p2360
sg2269
S'AllEnemy'
p2361
sg2271
F2
sg2272
I0
sg2273
(lp2362
sg2291
I1
sg2292
F8
sg2287
g2356
sg2293
S'Scoop'
p2363
sbsS'CHOOSETARGETS'
p2364
g1
(g10
g3
NtRp2365
(dp2366
g2261
F7
sg2262
S'asdf'
p2367
sg2264
I1
sg2265
F10
sg2266
F5
sg2267
S'Cunning'
p2368
sg2269
S'AllEnemy'
p2369
sg2271
F2
sg2272
I0
sg2273
(lp2370
sg2291
I1
sg2292
F9
sg2287
g2364
sg2293
S'Choose Targets'
p2371
sbsS'FILENAILS'
p2372
g1
(g10
g3
NtRp2373
(dp2374
g2261
F0
sg2262
S'asdf'
p2375
sg2264
I1
sg2265
F0
sg2266
F0
sg2267
S'Wit'
p2376
sg2269
S'AllEnemy'
p2377
sg2271
F0
sg2272
F3
sg2273
(lp2378
g1
(g2275
g3
NtRp2379
(dp2380
g2278
S'add_permanent'
p2381
sg2280
S''
sg2282
S'votes'
p2382
sg2284
F5
sg2285
F1
sg2286
F1
sg2287
S'Votes Restore'
p2383
sg2289
S'TRUE'
p2384
sbasg2291
I1
sg2292
F0
sg2287
g2372
sg2293
S'File Nails'
p2385
sbsS'BRIBE'
p2386
g1
(g10
g3
NtRp2387
(dp2388
g2261
F1
sg2262
S'Is there anything more convincing than money? Buying loyalty gets expensive so be careful.'
p2389
sg2264
I1
sg2265
F1
sg2266
F1
sg2267
S'Money'
p2390
sg2269
S'AllEnemy'
p2391
sg2271
F2
sg2272
I0
sg2273
(lp2392
sg2291
I1
sg2292
F1
sg2287
g2386
sg2293
S'Bribe'
p2393
sbsS'SING'
p2394
g1
(g10
g3
NtRp2395
(dp2396
g2261
F-3
sg2262
S'Why bandy words with politicians when you can sing a catchy tune! Restores votes.'
p2397
sg2264
I1
sg2265
F0
sg2266
F0
sg2267
S'Wit'
p2398
sg2269
S'AllFriendly'
p2399
sg2271
F-5
sg2272
I0
sg2273
(lp2400
sg2291
I4
sg2292
F0
sg2287
g2394
sg2293
S'Rousing Song'
p2401
sbsS'FEAR'
p2402
g1
(g10
g3
NtRp2403
(dp2404
g2261
F0
sg2262
S'asdf'
p2405
sg2264
F2
sg2265
F0
sg2266
F0
sg2267
S'Wit'
p2406
sg2269
S'AllFriendly'
p2407
sg2271
F0
sg2272
F4
sg2273
(lp2408
g2276
asg2291
I1
sg2292
F0
sg2287
g2402
sg2293
S'Fear Change'
p2409
sbsS'RAISEDEFCON'
p2410
g1
(g10
g3
NtRp2411
(dp2412
g2261
F5
sg2262
S'asdf'
p2413
sg2264
I1
sg2265
F7
sg2266
F3
sg2267
S'Cunning'
p2414
sg2269
S'AllEnemy'
p2415
sg2271
F4
sg2272
I0
sg2273
(lp2416
sg2291
I1
sg2292
F8
sg2287
g2410
sg2293
S'Raise DEFCON'
p2417
sbsS'NEGATTACKAD'
p2418
g1
(g10
g3
NtRp2419
(dp2420
g2261
F8
sg2262
S"Take them all down. They're definitely all bad people. Not like you."
p2421
sg2264
I1
sg2265
F10
sg2266
F10
sg2267
S'Cunning'
p2422
sg2269
S'AllEnemy'
p2423
sg2271
F3
sg2272
F5
sg2273
(lp2424
sg2291
I1
sg2292
F10
sg2287
g2418
sg2293
S'Negative Attack Ad'
p2425
sbsS'DAZZLE'
p2426
g1
(g10
g3
NtRp2427
(dp2428
g2261
F3
sg2262
S'Being dazzling and admirable is a great way to take heat off politics'
p2429
sg2264
I1
sg2265
F8
sg2266
F5
sg2267
S'Wit'
p2430
sg2269
S'AllEnemy'
p2431
sg2271
F2
sg2272
F3
sg2273
(lp2432
g1
(g2275
g3
NtRp2433
(dp2434
g2278
S'reduce'
p2435
sg2280
S'(REDUCE)'
p2436
sg2282
S'cunning'
p2437
sg2284
F2
sg2285
F2
sg2286
F5
sg2287
S'Reduce Cunning'
p2438
sg2289
S''
sbasg2291
I4
sg2292
F8
sg2287
g2426
sg2293
S'Dazzle'
p2439
sbsS'BELIEVEMEDIA'
p2440
g1
(g10
g3
NtRp2441
(dp2442
g2261
F3
sg2262
S'asdf'
p2443
sg2264
I1
sg2265
F15
sg2266
F5
sg2267
S'Cunning'
p2444
sg2269
S'AllEnemy'
p2445
sg2271
F1
sg2272
I0
sg2273
(lp2446
sg2291
I1
sg2292
F12
sg2287
g2440
sg2293
S'Believe Media'
p2447
sbsS'PRPREP'
p2448
g1
(g10
g3
NtRp2449
(dp2450
g2261
F0
sg2262
S"If you're going to need some spin, best see a spin doctor! Adds spin points."
p2451
sg2264
I1
sg2265
F0
sg2266
F0
sg2267
S''
sg2269
S'AllFriendly'
p2452
sg2271
F0
sg2272
I0
sg2273
(lp2453
g1
(g2275
g3
NtRp2454
(dp2455
g2278
S'add_permanent'
p2456
sg2280
S''
sg2282
S'spin'
p2457
sg2284
F5
sg2285
F0
sg2286
F0
sg2287
S'Spin Restore'
p2458
sg2289
S'TRUE'
p2459
sbasg2291
I1
sg2292
F0
sg2287
g2448
sg2293
S'PR Prep'
p2460
sbsS'CALLVATICAN'
p2461
g1
(g10
g3
NtRp2462
(dp2463
g2261
F0
sg2262
S'Brings in 2 additional ReligousNuts at 2 levels lower than this one'
p2464
sg2264
I1
sg2265
F0
sg2266
F0
sg2267
S'Wit'
p2465
sg2269
S'None'
p2466
sg2271
F0
sg2272
F5
sg2273
(lp2467
g1
(g2275
g3
NtRp2468
(dp2469
g2278
S'call_friends'
p2470
sg2280
S''
sg2282
S'ReligiousNut001:1'
p2471
sg2284
F2
sg2285
F1
sg2286
F1
sg2287
S'Call Friends'
p2472
sg2289
S''
sbasg2291
I1
sg2292
F0
sg2287
g2461
sg2293
S'Call Battycan'
p2473
sbsS'BLACKMAIL'
p2474
g1
(g10
g3
NtRp2475
(dp2476
g2261
F6
sg2262
S'asdf'
p2477
sg2264
I1
sg2265
F10
sg2266
F2
sg2267
S'Wit'
p2478
sg2269
S'AllEnemy'
p2479
sg2271
F3
sg2272
F4
sg2273
(lp2480
g1
(g2275
g3
NtRp2481
(dp2482
g2278
S'drain'
p2483
sg2280
S'(DRAIN)'
p2484
sg2282
S'votes'
p2485
sg2284
F1
sg2285
F2
sg2286
F5
sg2287
S'Drain Votes'
p2486
sg2289
S''
sbasg2291
I1
sg2292
F2
sg2287
g2474
sg2293
S'Blackmail'
p2487
sbsS'RUNAD'
p2488
g1
(g10
g3
NtRp2489
(dp2490
g2261
F0
sg2262
S'Gets back some votes by running an ad'
p2491
sg2264
I1
sg2265
F0
sg2266
F0
sg2267
S''
sg2269
S'AllFriendly'
p2492
sg2271
F0
sg2272
I0
sg2273
(lp2493
g1
(g2275
g3
NtRp2494
(dp2495
g2278
S'add_permanent'
p2496
sg2280
S''
sg2282
S'votes'
p2497
sg2284
F10
sg2285
F1
sg2286
F1
sg2287
S'Votes Restore Ad'
p2498
sg2289
S'TRUE'
p2499
sbasg2291
I1
sg2292
F0
sg2287
g2488
sg2293
S'Run Advertisement'
p2500
sbsS'PROTEST'
p2501
g1
(g10
g3
NtRp2502
(dp2503
g2261
F5
sg2262
S'asdf'
p2504
sg2264
F6
sg2265
F10
sg2266
F2
sg2267
S'Cunning'
p2505
sg2269
S'AllEnemy'
p2506
sg2271
F2
sg2272
I0
sg2273
(lp2507
sg2291
I1
sg2292
F8
sg2287
g2501
sg2293
S'Protest'
p2508
sbsS'SPREADRUMOUR'
p2509
g1
(g10
g3
NtRp2510
(dp2511
g2261
F6
sg2262
S'asdf'
p2512
sg2264
I1
sg2265
F10
sg2266
F2
sg2267
S'Wit'
p2513
sg2269
S'AllEnemy'
p2514
sg2271
F2
sg2272
F3
sg2273
(lp2515
sg2291
I4
sg2292
F8
sg2287
g2509
sg2293
S'Spread Rumour'
p2516
sbsS'AGENDA'
p2517
g1
(g10
g3
NtRp2518
(dp2519
g2261
F5
sg2262
S'asdf'
p2520
sg2264
F6
sg2265
F10
sg2266
F2
sg2267
S'Cunning'
p2521
sg2269
S'AllEnemy'
p2522
sg2271
F2
sg2272
I0
sg2273
(lp2523
sg2291
I1
sg2292
F8
sg2287
g2517
sg2293
S'Push Agenda'
p2524
sbsS'FILIBUSTER'
p2525
g1
(g10
g3
NtRp2526
(dp2527
g2261
F0
sg2262
S"You're not moving until they give in. Cause all opposition to miss their turn"
p2528
sg2264
I1
sg2265
F0
sg2266
F0
sg2267
S'Wit'
p2529
sg2269
S'AllEnemy'
p2530
sg2271
F0
sg2272
F8
sg2273
(lp2531
g1
(g2275
g3
NtRp2532
(dp2533
g2278
S'miss_turn'
p2534
sg2280
S'(MISS)'
p2535
sg2282
S''
sg2284
F0
sg2285
F1
sg2286
F1
sg2287
S'Miss Turn'
p2536
sg2289
S''
sbasg2291
I1
sg2292
F0
sg2287
g2525
sg2293
S'Filibuster'
p2537
sbsS'GATHERINTEL'
p2538
g1
(g10
g3
NtRp2539
(dp2540
g2261
F0
sg2262
S'Increases Cunning.'
p2541
sg2264
I1
sg2265
F0
sg2266
F0
sg2267
S'Wit'
p2542
sg2269
S'AllFriendly'
p2543
sg2271
F0
sg2272
F3
sg2273
(lp2544
g2276
asg2291
I2
sg2292
F0
sg2287
g2538
sg2293
S'Gather Intelligence'
p2545
sbsS'LOVE'
p2546
g1
(g10
g3
NtRp2547
(dp2548
g2261
F6
sg2262
S'asdf'
p2549
sg2264
F2
sg2265
F8
sg2266
F2
sg2267
S'Cunning'
p2550
sg2269
S'AllEnemy'
p2551
sg2271
F1
sg2272
I0
sg2273
(lp2552
sg2291
I1
sg2292
F7
sg2287
g2546
sg2293
S'Love'
p2553
sbsS'OUTOFCONTEXT'
p2554
g1
(g10
g3
NtRp2555
(dp2556
g2261
F3
sg2262
S'asdf'
p2557
sg2264
I1
sg2265
F5
sg2266
F2
sg2267
S'Wit'
p2558
sg2269
S'AllEnemy'
p2559
sg2271
F2
sg2272
F2
sg2273
(lp2560
g2481
asg2291
I1
sg2292
F5
sg2287
g2554
sg2293
S'Take Out Of Context'
p2561
sbsS'GREATSUIT'
p2562
g1
(g10
g3
NtRp2563
(dp2564
g2261
F6
sg2262
S'Well, we could argue, but have you noticed how fabulous this suit is?'
p2565
sg2264
I1
sg2265
F11
sg2266
F6
sg2267
S'Cunning'
p2566
sg2269
S'AllEnemy'
p2567
sg2271
F3
sg2272
I0
sg2273
(lp2568
sg2291
I1
sg2292
F12
sg2287
g2562
sg2293
S'Look Great In Suit'
p2569
sbsS'PEACE'
p2570
g1
(g10
g3
NtRp2571
(dp2572
g2261
F0
sg2262
S'asdf'
p2573
sg2264
I1
sg2265
F0
sg2266
F0
sg2267
S'Wit'
p2574
sg2269
S'AllEnemy'
p2575
sg2271
F0
sg2272
F3
sg2273
(lp2576
g2433
asg2291
I4
sg2292
F0
sg2287
g2570
sg2293
S'Peace'
p2577
sbsS'INSPSPEECH'
p2578
g1
(g10
g3
NtRp2579
(dp2580
g2261
F-2
sg2262
S'Restore votes to all party members'
p2581
sg2264
I1
sg2265
F0
sg2266
F0
sg2267
S'Cunning'
p2582
sg2269
S'AllFriendly'
p2583
sg2271
F-2
sg2272
I0
sg2273
(lp2584
sg2291
I4
sg2292
F0
sg2287
g2578
sg2293
S'Inspirational Speech'
p2585
sbsS'STRIKE'
p2586
g1
(g10
g3
NtRp2587
(dp2588
g2261
F8
sg2262
S'asdf'
p2589
sg2264
I1
sg2265
F0
sg2266
F0
sg2267
S'Wit'
p2590
sg2269
S'AllEnemy'
p2591
sg2271
F0
sg2272
F3
sg2273
(lp2592
g2310
asg2291
I1
sg2292
F0
sg2287
g2586
sg2293
S'Call A Strike'
p2593
sbsS'SLANDER'
p2594
g1
(g10
g3
NtRp2595
(dp2596
g2261
F3
sg2262
S'Strong against polititians...careful with those voters, though!'
p2597
sg2264
F4
sg2265
F10
sg2266
F2
sg2267
S'Wit'
p2598
sg2269
S'AllEnemy'
p2599
sg2271
F2
sg2272
I0
sg2273
(lp2600
g2481
asg2291
I1
sg2292
F5
sg2287
g2594
sg2293
S'Slander Opposition'
p2601
sbsS'NATTER'
p2602
g1
(g10
g3
NtRp2603
(dp2604
g2261
F8
sg2262
S'asdf'
p2605
sg2264
I1
sg2265
F15
sg2266
F5
sg2267
S'Cunning'
p2606
sg2269
S'AllEnemy'
p2607
sg2271
F1
sg2272
I0
sg2273
(lp2608
sg2291
I1
sg2292
F10
sg2287
g2602
sg2293
S'Natter On'
p2609
sbsS'GOSSIP'
p2610
g1
(g10
g3
NtRp2611
(dp2612
g2261
F3
sg2262
S'asdf'
p2613
sg2264
I1
sg2265
F10
sg2266
F2
sg2267
S'Wit'
p2614
sg2269
S'AllEnemy'
p2615
sg2271
F1
sg2272
F2
sg2273
(lp2616
g2433
asg2291
I1
sg2292
F6
sg2287
g2610
sg2293
S'Gossip'
p2617
sbsS'MISSTURN'
p2618
g1
(g10
g3
NtRp2619
(dp2620
g2261
F0
sg2262
S'asdf'
p2621
sg2264
I1
sg2265
F0
sg2266
F0
sg2267
S''
sg2269
S'AllEnemy'
p2622
sg2271
F0
sg2272
I0
sg2273
(lp2623
sg2291
I1
sg2292
F0
sg2287
g2618
sg2293
S'Miss Turn'
p2624
sbsS'BIELECTION'
p2625
g1
(g10
g3
NtRp2626
(dp2627
g2261
F4
sg2262
S'Redistribute votes amongst targets'
p2628
sg2264
I1
sg2265
F0
sg2266
F0
sg2267
S'Cunning'
p2629
sg2269
S'All'
p2630
sg2271
F-4
sg2272
F4
sg2273
(lp2631
sg2291
I8
sg2292
F0
sg2287
g2625
sg2293
S'Bielection'
p2632
sbsS'SCARE'
p2633
g1
(g10
g3
NtRp2634
(dp2635
g2261
F7
sg2262
S'Nothing rattles the brains like fear.'
p2636
sg2264
I1
sg2265
F10
sg2266
F2
sg2267
S'Wit'
p2637
sg2269
S'AllEnemy'
p2638
sg2271
F2
sg2272
I0
sg2273
(lp2639
g2433
asg2291
I2
sg2292
F9
sg2287
g2633
sg2293
S'Scare Campaign'
p2640
sbsS'PAYOFF'
p2641
g1
(g10
g3
NtRp2642
(dp2643
g2261
F7
sg2262
S'causes them to miss a number of turns'
p2644
sg2264
I1
sg2265
F8
sg2266
F2
sg2267
S'Wit'
p2645
sg2269
S'AllEnemy'
p2646
sg2271
F2
sg2272
F4
sg2273
(lp2647
g1
(g2275
g3
NtRp2648
(dp2649
g2278
S'miss_turn'
p2650
sg2280
S'(MISS)'
p2651
sg2282
S''
sg2284
F0
sg2285
F1
sg2286
F3
sg2287
S'Miss Turn Pay Off'
p2652
sg2289
S''
sbasg2291
I1
sg2292
F9
sg2287
g2641
sg2293
S'Pay Off'
p2653
sbsS'BUREAUCRACY'
p2654
g1
(g10
g3
NtRp2655
(dp2656
g2261
F5
sg2262
S'asdf'
p2657
sg2264
F6
sg2265
F10
sg2266
F2
sg2267
S'Cunning'
p2658
sg2269
S'AllEnemy'
p2659
sg2271
F2
sg2272
I0
sg2273
(lp2660
sg2291
I1
sg2292
F8
sg2287
g2654
sg2293
S'Bureaucracy'
p2661
sbsS'RALLYAUDIENCE'
p2662
g1
(g10
g3
NtRp2663
(dp2664
g2261
F8
sg2262
S'asdf'
p2665
sg2264
I1
sg2265
F0
sg2266
F0
sg2267
S'Wit'
p2666
sg2269
S'AllFriendly'
p2667
sg2271
F4
sg2272
F3
sg2273
(lp2668
g1
(g2275
g3
NtRp2669
(dp2670
g2278
S'add'
p2671
sg2280
S'(INCREASE)'
p2672
sg2282
S'charisma'
p2673
sg2284
F2
sg2285
F1
sg2286
F4
sg2287
S'Increase Charisma'
p2674
sg2289
S'TRUE'
p2675
sbasg2291
I1
sg2292
F0
sg2287
g2662
sg2293
S'Rally Audience'
p2676
sbsS'PORKBARREL'
p2677
g1
(g10
g3
NtRp2678
(dp2679
g2261
F6
sg2262
S'Do something that benefits them specifically. Not advised against politicians.'
p2680
sg2264
I1
sg2265
F0
sg2266
F0
sg2267
S'Wit'
p2681
sg2269
S'AllEnemy'
p2682
sg2271
F2
sg2272
F2
sg2273
(lp2683
sg2291
I1
sg2292
F0
sg2287
g2677
sg2293
S'Pork Barrel'
p2684
sbsS'INSPIRE'
p2685
g1
(g10
g3
NtRp2686
(dp2687
g2261
F0
sg2262
S'asdf'
p2688
sg2264
I1
sg2265
F0
sg2266
F0
sg2267
S'Wit'
p2689
sg2269
S'AllFriendly'
p2690
sg2271
F0
sg2272
F3
sg2273
(lp2691
g2276
asg2291
I4
sg2292
F0
sg2287
g2685
sg2293
S'Inspire'
p2692
sbsS'JOKE'
p2693
g1
(g10
g3
NtRp2694
(dp2695
g2261
F3
sg2262
S"Ha, ha, ha...what were we talking about? Diffuse the situation with some humour. Not good if it falls flat, but if they get it, it'll knock 'em dead."
p2696
sg2264
F3
sg2265
F30
sg2266
F10
sg2267
S'Wit'
p2697
sg2269
S'AllEnemy'
p2698
sg2271
F2
sg2272
I0
sg2273
(lp2699
sg2291
I1
sg2292
F10
sg2287
g2693
sg2293
S'Joke'
p2700
sbsS'PRAYFORSOULS'
p2701
g1
(g10
g3
NtRp2702
(dp2703
g2261
F6
sg2262
S'asdf'
p2704
sg2264
F2
sg2265
F10
sg2266
F2
sg2267
S'Cunning'
p2705
sg2269
S'None'
p2706
sg2271
F3
sg2272
I0
sg2273
(lp2707
sg2291
I1
sg2292
F10
sg2287
g2701
sg2293
S'Pray'
p2708
sbsS'REVIVE'
p2709
g1
(g10
g3
NtRp2710
(dp2711
g2261
F0
sg2262
S'Revive a defeated comrade to half votes'
p2712
sg2264
I1
sg2265
F0
sg2266
F0
sg2267
S''
sg2269
S'DeadFriendly'
p2713
sg2271
F0
sg2272
F3
sg2273
(lp2714
g1
(g2275
g3
NtRp2715
(dp2716
g2278
S'revive'
p2717
sg2280
S''
sg2282
S''
sg2284
F0.5
sg2285
F0
sg2286
F0
sg2287
S'Revive'
p2718
sg2289
S''
sbasg2291
I1
sg2292
F0
sg2287
g2709
sg2293
S'Revive'
p2719
sbsS'HUMANSHIELD'
p2720
g1
(g10
g3
NtRp2721
(dp2722
g2261
F5
sg2262
S'No further questions. Step back, please.'
p2723
sg2264
I1
sg2265
F5
sg2266
F2
sg2267
S'Wit'
p2724
sg2269
S'AllEnemy'
p2725
sg2271
F2
sg2272
F4
sg2273
(lp2726
g2532
asg2291
I2
sg2292
F12
sg2287
g2720
sg2293
S'Human Shield'
p2727
sbsS'MAKEDEMANDS'
p2728
g1
(g10
g3
NtRp2729
(dp2730
g2261
F8
sg2262
S'asdf'
p2731
sg2264
I1
sg2265
F0
sg2266
F0
sg2267
S'Cunning'
p2732
sg2269
S'AllEnemy'
p2733
sg2271
F0
sg2272
I0
sg2273
(lp2734
g2310
asg2291
I1
sg2292
F0
sg2287
g2728
sg2293
S'Make Outrageous Demands'
p2735
sbsS'DEFENSE'
p2736
g1
(g10
g3
NtRp2737
(dp2738
g2261
F0
sg2262
S'Gather strenth; -50% to all incoming attacks'
p2739
sg2264
I1
sg2265
F0
sg2266
F0
sg2267
S''
sg2269
S'None'
p2740
sg2271
F0
sg2272
I0
sg2273
(lp2741
g1
(g2275
g3
NtRp2742
(dp2743
g2278
S'add'
p2744
sg2280
S'(DFND)'
p2745
sg2282
S'resistance'
p2746
sg2284
F0.5
sg2285
F1
sg2286
F1
sg2287
S'Defense'
p2747
sg2289
S'TRUE'
p2748
sbasg2291
I1
sg2292
F0
sg2287
g2736
sg2293
S'Defense'
p2749
sbsS'MISCONSTRUE'
p2750
g1
(g10
g3
NtRp2751
(dp2752
g2261
F8
sg2262
S'asdf'
p2753
sg2264
I1
sg2265
F0
sg2266
F0
sg2267
S'Cunning'
p2754
sg2269
S'AllEnemy'
p2755
sg2271
F0
sg2272
I0
sg2273
(lp2756
g2310
asg2291
I1
sg2292
F0
sg2287
g2750
sg2293
S'Misconstrue'
p2757
sbsS'NATIONALSECURITY'
p2758
g1
(g10
g3
NtRp2759
(dp2760
g2261
F7
sg2262
S"This is a matter of national security and they don't have codeword clearance"
p2761
sg2264
I1
sg2265
F10
sg2266
F2
sg2267
S'Cunning'
p2762
sg2269
S'AllEnemy'
p2763
sg2271
F2
sg2272
I0
sg2273
(lp2764
sg2291
I1
sg2292
F9
sg2287
g2758
sg2293
S'National Security'
p2765
sbsS'RALLY'
p2766
g1
(g10
g3
NtRp2767
(dp2768
g2261
F-2
sg2262
S'Get back some votes by rallying supporters'
p2769
sg2264
I1
sg2265
F0
sg2266
F0
sg2267
S'Wit'
p2770
sg2269
S'AllFriendly'
p2771
sg2271
F-4
sg2272
F2
sg2273
(lp2772
sg2291
I1
sg2292
F0
sg2287
g2766
sg2293
S'Rally Constituents'
p2773
sbsS'MESSAGE'
p2774
g1
(g10
g3
NtRp2775
(dp2776
g2261
F5
sg2262
S'You can certainly wear them down by repeating your party line over and over and over...if you want'
p2777
sg2264
F6
sg2265
F10
sg2266
F2
sg2267
S'Wit'
p2778
sg2269
S'AllEnemy'
p2779
sg2271
F2
sg2272
I0
sg2273
(lp2780
sg2291
I1
sg2292
F8
sg2287
g2774
sg2293
S'Stay On Message'
p2781
sbsS'APPEALTOGOD'
p2782
g1
(g10
g3
NtRp2783
(dp2784
g2261
F6
sg2262
S'asdf'
p2785
sg2264
F3
sg2265
F0
sg2266
F0
sg2267
S'Wit'
p2786
sg2269
S'AllEnemy'
p2787
sg2271
F4
sg2272
F7
sg2273
(lp2788
sg2291
I4
sg2292
F0
sg2287
g2782
sg2293
S'Appeal To God'
p2789
sbssS'levels'
p2790
(lp2791
g1
(g10
g3
NtRp2792
(dp2793
S'votes'
p2794
F10
sS'level'
p2795
F1
sS'spin'
p2796
F5
sS'xp'
p2797
F0
sS'skill_points'
p2798
F0
sbag1
(g10
g3
NtRp2799
(dp2800
g2794
F12
sg2795
F2
sg2796
F5
sg2797
F100
sg2798
F2
sbag1
(g10
g3
NtRp2801
(dp2802
g2794
F15
sg2795
F3
sg2796
F6
sg2797
F200
sg2798
F2
sbag1
(g10
g3
NtRp2803
(dp2804
g2794
F20
sg2795
F4
sg2796
F6
sg2797
F500
sg2798
F2
sbag1
(g10
g3
NtRp2805
(dp2806
g2794
F25
sg2795
F5
sg2796
F7
sg2797
F1000
sg2798
F2
sbag1
(g10
g3
NtRp2807
(dp2808
g2794
F30
sg2795
F6
sg2796
F7
sg2797
F2000
sg2798
F2
sbag1
(g10
g3
NtRp2809
(dp2810
g2794
F35
sg2795
F7
sg2796
F8
sg2797
F5000
sg2798
F2
sbag1
(g10
g3
NtRp2811
(dp2812
g2794
F40
sg2795
F8
sg2796
F8
sg2797
F10000
sg2798
F2
sbag1
(g10
g3
NtRp2813
(dp2814
g2794
F45
sg2795
F9
sg2796
F9
sg2797
F15000
sg2798
F2
sbag1
(g10
g3
NtRp2815
(dp2816
g2794
F50
sg2795
F10
sg2796
F9
sg2797
F20000
sg2798
F2
sbag1
(g10
g3
NtRp2817
(dp2818
g2794
F55
sg2795
F11
sg2796
F10
sg2797
F40000
sg2798
F2
sbag1
(g10
g3
NtRp2819
(dp2820
g2794
S''
sg2795
F12
sg2796
S''
sg2797
S''
sg2798
S''
sbag1
(g10
g3
NtRp2821
(dp2822
g2794
S''
sg2795
F13
sg2796
S''
sg2797
S''
sg2798
S''
sbag1
(g10
g3
NtRp2823
(dp2824
g2794
S''
sg2795
F14
sg2796
S''
sg2797
S''
sg2798
S''
sbag1
(g10
g3
NtRp2825
(dp2826
g2794
S''
sg2795
F15
sg2796
S''
sg2797
S''
sg2798
S''
sbag1
(g10
g3
NtRp2827
(dp2828
g2794
S''
sg2795
F16
sg2796
S''
sg2797
S''
sg2798
S''
sbag1
(g10
g3
NtRp2829
(dp2830
g2794
S''
sg2795
F17
sg2796
S''
sg2797
S''
sg2798
S''
sbag1
(g10
g3
NtRp2831
(dp2832
g2794
S''
sg2795
F18
sg2796
S''
sg2797
S''
sg2798
S''
sbag1
(g10
g3
NtRp2833
(dp2834
g2794
S''
sg2795
F19
sg2796
S''
sg2797
S''
sg2798
S''
sbag1
(g10
g3
NtRp2835
(dp2836
g2794
S''
sg2795
F20
sg2796
S''
sg2797
S''
sg2798
S''
sbag1
(g10
g3
NtRp2837
(dp2838
g2794
S''
sg2795
F21
sg2796
S''
sg2797
S''
sg2798
S''
sbag1
(g10
g3
NtRp2839
(dp2840
g2794
S''
sg2795
F22
sg2796
S''
sg2797
S''
sg2798
S''
sbag1
(g10
g3
NtRp2841
(dp2842
g2794
S''
sg2795
F23
sg2796
S''
sg2797
S''
sg2798
S''
sbag1
(g10
g3
NtRp2843
(dp2844
g2794
S''
sg2795
F24
sg2796
S''
sg2797
S''
sg2798
S''
sbag1
(g10
g3
NtRp2845
(dp2846
g2794
S''
sg2795
F25
sg2796
S''
sg2797
S''
sg2798
S''
sbag1
(g10
g3
NtRp2847
(dp2848
g2794
S''
sg2795
F26
sg2796
S''
sg2797
S''
sg2798
S''
sbag1
(g10
g3
NtRp2849
(dp2850
g2794
S''
sg2795
F27
sg2796
S''
sg2797
S''
sg2798
S''
sbag1
(g10
g3
NtRp2851
(dp2852
g2794
S''
sg2795
F28
sg2796
S''
sg2797
S''
sg2798
S''
sbag1
(g10
g3
NtRp2853
(dp2854
g2794
S''
sg2795
F29
sg2796
S''
sg2797
S''
sg2798
S''
sbasg2273
(dp2855
g2288
g2276
sg2383
g2379
sg2458
g2454
sg2674
g2669
sg2536
g2532
sg2472
g2468
sg2498
g2494
sg2652
g2648
sg2718
g2715
sg2438
g2433
sg2486
g2481
sg2747
g2742
sg2314
g2310
sg2329
g2324
ssS'characters'
p2856
(dp2857
S'Teacher001'
p2858
(lp2859
g1
(g10
g3
NtRp2860
(dp2861
S'flair_base'
p2862
F1
sS'spin_base'
p2863
F4
sS'flair_lvl'
p2864
F1.1499999999999999
sS'wit_base'
p2865
F1
sS'resistance'
p2866
(lp2867
sS'wit_lvl'
p2868
F1.0900000000000001
sS'cunning_base'
p2869
F1
sg2287
g2858
sS'votes_base'
p2870
F10
sS'speed_lvl'
p2871
F1.0800000000000001
sS'standard_attacks'
p2872
(lp2873
g2737
ag2502
asS'cunning_lvl'
p2874
F1.1000000000000001
sS'charisma_lvl'
p2875
F1.1499999999999999
sS'spin_attacks'
p2876
(lp2877
g2587
ag2767
asS'spin_lvl'
p2878
F1.0800000000000001
sS'charisma_base'
p2879
F1
sS'weaknesses'
p2880
(lp2881
sS'attack_group'
p2882
S'Teacher'
p2883
sS'votes_lvl'
p2884
F1.2
sg2293
S'Teacher'
p2885
sS'speed_base'
p2886
F1
sS'immunities'
p2887
(lp2888
sbasS'Politician001'
p2889
(lp2890
g1
(g10
g3
NtRp2891
(dp2892
g2862
F1
sg2863
F4
sg2864
F1.1499999999999999
sg2865
F1
sg2866
(lp2893
g2304
asg2868
F1.0900000000000001
sg2869
F1
sg2287
g2889
sg2870
F10
sg2871
F1.0800000000000001
sg2872
(lp2894
g2775
ag2595
ag2304
ag2694
ag2737
asg2874
F1.1000000000000001
sg2875
F1.1499999999999999
sg2876
(lp2895
g2626
ag2419
ag2710
asg2878
F1.0800000000000001
sg2879
F1
sg2880
(lp2896
g2387
asg2882
S'Politician'
p2897
sg2884
F1.2
sg2293
S'Politician'
p2898
sg2886
F1
sg2887
(lp2899
g2678
asbasS'SecretAgent'
p2900
(lp2901
g1
(g10
g3
NtRp2902
(dp2903
g2862
F1
sg2863
F4
sg2864
F1.1499999999999999
sg2865
F1
sg2866
(lp2904
sg2868
F1.0900000000000001
sg2869
F1
sg2287
g2900
sg2870
F18
sg2871
F1.0800000000000001
sg2872
(lp2905
g2737
ag2759
ag2563
asg2874
F1.1000000000000001
sg2875
F1.1499999999999999
sg2876
(lp2906
g2721
ag2539
asg2878
F1.0800000000000001
sg2879
F1
sg2880
(lp2907
sg2882
S'SecretAgent'
p2908
sg2884
F1.2
sg2293
S'Agent Kawalski'
p2909
sg2886
F1
sg2887
(lp2910
sbasS'Bumpkin001'
p2911
(lp2912
g1
(g10
g3
NtRp2913
(dp2914
g2862
F1
sg2863
F4
sg2864
F1.1499999999999999
sg2865
F1
sg2866
(lp2915
sg2868
F1.0900000000000001
sg2869
F1
sg2287
g2911
sg2870
F10
sg2871
F1.0800000000000001
sg2872
(lp2916
g2694
ag2441
asg2874
F1.1000000000000001
sg2875
F1.1499999999999999
sg2876
(lp2917
g2403
ag2510
asg2878
F1.0800000000000001
sg2879
F1
sg2880
(lp2918
g2304
ag2595
ag2634
asg2882
S'Bumpkin'
p2919
sg2884
F1.2
sg2293
S'Bumpkin'
p2920
sg2886
F1
sg2887
(lp2921
sbasS'WarVet001'
p2922
(lp2923
g1
(g10
g3
NtRp2924
(dp2925
g2862
F1
sg2863
F4
sg2864
F1.1499999999999999
sg2865
F1
sg2866
(lp2926
sg2868
F1.0900000000000001
sg2869
F1
sg2287
g2922
sg2870
F10
sg2871
F1.0800000000000001
sg2872
(lp2927
g2729
ag2737
asg2874
F1.1000000000000001
sg2875
F1.1499999999999999
sg2876
(lp2928
g2686
ag2767
asg2878
F1.0800000000000001
sg2879
F1
sg2880
(lp2929
sg2882
S'WarVet'
p2930
sg2884
F1.2
sg2293
S'War Veteran'
p2931
sg2886
F1
sg2887
(lp2932
sbasS'Receptionist001'
p2933
(lp2934
g1
(g10
g3
NtRp2935
(dp2936
g2862
F1
sg2863
F4
sg2864
F1.1499999999999999
sg2865
F1
sg2866
(lp2937
sg2868
F1.0900000000000001
sg2869
F1
sg2287
g2933
sg2870
F10
sg2871
F1.0800000000000001
sg2872
(lp2938
g2655
ag2603
asg2874
F1.1000000000000001
sg2875
F1.1499999999999999
sg2876
(lp2939
g2611
ag2373
asg2878
F1.0800000000000001
sg2879
F1
sg2880
(lp2940
sg2882
S'Receptionist'
p2941
sg2884
F1.2
sg2293
S'Receptionist'
p2942
sg2886
F1
sg2887
(lp2943
sbasS'DeepThroat'
p2944
(lp2945
g1
(g10
g3
NtRp2946
(dp2947
g2862
F1
sg2863
F4
sg2864
F1.1499999999999999
sg2865
F1
sg2866
(lp2948
sg2868
F1.0900000000000001
sg2869
F1
sg2287
g2944
sg2870
F10
sg2871
F1.0800000000000001
sg2872
(lp2949
g2595
ag2737
ag2729
asg2874
F1.1000000000000001
sg2875
F1.1499999999999999
sg2876
(lp2950
g2475
asg2878
F1.0800000000000001
sg2879
F1
sg2880
(lp2951
sg2882
S'DeepThroat'
p2952
sg2884
F1.2
sg2293
S'Mr Er...?'
p2953
sg2886
F1
sg2887
(lp2954
sbasS'Leo'
p2955
(lp2956
g1
(g10
g3
NtRp2957
(dp2958
g2862
F1
sg2863
F4
sg2864
F1.1499999999999999
sg2865
F1
sg2866
(lp2959
sg2868
F1.0900000000000001
sg2869
F1
sg2287
g2955
sg2870
F14
sg2871
F1.0800000000000001
sg2872
(lp2960
g2775
ag2595
ag2304
ag2694
ag2387
asg2874
F1.1000000000000001
sg2875
F1.1499999999999999
sg2876
(lp2961
g2626
ag2419
ag2678
ag2526
asg2878
F1.0800000000000001
sg2879
F1
sg2880
(lp2962
sg2882
S'Theo'
p2963
sg2884
F1.2
sg2293
S'Theo'
p2964
sg2886
F1
sg2887
(lp2965
sbasS'HippyGirl001'
p2966
(lp2967
g1
(g10
g3
NtRp2968
(dp2969
g2862
F1
sg2863
F4
sg2864
F1.1499999999999999
sg2865
F1
sg2866
(lp2970
sg2868
F1.0900000000000001
sg2869
F1
sg2287
g2966
sg2870
F10
sg2871
F1.0800000000000001
sg2872
(lp2971
g2395
ag2502
ag2547
asg2874
F1.1000000000000001
sg2875
F1.1499999999999999
sg2876
(lp2972
g2571
ag2767
ag2710
asg2878
F1.0800000000000001
sg2879
F1
sg2880
(lp2973
g2694
asg2882
S'Hippy'
p2974
sg2884
F1.2
sg2293
S'Hippy Girl'
p2975
sg2886
F1
sg2887
(lp2976
sbasS'President'
p2977
(lp2978
g1
(g10
g3
NtRp2979
(dp2980
g2862
F1
sg2863
F4
sg2864
F1.1499999999999999
sg2865
F1
sg2866
(lp2981
sg2868
F1.0900000000000001
sg2869
F1
sg2287
g2977
sg2870
F10
sg2871
F1.0800000000000001
sg2872
(lp2982
g2775
ag2595
ag2304
ag2694
ag2737
asg2874
F1.1000000000000001
sg2875
F1.1499999999999999
sg2876
(lp2983
g2626
ag2419
ag2710
asg2878
F1.0800000000000001
sg2879
F1
sg2880
(lp2984
sg2882
S'Politician'
p2985
sg2884
F1.2
sg2293
S'President Allen'
p2986
sg2886
F1
sg2887
(lp2987
sbasS'Unionist001'
p2988
(lp2989
g1
(g10
g3
NtRp2990
(dp2991
g2862
F1
sg2863
F4
sg2864
F1.1499999999999999
sg2865
F1
sg2866
(lp2992
sg2868
F1.0900000000000001
sg2869
F1
sg2287
g2988
sg2870
F10
sg2871
F1.0800000000000001
sg2872
(lp2993
g2729
ag2737
ag2502
asg2874
F1.1000000000000001
sg2875
F1.1499999999999999
sg2876
(lp2994
g2587
asg2878
F1.0800000000000001
sg2879
F1
sg2880
(lp2995
sg2882
S'Unionist'
p2996
sg2884
F1.2
sg2293
S'Unionist'
p2997
sg2886
F1
sg2887
(lp2998
sbasS'Wife'
p2999
(lp3000
g1
(g10
g3
NtRp3001
(dp3002
g2862
F1
sg2863
F4
sg2864
F1.1499999999999999
sg2865
F1
sg2866
(lp3003
sg2868
F1.0900000000000001
sg2869
F1
sg2287
g2999
sg2870
F12
sg2871
F1.0800000000000001
sg2872
(lp3004
g2737
ag2775
asg2874
F1.1000000000000001
sg2875
F1.1499999999999999
sg2876
(lp3005
g2767
ag2710
ag2427
asg2878
F1.0800000000000001
sg2879
F1
sg2880
(lp3006
sg2882
S'Wife'
p3007
sg2884
F1.2
sg2293
S'Sarah Mossman'
p3008
sg2886
F1
sg2887
(lp3009
sbasS'PresidentAlien'
p3010
(lp3011
g1
(g10
g3
NtRp3012
(dp3013
g2862
F1
sg2863
F4
sg2864
F1.1499999999999999
sg2865
F1
sg2866
(lp3014
sg2868
F1.0900000000000001
sg2869
F1
sg2287
g3010
sg2870
F10
sg2871
F1.0800000000000001
sg2872
(lp3015
g2775
ag2595
ag2304
ag2694
ag2737
asg2874
F1.1000000000000001
sg2875
F1.1499999999999999
sg2876
(lp3016
g2626
ag2419
ag2710
asg2878
F1.0800000000000001
sg2879
F1
sg2880
(lp3017
sg2882
S'Politician'
p3018
sg2884
F1.2
sg2293
S'President Alien'
p3019
sg2886
F1
sg2887
(lp3020
sbasS'Governor'
p3021
(lp3022
g1
(g10
g3
NtRp3023
(dp3024
g2862
F1
sg2863
F4
sg2864
F1.1499999999999999
sg2865
F1
sg2866
(lp3025
sg2868
F1.0900000000000001
sg2869
F1
sg2287
g3021
sg2870
F10
sg2871
F1.0800000000000001
sg2872
(lp3026
g2775
ag2595
ag2304
ag2694
ag2737
asg2874
F1.1000000000000001
sg2875
F1.1499999999999999
sg2876
(lp3027
g2626
ag2419
ag2710
asg2878
F1.0800000000000001
sg2879
F1
sg2880
(lp3028
sg2882
S'Politician'
p3029
sg2884
F1.2
sg2293
g3021
sg2886
F1
sg2887
(lp3030
sbasS'Lobbyist001'
p3031
(lp3032
g1
(g10
g3
NtRp3033
(dp3034
g2862
F1
sg2863
F4
sg2864
F1.1499999999999999
sg2865
F1
sg2866
(lp3035
sg2868
F1.0900000000000001
sg2869
F1
sg2287
g3031
sg2870
F10
sg2871
F1.0800000000000001
sg2872
(lp3036
g2518
ag2729
asg2874
F1.1000000000000001
sg2875
F1.1499999999999999
sg2876
(lp3037
g2642
ag2475
asg2878
F1.0800000000000001
sg2879
F1
sg2880
(lp3038
g2678
asg2882
S'Lobbyist'
p3039
sg2884
F1.2
sg2293
S'Lobbyist'
p3040
sg2886
F1
sg2887
(lp3041
g2387
asbasS'Journalist001'
p3042
(lp3043
g1
(g10
g3
NtRp3044
(dp3045
g2862
F1
sg2863
F4
sg2864
F1.1499999999999999
sg2865
F1
sg2866
(lp3046
sg2868
F1.0900000000000001
sg2869
F1
sg2287
g3042
sg2870
F10
sg2871
F1.0800000000000001
sg2872
(lp3047
g2357
ag2751
asg2874
F1.1000000000000001
sg2875
F1.1499999999999999
sg2876
(lp3048
g2555
ag2259
ag2333
asg2878
F1.0800000000000001
sg2879
F1
sg2880
(lp3049
sg2882
S'Journalist'
p3050
sg2884
F1.2
sg2293
S'Journalist'
p3051
sg2886
F1
sg2887
(lp3052
sbasS'ReligiousNut001'
p3053
(lp3054
g1
(g10
g3
NtRp3055
(dp3056
g2862
F1
sg2863
F4
sg2864
F1.1499999999999999
sg2865
F1
sg2866
(lp3057
sg2868
F1.0900000000000001
sg2869
F1
sg2287
g3053
sg2870
F10
sg2871
F1.0800000000000001
sg2872
(lp3058
g2341
ag2702
ag2737
asg2874
F1.1000000000000001
sg2875
F1.1499999999999999
sg2876
(lp3059
g2783
ag2462
asg2878
F1.0800000000000001
sg2879
F1
sg2880
(lp3060
sg2882
S'Religious'
p3061
sg2884
F1.2
sg2293
S'Religious Nut'
p3062
sg2886
F1
sg2887
(lp3063
g2694
asbasS'JointChief001'
p3064
(lp3065
g1
(g10
g3
NtRp3066
(dp3067
g2862
F1
sg2863
F4
sg2864
F1.1499999999999999
sg2865
F1
sg2866
(lp3068
sg2868
F1.0900000000000001
sg2869
F1
sg2287
g3064
sg2870
F10
sg2871
F1.0800000000000001
sg2872
(lp3069
g2729
ag2737
ag2759
ag2411
asg2874
F1.1000000000000001
sg2875
F1.1499999999999999
sg2876
(lp3070
g2539
asg2878
F1.0800000000000001
sg2879
F1
sg2880
(lp3071
sg2882
S'JointChief'
p3072
sg2884
F1.2
sg2293
S'Joint Chief'
p3073
sg2886
F1
sg2887
(lp3074
sbasS'Protester001'
p3075
(lp3076
g1
(g10
g3
NtRp3077
(dp3078
g2862
F1
sg2863
F4
sg2864
F1.1499999999999999
sg2865
F1
sg2866
(lp3079
sg2868
F1.0900000000000001
sg2869
F1
sg2287
g3075
sg2870
F10
sg2871
F1.0800000000000001
sg2872
(lp3080
g2502
ag2349
ag2395
asg2874
F1.1000000000000001
sg2875
F1.1499999999999999
sg2876
(lp3081
g2767
asg2878
F1.0800000000000001
sg2879
F1
sg2880
(lp3082
sg2882
S'Protestor'
p3083
sg2884
F1.2
sg2293
S'Protester'
p3084
sg2886
F1
sg2887
(lp3085
sbasS'TVPersonality001'
p3086
(lp3087
g1
(g10
g3
NtRp3088
(dp3089
g2862
F1
sg2863
F4
sg2864
F1.1499999999999999
sg2865
F1
sg2866
(lp3090
sg2868
F1.0900000000000001
sg2869
F1
sg2287
g3086
sg2870
F10
sg2871
F1.0800000000000001
sg2872
(lp3091
g2694
ag2357
asg2874
F1.1000000000000001
sg2875
F1.1499999999999999
sg2876
(lp3092
g2333
ag2318
asg2878
F1.0800000000000001
sg2879
F1
sg2880
(lp3093
sg2882
S'TVPersonality'
p3094
sg2884
F1.2
sg2293
S"Hecules O'Grady"
p3095
sg2886
F1
sg2887
(lp3096
sbasS'Player'
p3097
(lp3098
g1
(g10
g3
NtRp3099
(dp3100
g2862
F1
sg2863
F5
sg2864
F1.1499999999999999
sg2865
F1
sg2866
(lp3101
sg2868
F1.0900000000000001
sg2869
F1
sg2287
g3097
sg2870
F15
sg2871
F1.0800000000000001
sg2872
(lp3102
g2775
ag2304
ag2694
asg2874
F1.1000000000000001
sg2875
F1.1499999999999999
sg2876
(lp3103
g2626
ag2419
ag2767
asg2878
F1.0800000000000001
sg2879
F1
sg2880
(lp3104
sg2882
S'Player'
p3105
sg2884
F1.2
sg2293
S'Phillip Mossman'
p3106
sg2886
F2
sg2887
(lp3107
sbasS'Computer'
p3108
(lp3109
g1
(g10
g3
NtRp3110
(dp3111
g2862
F1
sg2863
F4
sg2864
F1.1499999999999999
sg2865
F1
sg2866
(lp3112
sg2868
F1.0900000000000001
sg2869
F1
sg2287
g3108
sg2870
F10
sg2871
F1.0800000000000001
sg2872
(lp3113
g2775
ag2595
ag2304
ag2694
ag2737
asg2874
F1.1000000000000001
sg2875
F1.1499999999999999
sg2876
(lp3114
g2626
ag2419
ag2710
asg2878
F1.0800000000000001
sg2879
F1
sg2880
(lp3115
sg2882
S'Politician'
p3116
sg2884
F1.2
sg2293
S'N.O.T.B.A.D'
p3117
sg2886
F1
sg2887
(lp3118
sbasS'CabinetPolitician001'
p3119
(lp3120
g1
(g10
g3
NtRp3121
(dp3122
g2862
F1
sg2863
F4
sg2864
F1.1499999999999999
sg2865
F1
sg2866
(lp3123
sg2868
F1.0900000000000001
sg2869
F1
sg2287
g3119
sg2870
F10
sg2871
F1.0800000000000001
sg2872
(lp3124
g2775
ag2595
ag2304
ag2694
ag2737
asg2874
F1.1000000000000001
sg2875
F1.1499999999999999
sg2876
(lp3125
g2626
ag2419
ag2710
asg2878
F1.0800000000000001
sg2879
F1
sg2880
(lp3126
sg2882
S'Politician'
p3127
sg2884
F1.2
sg2293
S'Cabinet Politician'
p3128
sg2886
F1
sg2887
(lp3129
sbasS'Constituent001'
p3130
(lp3131
g1
(g10
g3
NtRp3132
(dp3133
g2862
F1
sg2863
F4
sg2864
F1.1499999999999999
sg2865
F1
sg2866
(lp3134
sg2868
F1.0900000000000001
sg2869
F1
sg2287
g3130
sg2870
F10
sg2871
F1.0800000000000001
sg2872
(lp3135
g2502
ag2518
ag2729
asg2874
F1.1000000000000001
sg2875
F1.1499999999999999
sg2876
(lp3136
g2710
asg2878
F1.0800000000000001
sg2879
F1
sg2880
(lp3137
sg2882
S'Constituent'
p3138
sg2884
F1.2
sg2293
S'Constituent'
p3139
sg2886
F1
sg2887
(lp3140
sbasS'Mayor'
p3141
(lp3142
g1
(g10
g3
NtRp3143
(dp3144
g2862
F1
sg2863
F4
sg2864
F1.1499999999999999
sg2865
F1
sg2866
(lp3145
sg2868
F1.0900000000000001
sg2869
F1
sg2287
g3141
sg2870
F10
sg2871
F1.0800000000000001
sg2872
(lp3146
g2775
ag2595
ag2304
ag2694
ag2737
asg2874
F1.1000000000000001
sg2875
F1.1499999999999999
sg2876
(lp3147
g2626
ag2419
ag2710
asg2878
F1.0800000000000001
sg2879
F1
sg2880
(lp3148
sg2882
S'Politician'
p3149
sg2884
F1.2
sg2293
S'Mayor Goodman'
p3150
sg2886
F1
sg2887
(lp3151
sbassS'quest_items'
p3152
(dp3153
S'PEN'
p3154
g1
(g10
g3
NtRp3155
(dp3156
g2262
S''
sg2287
g3154
sg2293
S'A pen'
p3157
sbsS'INCRIMINATINGEVIDENCE'
p3158
g1
(g10
g3
NtRp3159
(dp3160
g2262
S''
sg2287
g3158
sg2293
S'Very incriminating proof that something troubling is going on in the White House.'
p3161
sbsS'BILLOFRIGHTS'
p3162
g1
(g10
g3
NtRp3163
(dp3164
g2262
S''
sg2287
g3162
sg2293
S"Citizens' Bill of Rights"
p3165
sbssg2872
(dp3166
S'Theo'
p3167
(lp3168
g2775
ag2595
ag2304
ag2694
ag2387
ag2626
ag2419
ag2678
ag2526
asS'JointChief'
p3169
(lp3170
g2729
ag2737
ag2759
ag2539
ag2411
asS'Politician'
p3171
(lp3172
g2775
ag2595
ag2304
ag2694
ag2626
ag2419
ag2710
ag2737
asS'Bumpkin'
p3173
(lp3174
g2694
ag2403
ag2510
ag2441
asS'TVPersonality'
p3175
(lp3176
g2694
ag2333
ag2357
ag2318
asS'SecretAgent'
p3177
(lp3178
g2737
ag2721
ag2759
ag2539
ag2563
asS'DeepThroat'
p3179
(lp3180
g2595
ag2737
ag2475
ag2729
asS'Protestor'
p3181
(lp3182
g2767
ag2502
ag2349
ag2395
asS'Lobbyist'
p3183
(lp3184
g2518
ag2642
ag2475
ag2729
asS'Teacher'
p3185
(lp3186
g2587
ag2737
ag2502
ag2767
asS'Player'
p3187
(lp3188
g2775
ag2304
ag2694
ag2626
ag2419
ag2767
asS'Computer'
p3189
(lp3190
g2539
ag2759
ag2365
ag2475
ag2729
ag2595
asS'Receptionist'
p3191
(lp3192
g2655
ag2603
ag2611
ag2373
asS'Hippy'
p3193
(lp3194
g2395
ag2502
ag2547
ag2571
ag2767
ag2710
asS'Constituent'
p3195
(lp3196
g2502
ag2710
ag2518
ag2729
asS'Wife'
p3197
(lp3198
g2767
ag2710
ag2737
ag2775
ag2427
asS'WarVet'
p3199
(lp3200
g2729
ag2737
ag2686
ag2767
asS'Religious'
p3201
(lp3202
g2341
ag2783
ag2462
ag2702
ag2737
asS'Unionist'
p3203
(lp3204
g2729
ag2737
ag2502
ag2587
asS'Journalist'
p3205
(lp3206
g2357
ag2751
ag2555
ag2259
ag2333
assS'shops'
p3207
(dp3208
sS'encounters'
p3209
(dp3210
S'P-easy-05'
p3211
g1
(g10
g3
NtRp3212
(dp3213
S'item_attack_drops'
p3214
(lp3215
g1
(c__main__
ItemAttack
p3216
g3
NtRp3217
(dp3218
S'attack'
p3219
g2579
sS'quantity'
p3220
I1
sbasS'item_attacks'
p3221
(lp3222
sg2293
S''
sg2797
F10
sS'monster2_lvl'
p3223
S''
sS'bribe_cost'
p3224
F50
sS'monster3'
p3225
S''
sS'monster1_lvl'
p3226
F1
sS'monster3_lvl'
p3227
S''
sS'monster4_lvl'
p3228
S''
sS'monster4'
p3229
S''
sS'monster2'
p3230
S''
sg2287
g3211
sS'monster1'
p3231
S'Journalist001'
p3232
sbsS'P-easy-04'
p3233
g1
(g10
g3
NtRp3234
(dp3235
g3214
(lp3236
g1
(g3216
g3
NtRp3237
(dp3238
g3219
g2449
sg3220
I1
sbasg3221
(lp3239
sg2293
S''
sg2797
F10
sg3223
F1
sg3224
F50
sg3225
S'Protester001'
p3240
sg3226
F1
sg3227
F1
sg3228
S''
sg3229
S''
sg3230
S'Protester001'
p3241
sg2287
g3233
sg3231
S'Protester001'
p3242
sbsS'P-easy-07'
p3243
g1
(g10
g3
NtRp3244
(dp3245
g3214
(lp3246
g1
(g3216
g3
NtRp3247
(dp3248
g3219
g2449
sg3220
I1
sbasg3221
(lp3249
sg2293
S''
sg2797
F10
sg3223
S''
sg3224
F50
sg3225
S''
sg3226
F1
sg3227
S''
sg3228
S''
sg3229
S''
sg3230
S''
sg2287
g3243
sg3231
S'Constituent001'
p3250
sbsS'P-easy-06'
p3251
g1
(g10
g3
NtRp3252
(dp3253
g3214
(lp3254
g1
(g3216
g3
NtRp3255
(dp3256
g3219
g2710
sg3220
I1
sbasg3221
(lp3257
sg2293
S''
sg2797
F10
sg3223
F1
sg3224
F50
sg3225
S''
sg3226
F1
sg3227
S''
sg3228
S''
sg3229
S''
sg3230
S'Lobbyist001'
p3258
sg2287
g3251
sg3231
S'Lobbyist001'
p3259
sbsS'P-easy-01'
p3260
g1
(g10
g3
NtRp3261
(dp3262
g3214
(lp3263
g1
(g3216
g3
NtRp3264
(dp3265
g3219
g2489
sg3220
I1
sbasg3221
(lp3266
g1
(g3216
g3
NtRp3267
(dp3268
g3219
g2579
sg3220
I1
sbasg2293
S'The quest for pen'
p3269
sg2797
F10
sg3223
S''
sg3224
F50
sg3225
S''
sg3226
F1
sg3227
S''
sg3228
S''
sg3229
S''
sg3230
S''
sg2287
g3260
sg3231
S'Receptionist001'
p3270
sbsS'P-easy-03'
p3271
g1
(g10
g3
NtRp3272
(dp3273
g3214
(lp3274
g1
(g3216
g3
NtRp3275
(dp3276
g3219
g2489
sg3220
I1
sbasg3221
(lp3277
sg2293
S''
sg2797
F10
sg3223
F1
sg3224
F50
sg3225
S''
sg3226
F1
sg3227
S''
sg3228
S''
sg3229
S''
sg3230
S'Protester001'
p3278
sg2287
g3271
sg3231
S'Protester001'
p3279
sbsS'P-easy-02'
p3280
g1
(g10
g3
NtRp3281
(dp3282
g3214
(lp3283
sg3221
(lp3284
sg2293
S''
sg2797
F10
sg3223
F1
sg3224
F50
sg3225
S''
sg3226
F1
sg3227
S''
sg3228
S''
sg3229
S''
sg3230
S'Protester001'
p3285
sg2287
g3280
sg3231
S'Protester001'
p3286
sbsS'P-easy-09'
p3287
g1
(g10
g3
NtRp3288
(dp3289
g3214
(lp3290
g1
(g3216
g3
NtRp3291
(dp3292
g3219
g2489
sg3220
I1
sbasg3221
(lp3293
sg2293
S''
sg2797
F10
sg3223
F1
sg3224
F50
sg3225
S'Constituent001'
p3294
sg3226
F1
sg3227
F1
sg3228
S''
sg3229
S''
sg3230
S'Constituent001'
p3295
sg2287
g3287
sg3231
S'Constituent001'
p3296
sbsS'P-easy-08'
p3297
g1
(g10
g3
NtRp3298
(dp3299
g3214
(lp3300
sg3221
(lp3301
sg2293
S''
sg2797
F10
sg3223
F1
sg3224
F50
sg3225
S''
sg3226
F1
sg3227
S''
sg3228
S''
sg3229
S''
sg3230
S'Constituent001'
p3302
sg2287
g3297
sg3231
S'Constituent001'
p3303
sbsS'P-med-08'
p3304
g1
(g10
g3
NtRp3305
(dp3306
g3214
(lp3307
sg3221
(lp3308
sg2293
S''
sg2797
F10
sg3223
F1
sg3224
F50
sg3225
S'Politician001'
p3309
sg3226
F1
sg3227
F1
sg3228
S''
sg3229
S''
sg3230
S'Politician001'
p3310
sg2287
g3304
sg3231
S'Politician001'
p3311
sbsS'P-med-09'
p3312
g1
(g10
g3
NtRp3313
(dp3314
g3214
(lp3315
sg3221
(lp3316
sg2293
S''
sg2797
F10
sg3223
F1
sg3224
F50
sg3225
S'Politician001'
p3317
sg3226
F1
sg3227
F1
sg3228
S''
sg3229
S''
sg3230
S'ReligiousNut001'
p3318
sg2287
g3312
sg3231
S'Politician001'
p3319
sbsS'P-med-02'
p3320
g1
(g10
g3
NtRp3321
(dp3322
g3214
(lp3323
sg3221
(lp3324
sg2293
S''
sg2797
F10
sg3223
F1
sg3224
F50
sg3225
S''
sg3226
F1
sg3227
S''
sg3228
S''
sg3229
S''
sg3230
S'Politician001'
p3325
sg2287
g3320
sg3231
S'Politician001'
p3326
sbsS'P-med-03'
p3327
g1
(g10
g3
NtRp3328
(dp3329
g3214
(lp3330
sg3221
(lp3331
sg2293
S''
sg2797
F10
sg3223
F1
sg3224
F50
sg3225
S''
sg3226
F1
sg3227
S''
sg3228
S''
sg3229
S''
sg3230
S'Bumpkin001'
p3332
sg2287
g3327
sg3231
S'Bumpkin001'
p3333
sbsS'P-med-01'
p3334
g1
(g10
g3
NtRp3335
(dp3336
g3214
(lp3337
sg3221
(lp3338
sg2293
S''
sg2797
F10
sg3223
F1
sg3224
F50
sg3225
S''
sg3226
F1
sg3227
S''
sg3228
S''
sg3229
S''
sg3230
S'Politician001'
p3339
sg2287
g3334
sg3231
S'Politician001'
p3340
sbsS'P-med-06'
p3341
g1
(g10
g3
NtRp3342
(dp3343
g3214
(lp3344
sg3221
(lp3345
sg2293
S''
sg2797
F10
sg3223
F1
sg3224
F50
sg3225
S'Politician001'
p3346
sg3226
F1
sg3227
F1
sg3228
S''
sg3229
S''
sg3230
S'Governor'
p3347
sg2287
g3341
sg3231
S'Politician001'
p3348
sbsS'P-med-07'
p3349
g1
(g10
g3
NtRp3350
(dp3351
g3214
(lp3352
sg3221
(lp3353
sg2293
S''
sg2797
F10
sg3223
F1
sg3224
F50
sg3225
S''
sg3226
F1
sg3227
S''
sg3228
S''
sg3229
S''
sg3230
S'Journalist001'
p3354
sg2287
g3349
sg3231
S'Politician001'
p3355
sbsS'P-med-04'
p3356
g1
(g10
g3
NtRp3357
(dp3358
g3214
(lp3359
sg3221
(lp3360
sg2293
S''
sg2797
F10
sg3223
F1
sg3224
F50
sg3225
S'Bumpkin001'
p3361
sg3226
F1
sg3227
F1
sg3228
S''
sg3229
S''
sg3230
S'Bumpkin001'
p3362
sg2287
g3356
sg3231
S'Bumpkin001'
p3363
sbsS'P-med-05'
p3364
g1
(g10
g3
NtRp3365
(dp3366
g3214
(lp3367
sg3221
(lp3368
sg2293
S''
sg2797
F10
sg3223
F1
sg3224
F50
sg3225
S'Politician001'
p3369
sg3226
F1
sg3227
F1
sg3228
S''
sg3229
S''
sg3230
S'Journalist001'
p3370
sg2287
g3364
sg3231
S'Journalist001'
p3371
sbsS'P-med-24'
p3372
g1
(g10
g3
NtRp3373
(dp3374
g3214
(lp3375
sg3221
(lp3376
sg2293
S''
sg2797
F10
sg3223
F1
sg3224
F50
sg3225
S'Politician001'
p3377
sg3226
F1
sg3227
F1
sg3228
S''
sg3229
S''
sg3230
S'PresidentAlien'
p3378
sg2287
g3372
sg3231
S'Politician001'
p3379
sbsS'P-med-20'
p3380
g1
(g10
g3
NtRp3381
(dp3382
g3214
(lp3383
sg3221
(lp3384
sg2293
S''
sg2797
F10
sg3223
F1
sg3224
F50
sg3225
S'Journalist001'
p3385
sg3226
F1
sg3227
F1
sg3228
S''
sg3229
S''
sg3230
S'TVPersonality001'
p3386
sg2287
g3380
sg3231
S'Journalist001'
p3387
sbsS'P-med-21'
p3388
g1
(g10
g3
NtRp3389
(dp3390
g3214
(lp3391
sg3221
(lp3392
sg2293
S''
sg2797
F10
sg3223
F1
sg3224
F50
sg3225
S'Politician001'
p3393
sg3226
F1
sg3227
F1
sg3228
S''
sg3229
S''
sg3230
S'President'
p3394
sg2287
g3388
sg3231
S'Politician001'
p3395
sbsS'P-med-22'
p3396
g1
(g10
g3
NtRp3397
(dp3398
g3214
(lp3399
sg3221
(lp3400
sg2293
S''
sg2797
F10
sg3223
F1
sg3224
F50
sg3225
S''
sg3226
F1
sg3227
S''
sg3228
S''
sg3229
S''
sg3230
S'DeepThroat'
p3401
sg2287
g3396
sg3231
S'DeepThroat'
p3402
sbsS'P-med-23'
p3403
g1
(g10
g3
NtRp3404
(dp3405
g3214
(lp3406
sg3221
(lp3407
sg2293
S''
sg2797
F10
sg3223
F1
sg3224
F50
sg3225
S'Politician001'
p3408
sg3226
F1
sg3227
F1
sg3228
F1
sg3229
S'Politician001'
p3409
sg3230
S'President'
p3410
sg2287
g3403
sg3231
S'Politician001'
p3411
sbsS'P-hard-04'
p3412
g1
(g10
g3
NtRp3413
(dp3414
g3214
(lp3415
sg3221
(lp3416
sg2293
S''
sg2797
F10
sg3223
F1
sg3224
F50
sg3225
S'WarVet001'
p3417
sg3226
F1
sg3227
F1
sg3228
S''
sg3229
S''
sg3230
S'WarVet001'
p3418
sg2287
g3412
sg3231
S'WarVet001'
p3419
sbsS'P-hard-05'
p3420
g1
(g10
g3
NtRp3421
(dp3422
g3214
(lp3423
sg3221
(lp3424
sg2293
S''
sg2797
F10
sg3223
F1
sg3224
F50
sg3225
S'WarVet001'
p3425
sg3226
F1
sg3227
F1
sg3228
F1
sg3229
S'WarVet001'
p3426
sg3230
S'WarVet001'
p3427
sg2287
g3420
sg3231
S'WarVet001'
p3428
sbsS'P-hard-02'
p3429
g1
(g10
g3
NtRp3430
(dp3431
g3214
(lp3432
sg3221
(lp3433
sg2293
S''
sg2797
F10
sg3223
F1
sg3224
F50
sg3225
S'Journalist001'
p3434
sg3226
F1
sg3227
F1
sg3228
S''
sg3229
S''
sg3230
S'TVPersonality001'
p3435
sg2287
g3429
sg3231
S'Journalist001'
p3436
sbsS'P-hard-03'
p3437
g1
(g10
g3
NtRp3438
(dp3439
g3214
(lp3440
sg3221
(lp3441
sg2293
S''
sg2797
F10
sg3223
F1
sg3224
F50
sg3225
S'Journalist001'
p3442
sg3226
F1
sg3227
F1
sg3228
S''
sg3229
S''
sg3230
S'Journalist001'
p3443
sg2287
g3437
sg3231
S'TVPersonality001'
p3444
sbsS'P-hard-01'
p3445
g1
(g10
g3
NtRp3446
(dp3447
g3214
(lp3448
sg3221
(lp3449
sg2293
S''
sg2797
F10
sg3223
F1
sg3224
F50
sg3225
S'Journalist001'
p3450
sg3226
F1
sg3227
F1
sg3228
S''
sg3229
S''
sg3230
S'Journalist001'
p3451
sg2287
g3445
sg3231
S'Journalist001'
p3452
sbsS'P-easy-10'
p3453
g1
(g10
g3
NtRp3454
(dp3455
g3214
(lp3456
sg3221
(lp3457
sg2293
S''
sg2797
F10
sg3223
F1
sg3224
F50
sg3225
S'Politician001'
p3458
sg3226
F1
sg3227
F1
sg3228
S''
sg3229
S''
sg3230
S'Mayor'
p3459
sg2287
g3453
sg3231
S'Politician001'
p3460
sbsS'P-med-19'
p3461
g1
(g10
g3
NtRp3462
(dp3463
g3214
(lp3464
sg3221
(lp3465
sg2293
S''
sg2797
F10
sg3223
F1
sg3224
F50
sg3225
S''
sg3226
F1
sg3227
S''
sg3228
S''
sg3229
S''
sg3230
S'DeepThroat'
p3466
sg2287
g3461
sg3231
S'DeepThroat'
p3467
sbsS'P-med-18'
p3468
g1
(g10
g3
NtRp3469
(dp3470
g3214
(lp3471
sg3221
(lp3472
sg2293
S''
sg2797
F10
sg3223
F1
sg3224
F50
sg3225
S'ReligiousNut001'
p3473
sg3226
F1
sg3227
F1
sg3228
F1
sg3229
S'ReligiousNut001'
p3474
sg3230
S'ReligiousNut001'
p3475
sg2287
g3468
sg3231
S'ReligiousNut001'
p3476
sbsS'P-med-15'
p3477
g1
(g10
g3
NtRp3478
(dp3479
g3214
(lp3480
sg3221
(lp3481
sg2293
S''
sg2797
F10
sg3223
F1
sg3224
F50
sg3225
S''
sg3226
F1
sg3227
S''
sg3228
S''
sg3229
S''
sg3230
S'ReligiousNut001'
p3482
sg2287
g3477
sg3231
S'ReligiousNut001'
p3483
sbsS'P-med-14'
p3484
g1
(g10
g3
NtRp3485
(dp3486
g3214
(lp3487
sg3221
(lp3488
sg2293
S''
sg2797
F10
sg3223
F1
sg3224
F50
sg3225
S'Lobbyist001'
p3489
sg3226
F1
sg3227
F1
sg3228
F1
sg3229
S'Lobbyist001'
p3490
sg3230
S'Lobbyist001'
p3491
sg2287
g3484
sg3231
S'Lobbyist001'
p3492
sbsS'P-med-17'
p3493
g1
(g10
g3
NtRp3494
(dp3495
g3214
(lp3496
sg3221
(lp3497
sg2293
S''
sg2797
F10
sg3223
F1
sg3224
F50
sg3225
S'ReligiousNut001'
p3498
sg3226
F1
sg3227
F1
sg3228
S''
sg3229
S''
sg3230
S'ReligiousNut001'
p3499
sg2287
g3493
sg3231
S'ReligiousNut001'
p3500
sbsS'P-med-16'
p3501
g1
(g10
g3
NtRp3502
(dp3503
g3214
(lp3504
sg3221
(lp3505
sg2293
S''
sg2797
F10
sg3223
F1
sg3224
F50
sg3225
S'ReligiousNut001'
p3506
sg3226
F1
sg3227
F1
sg3228
S''
sg3229
S''
sg3230
S'ReligiousNut001'
p3507
sg2287
g3501
sg3231
S'ReligiousNut001'
p3508
sbsS'P-med-11'
p3509
g1
(g10
g3
NtRp3510
(dp3511
g3214
(lp3512
sg3221
(lp3513
sg2293
S''
sg2797
F10
sg3223
F1
sg3224
F50
sg3225
S'Politician001'
p3514
sg3226
F1
sg3227
F1
sg3228
F1
sg3229
S'Politician001'
p3515
sg3230
S'Politician001'
p3516
sg2287
g3509
sg3231
S'Politician001'
p3517
sbsS'P-med-10'
p3518
g1
(g10
g3
NtRp3519
(dp3520
g3214
(lp3521
sg3221
(lp3522
sg2293
S''
sg2797
F10
sg3223
F1
sg3224
F50
sg3225
S'ReligiousNut001'
p3523
sg3226
F1
sg3227
F1
sg3228
S''
sg3229
S''
sg3230
S'Politician001'
p3524
sg2287
g3518
sg3231
S'Politician001'
p3525
sbsS'P-med-13'
p3526
g1
(g10
g3
NtRp3527
(dp3528
g3214
(lp3529
sg3221
(lp3530
sg2293
S''
sg2797
F10
sg3223
F1
sg3224
F50
sg3225
S'Lobbyist001'
p3531
sg3226
F1
sg3227
F1
sg3228
S''
sg3229
S''
sg3230
S'Lobbyist001'
p3532
sg2287
g3526
sg3231
S'Lobbyist001'
p3533
sbsS'P-med-12'
p3534
g1
(g10
g3
NtRp3535
(dp3536
g3214
(lp3537
sg3221
(lp3538
sg2293
S''
sg2797
F10
sg3223
F1
sg3224
F50
sg3225
S'Lobbyist001'
p3539
sg3226
F1
sg3227
F1
sg3228
S''
sg3229
S''
sg3230
S'Lobbyist001'
p3540
sg2287
g3534
sg3231
S'Lobbyist001'
p3541
sbssb.