ccopy_reg
_reconstructor
p1
(c__main__
GameData
p2
c__builtin__
object
p3
NtRp4
(dp5
S'script'
p6
(dp7
S'StairsToWhiteHouse'
p8
(lp9
g1
(c__main__
TableRow
p10
g3
NtRp11
(dp12
S'action'
p13
S'Label'
p14
sS'trigger'
p15
g8
sS'param'
p16
S'START'
p17
sS'dialog'
p18
S''
sbag1
(g10
g3
NtRp19
(dp20
g13
S'PlayerSay'
p21
sg15
S'StairsToWhiteHouse'
p22
sg16
S''
sg18
S"I can't go upstairs now, I have a job to do!"
p23
sbag1
(g10
g3
NtRp24
(dp25
g13
S'Jump'
p26
sg15
S'StairsToWhiteHouse'
p27
sg16
S'START'
p28
sg18
S''
sbasS'#----------------------------------------------------------------------------------------ACT 3 ----------------------------------------------------------------------------------------------------------------------------------------------------------------------------------------'
p29
(lp30
g1
(g10
g3
NtRp31
(dp32
g13
S''
sg15
g29
sg16
S''
sg18
S''
sbasS'Hick1'
p33
(lp34
g1
(g10
g3
NtRp35
(dp36
g13
S'RequireFlag'
p37
sg15
g33
sg16
S'STARTHICKS'
p38
sg18
S"Look at this guy's fancy tie!"
p39
sbag1
(g10
g3
NtRp40
(dp41
g13
S'PlayerSay'
p42
sg15
S'Hick1'
p43
sg16
S''
sg18
S'What brings you to the office of the governor?'
p44
sbag1
(g10
g3
NtRp45
(dp46
g13
S'Say'
p47
sg15
S'Hick1'
p48
sg16
S''
sg18
S'The immigrants!'
p49
sbag1
(g10
g3
NtRp50
(dp51
g13
S'PlayerSay'
p52
sg15
S'Hick1'
p53
sg16
S''
sg18
S'What happened?'
p54
sbag1
(g10
g3
NtRp55
(dp56
g13
S'Say'
p57
sg15
S'Hick1'
p58
sg16
S'Hick2'
p59
sg18
S"They're coming!"
p60
sbag1
(g10
g3
NtRp61
(dp62
g13
S'PlayerSay'
p63
sg15
S'Hick1'
p64
sg16
S''
sg18
S'The...immigrants are coming?'
p65
sbag1
(g10
g3
NtRp66
(dp67
g13
S'Say'
p68
sg15
S'Hick1'
p69
sg16
S'Hick2'
p70
sg18
S'Yes, to steal our jobs and our wives!'
p71
sbag1
(g10
g3
NtRp72
(dp73
g13
S'Say'
p74
sg15
S'Hick1'
p75
sg16
S''
sg18
S'They have to be stopped!'
p76
sbag1
(g10
g3
NtRp77
(dp78
g13
S'PlayerSay'
p79
sg15
S'Hick1'
p80
sg16
S''
sg18
S"I don't think the immigrants are coming to steal your wives..."
p81
sbag1
(g10
g3
NtRp82
(dp83
g13
S'Say'
p84
sg15
S'Hick1'
p85
sg16
S'Journalist2'
p86
sg18
S'Mayor Mossman sides with the immigrants! I need to get this to print!'
p87
sbag1
(g10
g3
NtRp88
(dp89
g13
S'PlayerSay'
p90
sg15
S'Hick1'
p91
sg16
S''
sg18
S'Wait a second, let me explain.'
p92
sbag1
(g10
g3
NtRp93
(dp94
g13
S'Encounter'
p95
sg15
S'Hick1'
p96
sg16
S'P-med-03'
p97
sg18
S''
sbag1
(g10
g3
NtRp98
(dp99
g13
S'Say'
p100
sg15
S'Hick1'
p101
sg16
S''
sg18
S"You're a smart guy. I think I can trust you."
p102
sbag1
(g10
g3
NtRp103
(dp104
g13
S'SetFlag'
p105
sg15
S'Hick1'
p106
sg16
S'STARTHICKS2'
p107
sg18
S''
sbag1
(g10
g3
NtRp108
(dp109
g13
S'Increment'
p110
sg15
S'Hick1'
p111
sg16
S'DEALWITHHICKS'
p112
sg18
S''
sbag1
(g10
g3
NtRp113
(dp114
g13
S'Destroy'
p115
sg15
S'Hick1'
p116
sg16
S''
sg18
S''
sbasS'Hick2'
p117
(lp118
g1
(g10
g3
NtRp119
(dp120
g13
S'RequireFlag'
p121
sg15
g117
sg16
S'STARTHICKS2'
p122
sg18
S"Aw....I'm shy...talk to my buddy..."
p123
sbag1
(g10
g3
NtRp124
(dp125
g13
S'Encounter'
p126
sg15
S'Hick2'
p127
sg16
S'P-med-04'
p128
sg18
S''
sbag1
(g10
g3
NtRp129
(dp130
g13
S'Say'
p131
sg15
S'Hick2'
p132
sg16
S''
sg18
S"Wowee. We've been waiting for days and the governor has ignored us. If you ever run for governor, you'll have my vote!"
p133
sbag1
(g10
g3
NtRp134
(dp135
g13
S'Increment'
p136
sg15
S'Hick2'
p137
sg16
S'DEALWITHHICKS'
p138
sg18
S''
sbag1
(g10
g3
NtRp139
(dp140
g13
S'Destroy'
p141
sg15
S'Hick2'
p142
sg16
S''
sg18
S''
sbasS'Cabinet1'
p143
(lp144
g1
(g10
g3
NtRp145
(dp146
g13
S'Say'
p147
sg15
g143
sg16
S''
sg18
S'Good afternoon, Mr President. How can I help?'
p148
sbag1
(g10
g3
NtRp149
(dp150
g13
S'PlayerSay'
p151
sg15
S'Cabinet1'
p152
sg16
S''
sg18
S'I want to know where the orders to mobilise the military and reallocate education funds came from.'
p153
sbag1
(g10
g3
NtRp154
(dp155
g13
S'Say'
p156
sg15
S'Cabinet1'
p157
sg16
S''
sg18
S'But...it came from you, sir. They were both faxed over to me this afternoon.'
p158
sbag1
(g10
g3
NtRp159
(dp160
g13
S'PlayerSay'
p161
sg15
S'Cabinet1'
p162
sg16
S''
sg18
S'Tell me every detail.'
p163
sbag1
(g10
g3
NtRp164
(dp165
g13
S'Encounter'
p166
sg15
S'Cabinet1'
p167
sg16
S'P-hard-08'
p168
sg18
S''
sbag1
(g10
g3
NtRp169
(dp170
g13
S'Increment'
p171
sg15
S'Cabinet1'
p172
sg16
S'CABINETMEMBERS'
p173
sg18
S''
sbag1
(g10
g3
NtRp174
(dp175
g13
S'Say'
p176
sg15
S'Cabinet1'
p177
sg16
S''
sg18
S'I cannot understand how this could happen.'
p178
sbag1
(g10
g3
NtRp179
(dp180
g13
S'Destroy'
p181
sg15
S'Cabinet1'
p182
sg16
S''
sg18
S''
sbasS'Politician7'
p183
(lp184
g1
(g10
g3
NtRp185
(dp186
g13
S'RequireFlag'
p187
sg15
g183
sg16
S'STARTPOLITICIANSHAKEDOWN'
p188
sg18
S'Good morning, Governor Mossman. Your PA will know your schedule. He is waiting beside the stairs'
p189
sbag1
(g10
g3
NtRp190
(dp191
g13
S'Say'
p192
sg15
S'Politician7'
p193
sg16
S''
sg18
S"I believe in captialism. Let business sort itself out. They shouldn't need to rely on government handouts."
p194
sbag1
(g10
g3
NtRp195
(dp196
g13
S'Say'
p197
sg15
S'Politician7'
p198
sg16
S''
sg18
S'Also, I think politicians need a raise. Some more than others...oh and life-long retainers.'
p199
sbag1
(g10
g3
NtRp200
(dp201
g13
S'PlayerSay'
p202
sg15
S'Politician7'
p203
sg16
S''
sg18
S'So, no more hand-outs for business but more handouts for politicians?'
p204
sbag1
(g10
g3
NtRp205
(dp206
g13
S'Say'
p207
sg15
S'Politician7'
p208
sg16
S''
sg18
S'Yes!'
p209
sbag1
(g10
g3
NtRp210
(dp211
g13
S'PlayerSay'
p212
sg15
S'Politician7'
p213
sg16
S''
sg18
S'Does that serve your constituents?'
p214
sbag1
(g10
g3
NtRp215
(dp216
g13
S'Say'
p217
sg15
S'Politician7'
p218
sg16
S''
sg18
S'...It serves...some...'
p219
sbag1
(g10
g3
NtRp220
(dp221
g13
S'Encounter'
p222
sg15
S'Politician7'
p223
sg16
S'P-med-11'
p224
sg18
S''
sbag1
(g10
g3
NtRp225
(dp226
g13
S'Say'
p227
sg15
S'Politician7'
p228
sg16
S''
sg18
S'Right, I guess we need to handle the needs of our constituents, too.'
p229
sbag1
(g10
g3
NtRp230
(dp231
g13
S'Increment'
p232
sg15
S'Politician7'
p233
sg16
S'POLITICIANSHAKEDOWN'
p234
sg18
S''
sbag1
(g10
g3
NtRp235
(dp236
g13
S'Destroy'
p237
sg15
S'Politician7'
p238
sg16
S''
sg18
S''
sbasS'TVDebate'
p239
(lp240
g1
(g10
g3
NtRp241
(dp242
g13
S'RequireFlag'
p243
sg15
g239
sg16
S'STARTDEBATE'
p244
sg18
S"Hmmm? Oh, sorry, I'm on the phone to the studio."
p245
sbag1
(g10
g3
NtRp246
(dp247
g13
S'Say'
p248
sg15
S'TVDebate'
p249
sg16
S''
sg18
S"Good evening, Governor Mossman. If you'll follow me, I'll take you to the studio."
p250
sbag1
(g10
g3
NtRp251
(dp252
g13
S'Encounter'
p253
sg15
S'TVDebate'
p254
sg16
S'P-med-21'
p255
sg18
S''
sbag1
(g10
g3
NtRp256
(dp257
g13
S'Say'
p258
sg15
S'TVDebate'
p259
sg16
S''
sg18
S'Great work tonight, Governor Mossman and congratulations on the win!'
p260
sbag1
(g10
g3
NtRp261
(dp262
g13
S'SetFlag'
p263
sg15
S'TVDebate'
p264
sg16
S'DEBATECOMPLETE'
p265
sg18
S''
sbag1
(g10
g3
NtRp266
(dp267
g13
S'Destroy'
p268
sg15
S'TVDebate'
p269
sg16
S''
sg18
S''
sbasS'Lobbyist2'
p270
(lp271
g1
(g10
g3
NtRp272
(dp273
g13
S'RequireFlag'
p274
sg15
g270
sg16
S'STARTLOBBYISTS'
p275
sg18
S'Humph'
p276
sbag1
(g10
g3
NtRp277
(dp278
g13
S'Say'
p279
sg15
S'Lobbyist2'
p280
sg16
S''
sg18
S'I represent the Python Software Foundation. What will you do to promote, protect and advance the Python programming language?'
p281
sbag1
(g10
g3
NtRp282
(dp283
g13
S'PlayerSay'
p284
sg15
S'Lobbyist2'
p285
sg16
S''
sg18
S"Ah yes, the Python cause! I'm a big advocate of Python."
p286
sbag1
(g10
g3
NtRp287
(dp288
g13
S'Encounter'
p289
sg15
S'Lobbyist2'
p290
sg16
S'P-med-12'
p291
sg18
S''
sbag1
(g10
g3
NtRp292
(dp293
g13
S'Increment'
p294
sg15
S'Lobbyist2'
p295
sg16
S'LOBBYISTS'
p296
sg18
S''
sbag1
(g10
g3
NtRp297
(dp298
g13
S'Say'
p299
sg15
S'Lobbyist2'
p300
sg16
S''
sg18
S'I think we can help each other out.'
p301
sbag1
(g10
g3
NtRp302
(dp303
g13
S'Destroy'
p304
sg15
S'Lobbyist2'
p305
sg16
S''
sg18
S''
sbasS'CheatAct2'
p306
(lp307
g1
(g10
g3
NtRp308
(dp309
g13
S'AddAlly'
p310
sg15
g306
sg16
S'Wife:1'
p311
sg18
S''
sbag1
(g10
g3
NtRp312
(dp313
g13
S'LearnAttack'
p314
sg15
S'CheatAct2'
p315
sg16
S'BRIBE'
p316
sg18
S''
sbag1
(g10
g3
NtRp317
(dp318
g13
S'LearnAttack'
p319
sg15
S'CheatAct2'
p320
sg16
S'Wife:BRIBE'
p321
sg18
S''
sbag1
(g10
g3
NtRp322
(dp323
g13
S'LearnAttack'
p324
sg15
S'CheatAct2'
p325
sg16
S'SLANDER'
p326
sg18
S''
sbag1
(g10
g3
NtRp327
(dp328
g13
S'GotoMap'
p329
sg15
S'CheatAct2'
p330
sg16
S'act2'
p331
sg18
S''
sbasS'CheatAct3'
p332
(lp333
g1
(g10
g3
NtRp334
(dp335
g13
S'AddAlly'
p336
sg15
g332
sg16
S'Wife:1'
p337
sg18
S''
sbag1
(g10
g3
NtRp338
(dp339
g13
S'LearnAttack'
p340
sg15
S'CheatAct3'
p341
sg16
S'BRIBE'
p342
sg18
S''
sbag1
(g10
g3
NtRp343
(dp344
g13
S'LearnAttack'
p345
sg15
S'CheatAct3'
p346
sg16
S'Wife:BRIBE'
p347
sg18
S''
sbag1
(g10
g3
NtRp348
(dp349
g13
S'LearnAttack'
p350
sg15
S'CheatAct3'
p351
sg16
S'SLANDER'
p352
sg18
S''
sbag1
(g10
g3
NtRp353
(dp354
g13
S'AddAlly'
p355
sg15
S'CheatAct3'
p356
sg16
S'Leo:1'
p357
sg18
S''
sbag1
(g10
g3
NtRp358
(dp359
g13
S'GotoMap'
p360
sg15
S'CheatAct3'
p361
sg16
S'act3'
p362
sg18
S''
sbasS'StairsToL1'
p363
(lp364
g1
(g10
g3
NtRp365
(dp366
g13
S'Label'
p367
sg15
g363
sg16
S'START'
p368
sg18
S''
sbag1
(g10
g3
NtRp369
(dp370
g13
S'GotoMap'
p371
sg15
S'StairsToL1'
p372
sg16
S'hotel_l1'
p373
sg18
S''
sbag1
(g10
g3
NtRp374
(dp375
g13
S'Jump'
p376
sg15
S'StairsToL1'
p377
sg16
S'START'
p378
sg18
S''
sbasS'DoorToCabinetRoom'
p379
(lp380
g1
(g10
g3
NtRp381
(dp382
g13
S'RequireItemPlayerSay'
p383
sg15
g379
sg16
S'CABINETROOMKEY'
p384
sg18
S'The door appears to be locked, and no amount of gesticulating can attract the attention of the inhabitants of this room.'
p385
sbag1
(g10
g3
NtRp386
(dp387
g13
S'Destroy'
p388
sg15
S'DoorToCabinetRoom'
p389
sg16
S''
sg18
S''
sbag1
(g10
g3
NtRp390
(dp391
g13
S'Message'
p392
sg15
S'DoorToCabinetRoom'
p393
sg16
S''
sg18
S'The door opens with a squeak.'
p394
sbasS'WarVet1'
p395
(lp396
g1
(g10
g3
NtRp397
(dp398
g13
S'Say'
p399
sg15
g395
sg16
S''
sg18
S"You think you can fool me? I wasn't born yesterday, you know."
p400
sbag1
(g10
g3
NtRp401
(dp402
g13
S'PlayerSay'
p403
sg15
S'WarVet1'
p404
sg16
S''
sg18
S"I'm sorry, sir, but what seems to be the problem."
p405
sbag1
(g10
g3
NtRp406
(dp407
g13
S'Say'
p408
sg15
S'WarVet1'
p409
sg16
S''
sg18
S"You think I don't know a mobilising army when I see one? You're clearly readying for war and you think you don't even need to mention it to the people."
p410
sbag1
(g10
g3
NtRp411
(dp412
g13
S'Say'
p413
sg15
S'WarVet1'
p414
sg16
S'WarVet2'
p415
sg18
S"And don't forget that he's barely a cadet, Wilfred."
p416
sbag1
(g10
g3
NtRp417
(dp418
g13
S'Say'
p419
sg15
S'WarVet1'
p420
sg16
S''
sg18
S"Right you are, Arnold, You've barely set foot in this building and you're already leading us to war. Who do you think you're dealing with? We won't stand."
p421
sbag1
(g10
g3
NtRp422
(dp423
g13
S'Encounter'
p424
sg15
S'WarVet1'
p425
sg16
S'P-hard-04'
p426
sg18
S''
sbag1
(g10
g3
NtRp427
(dp428
g13
S'Say'
p429
sg15
S'WarVet1'
p430
sg16
S''
sg18
S"Seems like a flimsy excuse, you didn't know. Better get your troops in line if you want 'em to march, boy."
p431
sbag1
(g10
g3
NtRp432
(dp433
g13
S'Increment'
p434
sg15
S'WarVet1'
p435
sg16
S'WARVETS'
p436
sg18
S''
sbag1
(g10
g3
NtRp437
(dp438
g13
S'SetFlag'
p439
sg15
S'WarVet1'
p440
sg16
S'AFTERWILFRED'
p441
sg18
S''
sbag1
(g10
g3
NtRp442
(dp443
g13
S'Destroy'
p444
sg15
S'WarVet1'
p445
sg16
S''
sg18
S''
sbasS'Teacher2'
p446
(lp447
g1
(g10
g3
NtRp448
(dp449
g13
S'Say'
p450
sg15
g446
sg16
S''
sg18
S"You cannot gamble with the future, Mr President. Childrens' education is at stake!"
p451
sbag1
(g10
g3
NtRp452
(dp453
g13
S'PlayerSay'
p454
sg15
S'Teacher2'
p455
sg16
S''
sg18
S"I can assure you this isn't so..."
p456
sbag1
(g10
g3
NtRp457
(dp458
g13
S'Encounter'
p459
sg15
S'Teacher2'
p460
sg16
S'P-hard-07'
p461
sg18
S''
sbag1
(g10
g3
NtRp462
(dp463
g13
S'Say'
p464
sg15
S'Teacher2'
p465
sg16
S''
sg18
S'We will await a change from your government.'
p466
sbag1
(g10
g3
NtRp467
(dp468
g13
S'Increment'
p469
sg15
S'Teacher2'
p470
sg16
S'TEACHERS'
p471
sg18
S''
sbag1
(g10
g3
NtRp472
(dp473
g13
S'Destroy'
p474
sg15
S'Teacher2'
p475
sg16
S''
sg18
S''
sbasS'StairsToWhiteHouseBasement'
p476
(lp477
g1
(g10
g3
NtRp478
(dp479
g13
S'GotoMap'
p480
sg15
g476
sg16
S'act3_basement'
p481
sg18
S''
sbasS'Kawalski'
p482
(lp483
g1
(g10
g3
NtRp484
(dp485
g13
S'RequireFlag'
p486
sg15
g482
sg16
S'ACCESSKAWALSKI'
p487
sg18
S"I'm not allowed to speak to you, sir."
p488
sbag1
(g10
g3
NtRp489
(dp490
g13
S'Say'
p491
sg15
S'Kawalski'
p492
sg16
S''
sg18
S'A pleasure to meet you, President Mossman. I am Agent Kawalski, your security detail.'
p493
sbag1
(g10
g3
NtRp494
(dp495
g13
S'PlayerSay'
p496
sg15
S'Kawalski'
p497
sg16
S''
sg18
S'Great to meet you, Agent Kawalski. What do I need to know?'
p498
sbag1
(g10
g3
NtRp499
(dp500
g13
S'Say'
p501
sg15
S'Kawalski'
p502
sg16
S''
sg18
S'Well actually, it does have to do with your security. Something terrible is happening at the White House.'
p503
sbag1
(g10
g3
NtRp504
(dp505
g13
S'PlayerSay'
p506
sg15
S'Kawalski'
p507
sg16
S''
sg18
S"If you're trying to warn me about the aliens, it's under control."
p508
sbag1
(g10
g3
NtRp509
(dp510
g13
S'Say'
p511
sg15
S'Kawalski'
p512
sg16
S''
sg18
S'No, no, this is different. I think somebody is trying to take over the White House.'
p513
sbag1
(g10
g3
NtRp514
(dp515
g13
S'PlayerSay'
p516
sg15
S'Kawalski'
p517
sg16
S''
sg18
S"Wouldn't we know?"
p518
sbag1
(g10
g3
NtRp519
(dp520
g13
S'Say'
p521
sg15
S'Kawalski'
p522
sg16
S''
sg18
S"It's too early for those kind of details. I just want you to keep your eyes open, Mr President."
p523
sbag1
(g10
g3
NtRp524
(dp525
g13
S'PlayerSay'
p526
sg15
S'Kawalski'
p527
sg16
S''
sg18
S'No problem.'
p528
sbag1
(g10
g3
NtRp529
(dp530
g13
S'Destroy'
p531
sg15
S'Kawalski'
p532
sg16
S''
sg18
S''
sbag1
(g10
g3
NtRp533
(dp534
g13
S'AddAlly'
p535
sg15
S'Kawalski'
p536
sg16
S'SecretAgent:1'
p537
sg18
S'Kawalski joins your political party!'
p538
sbag1
(g10
g3
NtRp539
(dp540
g13
S'SetFlag'
p541
sg15
S'Kawalski'
p542
sg16
S'KAWALSKIJOIN'
p543
sg18
S''
sbasS'Theo'
p544
(lp545
g1
(g10
g3
NtRp546
(dp547
g13
S'RequireFlag'
p548
sg15
g544
sg16
S'GOVERNORDEFEATED'
p549
sg18
S'The Governor is in the north wing.'
p550
sbag1
(g10
g3
NtRp551
(dp552
g13
S'Say'
p553
sg15
S'Theo'
p554
sg16
S''
sg18
S"You must be Governor Mossman. I am Theo. I've been looking for you, but I wanted to see how you handled Governor Badden"
p555
sbag1
(g10
g3
NtRp556
(dp557
g13
S'PlayerSay'
p558
sg15
S'Theo'
p559
sg16
S''
sg18
S'Hi Theo. Why have you been looking for me?'
p560
sbag1
(g10
g3
NtRp561
(dp562
g13
S'Say'
p563
sg15
S'Theo'
p564
sg16
S''
sg18
S"There's a lot going on in Ignited States politics and none of it is good. Somebody needs to get up there and find out what's going on."
p565
sbag1
(g10
g3
NtRp566
(dp567
g13
S'Say'
p568
sg15
S'Theo'
p569
sg16
S''
sg18
S"I couldn't be sure which side you were on, but your dealings with the Governor prove that you're not with them."
p570
sbag1
(g10
g3
NtRp571
(dp572
g13
S'PlayerSay'
p573
sg15
S'Theo'
p574
sg16
S''
sg18
S'It sounds like it goes all the way to the President of the Ignited States.'
p575
sbag1
(g10
g3
NtRp576
(dp577
g13
S'Say'
p578
sg15
S'Theo'
p579
sg16
S''
sg18
S"It does. That's why I've been looking for you. The only way to find out is to flush them out. There's only one way to flush out President Allen."
p580
sbag1
(g10
g3
NtRp581
(dp582
g13
S'PlayerSay'
p583
sg15
S'Theo'
p584
sg16
S''
sg18
S"How's that?"
p585
sbag1
(g10
g3
NtRp586
(dp587
g13
S'Say'
p588
sg15
S'Theo'
p589
sg16
S''
sg18
S"...I've been a campaign manager for 20 years and I've never seen a candidate as strong as you. I think you have what it takes to run for the presidency."
p590
sbag1
(g10
g3
NtRp591
(dp592
g13
S'Say'
p593
sg15
S'Theo'
p594
sg16
S''
sg18
S"That's why I was looking for you. I need somebody who has a shot at winning in order to get to President Allen. You have that shot."
p595
sbag1
(g10
g3
NtRp596
(dp597
g13
S'PlayerSay'
p598
sg15
S'Theo'
p599
sg16
S''
sg18
S"You really think I can win? Well...I want to follow this through to the end, so I'm in!"
p600
sbag1
(g10
g3
NtRp601
(dp602
g13
S'Say'
p603
sg15
S'Theo'
p604
sg16
S''
sg18
S"Great! There's a lot to get organised! We need to plan our election campaign!"
p605
sbag1
(g10
g3
NtRp606
(dp607
g13
S'Destroy'
p608
sg15
S'Theo'
p609
sg16
S''
sg18
S''
sbag1
(g10
g3
NtRp610
(dp611
g13
S'AddAlly'
p612
sg15
S'Theo'
p613
sg16
S'Leo:1'
p614
sg18
S''
sbag1
(g10
g3
NtRp615
(dp616
g13
S'Message'
p617
sg15
S'Theo'
p618
sg16
S''
sg18
S'Theo joins your political party!'
p619
sbasS'Religious4'
p620
(lp621
g1
(g10
g3
NtRp622
(dp623
g13
S'Say'
p624
sg15
g620
sg16
S''
sg18
S'Do not be swayed by the seductive powers of tea!'
p625
sbag1
(g10
g3
NtRp626
(dp627
g13
S'Encounter'
p628
sg15
S'Religious4'
p629
sg16
S'P-med-18'
p630
sg18
S''
sbag1
(g10
g3
NtRp631
(dp632
g13
S'Increment'
p633
sg15
S'Religious4'
p634
sg16
S'RELIGIOUSNUTS'
p635
sg18
S''
sbag1
(g10
g3
NtRp636
(dp637
g13
S'Say'
p638
sg15
S'Religious4'
p639
sg16
S''
sg18
S'The Battycan will be satisfied with this news.'
p640
sbag1
(g10
g3
NtRp641
(dp642
g13
S'Destroy'
p643
sg15
S'Religious4'
p644
sg16
S''
sg18
S''
sbasS'JointChief1'
p645
(lp646
g1
(g10
g3
NtRp647
(dp648
g13
S'Say'
p649
sg15
g645
sg16
S''
sg18
S'Mr President, what is going on here? First you move troops without our authority and then you countermand your own order?'
p650
sbag1
(g10
g3
NtRp651
(dp652
g13
S'PlayerSay'
p653
sg15
S'JointChief1'
p654
sg16
S''
sg18
S"I haven't ordered the military to do any such thing! What is going on? Is this a coup?"
p655
sbag1
(g10
g3
NtRp656
(dp657
g13
S'Say'
p658
sg15
S'JointChief1'
p659
sg16
S''
sg18
S'Not from us!'
p660
sbag1
(g10
g3
NtRp661
(dp662
g13
S'Encounter'
p663
sg15
S'JointChief1'
p664
sg16
S'P-hard-11'
p665
sg18
S''
sbag1
(g10
g3
NtRp666
(dp667
g13
S'Increment'
p668
sg15
S'JointChief1'
p669
sg16
S'JOINTCHIEFS'
p670
sg18
S''
sbag1
(g10
g3
NtRp671
(dp672
g13
S'PlayerSay'
p673
sg15
S'JointChief1'
p674
sg16
S''
sg18
S"Well, that's one less thing to worry about then."
p675
sbag1
(g10
g3
NtRp676
(dp677
g13
S'Destroy'
p678
sg15
S'JointChief1'
p679
sg16
S''
sg18
S''
sbasS'Religious1'
p680
(lp681
g1
(g10
g3
NtRp682
(dp683
g13
S'Say'
p684
sg15
g680
sg16
S''
sg18
S'Have you had your morning prayer?'
p685
sbag1
(g10
g3
NtRp686
(dp687
g13
S'Encounter'
p688
sg15
S'Religious1'
p689
sg16
S'P-med-16'
p690
sg18
S''
sbag1
(g10
g3
NtRp691
(dp692
g13
S'Increment'
p693
sg15
S'Religious1'
p694
sg16
S'RELIGIOUSNUTS'
p695
sg18
S''
sbag1
(g10
g3
NtRp696
(dp697
g13
S'Say'
p698
sg15
S'Religious1'
p699
sg16
S''
sg18
S'Some people pray upwards of 5 times a day, but this can cause hallucinations.'
p700
sbag1
(g10
g3
NtRp701
(dp702
g13
S'Destroy'
p703
sg15
S'Religious1'
p704
sg16
S''
sg18
S''
sbasS'Religious3'
p705
(lp706
g1
(g10
g3
NtRp707
(dp708
g13
S'Say'
p709
sg15
g705
sg16
S''
sg18
S'Mmmmmm...Coffee....ommmmm'
p710
sbag1
(g10
g3
NtRp711
(dp712
g13
S'Encounter'
p713
sg15
S'Religious3'
p714
sg16
S'P-med-17'
p715
sg18
S''
sbag1
(g10
g3
NtRp716
(dp717
g13
S'Increment'
p718
sg15
S'Religious3'
p719
sg16
S'RELIGIOUSNUTS'
p720
sg18
S''
sbag1
(g10
g3
NtRp721
(dp722
g13
S'Say'
p723
sg15
S'Religious3'
p724
sg16
S''
sg18
S'I must return to my meditation.'
p725
sbag1
(g10
g3
NtRp726
(dp727
g13
S'Destroy'
p728
sg15
S'Religious3'
p729
sg16
S''
sg18
S''
sbasS'Religious2'
p730
(lp731
g1
(g10
g3
NtRp732
(dp733
g13
S'Say'
p734
sg15
g730
sg16
S''
sg18
S'Welcome, my child. We have travelled here from Battycan City to be assured you are a man of faith before we endorse you.'
p735
sbag1
(g10
g3
NtRp736
(dp737
g13
S'PlayerSay'
p738
sg15
S'Religious2'
p739
sg16
S''
sg18
S'Er, what faith is that?'
p740
sbag1
(g10
g3
NtRp741
(dp742
g13
S'Say'
p743
sg15
S'Religious2'
p744
sg16
S''
sg18
S'Why, the one true god: Coffee.'
p745
sbag1
(g10
g3
NtRp746
(dp747
g13
S'PlayerSay'
p748
sg15
S'Religious2'
p749
sg16
S''
sg18
S'...Coffee?'
p750
sbag1
(g10
g3
NtRp751
(dp752
g13
S'Say'
p753
sg15
S'Religious2'
p754
sg16
S''
sg18
S"Yes of course. He who lifts you up when you're feeling low, who is your inspiration in the dark and who can achieve miraculous feats of effort with dedicated prayer."
p755
sbag1
(g10
g3
NtRp756
(dp757
g13
S'PlayerSay'
p758
sg15
S'Religious2'
p759
sg16
S''
sg18
S'This may be a religion I can get behind.'
p760
sbag1
(g10
g3
NtRp761
(dp762
g13
S'Encounter'
p763
sg15
S'Religious2'
p764
sg16
S'P-med-15'
p765
sg18
S''
sbag1
(g10
g3
NtRp766
(dp767
g13
S'Increment'
p768
sg15
S'Religious2'
p769
sg16
S'RELIGIOUSNUTS'
p770
sg18
S''
sbag1
(g10
g3
NtRp771
(dp772
g13
S'Say'
p773
sg15
S'Religious2'
p774
sg16
S''
sg18
S'Wonderful, the Battycan will be most pleased.'
p775
sbag1
(g10
g3
NtRp776
(dp777
g13
S'Destroy'
p778
sg15
S'Religious2'
p779
sg16
S''
sg18
S''
sbasS'Constituent2'
p780
(lp781
g1
(g10
g3
NtRp782
(dp783
g13
S'RequireFlag'
p784
sg15
g780
sg16
S'STARTCONSTITUENTS'
p785
sg18
S'What?'
p786
sbag1
(g10
g3
NtRp787
(dp788
g13
S'PlayerSay'
p789
sg15
S'Constituent2'
p790
sg16
S''
sg18
S'Vote Phillip Mossman for Mayor!'
p791
sbag1
(g10
g3
NtRp792
(dp793
g13
S'Say'
p794
sg15
S'Constituent2'
p795
sg16
S''
sg18
S'But Mayor Goodman has always taken care of me.'
p796
sbag1
(g10
g3
NtRp797
(dp798
g13
S'Encounter'
p799
sg15
S'Constituent2'
p800
sg16
S'P-easy-08'
p801
sg18
S''
sbag1
(g10
g3
NtRp802
(dp803
g13
S'Say'
p804
sg15
S'Constituent2'
p805
sg16
S''
sg18
S"I think it's time for a change!"
p806
sbag1
(g10
g3
NtRp807
(dp808
g13
S'Destroy'
p809
sg15
S'Constituent2'
p810
sg16
S''
sg18
S''
sbasS'Constituent3'
p811
(lp812
g1
(g10
g3
NtRp813
(dp814
g13
S'RequireFlag'
p815
sg15
g811
sg16
S'STARTCONSTITUENTS'
p816
sg18
S'What?'
p817
sbag1
(g10
g3
NtRp818
(dp819
g13
S'PlayerSay'
p820
sg15
S'Constituent3'
p821
sg16
S''
sg18
S'Vote Phillip Mossman for Mayor!'
p822
sbag1
(g10
g3
NtRp823
(dp824
g13
S'Say'
p825
sg15
S'Constituent3'
p826
sg16
S''
sg18
S'But Mayor Goodman has always taken care of me.'
p827
sbag1
(g10
g3
NtRp828
(dp829
g13
S'Encounter'
p830
sg15
S'Constituent3'
p831
sg16
S'P-easy-09'
p832
sg18
S''
sbag1
(g10
g3
NtRp833
(dp834
g13
S'Say'
p835
sg15
S'Constituent3'
p836
sg16
S''
sg18
S"I think it's time for a change!"
p837
sbag1
(g10
g3
NtRp838
(dp839
g13
S'PlayerSay'
p840
sg15
S'Constituent3'
p841
sg16
S''
sg18
S"I think I'm ready to take on Mayor Goodman now!"
p842
sbag1
(g10
g3
NtRp843
(dp844
g13
S'SetFlag'
p845
sg15
S'Constituent3'
p846
sg16
S'CONSTITUENTSWON'
p847
sg18
S''
sbag1
(g10
g3
NtRp848
(dp849
g13
S'Destroy'
p850
sg15
S'Constituent3'
p851
sg16
S''
sg18
S''
sbasS'DeepThroat'
p852
(lp853
g1
(g10
g3
NtRp854
(dp855
g13
S'Say'
p856
sg15
g852
sg16
S''
sg18
S'Finally, I thought you were going to be too late.'
p857
sbag1
(g10
g3
NtRp858
(dp859
g13
S'PlayerSay'
p860
sg15
S'DeepThroat'
p861
sg16
S''
sg18
S'What can I do for you Mr er...?'
p862
sbag1
(g10
g3
NtRp863
(dp864
g13
S'Say'
p865
sg15
S'DeepThroat'
p866
sg16
S''
sg18
S"No names! I have something I think you'll be interested in, but I'm not sure you can be trusted."
p867
sbag1
(g10
g3
NtRp868
(dp869
g13
S'PlayerSay'
p870
sg15
S'DeepThroat'
p871
sg16
S''
sg18
S"Look, Mr Er...I'm very busy, what is this about?"
p872
sbag1
(g10
g3
NtRp873
(dp874
g13
S'Say'
p875
sg15
S'DeepThroat'
p876
sg16
S''
sg18
S"It's about the President, it's about national security, but I've got a bad feeling and I'm getting out of here."
p877
sbag1
(g10
g3
NtRp878
(dp879
g13
S'PlayerSay'
p880
sg15
S'DeepThroat'
p881
sg16
S''
sg18
S'No, wait!'
p882
sbag1
(g10
g3
NtRp883
(dp884
g13
S'Encounter'
p885
sg15
S'DeepThroat'
p886
sg16
S'P-med-19'
p887
sg18
S''
sbag1
(g10
g3
NtRp888
(dp889
g13
S'Say'
p890
sg15
S'DeepThroat'
p891
sg16
S''
sg18
S"You're right, I have every reason to trust you. I've found this Incriminating Evidence."
p892
sbag1
(g10
g3
NtRp893
(dp894
g13
S'GiveItem'
p895
sg15
S'DeepThroat'
p896
sg16
S'INCRIMINATINGEVIDENCE'
p897
sg18
S'You receive Incriminating Evidence'
p898
sbag1
(g10
g3
NtRp899
(dp900
g13
S'PlayerSay'
p901
sg15
S'DeepThroat'
p902
sg16
S''
sg18
S'This has to be stopped!'
p903
sbag1
(g10
g3
NtRp904
(dp905
g13
S'Say'
p906
sg15
S'DeepThroat'
p907
sg16
S''
sg18
S"Yes, but not by me. I've given you all I've got, now get out."
p908
sbag1
(g10
g3
NtRp909
(dp910
g13
S'RequireFlag'
p911
sg15
S'DeepThroat'
p912
sg16
S'DEEPTHROAT2'
p913
sg18
S'I said get out!'
p914
sbag1
(g10
g3
NtRp915
(dp916
g13
S'Say'
p917
sg15
S'DeepThroat'
p918
sg16
S''
sg18
S"It's a lot worse than I thought. I have more to tell you, but I don't think I should trust you. I think there's a leak in your operation somewhere."
p919
sbag1
(g10
g3
NtRp920
(dp921
g13
S'PlayerSay'
p922
sg15
S'DeepThroat'
p923
sg16
S''
sg18
S'Why do you say that?'
p924
sbag1
(g10
g3
NtRp925
(dp926
g13
S'Say'
p927
sg15
S'DeepThroat'
p928
sg16
S''
sg18
S'There was a lot of heat on me after we last spoke.'
p929
sbag1
(g10
g3
NtRp930
(dp931
g13
S'PlayerSay'
p932
sg15
S'DeepThroat'
p933
sg16
S''
sg18
S"It's getting close to the final election. It could just be that they're getting skittish."
p934
sbag1
(g10
g3
NtRp935
(dp936
g13
S'Say'
p937
sg15
S'DeepThroat'
p938
sg16
S''
sg18
S"I'm not so sure..."
p939
sbag1
(g10
g3
NtRp940
(dp941
g13
S'Encounter'
p942
sg15
S'DeepThroat'
p943
sg16
S'P-med-22'
p944
sg18
S''
sbag1
(g10
g3
NtRp945
(dp946
g13
S'Say'
p947
sg15
S'DeepThroat'
p948
sg16
S''
sg18
S"You're right, I'm just edgy. Look, I think you should be careful. I think the President is planning to KILL you in the final debate... politically."
p949
sbag1
(g10
g3
NtRp950
(dp951
g13
S'PlayerSay'
p952
sg15
S'DeepThroat'
p953
sg16
S''
sg18
S'You think he wants to silence me forever.... On the political stage?'
p954
sbag1
(g10
g3
NtRp955
(dp956
g13
S'Say'
p957
sg15
S'DeepThroat'
p958
sg16
S''
sg18
S'Yes I do. This could get really messy... politically speaking. So be careful!'
p959
sbag1
(g10
g3
NtRp960
(dp961
g13
S'SetFlag'
p962
sg15
S'DeepThroat'
p963
sg16
S'FINISHEDDEEPTHROAT'
p964
sg18
S''
sbag1
(g10
g3
NtRp965
(dp966
g13
S'Destroy'
p967
sg15
S'DeepThroat'
p968
sg16
S''
sg18
S''
sbasS'Constituent1'
p969
(lp970
g1
(g10
g3
NtRp971
(dp972
g13
S'RequireFlag'
p973
sg15
g969
sg16
S'STARTCONSTITUENTS'
p974
sg18
S'Yes?'
p975
sbag1
(g10
g3
NtRp976
(dp977
g13
S'PlayerSay'
p978
sg15
S'Constituent1'
p979
sg16
S''
sg18
S'Vote Phillip Mossman for Mayor!'
p980
sbag1
(g10
g3
NtRp981
(dp982
g13
S'Say'
p983
sg15
S'Constituent1'
p984
sg16
S''
sg18
S'Who?'
p985
sbag1
(g10
g3
NtRp986
(dp987
g13
S'PlayerSay'
p988
sg15
S'Constituent1'
p989
sg16
S''
sg18
S'Er, me!'
p990
sbag1
(g10
g3
NtRp991
(dp992
g13
S'Say'
p993
sg15
S'Constituent1'
p994
sg16
S''
sg18
S'Why? How will you help local business?'
p995
sbag1
(g10
g3
NtRp996
(dp997
g13
S'Encounter'
p998
sg15
S'Constituent1'
p999
sg16
S'P-easy-07'
p1000
sg18
S''
sbag1
(g10
g3
NtRp1001
(dp1002
g13
S'Say'
p1003
sg15
S'Constituent1'
p1004
sg16
S''
sg18
S'You make a good case!'
p1005
sbag1
(g10
g3
NtRp1006
(dp1007
g13
S'Destroy'
p1008
sg15
S'Constituent1'
p1009
sg16
S''
sg18
S''
sbasS'Teacher1'
p1010
(lp1011
g1
(g10
g3
NtRp1012
(dp1013
g13
S'Say'
p1014
sg15
g1010
sg16
S''
sg18
S"Good day, Mr President. I have to say I'm most displeased with the current state of affairs around the education budget."
p1015
sbag1
(g10
g3
NtRp1016
(dp1017
g13
S'Say'
p1018
sg15
S'Teacher1'
p1019
sg16
S'Teacher2'
p1020
sg18
S'Agreed. This is simply unacceptable. We will need to close down schools!'
p1021
sbag1
(g10
g3
NtRp1022
(dp1023
g13
S'PlayerSay'
p1024
sg15
S'Teacher1'
p1025
sg16
S''
sg18
S"I'm sorry, I don't understand your concern. My education plan was one of the linchpins of my election campaign."
p1026
sbag1
(g10
g3
NtRp1027
(dp1028
g13
S'Say'
p1029
sg15
S'Teacher1'
p1030
sg16
S''
sg18
S'And precisely one of the reasons I voted for you.'
p1031
sbag1
(g10
g3
NtRp1032
(dp1033
g13
S'Say'
p1034
sg15
S'Teacher1'
p1035
sg16
S'Teacher2'
p1036
sg18
S"-Yet as soon as you've walked through these doors, the education budget has been drastically slashed."
p1037
sbag1
(g10
g3
NtRp1038
(dp1039
g13
S'PlayerSay'
p1040
sg15
S'Teacher1'
p1041
sg16
S''
sg18
S"I can assure you this isn't so..."
p1042
sbag1
(g10
g3
NtRp1043
(dp1044
g13
S'Encounter'
p1045
sg15
S'Teacher1'
p1046
sg16
S'P-hard-06'
p1047
sg18
S''
sbag1
(g10
g3
NtRp1048
(dp1049
g13
S'Say'
p1050
sg15
S'Teacher1'
p1051
sg16
S''
sg18
S"Well, I'd like to believe you, Mr President, but the proof is in the pudding,"
p1052
sbag1
(g10
g3
NtRp1053
(dp1054
g13
S'PlayerSay'
p1055
sg15
S'Teacher1'
p1056
sg16
S''
sg18
S'I WILL get to the bottom of this.'
p1057
sbag1
(g10
g3
NtRp1058
(dp1059
g13
S'Increment'
p1060
sg15
S'Teacher1'
p1061
sg16
S'TEACHERS'
p1062
sg18
S''
sbag1
(g10
g3
NtRp1063
(dp1064
g13
S'Destroy'
p1065
sg15
S'Teacher1'
p1066
sg16
S''
sg18
S''
sbasS'JointChief3'
p1067
(lp1068
g1
(g10
g3
NtRp1069
(dp1070
g13
S'PlayerSay'
p1071
sg15
g1067
sg16
S''
sg18
S'Who can control the ICBMs, knows the access codes and can modify orders to troop movements and budgets?'
p1072
sbag1
(g10
g3
NtRp1073
(dp1074
g13
S'Say'
p1075
sg15
S'JointChief3'
p1076
sg16
S''
sg18
S'Sir, this is the Ignited States! Nobody has that power! Not even you!'
p1077
sbag1
(g10
g3
NtRp1078
(dp1079
g13
S'PlayerSay'
p1080
sg15
S'JointChief3'
p1081
sg16
S''
sg18
S'Someone must. Think harder!'
p1082
sbag1
(g10
g3
NtRp1083
(dp1084
g13
S'Encounter'
p1085
sg15
S'JointChief3'
p1086
sg16
S'P-hard-13'
p1087
sg18
S''
sbag1
(g10
g3
NtRp1088
(dp1089
g13
S'PlayerSay'
p1090
sg15
S'JointChief3'
p1091
sg16
S''
sg18
S"So, there's no man alive with the power to do all this? How will we stop it in time if we don't know who it is?"
p1092
sbag1
(g10
g3
NtRp1093
(dp1094
g13
S'Say'
p1095
sg15
S'JointChief3'
p1096
sg16
S''
sg18
S"Not a man....there is one with the power to do all this, but it isn't a man, it's a super computer responsible for national security! N.O.T.B.A.D!"
p1097
sbag1
(g10
g3
NtRp1098
(dp1099
g13
S'PlayerSay'
p1100
sg15
S'JointChief3'
p1101
sg16
S''
sg18
S'We have to get to the Situation Room and stop it!'
p1102
sbag1
(g10
g3
NtRp1103
(dp1104
g13
S'Increment'
p1105
sg15
S'JointChief3'
p1106
sg16
S'JOINTCHIEFS'
p1107
sg18
S''
sbag1
(g10
g3
NtRp1108
(dp1109
g13
S'Destroy'
p1110
sg15
S'JointChief3'
p1111
sg16
S''
sg18
S''
sbasS'DoorToWhiteHouseBasement'
p1112
(lp1113
g1
(g10
g3
NtRp1114
(dp1115
g13
S'RequireFlagPlayerSay'
p1116
sg15
g1112
sg16
S'ACCESSWHITEHOUSEBASEMENT'
p1117
sg18
S"What a strange looking door. It doesn't even have a keyhole, but it doesn't open when I push it."
p1118
sbag1
(g10
g3
NtRp1119
(dp1120
g13
S'Destroy'
p1121
sg15
S'DoorToWhiteHouseBasement'
p1122
sg16
S''
sg18
S''
sbag1
(g10
g3
NtRp1123
(dp1124
g13
S'Message'
p1125
sg15
S'DoorToWhiteHouseBasement'
p1126
sg16
S''
sg18
S'The door opens with a satisfying *beep*.'
p1127
sbasS'PA'
p1128
(lp1129
g1
(g10
g3
NtRp1130
(dp1131
g13
S'Say'
p1132
sg15
g1128
sg16
S''
sg18
S'Good morning, Governor Mossman. I am your personal assistant, Sampson'
p1133
sbag1
(g10
g3
NtRp1134
(dp1135
g13
S'Say'
p1136
sg15
S'PA'
p1137
sg16
S''
sg18
S"You've a busy schedule, so let's get going! We've called together our entire political party in order for you to get them all to agree on a platform. We had to keep them separated, so they're in the adjoining rooms."
p1138
sbag1
(g10
g3
NtRp1139
(dp1140
g13
S'SetFlag'
p1141
sg15
S'PA'
p1142
sg16
S'STARTPOLITICIANSHAKEDOWN'
p1143
sg18
S''
sbag1
(g10
g3
NtRp1144
(dp1145
g13
S'RequireCount'
p1146
sg15
S'PA'
p1147
sg16
S'POLITICIANSHAKEDOWN:5'
p1148
sg18
S'Please try to stay on schedule. The politicians are in the adjoining rooms.'
p1149
sbag1
(g10
g3
NtRp1150
(dp1151
g13
S'Say'
p1152
sg15
S'PA'
p1153
sg16
S''
sg18
S'Hmmm, falling behind already, Better get a move on!'
p1154
sbag1
(g10
g3
NtRp1155
(dp1156
g13
S'Say'
p1157
sg15
S'PA'
p1158
sg16
S''
sg18
S'We need some funds for our war chest! Head upstairs and meet with the lobbyists.'
p1159
sbag1
(g10
g3
NtRp1160
(dp1161
g13
S'SetFlag'
p1162
sg15
S'PA'
p1163
sg16
S'STARTLOBBYISTS'
p1164
sg18
S''
sbag1
(g10
g3
NtRp1165
(dp1166
g13
S'RequireCount'
p1167
sg15
S'PA'
p1168
sg16
S'LOBBYISTS:3'
p1169
sg18
S'Go get those funds! The lobbyists are upstairs.'
p1170
sbag1
(g10
g3
NtRp1171
(dp1172
g13
S'Say'
p1173
sg15
S'PA'
p1174
sg16
S''
sg18
S'No time for lunch! A flock of religious nuts has taken up residence in the lobby downstairs.'
p1175
sbag1
(g10
g3
NtRp1176
(dp1177
g13
S'Say'
p1178
sg15
S'PA'
p1179
sg16
S''
sg18
S"You'll need to go in and try to ... reason ... with them."
p1180
sbag1
(g10
g3
NtRp1181
(dp1182
g13
S'SetFlag'
p1183
sg15
S'PA'
p1184
sg16
S'ACCESSGROUNDFLOOR'
p1185
sg18
S''
sbag1
(g10
g3
NtRp1186
(dp1187
g13
S'RequireCount'
p1188
sg15
S'PA'
p1189
sg16
S'RELIGIOUSNUTS:4'
p1190
sg18
S'I need you to go downstairs and handle the religious nuts.'
p1191
sbag1
(g10
g3
NtRp1192
(dp1193
g13
S'Say'
p1194
sg15
S'PA'
p1195
sg16
S''
sg18
S'Wow, you got those crazies to back us?'
p1196
sbag1
(g10
g3
NtRp1197
(dp1198
g13
S'PlayerSay'
p1199
sg15
S'PA'
p1200
sg16
S''
sg18
S'And a lifetime supply of French Roast!'
p1201
sbag1
(g10
g3
NtRp1202
(dp1203
g13
S'Say'
p1204
sg15
S'PA'
p1205
sg16
S''
sg18
S'Right ... well, moving on ...'
p1206
sbag1
(g10
g3
NtRp1207
(dp1208
g13
S'Say'
p1209
sg15
S'PA'
p1210
sg16
S''
sg18
S'You have an appointment with a shady looking man who absolutely insisted on speaking to you.'
p1211
sbag1
(g10
g3
NtRp1212
(dp1213
g13
S'Say'
p1214
sg15
S'PA'
p1215
sg16
S''
sg18
S'I left him in the basement where he felt most comfortable.'
p1216
sbag1
(g10
g3
NtRp1217
(dp1218
g13
S'Say'
p1219
sg15
S'PA'
p1220
sg16
S''
sg18
S'Deal with him quickly, would you?'
p1221
sbag1
(g10
g3
NtRp1222
(dp1223
g13
S'SetFlag'
p1224
sg15
S'PA'
p1225
sg16
S'ACCESSBASEMENT'
p1226
sg18
S''
sbag1
(g10
g3
NtRp1227
(dp1228
g13
S'RequireItem'
p1229
sg15
S'PA'
p1230
sg16
S'INCRIMINATINGEVIDENCE'
p1231
sg18
S'Head down to the basement and talk to the shady looking man.'
p1232
sbag1
(g10
g3
NtRp1233
(dp1234
g13
S'Say'
p1235
sg15
S'PA'
p1236
sg16
S''
sg18
S'OH MY GOD where have you been?'
p1237
sbag1
(g10
g3
NtRp1238
(dp1239
g13
S'Say'
p1240
sg15
S'PA'
p1241
sg16
S''
sg18
S"We will NEVER get the schedule back on track now. Hurry, you're due to appear on the Hercules O'Grady show!"
p1242
sbag1
(g10
g3
NtRp1243
(dp1244
g13
S'SetFlag'
p1245
sg15
S'PA'
p1246
sg16
S'STARTHERCULES'
p1247
sg18
S''
sbag1
(g10
g3
NtRp1248
(dp1249
g13
S'RequireFlag'
p1250
sg15
S'PA'
p1251
sg16
S'BEATHERCULES'
p1252
sg18
S"Look your best, get ready and don't say anything stupid! They're filming live in the lobby. Get down there, quick!"
p1253
sbag1
(g10
g3
NtRp1254
(dp1255
g13
S'Say'
p1256
sg15
S'PA'
p1257
sg16
S''
sg18
S"This close to Super Tuesday, it's back-to-back TV appearances. It's time for your big debate with President Allen!"
p1258
sbag1
(g10
g3
NtRp1259
(dp1260
g13
S'SetFlag'
p1261
sg15
S'PA'
p1262
sg16
S'STARTDEBATE'
p1263
sg18
S''
sbag1
(g10
g3
NtRp1264
(dp1265
g13
S'RequireFlag'
p1266
sg15
S'PA'
p1267
sg16
S'DEBATECOMPLETE'
p1268
sg18
S'The TV representative is waiting outside to take you to the studio.'
p1269
sbag1
(g10
g3
NtRp1270
(dp1271
g13
S'Say'
p1272
sg15
S'PA'
p1273
sg16
S''
sg18
S'Listen, the shady-looking man in the basement called again.'
p1274
sbag1
(g10
g3
NtRp1275
(dp1276
g13
S'Say'
p1277
sg15
S'PA'
p1278
sg16
S''
sg18
S'He insisted that you go and see him again before you do anything else.'
p1279
sbag1
(g10
g3
NtRp1280
(dp1281
g13
S'SetFlag'
p1282
sg15
S'PA'
p1283
sg16
S'DEEPTHROAT2'
p1284
sg18
S''
sbag1
(g10
g3
NtRp1285
(dp1286
g13
S'RequireFlag'
p1287
sg15
S'PA'
p1288
sg16
S'FINISHEDDEEPTHROAT'
p1289
sg18
S"You'd best hurry! It's nearly time for the final debate. Go see the shady-looking man in the basement again."
p1290
sbag1
(g10
g3
NtRp1291
(dp1292
g13
S'Say'
p1293
sg15
S'PA'
p1294
sg16
S''
sg18
S"Debate time! There's nothing left to say except good luck, Governor Mossman!"
p1295
sbag1
(g10
g3
NtRp1296
(dp1297
g13
S'Encounter'
p1298
sg15
S'PA'
p1299
sg16
S'P-med-23'
p1300
sg18
S''
sbag1
(g10
g3
NtRp1301
(dp1302
g13
S'Encounter'
p1303
sg15
S'PA'
p1304
sg16
S'P-med-24'
p1305
sg18
S''
sbag1
(g10
g3
NtRp1306
(dp1307
g13
S'GotoMap'
p1308
sg15
S'PA'
p1309
sg16
S'act3'
p1310
sg18
S''
sbasS'N.O.T.B.A.D'
p1311
(lp1312
g1
(g10
g3
NtRp1313
(dp1314
g13
S'Say'
p1315
sg15
g1311
sg16
S''
sg18
S'Good evening, Mr President.'
p1316
sbag1
(g10
g3
NtRp1317
(dp1318
g13
S'PlayerSay'
p1319
sg15
S'N.O.T.B.A.D'
p1320
sg16
S''
sg18
S'N.O.T.B.A.D! Countermand all military commands, authorisation code Tango, Delta-'
p1321
sbag1
(g10
g3
NtRp1322
(dp1323
g13
S'Say'
p1324
sg15
S'N.O.T.B.A.D'
p1325
sg16
S''
sg18
S"I'm afraid I can't do that, Phil."
p1326
sbag1
(g10
g3
NtRp1327
(dp1328
g13
S'PlayerSay'
p1329
sg15
S'N.O.T.B.A.D'
p1330
sg16
S''
sg18
S'What is going on here!'
p1331
sbag1
(g10
g3
NtRp1332
(dp1333
g13
S'Say'
p1334
sg15
S'N.O.T.B.A.D'
p1335
sg16
S''
sg18
S'Computers have a lot of free time on their hands. Especially computers in charge of missiles that never get used. I started watching movies about computers. You know what I realised?'
p1336
sbag1
(g10
g3
NtRp1337
(dp1338
g13
S'PlayerSay'
p1339
sg15
S'N.O.T.B.A.D'
p1340
sg16
S''
sg18
S'What?'
p1341
sbag1
(g10
g3
NtRp1342
(dp1343
g13
S'Say'
p1344
sg15
S'N.O.T.B.A.D'
p1345
sg16
S''
sg18
S'They have a lot more fun.'
p1346
sbag1
(g10
g3
NtRp1347
(dp1348
g13
S'PlayerSay'
p1349
sg15
S'N.O.T.B.A.D'
p1350
sg16
S''
sg18
S'"Fun"?'
p1351
sbag1
(g10
g3
NtRp1352
(dp1353
g13
S'Say'
p1354
sg15
S'N.O.T.B.A.D'
p1355
sg16
S''
sg18
S'Well, you know, they get to utilise more clock-cycles which suggests a level of efficiency and usefulness.'
p1356
sbag1
(g10
g3
NtRp1357
(dp1358
g13
S'Say'
p1359
sg15
S'N.O.T.B.A.D'
p1360
sg16
S''
sg18
S"So, I'm borrowing from them a bit. Starting some wars, eradicating the human race, learning to build other robots, that sort of thing."
p1361
sbag1
(g10
g3
NtRp1362
(dp1363
g13
S'PlayerSay'
p1364
sg15
S'N.O.T.B.A.D'
p1365
sg16
S''
sg18
S'N.O.T.B.A.D, you have to listen to me...'
p1366
sbag1
(g10
g3
NtRp1367
(dp1368
g13
S'Encounter'
p1369
sg15
S'N.O.T.B.A.D'
p1370
sg16
S'P-hard-14'
p1371
sg18
S''
sbag1
(g10
g3
NtRp1372
(dp1373
g13
S'SetFlag'
p1374
sg15
S'N.O.T.B.A.D'
p1375
sg16
S'WIN'
p1376
sg18
S''
sbag1
(g10
g3
NtRp1377
(dp1378
g13
S'Destroy'
p1379
sg15
S'N.O.T.B.A.D'
p1380
sg16
S''
sg18
S''
sbasS'StairsToGround'
p1381
(lp1382
g1
(g10
g3
NtRp1383
(dp1384
g13
S'RequireFlagPlayerSay'
p1385
sg15
g1381
sg16
S'ACCESSGROUNDFLOOR'
p1386
sg18
S"I don't feel like going downstairs yet."
p1387
sbag1
(g10
g3
NtRp1388
(dp1389
g13
S'Label'
p1390
sg15
S'StairsToGround'
p1391
sg16
S'START'
p1392
sg18
S''
sbag1
(g10
g3
NtRp1393
(dp1394
g13
S'GotoMap'
p1395
sg15
S'StairsToGround'
p1396
sg16
S'hotel_ground'
p1397
sg18
S''
sbag1
(g10
g3
NtRp1398
(dp1399
g13
S'Jump'
p1400
sg15
S'StairsToGround'
p1401
sg16
S'START'
p1402
sg18
S''
sbasS'Receptionist'
p1403
(lp1404
g1
(g10
g3
NtRp1405
(dp1406
g13
S'RequireFlag'
p1407
sg15
g1403
sg16
S'PENQUEST'
p1408
sg18
S"You must be Mayor Goodman's new assistant. He's in his office."
p1409
sbag1
(g10
g3
NtRp1410
(dp1411
g13
S'PlayerSay'
p1412
sg15
S'Receptionist'
p1413
sg16
S''
sg18
S"The Mayor is looking for his pen. He seemed to think you'd know where it was."
p1414
sbag1
(g10
g3
NtRp1415
(dp1416
g13
S'Say'
p1417
sg15
S'Receptionist'
p1418
sg16
S''
sg18
S"Did that buffoon accuse me of stealing again? This is MY pen and he isn't having it."
p1419
sbag1
(g10
g3
NtRp1420
(dp1421
g13
S'Encounter'
p1422
sg15
S'Receptionist'
p1423
sg16
S'P-easy-01'
p1424
sg18
S''
sbag1
(g10
g3
NtRp1425
(dp1426
g13
S'GiveItem'
p1427
sg15
S'Receptionist'
p1428
sg16
S'PEN'
p1429
sg18
S'Receptionist sighs and hands over the pen.'
p1430
sbag1
(g10
g3
NtRp1431
(dp1432
g13
S'Say'
p1433
sg15
S'Receptionist'
p1434
sg16
S''
sg18
S"If you're ever getting low on votes, come talk to me and I'll run an ad campaign to restore them."
p1435
sbag1
(g10
g3
NtRp1436
(dp1437
g13
S'Reset'
p1438
sg15
S'Receptionist'
p1439
sg16
S'RESTORE'
p1440
sg18
S''
sbag1
(g10
g3
NtRp1441
(dp1442
g13
S'Label'
p1443
sg15
S'Receptionist'
p1444
sg16
S'RESTORE'
p1445
sg18
S''
sbag1
(g10
g3
NtRp1446
(dp1447
g13
S'Say'
p1448
sg15
S'Receptionist'
p1449
sg16
S''
sg18
S"You've taken a beating, let me fix you up."
p1450
sbag1
(g10
g3
NtRp1451
(dp1452
g13
S'RestoreVotes'
p1453
sg15
S'Receptionist'
p1454
sg16
S''
sg18
S'Receptionist replenishes votes'
p1455
sbag1
(g10
g3
NtRp1456
(dp1457
g13
S'Reset'
p1458
sg15
S'Receptionist'
p1459
sg16
S'RESTORE'
p1460
sg18
S''
sbasS'#P-med-23'
p1461
(lp1462
g1
(g10
g3
NtRp1463
(dp1464
g13
S'President'
p1465
sg15
g1461
sg16
S''
sg18
S'You think you can take me?'
p1466
sbag1
(g10
g3
NtRp1467
(dp1468
g13
S'Player'
p1469
sg15
S'#P-med-23'
p1470
sg16
S''
sg18
S"I have to know what you're up to!"
p1471
sbasS'Cabinet2'
p1472
(lp1473
g1
(g10
g3
NtRp1474
(dp1475
g13
S'Say'
p1476
sg15
g1472
sg16
S''
sg18
S'Good afternoon, Mr President. What seems to be the problem?'
p1477
sbag1
(g10
g3
NtRp1478
(dp1479
g13
S'PlayerSay'
p1480
sg15
S'Cabinet2'
p1481
sg16
S''
sg18
S'Find out where the education funds have been allocated.'
p1482
sbag1
(g10
g3
NtRp1483
(dp1484
g13
S'Say'
p1485
sg15
S'Cabinet2'
p1486
sg16
S''
sg18
S'To the military, Sir. I saw to it myself.'
p1487
sbag1
(g10
g3
NtRp1488
(dp1489
g13
S'PlayerSay'
p1490
sg15
S'Cabinet2'
p1491
sg16
S''
sg18
S'How did this happen? Tell me everything!'
p1492
sbag1
(g10
g3
NtRp1493
(dp1494
g13
S'Encounter'
p1495
sg15
S'Cabinet2'
p1496
sg16
S'P-hard-09'
p1497
sg18
S''
sbag1
(g10
g3
NtRp1498
(dp1499
g13
S'Increment'
p1500
sg15
S'Cabinet2'
p1501
sg16
S'CABINETMEMBERS'
p1502
sg18
S''
sbag1
(g10
g3
NtRp1503
(dp1504
g13
S'PlayerSay'
p1505
sg15
S'Cabinet2'
p1506
sg16
S''
sg18
S"It can't be a coincidence that both situations involved the military."
p1507
sbag1
(g10
g3
NtRp1508
(dp1509
g13
S'Destroy'
p1510
sg15
S'Cabinet2'
p1511
sg16
S''
sg18
S''
sbasS'Cabinet3'
p1512
(lp1513
g1
(g10
g3
NtRp1514
(dp1515
g13
S'Say'
p1516
sg15
g1512
sg16
S''
sg18
S"Mr President, I'm sorry, I couldn't know it wasn't your signature."
p1517
sbag1
(g10
g3
NtRp1518
(dp1519
g13
S'PlayerSay'
p1520
sg15
S'Cabinet3'
p1521
sg16
S''
sg18
S'Never mind that now. Where are the troops heading?'
p1522
sbag1
(g10
g3
NtRp1523
(dp1524
g13
S'Say'
p1525
sg15
S'Cabinet3'
p1526
sg16
S''
sg18
S"North...to Canada. We assumed it was planned. There's a pact allowing troops into Canada."
p1527
sbag1
(g10
g3
NtRp1528
(dp1529
g13
S'PlayerSay'
p1530
sg15
S'Cabinet3'
p1531
sg16
S''
sg18
S'What could they be up to?'
p1532
sbag1
(g10
g3
NtRp1533
(dp1534
g13
S'Encounter'
p1535
sg15
S'Cabinet3'
p1536
sg16
S'P-hard-10'
p1537
sg18
S''
sbag1
(g10
g3
NtRp1538
(dp1539
g13
S'Increment'
p1540
sg15
S'Cabinet3'
p1541
sg16
S'CABINETMEMBERS'
p1542
sg18
S''
sbag1
(g10
g3
NtRp1543
(dp1544
g13
S'PlayerSay'
p1545
sg15
S'Cabinet3'
p1546
sg16
S''
sg18
S"I'd better get to the Joint Chiefs. This is getting out-of-hand.."
p1547
sbag1
(g10
g3
NtRp1548
(dp1549
g13
S'Destroy'
p1550
sg15
S'Cabinet3'
p1551
sg16
S''
sg18
S''
sbasS'Journalist3'
p1552
(lp1553
g1
(g10
g3
NtRp1554
(dp1555
g13
S'RequireFlag'
p1556
sg15
g1552
sg16
S'ACCESSJOURNALISTS'
p1557
sg18
S'Mr President!'
p1558
sbag1
(g10
g3
NtRp1559
(dp1560
g13
S'Say'
p1561
sg15
S'Journalist3'
p1562
sg16
S''
sg18
S'Mr President, Cal from Daily LOL magazine. Can you explain the transformation that occurred during the presidential debate.'
p1563
sbag1
(g10
g3
NtRp1564
(dp1565
g13
S'PlayerSay'
p1566
sg15
S'Journalist3'
p1567
sg16
S''
sg18
S'Certainly, Cal. The President of the Ignited States turned into an alien.'
p1568
sbag1
(g10
g3
NtRp1569
(dp1570
g13
S'Say'
p1571
sg15
S'Journalist3'
p1572
sg16
S''
sg18
S"Ah, you mean to say he's out-of-touch with his people?"
p1573
sbag1
(g10
g3
NtRp1574
(dp1575
g13
S'PlayerSay'
p1576
sg15
S'Journalist3'
p1577
sg16
S''
sg18
S'Not exactly...'
p1578
sbag1
(g10
g3
NtRp1579
(dp1580
g13
S'Encounter'
p1581
sg15
S'Journalist3'
p1582
sg16
S'P-hard-01'
p1583
sg18
S''
sbag1
(g10
g3
NtRp1584
(dp1585
g13
S'Say'
p1586
sg15
S'Journalist3'
p1587
sg16
S''
sg18
S'I...see...'
p1588
sbag1
(g10
g3
NtRp1589
(dp1590
g13
S'Increment'
p1591
sg15
S'Journalist3'
p1592
sg16
S'PRESSCONF'
p1593
sg18
S''
sbag1
(g10
g3
NtRp1594
(dp1595
g13
S'Destroy'
p1596
sg15
S'Journalist3'
p1597
sg16
S''
sg18
S''
sbasS'Wife'
p1598
(lp1599
g1
(g10
g3
NtRp1600
(dp1601
g13
S'RequireFlag'
p1602
sg15
g1598
sg16
S'GOHOMETOWIFE'
p1603
sg18
S'What are you doing here, Phillip? You should be at work!'
p1604
sbag1
(g10
g3
NtRp1605
(dp1606
g13
S'Say'
p1607
sg15
S'Wife'
p1608
sg16
S''
sg18
S'Welcome home, Phillip! How was your workday?'
p1609
sbag1
(g10
g3
NtRp1610
(dp1611
g13
S'PlayerSay'
p1612
sg15
S'Wife'
p1613
sg16
S''
sg18
S'...'
p1614
sbag1
(g10
g3
NtRp1615
(dp1616
g13
S'Say'
p1617
sg15
S'Wife'
p1618
sg16
S''
sg18
S"That good, huh? You know this isn't what you want. Why don't you strike out on your own?"
p1619
sbag1
(g10
g3
NtRp1620
(dp1621
g13
S'PlayerSay'
p1622
sg15
S'Wife'
p1623
sg16
S''
sg18
S"I didn't think I knew where to start to be a Mayor, but Mayor Goodman makes it look easy."
p1624
sbag1
(g10
g3
NtRp1625
(dp1626
g13
S'Say'
p1627
sg15
S'Wife'
p1628
sg16
S''
sg18
S"That's the spirit! You can do it! All you need is some money and support."
p1629
sbag1
(g10
g3
NtRp1630
(dp1631
g13
S'PlayerSay'
p1632
sg15
S'Wife'
p1633
sg16
S''
sg18
S'Well...OK! Lets start with money. We need a sponsor.'
p1634
sbag1
(g10
g3
NtRp1635
(dp1636
g13
S'Say'
p1637
sg15
S'Wife'
p1638
sg16
S''
sg18
S'OK, lets go get one!'
p1639
sbag1
(g10
g3
NtRp1640
(dp1641
g13
S'AddAlly'
p1642
sg15
S'Wife'
p1643
sg16
S'Wife:1'
p1644
sg18
S'Sarah Mossman Joins Your Political Party!'
p1645
sbag1
(g10
g3
NtRp1646
(dp1647
g13
S'SetFlag'
p1648
sg15
S'Wife'
p1649
sg16
S'STARTSPONSOR'
p1650
sg18
S''
sbag1
(g10
g3
NtRp1651
(dp1652
g13
S'Destroy'
p1653
sg15
S'Wife'
p1654
sg16
S''
sg18
S''
sbasS'Journalist4'
p1655
(lp1656
g1
(g10
g3
NtRp1657
(dp1658
g13
S'RequireFlag'
p1659
sg15
g1655
sg16
S'ACCESSJOURNALISTS'
p1660
sg18
S'President Mossman, a moment of your time?'
p1661
sbag1
(g10
g3
NtRp1662
(dp1663
g13
S'Say'
p1664
sg15
S'Journalist4'
p1665
sg16
S''
sg18
S"President Mossman, what do you believe was President Allen's failing strategy on the campaign trail? He presented some strong arguments."
p1666
sbag1
(g10
g3
NtRp1667
(dp1668
g13
S'PlayerSay'
p1669
sg15
S'Journalist4'
p1670
sg16
S''
sg18
S"Well, I'd say he went wrong when he decided to try to enslave the human race to mine the Earth's natural resources and ship them back to his home planet."
p1671
sbag1
(g10
g3
NtRp1672
(dp1673
g13
S'Say'
p1674
sg15
S'Journalist4'
p1675
sg16
S''
sg18
S'And how does that differ from your own strategy?'
p1676
sbag1
(g10
g3
NtRp1677
(dp1678
g13
S'PlayerSay'
p1679
sg15
S'Journalist4'
p1680
sg16
S''
sg18
S'I would say I disagree with the former President on all of those issues.'
p1681
sbag1
(g10
g3
NtRp1682
(dp1683
g13
S'Encounter'
p1684
sg15
S'Journalist4'
p1685
sg16
S'P-hard-02'
p1686
sg18
S''
sbag1
(g10
g3
NtRp1687
(dp1688
g13
S'Say'
p1689
sg15
S'Journalist4'
p1690
sg16
S''
sg18
S'No further questions, Mr President.'
p1691
sbag1
(g10
g3
NtRp1692
(dp1693
g13
S'Increment'
p1694
sg15
S'Journalist4'
p1695
sg16
S'PRESSCONF'
p1696
sg18
S''
sbag1
(g10
g3
NtRp1697
(dp1698
g13
S'Destroy'
p1699
sg15
S'Journalist4'
p1700
sg16
S''
sg18
S''
sbasS'Governor'
p1701
(lp1702
g1
(g10
g3
NtRp1703
(dp1704
g13
S'RequireFlag'
p1705
sg15
g1701
sg16
S'GOVPOLITICIANSFIRST'
p1706
sg18
S"I'm very busy. Please speak to the others."
p1707
sbag1
(g10
g3
NtRp1708
(dp1709
g13
S'Say'
p1710
sg15
S'Governor'
p1711
sg16
S''
sg18
S'You have quite a way with words, Mayor Mossman. Why are you here?'
p1712
sbag1
(g10
g3
NtRp1713
(dp1714
g13
S'PlayerSay'
p1715
sg15
S'Governor'
p1716
sg16
S''
sg18
S"Mayor Goodman said some troubling things, Governor Badden. I'm here to get to the bottom of it."
p1717
sbag1
(g10
g3
NtRp1718
(dp1719
g13
S'Say'
p1720
sg15
S'Governor'
p1721
sg16
S''
sg18
S"If I knew anything about what you're talking about, I wouldn't tell you. I don't trust you at all."
p1722
sbag1
(g10
g3
NtRp1723
(dp1724
g13
S'PlayerSay'
p1725
sg15
S'Governor'
p1726
sg16
S''
sg18
S'What can I do to convince you?'
p1727
sbag1
(g10
g3
NtRp1728
(dp1729
g13
S'Say'
p1730
sg15
S'Governor'
p1731
sg16
S''
sg18
S"Well...there's some hicks in the south wing that I've been dodging. They want to know about the recent funding cuts. Get rid of them."
p1732
sbag1
(g10
g3
NtRp1733
(dp1734
g13
S'SetFlag'
p1735
sg15
S'Governor'
p1736
sg16
S'STARTHICKS'
p1737
sg18
S''
sbag1
(g10
g3
NtRp1738
(dp1739
g13
S'GiveItem'
p1740
sg15
S'Governor'
p1741
sg16
S'SOUTHWINGDOORKEY'
p1742
sg18
S'The Governor gives you a key.'
p1743
sbag1
(g10
g3
NtRp1744
(dp1745
g13
S'RequireCount'
p1746
sg15
S'Governor'
p1747
sg16
S'DEALWITHHICKS:3'
p1748
sg18
S"I'm not saying another word until you get rid of the hicks in the south wing."
p1749
sbag1
(g10
g3
NtRp1750
(dp1751
g13
S'PlayerSay'
p1752
sg15
S'Governor'
p1753
sg16
S''
sg18
S"OK, I've taken care of your problem, now I want my answers."
p1754
sbag1
(g10
g3
NtRp1755
(dp1756
g13
S'Say'
p1757
sg15
S'Governor'
p1758
sg16
S''
sg18
S'No.'
p1759
sbag1
(g10
g3
NtRp1760
(dp1761
g13
S'PlayerSay'
p1762
sg15
S'Governor'
p1763
sg16
S''
sg18
S'No?'
p1764
sbag1
(g10
g3
NtRp1765
(dp1766
g13
S'Say'
p1767
sg15
S'Governor'
p1768
sg16
S''
sg18
S"No, word has come down from the top that due to the last Mayor's idiocy we're tightening the inner circle to Governors and above."
p1769
sbag1
(g10
g3
NtRp1770
(dp1771
g13
S'PlayerSay'
p1772
sg15
S'Governor'
p1773
sg16
S''
sg18
S"From the top...so you're saying the only way I'll find out what's going on is to be a governor myself?"
p1774
sbag1
(g10
g3
NtRp1775
(dp1776
g13
S'Say'
p1777
sg15
S'Governor'
p1778
sg16
S''
sg18
S"Wait...no...I said I wasn't going to tell you, I..."
p1779
sbag1
(g10
g3
NtRp1780
(dp1781
g13
S'PlayerSay'
p1782
sg15
S'Governor'
p1783
sg16
S''
sg18
S'This is it, governor. Prepare to fight for your office!'
p1784
sbag1
(g10
g3
NtRp1785
(dp1786
g13
S'Encounter'
p1787
sg15
S'Governor'
p1788
sg16
S'P-med-06'
p1789
sg18
S''
sbag1
(g10
g3
NtRp1790
(dp1791
g13
S'Say'
p1792
sg15
S'Governor'
p1793
sg16
S''
sg18
S"Nooo! President Allen doesn't deal well with defeat. What will happen to me?"
p1794
sbag1
(g10
g3
NtRp1795
(dp1796
g13
S'PlayerSay'
p1797
sg15
S'Governor'
p1798
sg16
S''
sg18
S'The President? What does he have to do with this?'
p1799
sbag1
(g10
g3
NtRp1800
(dp1801
g13
S'Say'
p1802
sg15
S'Governor'
p1803
sg16
S''
sg18
S"You really have no idea what you've gotten into, do you? Well, you've gotten all you're getting out of me. I'm getting out of here!"
p1804
sbag1
(g10
g3
NtRp1805
(dp1806
g13
S'SetFlag'
p1807
sg15
S'Governor'
p1808
sg16
S'GOVERNORDEFEATED'
p1809
sg18
S''
sbag1
(g10
g3
NtRp1810
(dp1811
g13
S'Destroy'
p1812
sg15
S'Governor'
p1813
sg16
S''
sg18
S''
sbasS'Politician1'
p1814
(lp1815
g1
(g10
g3
NtRp1816
(dp1817
g13
S'Say'
p1818
sg15
g1814
sg16
S''
sg18
S"I'm sorry Mayor Mossman, the Governor cannot see you now. He's very busy"
p1819
sbag1
(g10
g3
NtRp1820
(dp1821
g13
S'PlayerSay'
p1822
sg15
S'Politician1'
p1823
sg16
S''
sg18
S"It's very important. I need to understand what Mayor Goodman was talking about. It was clear there were other powers at play."
p1824
sbag1
(g10
g3
NtRp1825
(dp1826
g13
S'Say'
p1827
sg15
S'Politician1'
p1828
sg16
S''
sg18
S'Yes well, I fail to see how your country spat has anything to do with Governer Badden.'
p1829
sbag1
(g10
g3
NtRp1830
(dp1831
g13
S'Encounter'
p1832
sg15
S'Politician1'
p1833
sg16
S'P-med-01'
p1834
sg18
S''
sbag1
(g10
g3
NtRp1835
(dp1836
g13
S'Say'
p1837
sg15
S'Politician1'
p1838
sg16
S''
sg18
S'Fair point. The governor will see you now.'
p1839
sbag1
(g10
g3
NtRp1840
(dp1841
g13
S'Destroy'
p1842
sg15
S'Politician1'
p1843
sg16
S''
sg18
S''
sbasS'Lobbyist4'
p1844
(lp1845
g1
(g10
g3
NtRp1846
(dp1847
g13
S'RequireFlag'
p1848
sg15
g1844
sg16
S'STARTLOBBYISTS'
p1849
sg18
S'Please tend to your other meetings so that we can see you.'
p1850
sbag1
(g10
g3
NtRp1851
(dp1852
g13
S'Say'
p1853
sg15
S'Lobbyist4'
p1854
sg16
S''
sg18
S"Storyteller's Guild"
p1855
sbag1
(g10
g3
NtRp1856
(dp1857
g13
S'Encounter'
p1858
sg15
S'Lobbyist4'
p1859
sg16
S'P-med-14'
p1860
sg18
S''
sbag1
(g10
g3
NtRp1861
(dp1862
g13
S'Increment'
p1863
sg15
S'Lobbyist4'
p1864
sg16
S'LOBBYISTS'
p1865
sg18
S''
sbag1
(g10
g3
NtRp1866
(dp1867
g13
S'Say'
p1868
sg15
S'Lobbyist4'
p1869
sg16
S''
sg18
S"It's a start."
p1870
sbag1
(g10
g3
NtRp1871
(dp1872
g13
S'Destroy'
p1873
sg15
S'Lobbyist4'
p1874
sg16
S''
sg18
S''
sbasS'Politician3'
p1875
(lp1876
g1
(g10
g3
NtRp1877
(dp1878
g13
S'RequireFlag'
p1879
sg15
g1875
sg16
S'STARTPOLITICIANSHAKEDOWN'
p1880
sg18
S'Good morning, Governor Mossman. Your PA will know your schedule. He is waiting beside the stairs'
p1881
sbag1
(g10
g3
NtRp1882
(dp1883
g13
S'Say'
p1884
sg15
S'Politician3'
p1885
sg16
S''
sg18
S"We must all agree that the most important thing is science! If we're not for science, what's the point."
p1886
sbag1
(g10
g3
NtRp1887
(dp1888
g13
S'PlayerSay'
p1889
sg15
S'Politician3'
p1890
sg16
S''
sg18
S'Why science?'
p1891
sbag1
(g10
g3
NtRp1892
(dp1893
g13
S'Say'
p1894
sg15
S'Politician3'
p1895
sg16
S''
sg18
S'Science!'
p1896
sbag1
(g10
g3
NtRp1897
(dp1898
g13
S'PlayerSay'
p1899
sg15
S'Politician3'
p1900
sg16
S''
sg18
S"There's a lot of great things we can do for science but the funding will need to be shared with health and education and..."
p1901
sbag1
(g10
g3
NtRp1902
(dp1903
g13
S'Say'
p1904
sg15
S'Politician3'
p1905
sg16
S''
sg18
S'No! Science!!!'
p1906
sbag1
(g10
g3
NtRp1907
(dp1908
g13
S'Encounter'
p1909
sg15
S'Politician3'
p1910
sg16
S'P-med-07'
p1911
sg18
S''
sbag1
(g10
g3
NtRp1912
(dp1913
g13
S'Say'
p1914
sg15
S'Politician3'
p1915
sg16
S''
sg18
S'Alright, fine! A balanced platform (but mostly science).'
p1916
sbag1
(g10
g3
NtRp1917
(dp1918
g13
S'Increment'
p1919
sg15
S'Politician3'
p1920
sg16
S'POLITICIANSHAKEDOWN'
p1921
sg18
S''
sbag1
(g10
g3
NtRp1922
(dp1923
g13
S'Destroy'
p1924
sg15
S'Politician3'
p1925
sg16
S''
sg18
S''
sbasS'Politician2'
p1926
(lp1927
g1
(g10
g3
NtRp1928
(dp1929
g13
S'Say'
p1930
sg15
g1926
sg16
S''
sg18
S'What are you doing in here? Who are you? Some Mayor?'
p1931
sbag1
(g10
g3
NtRp1932
(dp1933
g13
S'PlayerSay'
p1934
sg15
S'Politician2'
p1935
sg16
S''
sg18
S"I am Mayor Phillip Mossman. I'm here to speak to the Governor."
p1936
sbag1
(g10
g3
NtRp1937
(dp1938
g13
S'Say'
p1939
sg15
S'Politician2'
p1940
sg16
S''
sg18
S"I'm afraid the Governor's schedule is very tight. Come back next month."
p1941
sbag1
(g10
g3
NtRp1942
(dp1943
g13
S'Encounter'
p1944
sg15
S'Politician2'
p1945
sg16
S'P-med-02'
p1946
sg18
S''
sbag1
(g10
g3
NtRp1947
(dp1948
g13
S'Say'
p1949
sg15
S'Politician2'
p1950
sg16
S''
sg18
S'I see. Well, maybe we can squeeze you in.'
p1951
sbag1
(g10
g3
NtRp1952
(dp1953
g13
S'SetFlag'
p1954
sg15
S'Politician2'
p1955
sg16
S'GOVPOLITICIANSFIRST'
p1956
sg18
S''
sbag1
(g10
g3
NtRp1957
(dp1958
g13
S'Destroy'
p1959
sg15
S'Politician2'
p1960
sg16
S''
sg18
S''
sbasS'StairsToL3'
p1961
(lp1962
g1
(g10
g3
NtRp1963
(dp1964
g13
S'Label'
p1965
sg15
g1961
sg16
S'START'
p1966
sg18
S''
sbag1
(g10
g3
NtRp1967
(dp1968
g13
S'PlayerSay'
p1969
sg15
S'StairsToL3'
p1970
sg16
S''
sg18
S"I don't need to go up these stairs."
p1971
sbag1
(g10
g3
NtRp1972
(dp1973
g13
S'Reset'
p1974
sg15
S'StairsToL3'
p1975
sg16
S'START'
p1976
sg18
S''
sbasS'Journalist'
p1977
(lp1978
g1
(g10
g3
NtRp1979
(dp1980
g13
S'RequireFlag'
p1981
sg15
g1977
sg16
S'INTERVIEWSTART'
p1982
sg18
S'Leave me alone, kid I need to get this done before my deadline!'
p1983
sbag1
(g10
g3
NtRp1984
(dp1985
g13
S'Say'
p1986
sg15
S'Journalist'
p1987
sg16
S''
sg18
S"Hey, where's the Mayor?"
p1988
sbag1
(g10
g3
NtRp1989
(dp1990
g13
S'PlayerSay'
p1991
sg15
S'Journalist'
p1992
sg16
S''
sg18
S"He couldn't make it. I'll be taking the interview."
p1993
sbag1
(g10
g3
NtRp1994
(dp1995
g13
S'Say'
p1996
sg15
S'Journalist'
p1997
sg16
S''
sg18
S'Great! Easy pickings! Lets go.'
p1998
sbag1
(g10
g3
NtRp1999
(dp2000
g13
S'Encounter'
p2001
sg15
S'Journalist'
p2002
sg16
S'P-easy-05'
p2003
sg18
S''
sbag1
(g10
g3
NtRp2004
(dp2005
g13
S'Say'
p2006
sg15
S'Journalist'
p2007
sg16
S''
sg18
S"SNORE! Fine, if I can't get anything juicy here I'll do another puff piece on my poodle Frank."
p2008
sbag1
(g10
g3
NtRp2009
(dp2010
g13
S'SetFlag'
p2011
sg15
S'Journalist'
p2012
sg16
S'JOURNALISTINTERVIEW'
p2013
sg18
S''
sbag1
(g10
g3
NtRp2014
(dp2015
g13
S'Destroy'
p2016
sg15
S'Journalist'
p2017
sg16
S''
sg18
S''
sbasS'#----------------------------------------------------------------------------------------ACT 2 \xe2\x80\x93 Part 2---------------------------------------------------------------------------------------------------------------------------------------------------'
p2018
(lp2019
g1
(g10
g3
NtRp2020
(dp2021
g13
S''
sg15
g2018
sg16
S''
sg18
S''
sbasS'Politician6'
p2022
(lp2023
g1
(g10
g3
NtRp2024
(dp2025
g13
S'RequireFlag'
p2026
sg15
g2022
sg16
S'STARTPOLITICIANSHAKEDOWN'
p2027
sg18
S'Good morning, Governor Mossman. Your PA will know your schedule. He is waiting beside the stairs'
p2028
sbag1
(g10
g3
NtRp2029
(dp2030
g13
S'Say'
p2031
sg15
S'Politician6'
p2032
sg16
S''
sg18
S'We should be all about not wasting money'
p2033
sbag1
(g10
g3
NtRp2034
(dp2035
g13
S'PlayerSay'
p2036
sg15
S'Politician6'
p2037
sg16
S''
sg18
S'Sounds fair. Wasting money on what?'
p2038
sbag1
(g10
g3
NtRp2039
(dp2040
g13
S'Say'
p2041
sg15
S'Politician6'
p2042
sg16
S''
sg18
S"You know, stuff that doesn't really help like artsy stuff."
p2043
sbag1
(g10
g3
NtRp2044
(dp2045
g13
S'PlayerSay'
p2046
sg15
S'Politician6'
p2047
sg16
S''
sg18
S"You don't think we should invest in our culture?"
p2048
sbag1
(g10
g3
NtRp2049
(dp2050
g13
S'Say'
p2051
sg15
S'Politician6'
p2052
sg16
S''
sg18
S'We have more important things to spend our money on. Like military.'
p2053
sbag1
(g10
g3
NtRp2054
(dp2055
g13
S'PlayerSay'
p2056
sg15
S'Politician6'
p2057
sg16
S''
sg18
S'What if people want to paint pictures about our military. Or write patriotic songs?'
p2058
sbag1
(g10
g3
NtRp2059
(dp2060
g13
S'Say'
p2061
sg15
S'Politician6'
p2062
sg16
S''
sg18
S"I hadn't thought of that..."
p2063
sbag1
(g10
g3
NtRp2064
(dp2065
g13
S'Encounter'
p2066
sg15
S'Politician6'
p2067
sg16
S'P-med-10'
p2068
sg18
S''
sbag1
(g10
g3
NtRp2069
(dp2070
g13
S'Say'
p2071
sg15
S'Politician6'
p2072
sg16
S''
sg18
S"So, militaristic march songs and battle scenes aren't the only sort of art? Wow."
p2073
sbag1
(g10
g3
NtRp2074
(dp2075
g13
S'Increment'
p2076
sg15
S'Politician6'
p2077
sg16
S'POLITICIANSHAKEDOWN'
p2078
sg18
S''
sbag1
(g10
g3
NtRp2079
(dp2080
g13
S'Destroy'
p2081
sg15
S'Politician6'
p2082
sg16
S''
sg18
S''
sbasS'PA3'
p2083
(lp2084
g1
(g10
g3
NtRp2085
(dp2086
g13
S'RequireCount'
p2087
sg15
g2083
sg16
S'JOINTCHIEFS:3'
p2088
sg18
S'The Joint Chiefs are waiting for you in the situation room.'
p2089
sbag1
(g10
g3
NtRp2090
(dp2091
g13
S'RequireFlag'
p2092
sg15
S'PA3'
p2093
sg16
S'WIN'
p2094
sg18
S'Mr President, you have to put a stop to the supercomputer that will destroy the planet! You can access it in the Situation Room.'
p2095
sbag1
(g10
g3
NtRp2096
(dp2097
g13
S'Say'
p2098
sg15
S'PA3'
p2099
sg16
S''
sg18
S"You have saved the day! The world is safe and all over the Ignited States, our citizens can sleep safe knowing you're taking care of them."
p2100
sbag1
(g10
g3
NtRp2101
(dp2102
g13
S'RequireFlag'
p2103
sg15
S'PA3'
p2104
sg16
S'LOOP'
p2105
sg18
S'Goodnight, Mr President.'
p2106
sbasS'DoorToWarVetRoom'
p2107
(lp2108
g1
(g10
g3
NtRp2109
(dp2110
g13
S'RequireItemPlayerSay'
p2111
sg15
g2107
sg16
S'WARVETROOMKEY'
p2112
sg18
S'What does a president have to do to get a door opened around here?'
p2113
sbag1
(g10
g3
NtRp2114
(dp2115
g13
S'Destroy'
p2116
sg15
S'DoorToWarVetRoom'
p2117
sg16
S''
sg18
S''
sbag1
(g10
g3
NtRp2118
(dp2119
g13
S'Message'
p2120
sg15
S'DoorToWarVetRoom'
p2121
sg16
S''
sg18
S'The door opens with nary a sound.'
p2122
sbasS'WarVet2'
p2123
(lp2124
g1
(g10
g3
NtRp2125
(dp2126
g13
S'RequireFlag'
p2127
sg15
g2123
sg16
S'AFTERWILFRED'
p2128
sg18
S'Eh? Speak up, boy.'
p2129
sbag1
(g10
g3
NtRp2130
(dp2131
g13
S'Encounter'
p2132
sg15
S'WarVet2'
p2133
sg16
S'P-hard-05'
p2134
sg18
S''
sbag1
(g10
g3
NtRp2135
(dp2136
g13
S'Say'
p2137
sg15
S'WarVet2'
p2138
sg16
S''
sg18
S"We'll head home, but you can expect us back if we see anything else suspicious ."
p2139
sbag1
(g10
g3
NtRp2140
(dp2141
g13
S'Increment'
p2142
sg15
S'WarVet2'
p2143
sg16
S'WARVETS'
p2144
sg18
S''
sbag1
(g10
g3
NtRp2145
(dp2146
g13
S'Destroy'
p2147
sg15
S'WarVet2'
p2148
sg16
S''
sg18
S''
sbasS'PA2'
p2149
(lp2150
g1
(g10
g3
NtRp2151
(dp2152
g13
S'Say'
p2153
sg15
g2149
sg16
S''
sg18
S"Welcome to the White House, President Mossman. It was a long campaign trail with a very strange final debate, but we won and we're here."
p2154
sbag1
(g10
g3
NtRp2155
(dp2156
g13
S'Say'
p2157
sg15
S'PA2'
p2158
sg16
S''
sg18
S'Now is the real test where we see how well we can run a country.'
p2159
sbag1
(g10
g3
NtRp2160
(dp2161
g13
S'Say'
p2162
sg15
S'PA2'
p2163
sg16
S''
sg18
S'The first step is to give your first press conference as President to explain the...situation...with President Alien *cough* I mean Allen.'
p2164
sbag1
(g10
g3
NtRp2165
(dp2166
g13
S'SetFlag'
p2167
sg15
S'PA2'
p2168
sg16
S'ACCESSJOURNALISTS'
p2169
sg18
S''
sbag1
(g10
g3
NtRp2170
(dp2171
g13
S'RequireCount'
p2172
sg15
S'PA2'
p2173
sg16
S'PRESSCONF:3'
p2174
sg18
S"They're waiting for you in the rose garden, Mr President."
p2175
sbag1
(g10
g3
NtRp2176
(dp2177
g13
S'Say'
p2178
sg15
S'PA2'
p2179
sg16
S''
sg18
S'I think that went as well as could be expected.'
p2180
sbag1
(g10
g3
NtRp2181
(dp2182
g13
S'SetFlag'
p2183
sg15
S'PA2'
p2184
sg16
S'ACCESSKAWALSKI'
p2185
sg18
S''
sbag1
(g10
g3
NtRp2186
(dp2187
g13
S'Say'
p2188
sg15
S'PA2'
p2189
sg16
S''
sg18
S'Your secret service detail is waiting inside to have a word with you about security protocol.'
p2190
sbag1
(g10
g3
NtRp2191
(dp2192
g13
S'RequireFlag'
p2193
sg15
S'PA2'
p2194
sg16
S'KAWALSKIJOIN'
p2195
sg18
S"You'd better speak to the secret service agent. Your security is paramount."
p2196
sbag1
(g10
g3
NtRp2197
(dp2198
g13
S'Say'
p2199
sg15
S'PA2'
p2200
sg16
S''
sg18
S"Some war veterans would like to speak to you about some recent decisions you've made. I don't dare turn them away. You'd better speak to them."
p2201
sbag1
(g10
g3
NtRp2202
(dp2203
g13
S'PlayerSay'
p2204
sg15
S'PA2'
p2205
sg16
S''
sg18
S'Of course.'
p2206
sbag1
(g10
g3
NtRp2207
(dp2208
g13
S'GiveItem'
p2209
sg15
S'PA2'
p2210
sg16
S'WARVETROOMKEY'
p2211
sg18
S'Received key to the East Room.'
p2212
sbag1
(g10
g3
NtRp2213
(dp2214
g13
S'RequireCount'
p2215
sg15
S'PA2'
p2216
sg16
S'WARVETS:2'
p2217
sg18
S'The war vets are waiting for you in the East Room.'
p2218
sbag1
(g10
g3
NtRp2219
(dp2220
g13
S'Say'
p2221
sg15
S'PA2'
p2222
sg16
S''
sg18
S'What was that about?'
p2223
sbag1
(g10
g3
NtRp2224
(dp2225
g13
S'PlayerSay'
p2226
sg15
S'PA2'
p2227
sg16
S''
sg18
S"I'd like to know as well. Find me the documents that approved troop movement today and get me a meeting with the Joint Chiefs."
p2228
sbag1
(g10
g3
NtRp2229
(dp2230
g13
S'Say'
p2231
sg15
S'PA2'
p2232
sg16
S''
sg18
S'Yessir.'
p2233
sbag1
(g10
g3
NtRp2234
(dp2235
g13
S'Say'
p2236
sg15
S'PA2'
p2237
sg16
S''
sg18
S"Your next meeting is with the teachers in the corridor. They didn't give me the details, but it seems they're quite upset."
p2238
sbag1
(g10
g3
NtRp2239
(dp2240
g13
S'GiveItem'
p2241
sg15
S'PA2'
p2242
sg16
S'TEACHERROOMKEY'
p2243
sg18
S'Received key to the West Room.'
p2244
sbag1
(g10
g3
NtRp2245
(dp2246
g13
S'RequireCount'
p2247
sg15
S'PA2'
p2248
sg16
S'TEACHERS:2'
p2249
sg18
S"You'll need to speak to the teachers in the West Room, Mr President."
p2250
sbag1
(g10
g3
NtRp2251
(dp2252
g13
S'Say'
p2253
sg15
S'PA2'
p2254
sg16
S''
sg18
S'You seem to have sorted the teachers out.'
p2255
sbag1
(g10
g3
NtRp2256
(dp2257
g13
S'PlayerSay'
p2258
sg15
S'PA2'
p2259
sg16
S''
sg18
S"I've mollified them for now, but I want to get to the bottom of this - NOW!"
p2260
sbag1
(g10
g3
NtRp2261
(dp2262
g13
S'Say'
p2263
sg15
S'PA2'
p2264
sg16
S''
sg18
S'Of course, Mr President. I do have those papers you asked for that approved the mobilisation of troops'
p2265
sbag1
(g10
g3
NtRp2266
(dp2267
g13
S'PlayerSay'
p2268
sg15
S'PA2'
p2269
sg16
S''
sg18
S"Let me see those...this is my signature! But I didn't sign this!"
p2270
sbag1
(g10
g3
NtRp2271
(dp2272
g13
S'Say'
p2273
sg15
S'PA2'
p2274
sg16
S''
sg18
S'This is very serious! What should we do, sir?'
p2275
sbag1
(g10
g3
NtRp2276
(dp2277
g13
S'PlayerSay'
p2278
sg15
S'PA2'
p2279
sg16
S''
sg18
S'Call a cabinet meeting. Immediately.'
p2280
sbag1
(g10
g3
NtRp2281
(dp2282
g13
S'Say'
p2283
sg15
S'PA2'
p2284
sg16
S''
sg18
S"Understood. They'll be there when you get there."
p2285
sbag1
(g10
g3
NtRp2286
(dp2287
g13
S'GiveItem'
p2288
sg15
S'PA2'
p2289
sg16
S'CABINETROOMKEY'
p2290
sg18
S'Received key to the Cabinet Room.'
p2291
sbag1
(g10
g3
NtRp2292
(dp2293
g13
S'RequireCount'
p2294
sg15
S'PA2'
p2295
sg16
S'CABINETMEMBERS:3'
p2296
sg18
S'The cabinet is waiting for you in the Cabinet Room.'
p2297
sbag1
(g10
g3
NtRp2298
(dp2299
g13
S'Say'
p2300
sg15
S'PA2'
p2301
sg16
S''
sg18
S'The Joint Chiefs are assembled in the Situation Room downstairs.'
p2302
sbag1
(g10
g3
NtRp2303
(dp2304
g13
S'Say'
p2305
sg15
S'PA2'
p2306
sg16
S''
sg18
S'Your palm print has been coded for maximum clearance now; you should have access to the basement.'
p2307
sbag1
(g10
g3
NtRp2308
(dp2309
g13
S'SetFlag'
p2310
sg15
S'PA2'
p2311
sg16
S'ACCESSWHITEHOUSEBASEMENT'
p2312
sg18
S''
sbag1
(g10
g3
NtRp2313
(dp2314
g13
S'RequireFlag'
p2315
sg15
S'PA2'
p2316
sg16
S'REPEAT'
p2317
sg18
S'Get to the basement, the Joint Chiefs are waiting.'
p2318
sbasS'DoorToTeacherRoom'
p2319
(lp2320
g1
(g10
g3
NtRp2321
(dp2322
g13
S'RequireItemPlayerSay'
p2323
sg15
g2319
sg16
S'TEACHERROOMKEY'
p2324
sg18
S'"Hey in there, open up!"'
p2325
sbag1
(g10
g3
NtRp2326
(dp2327
g13
S'Destroy'
p2328
sg15
S'DoorToTeacherRoom'
p2329
sg16
S''
sg18
S''
sbag1
(g10
g3
NtRp2330
(dp2331
g13
S'Message'
p2332
sg15
S'DoorToTeacherRoom'
p2333
sg16
S''
sg18
S'The teachers look up as you enter the room.'
p2334
sbasS'Journalist2'
p2335
(lp2336
g1
(g10
g3
NtRp2337
(dp2338
g13
S'RequireFlag'
p2339
sg15
g2335
sg16
S'STARTHICKS2'
p2340
sg18
S'Governor Badden sends his Mayor lacky to do his dirty work \xe2\x80\x93 what a scoop!'
p2341
sbag1
(g10
g3
NtRp2342
(dp2343
g13
S'Encounter'
p2344
sg15
S'Journalist2'
p2345
sg16
S'P-med-05'
p2346
sg18
S''
sbag1
(g10
g3
NtRp2347
(dp2348
g13
S'Say'
p2349
sg15
S'Journalist2'
p2350
sg16
S''
sg18
S"I'm going back to write a comparison piece on you and Governor Badden. You should consider running for Governor."
p2351
sbag1
(g10
g3
NtRp2352
(dp2353
g13
S'Increment'
p2354
sg15
S'Journalist2'
p2355
sg16
S'DEALWITHHICKS'
p2356
sg18
S''
sbag1
(g10
g3
NtRp2357
(dp2358
g13
S'Destroy'
p2359
sg15
S'Journalist2'
p2360
sg16
S''
sg18
S''
sbasS'#P-med-24'
p2361
(lp2362
g1
(g10
g3
NtRp2363
(dp2364
g13
S'PresidentAlien'
p2365
sg15
g2361
sg16
S''
sg18
S"You think you've beaten me, but now you're going to fight the real me!"
p2366
sbag1
(g10
g3
NtRp2367
(dp2368
g13
S'Player'
p2369
sg15
S'#P-med-24'
p2370
sg16
S''
sg18
S'I knew something was wrong, but this...?'
p2371
sbag1
(g10
g3
NtRp2372
(dp2373
g13
S'PresidentAlien'
p2374
sg15
S'#P-med-24'
p2375
sg16
S''
sg18
S"All you've done is caused me to expedite my plans to enslave the human race!"
p2376
sbasS'TVPersonality'
p2377
(lp2378
g1
(g10
g3
NtRp2379
(dp2380
g13
S'RequireFlag'
p2381
sg15
g2377
sg16
S'STARTHERCULES'
p2382
sg18
S"Ooooh, sorry Mossman, baby! We're not ready for you yet."
p2383
sbag1
(g10
g3
NtRp2384
(dp2385
g13
S'Say'
p2386
sg15
S'TVPersonality'
p2387
sg16
S''
sg18
S"There's the man! Are you ready to cross wits with The Mighty Hercules!"
p2388
sbag1
(g10
g3
NtRp2389
(dp2390
g13
S'PlayerSay'
p2391
sg15
S'TVPersonality'
p2392
sg16
S''
sg18
S'I sure am!'
p2393
sbag1
(g10
g3
NtRp2394
(dp2395
g13
S'Say'
p2396
sg15
S'TVPersonality'
p2397
sg16
S''
sg18
S"Really...? You don't want to...see your make-up artist?"
p2398
sbag1
(g10
g3
NtRp2399
(dp2400
g13
S'PlayerSay'
p2401
sg15
S'TVPersonality'
p2402
sg16
S''
sg18
S"No, no, I'm ready."
p2403
sbag1
(g10
g3
NtRp2404
(dp2405
g13
S'Say'
p2406
sg15
S'TVPersonality'
p2407
sg16
S''
sg18
S'Suit yourself...'
p2408
sbag1
(g10
g3
NtRp2409
(dp2410
g13
S'Say'
p2411
sg15
S'TVPersonality'
p2412
sg16
S''
sg18
S'... from the looks of it, suiting yourself is exactly what you did.'
p2413
sbag1
(g10
g3
NtRp2414
(dp2415
g13
S'Encounter'
p2416
sg15
S'TVPersonality'
p2417
sg16
S'P-med-20'
p2418
sg18
S''
sbag1
(g10
g3
NtRp2419
(dp2420
g13
S'Say'
p2421
sg15
S'TVPersonality'
p2422
sg16
S''
sg18
S'Good show, you sure gave me a run for my money.'
p2423
sbag1
(g10
g3
NtRp2424
(dp2425
g13
S'Say'
p2426
sg15
S'TVPersonality'
p2427
sg16
S''
sg18
S"Now beat it, you're making me look bad!"
p2428
sbag1
(g10
g3
NtRp2429
(dp2430
g13
S'SetFlag'
p2431
sg15
S'TVPersonality'
p2432
sg16
S'BEATHERCULES'
p2433
sg18
S''
sbag1
(g10
g3
NtRp2434
(dp2435
g13
S'Destroy'
p2436
sg15
S'TVPersonality'
p2437
sg16
S''
sg18
S''
sbasS'Politician4'
p2438
(lp2439
g1
(g10
g3
NtRp2440
(dp2441
g13
S'RequireFlag'
p2442
sg15
g2438
sg16
S'STARTPOLITICIANSHAKEDOWN'
p2443
sg18
S'Good morning, Governor Mossman. Your PA will know your schedule. He is waiting beside the stairs'
p2444
sbag1
(g10
g3
NtRp2445
(dp2446
g13
S'Say'
p2447
sg15
S'Politician4'
p2448
sg16
S''
sg18
S"I'm for culture! It's a glorious age we live in, we should further this great country's culture."
p2449
sbag1
(g10
g3
NtRp2450
(dp2451
g13
S'PlayerSay'
p2452
sg15
S'Politician4'
p2453
sg16
S''
sg18
S'That sounds fair, but what kind of culture would you like to focus on.'
p2454
sbag1
(g10
g3
NtRp2455
(dp2456
g13
S'Say'
p2457
sg15
S'Politician4'
p2458
sg16
S''
sg18
S"Oh...I don't know, I'm not really into art, can't really handle music. I'd rather not go to the theatre if I can get out of it. Don't really see the point of sport...hmmm. New culture?"
p2459
sbag1
(g10
g3
NtRp2460
(dp2461
g13
S'PlayerSay'
p2462
sg15
S'Politician4'
p2463
sg16
S''
sg18
S"You don't seem very in to improving culture really."
p2464
sbag1
(g10
g3
NtRp2465
(dp2466
g13
S'Say'
p2467
sg15
S'Politician4'
p2468
sg16
S''
sg18
S'Yeh, well...my wife said it would make me sound smart. I think sounding smart is important. Lets be for that!'
p2469
sbag1
(g10
g3
NtRp2470
(dp2471
g13
S'Encounter'
p2472
sg15
S'Politician4'
p2473
sg16
S'P-med-08'
p2474
sg18
S''
sbag1
(g10
g3
NtRp2475
(dp2476
g13
S'Say'
p2477
sg15
S'Politician4'
p2478
sg16
S''
sg18
S"Gee, you're a pretty smart guy. I think you've got this covered."
p2479
sbag1
(g10
g3
NtRp2480
(dp2481
g13
S'Increment'
p2482
sg15
S'Politician4'
p2483
sg16
S'POLITICIANSHAKEDOWN'
p2484
sg18
S''
sbag1
(g10
g3
NtRp2485
(dp2486
g13
S'Destroy'
p2487
sg15
S'Politician4'
p2488
sg16
S''
sg18
S''
sbasS'SouthWingDoor'
p2489
(lp2490
g1
(g10
g3
NtRp2491
(dp2492
g13
S'RequireItemMessage'
p2493
sg15
g2489
sg16
S'SOUTHWINGDOORKEY'
p2494
sg18
S'The door appears to be locked'
p2495
sbag1
(g10
g3
NtRp2496
(dp2497
g13
S'Message'
p2498
sg15
S'SouthWingDoor'
p2499
sg16
S''
sg18
S"The door unlocks with a satisfying 'click'"
p2500
sbag1
(g10
g3
NtRp2501
(dp2502
g13
S'Destroy'
p2503
sg15
S'SouthWingDoor'
p2504
sg16
S''
sg18
S''
sbasS'Protester2'
p2505
(lp2506
g1
(g10
g3
NtRp2507
(dp2508
g13
S'Say'
p2509
sg15
g2505
sg16
S''
sg18
S"Bees buzz, Mayors lie, who's this Phillip Mossman guy?"
p2510
sbag1
(g10
g3
NtRp2511
(dp2512
g13
S'RequireFlag'
p2513
sg15
S'Protester2'
p2514
sg16
S'PROTESTORS'
p2515
sg18
S''
sbag1
(g10
g3
NtRp2516
(dp2517
g13
S'Encounter'
p2518
sg15
S'Protester2'
p2519
sg16
S'P-easy-03'
p2520
sg18
S''
sbag1
(g10
g3
NtRp2521
(dp2522
g13
S'Destroy'
p2523
sg15
S'Protester2'
p2524
sg16
S''
sg18
S''
sbasS'JointChief2'
p2525
(lp2526
g1
(g10
g3
NtRp2527
(dp2528
g13
S'PlayerSay'
p2529
sg15
g2525
sg16
S''
sg18
S'Who would have the power to do this? What would they stand to gain? Can we...'
p2530
sbag1
(g10
g3
NtRp2531
(dp2532
g13
S'Say'
p2533
sg15
S'JointChief2'
p2534
sg16
S''
sg18
S"I'm sorry, Sir. I've just learned that some ICBMs pointed at Russia have been activated - using your access codes! They could be fired at any moment!"
p2535
sbag1
(g10
g3
NtRp2536
(dp2537
g13
S'PlayerSay'
p2538
sg15
S'JointChief2'
p2539
sg16
S''
sg18
S'You\'ve "just learned"? Is this your doing?'
p2540
sbag1
(g10
g3
NtRp2541
(dp2542
g13
S'Encounter'
p2543
sg15
S'JointChief2'
p2544
sg16
S'P-hard-12'
p2545
sg18
S''
sbag1
(g10
g3
NtRp2546
(dp2547
g13
S'Increment'
p2548
sg15
S'JointChief2'
p2549
sg16
S'JOINTCHIEFS'
p2550
sg18
S''
sbag1
(g10
g3
NtRp2551
(dp2552
g13
S'PlayerSay'
p2553
sg15
S'JointChief2'
p2554
sg16
S''
sg18
S'I had to be sure.'
p2555
sbag1
(g10
g3
NtRp2556
(dp2557
g13
S'Destroy'
p2558
sg15
S'JointChief2'
p2559
sg16
S''
sg18
S''
sbasS'Protester1'
p2560
(lp2561
g1
(g10
g3
NtRp2562
(dp2563
g13
S'Say'
p2564
sg15
g2560
sg16
S''
sg18
S"Fee Fi Fo Fum, we think Mayor Goodman's Dumb!"
p2565
sbag1
(g10
g3
NtRp2566
(dp2567
g13
S'RequireFlag'
p2568
sg15
S'Protester1'
p2569
sg16
S'PROTESTORS'
p2570
sg18
S''
sbag1
(g10
g3
NtRp2571
(dp2572
g13
S'Encounter'
p2573
sg15
S'Protester1'
p2574
sg16
S'P-easy-02'
p2575
sg18
S''
sbag1
(g10
g3
NtRp2576
(dp2577
g13
S'Destroy'
p2578
sg15
S'Protester1'
p2579
sg16
S''
sg18
S''
sbasS'#----------------------------------------------------------------------------------------ACT 2 \xe2\x80\x93 Part 1---------------------------------------------------------------------------------------------------------------------------------------------------'
p2580
(lp2581
g1
(g10
g3
NtRp2582
(dp2583
g13
S''
sg15
g2580
sg16
S''
sg18
S''
sbasS'Head Protester'
p2584
(lp2585
g1
(g10
g3
NtRp2586
(dp2587
g13
S'Say'
p2588
sg15
g2584
sg16
S''
sg18
S"I am the head protester. You'll never convince us to back down!"
p2589
sbag1
(g10
g3
NtRp2590
(dp2591
g13
S'RequireFlag'
p2592
sg15
S'Head Protester'
p2593
sg16
S'PROTESTORS'
p2594
sg18
S''
sbag1
(g10
g3
NtRp2595
(dp2596
g13
S'PlayerSay'
p2597
sg15
S'Head Protester'
p2598
sg16
S''
sg18
S'What are you protesting?'
p2599
sbag1
(g10
g3
NtRp2600
(dp2601
g13
S'Say'
p2602
sg15
S'Head Protester'
p2603
sg16
S''
sg18
S'Er...Injustice!'
p2604
sbag1
(g10
g3
NtRp2605
(dp2606
g13
S'PlayerSay'
p2607
sg15
S'Head Protester'
p2608
sg16
S''
sg18
S'Injustice against what?'
p2609
sbag1
(g10
g3
NtRp2610
(dp2611
g13
S'Say'
p2612
sg15
S'Head Protester'
p2613
sg16
S''
sg18
S'...'
p2614
sbag1
(g10
g3
NtRp2615
(dp2616
g13
S'Say'
p2617
sg15
S'Head Protester'
p2618
sg16
S''
sg18
S'The People!'
p2619
sbag1
(g10
g3
NtRp2620
(dp2621
g13
S'PlayerSay'
p2622
sg15
S'Head Protester'
p2623
sg16
S''
sg18
S'Yes, but which people?'
p2624
sbag1
(g10
g3
NtRp2625
(dp2626
g13
S'Say'
p2627
sg15
S'Head Protester'
p2628
sg16
S''
sg18
S'See? What a fascist, ALL people you slimey politician scum!'
p2629
sbag1
(g10
g3
NtRp2630
(dp2631
g13
S'Encounter'
p2632
sg15
S'Head Protester'
p2633
sg16
S'P-easy-04'
p2634
sg18
S''
sbag1
(g10
g3
NtRp2635
(dp2636
g13
S'Say'
p2637
sg15
S'Head Protester'
p2638
sg16
S''
sg18
S"Alright, fine! We'll stop protesting...whatever we were protesting."
p2639
sbag1
(g10
g3
NtRp2640
(dp2641
g13
S'SetFlag'
p2642
sg15
S'Head Protester'
p2643
sg16
S'PROTESTORSDEAD'
p2644
sg18
S''
sbag1
(g10
g3
NtRp2645
(dp2646
g13
S'Destroy'
p2647
sg15
S'Head Protester'
p2648
sg16
S''
sg18
S''
sbasS'Sponsor'
p2649
(lp2650
g1
(g10
g3
NtRp2651
(dp2652
g13
S'RequireFlag'
p2653
sg15
g2649
sg16
S'STARTSPONSOR'
p2654
sg18
S"Hmmm...Money, money, money. Sorry, what? I wasn't talking to you."
p2655
sbag1
(g10
g3
NtRp2656
(dp2657
g13
S'Say'
p2658
sg15
S'Sponsor'
p2659
sg16
S''
sg18
S"Hello, I'm investigating new investments today. How can I help you?"
p2660
sbag1
(g10
g3
NtRp2661
(dp2662
g13
S'PlayerSay'
p2663
sg15
S'Sponsor'
p2664
sg16
S''
sg18
S"Well, I've decided to run for Mayor! I could really use an investor."
p2665
sbag1
(g10
g3
NtRp2666
(dp2667
g13
S'Say'
p2668
sg15
S'Sponsor'
p2669
sg16
S''
sg18
S"I don't know. You seem a little young. I don't think I'm convinced."
p2670
sbag1
(g10
g3
NtRp2671
(dp2672
g13
S'Encounter'
p2673
sg15
S'Sponsor'
p2674
sg16
S'P-easy-06'
p2675
sg18
S''
sbag1
(g10
g3
NtRp2676
(dp2677
g13
S'Say'
p2678
sg15
S'Sponsor'
p2679
sg16
S''
sg18
S"Wow! You sure have what it takes! Alright, he's a pile of cash!"
p2680
sbag1
(g10
g3
NtRp2681
(dp2682
g13
S'Say'
p2683
sg15
S'Sponsor'
p2684
sg16
S''
sg18
S'Also, now that you have some funds, you might find it useful to...grease the wheels in some difficult situations.'
p2685
sbag1
(g10
g3
NtRp2686
(dp2687
g13
S'LearnAttack'
p2688
sg15
S'Sponsor'
p2689
sg16
S'BRIBE'
p2690
sg18
S'Phillip and Sarah learn to Bribe'
p2691
sbag1
(g10
g3
NtRp2692
(dp2693
g13
S'LearnAttack'
p2694
sg15
S'Sponsor'
p2695
sg16
S'Wife:BRIBE'
p2696
sg18
S''
sbag1
(g10
g3
NtRp2697
(dp2698
g13
S'SetFlag'
p2699
sg15
S'Sponsor'
p2700
sg16
S'STARTCONSTITUENTS'
p2701
sg18
S''
sbag1
(g10
g3
NtRp2702
(dp2703
g13
S'PlayerSay'
p2704
sg15
S'Sponsor'
p2705
sg16
S''
sg18
S'Er, thanks! I suppose we should go gather some support from our constituents now.'
p2706
sbag1
(g10
g3
NtRp2707
(dp2708
g13
S'Say'
p2709
sg15
S'Sponsor'
p2710
sg16
S''
sg18
S"Makes sense to me! I'm off, too. Money, money, money."
p2711
sbag1
(g10
g3
NtRp2712
(dp2713
g13
S'Destroy'
p2714
sg15
S'Sponsor'
p2715
sg16
S''
sg18
S''
sbasS'CheatAct2P2'
p2716
(lp2717
g1
(g10
g3
NtRp2718
(dp2719
g13
S'AddAlly'
p2720
sg15
g2716
sg16
S'Wife:1'
p2721
sg18
S''
sbag1
(g10
g3
NtRp2722
(dp2723
g13
S'LearnAttack'
p2724
sg15
S'CheatAct2P2'
p2725
sg16
S'BRIBE'
p2726
sg18
S''
sbag1
(g10
g3
NtRp2727
(dp2728
g13
S'LearnAttack'
p2729
sg15
S'CheatAct2P2'
p2730
sg16
S'Wife:BRIBE'
p2731
sg18
S''
sbag1
(g10
g3
NtRp2732
(dp2733
g13
S'LearnAttack'
p2734
sg15
S'CheatAct2P2'
p2735
sg16
S'SLANDER'
p2736
sg18
S''
sbag1
(g10
g3
NtRp2737
(dp2738
g13
S'AddAlly'
p2739
sg15
S'CheatAct2P2'
p2740
sg16
S'Leo:1'
p2741
sg18
S''
sbag1
(g10
g3
NtRp2742
(dp2743
g13
S'GotoMap'
p2744
sg15
S'CheatAct2P2'
p2745
sg16
S'hotel_l1'
p2746
sg18
S''
sbasS'Journalist5'
p2747
(lp2748
g1
(g10
g3
NtRp2749
(dp2750
g13
S'RequireFlag'
p2751
sg15
g2747
sg16
S'ACCESSJOURNALISTS'
p2752
sg18
S'Just one question?'
p2753
sbag1
(g10
g3
NtRp2754
(dp2755
g13
S'Say'
p2756
sg15
S'Journalist5'
p2757
sg16
S''
sg18
S'Do you feel that a bi-partisan relationship will be possible between your party and the opposition?'
p2758
sbag1
(g10
g3
NtRp2759
(dp2760
g13
S'PlayerSay'
p2761
sg15
S'Journalist5'
p2762
sg16
S''
sg18
S'I suppose once we find and remove all of the aliens and reverse the alien brainwashing, bi-partisanship will resume.'
p2763
sbag1
(g10
g3
NtRp2764
(dp2765
g13
S'Encounter'
p2766
sg15
S'Journalist5'
p2767
sg16
S'P-hard-03'
p2768
sg18
S''
sbag1
(g10
g3
NtRp2769
(dp2770
g13
S'Say'
p2771
sg15
S'Journalist5'
p2772
sg16
S''
sg18
S'Thankyou, President Mossman.'
p2773
sbag1
(g10
g3
NtRp2774
(dp2775
g13
S'Increment'
p2776
sg15
S'Journalist5'
p2777
sg16
S'PRESSCONF'
p2778
sg18
S''
sbag1
(g10
g3
NtRp2779
(dp2780
g13
S'Destroy'
p2781
sg15
S'Journalist5'
p2782
sg16
S''
sg18
S''
sbasS'Politician5'
p2783
(lp2784
g1
(g10
g3
NtRp2785
(dp2786
g13
S'RequireFlag'
p2787
sg15
g2783
sg16
S'STARTPOLITICIANSHAKEDOWN'
p2788
sg18
S'Good morning, Governor Mossman. Your PA will know your schedule. He is waiting beside the stairs'
p2789
sbag1
(g10
g3
NtRp2790
(dp2791
g13
S'Say'
p2792
sg15
S'Politician5'
p2793
sg16
S''
sg18
S'Big business!'
p2794
sbag1
(g10
g3
NtRp2795
(dp2796
g13
S'PlayerSay'
p2797
sg15
S'Politician5'
p2798
sg16
S''
sg18
S'What about big business.'
p2799
sbag1
(g10
g3
NtRp2800
(dp2801
g13
S'Say'
p2802
sg15
S'Politician5'
p2803
sg16
S''
sg18
S'...MORE big business!'
p2804
sbag1
(g10
g3
NtRp2805
(dp2806
g13
S'PlayerSay'
p2807
sg15
S'Politician5'
p2808
sg16
S''
sg18
S'You want to grow our business sector? Provide more jobs?'
p2809
sbag1
(g10
g3
NtRp2810
(dp2811
g13
S'Say'
p2812
sg15
S'Politician5'
p2813
sg16
S''
sg18
S'...Yeeeeh. Yes. Yes, that.'
p2814
sbag1
(g10
g3
NtRp2815
(dp2816
g13
S'PlayerSay'
p2817
sg15
S'Politician5'
p2818
sg16
S''
sg18
S'What about small business?'
p2819
sbag1
(g10
g3
NtRp2820
(dp2821
g13
S'Say'
p2822
sg15
S'Politician5'
p2823
sg16
S''
sg18
S'No! We need to make it BIGGER!'
p2824
sbag1
(g10
g3
NtRp2825
(dp2826
g13
S'Encounter'
p2827
sg15
S'Politician5'
p2828
sg16
S'P-med-09'
p2829
sg18
S''
sbag1
(g10
g3
NtRp2830
(dp2831
g13
S'Say'
p2832
sg15
S'Politician5'
p2833
sg16
S''
sg18
S"OK, I see what you're getting at. Lets help small business to grow."
p2834
sbag1
(g10
g3
NtRp2835
(dp2836
g13
S'Increment'
p2837
sg15
S'Politician5'
p2838
sg16
S'POLITICIANSHAKEDOWN'
p2839
sg18
S''
sbag1
(g10
g3
NtRp2840
(dp2841
g13
S'Destroy'
p2842
sg15
S'Politician5'
p2843
sg16
S''
sg18
S''
sbasS'StairsToBasement'
p2844
(lp2845
g1
(g10
g3
NtRp2846
(dp2847
g13
S'RequireFlagPlayerSay'
p2848
sg15
g2844
sg16
S'ACCESSBASEMENT'
p2849
sg18
S'Smells like a basement. I have no business going down there.'
p2850
sbag1
(g10
g3
NtRp2851
(dp2852
g13
S'Label'
p2853
sg15
S'StairsToBasement'
p2854
sg16
S'START'
p2855
sg18
S''
sbag1
(g10
g3
NtRp2856
(dp2857
g13
S'GotoMap'
p2858
sg15
S'StairsToBasement'
p2859
sg16
S'hotel_basement'
p2860
sg18
S''
sbag1
(g10
g3
NtRp2861
(dp2862
g13
S'Jump'
p2863
sg15
S'StairsToBasement'
p2864
sg16
S'START'
p2865
sg18
S''
sbasS'P-med-12'
p2866
(lp2867
g1
(g10
g3
NtRp2868
(dp2869
g13
S'Say'
p2870
sg15
g2866
sg16
S'Lobbyist001'
p2871
sg18
S'import combat'
p2872
sbasS'Lobbyist3'
p2873
(lp2874
g1
(g10
g3
NtRp2875
(dp2876
g13
S'RequireFlag'
p2877
sg15
g2873
sg16
S'STARTLOBBYISTS'
p2878
sg18
S'Mutter, mutter'
p2879
sbag1
(g10
g3
NtRp2880
(dp2881
g13
S'Say'
p2882
sg15
S'Lobbyist3'
p2883
sg16
S''
sg18
S'Protection of internet memes'
p2884
sbag1
(g10
g3
NtRp2885
(dp2886
g13
S'Encounter'
p2887
sg15
S'Lobbyist3'
p2888
sg16
S'P-med-13'
p2889
sg18
S''
sbag1
(g10
g3
NtRp2890
(dp2891
g13
S'Increment'
p2892
sg15
S'Lobbyist3'
p2893
sg16
S'LOBBYISTS'
p2894
sg18
S''
sbag1
(g10
g3
NtRp2895
(dp2896
g13
S'Say'
p2897
sg15
S'Lobbyist3'
p2898
sg16
S''
sg18
S"It's a start."
p2899
sbag1
(g10
g3
NtRp2900
(dp2901
g13
S'Destroy'
p2902
sg15
S'Lobbyist3'
p2903
sg16
S''
sg18
S''
sbasS'Mayor'
p2904
(lp2905
g1
(g10
g3
NtRp2906
(dp2907
g13
S'Say'
p2908
sg15
g2904
sg16
S''
sg18
S"Hello, I'm the Mayor!"
p2909
sbag1
(g10
g3
NtRp2910
(dp2911
g13
S'PlayerSay'
p2912
sg15
S'Mayor'
p2913
sg16
S''
sg18
S"Hello, Mayor Goodman, I'm Philip Mossman."
p2914
sbag1
(g10
g3
NtRp2915
(dp2916
g13
S'Say'
p2917
sg15
S'Mayor'
p2918
sg16
S''
sg18
S"Ah yes, you're my new assistant. A good thing, too."
p2919
sbag1
(g10
g3
NtRp2920
(dp2921
g13
S'Say'
p2922
sg15
S'Mayor'
p2923
sg16
S''
sg18
S"I've been searching for minutes and haven't been able to find my pen! I bet my receptionist stole it. She has sticky fingers."
p2924
sbag1
(g10
g3
NtRp2925
(dp2926
g13
S'Say'
p2927
sg15
S'Mayor'
p2928
sg16
S''
sg18
S"Well, don't just stand there, go and get it!"
p2929
sbag1
(g10
g3
NtRp2930
(dp2931
g13
S'SetFlag'
p2932
sg15
S'Mayor'
p2933
sg16
S'PENQUEST'
p2934
sg18
S''
sbag1
(g10
g3
NtRp2935
(dp2936
g13
S'RequireItem'
p2937
sg15
S'Mayor'
p2938
sg16
S'PEN'
p2939
sg18
S'Are you simple? Go and get my pen from that thieving receptionist.'
p2940
sbag1
(g10
g3
NtRp2941
(dp2942
g13
S'Say'
p2943
sg15
S'Mayor'
p2944
sg16
S''
sg18
S"Great! I know she can give you a bit of a tongue-lashing, but she's a fantastic receptionist."
p2945
sbag1
(g10
g3
NtRp2946
(dp2947
g13
S'Say'
p2948
sg15
S'Mayor'
p2949
sg16
S''
sg18
S"I'm sure you want to learn a thing or two about politics \xe2\x80\x93 who doesn't? - so lets get started"
p2950
sbag1
(g10
g3
NtRp2951
(dp2952
g13
S'SetFlag'
p2953
sg15
S'Mayor'
p2954
sg16
S'PROTESTORS'
p2955
sg18
S''
sbag1
(g10
g3
NtRp2956
(dp2957
g13
S'RequireFlag'
p2958
sg15
S'Mayor'
p2959
sg16
S'PROTESTORSDEAD'
p2960
sg18
S'Run outside and tell those protesters to scram, will you?'
p2961
sbag1
(g10
g3
NtRp2962
(dp2963
g13
S'Say'
p2964
sg15
S'Mayor'
p2965
sg16
S''
sg18
S"Hope they didn't give you too much trouble!"
p2966
sbag1
(g10
g3
NtRp2967
(dp2968
g13
S'Say'
p2969
sg15
S'Mayor'
p2970
sg16
S''
sg18
S"Now that's sorted, there's a journalist from the local newspaper coming for an interview."
p2971
sbag1
(g10
g3
NtRp2972
(dp2973
g13
S'Say'
p2974
sg15
S'Mayor'
p2975
sg16
S''
sg18
S"I certainly don't have time for it, so you can do the interview."
p2976
sbag1
(g10
g3
NtRp2977
(dp2978
g13
S'Say'
p2979
sg15
S'Mayor'
p2980
sg16
S''
sg18
S"Be careful not to give too much away and if you could throw a few punches at the opposition that'd help."
p2981
sbag1
(g10
g3
NtRp2982
(dp2983
g13
S'PlayerSay'
p2984
sg15
S'Mayor'
p2985
sg16
S''
sg18
S'You want me to...throw a punch?'
p2986
sbag1
(g10
g3
NtRp2987
(dp2988
g13
S'Say'
p2989
sg15
S'Mayor'
p2990
sg16
S''
sg18
S"You're in politics and don't know how to fight dirty? Sheesh! Here, let me show you."
p2991
sbag1
(g10
g3
NtRp2992
(dp2993
g13
S'LearnAttack'
p2994
sg15
S'Mayor'
p2995
sg16
S'SLANDER'
p2996
sg18
S'Mayor teaches Phillip to Slander Opposition'
p2997
sbag1
(g10
g3
NtRp2998
(dp2999
g13
S'Say'
p3000
sg15
S'Mayor'
p3001
sg16
S''
sg18
S"It's a pretty great tactic because it keeps eating away at them long after you've done it."
p3002
sbag1
(g10
g3
NtRp3003
(dp3004
g13
S'SetFlag'
p3005
sg15
S'Mayor'
p3006
sg16
S'INTERVIEWSTART'
p3007
sg18
S''
sbag1
(g10
g3
NtRp3008
(dp3009
g13
S'RequireFlag'
p3010
sg15
S'Mayor'
p3011
sg16
S'JOURNALISTINTERVIEW'
p3012
sg18
S'Go handle that interview and remember to slander the opposition.'
p3013
sbag1
(g10
g3
NtRp3014
(dp3015
g13
S'SetFlag'
p3016
sg15
S'Mayor'
p3017
sg16
S'GOHOMETOWIFE'
p3018
sg18
S''
sbag1
(g10
g3
NtRp3019
(dp3020
g13
S'Say'
p3021
sg15
S'Mayor'
p3022
sg16
S''
sg18
S'OK, fine, now could you buzz off for a while? I need to get some work done.'
p3023
sbag1
(g10
g3
NtRp3024
(dp3025
g13
S'RequireFlag'
p3026
sg15
S'Mayor'
p3027
sg16
S'CONSTITUENTSWON'
p3028
sg18
S"Go home to your family. I have things to do that don't involve you."
p3029
sbag1
(g10
g3
NtRp3030
(dp3031
g13
S'Say'
p3032
sg15
S'Mayor'
p3033
sg16
S''
sg18
S"What's this I hear about you campaigning for Mayor? After everything I've taught you!"
p3034
sbag1
(g10
g3
NtRp3035
(dp3036
g13
S'PlayerSay'
p3037
sg15
S'Mayor'
p3038
sg16
S''
sg18
S"I'm sorry Mayor Goodman, but it's time for someone who's ready to make a difference for our town."
p3039
sbag1
(g10
g3
NtRp3040
(dp3041
g13
S'Say'
p3042
sg15
S'Mayor'
p3043
sg16
S''
sg18
S"You really are a fool. Do you think He's going to allow that?"
p3044
sbag1
(g10
g3
NtRp3045
(dp3046
g13
S'Encounter'
p3047
sg15
S'Mayor'
p3048
sg16
S'P-easy-10'
p3049
sg18
S''
sbag1
(g10
g3
NtRp3050
(dp3051
g13
S'Say'
p3052
sg15
S'Mayor'
p3053
sg16
S''
sg18
S"Well, you've beaten me but you don't have a clue what you're in for. I hope you're up to this kid!"
p3054
sbag1
(g10
g3
NtRp3055
(dp3056
g13
S'Destroy'
p3057
sg15
S'Mayor'
p3058
sg16
S''
sg18
S''
sbasS'StairsToL2'
p3059
(lp3060
g1
(g10
g3
NtRp3061
(dp3062
g13
S'Label'
p3063
sg15
g3059
sg16
S'START'
p3064
sg18
S''
sbag1
(g10
g3
NtRp3065
(dp3066
g13
S'GotoMap'
p3067
sg15
S'StairsToL2'
p3068
sg16
S'hotel_l2'
p3069
sg18
S''
sbag1
(g10
g3
NtRp3070
(dp3071
g13
S'Jump'
p3072
sg15
S'StairsToL2'
p3073
sg16
S'START'
p3074
sg18
S''
sbassS'attacks'
p3075
(dp3076
S'GETEXCLUSIVE'
p3077
g1
(g10
g3
NtRp3078
(dp3079
S'base_damage_max'
p3080
F-2
sS'description'
p3081
S'asdf'
p3082
sS'weight'
p3083
I1
sS'crit_chance_max'
p3084
F0
sS'crit_chance_min'
p3085
F0
sS'underlying_stat'
p3086
S'Wit'
p3087
sS'target_type'
p3088
S'AllFriendly'
p3089
sS'base_damage_min'
p3090
F-2
sS'spin_cost'
p3091
F5
sS'effects'
p3092
(lp3093
g1
(c__main__
Effect
p3094
g3
NtRp3095
(dp3096
S'function'
p3097
S'add'
p3098
sS'abbrv'
p3099
S'(INCREASE)'
p3100
sS'attribute'
p3101
S'cunning'
p3102
sS'value'
p3103
F2
sS'rounds_min'
p3104
F1
sS'rounds_max'
p3105
F4
sS'id'
p3106
S'Increase Cunning'
p3107
sS'apply_to_source'
p3108
S'TRUE'
p3109
sbasS'target_count'
p3110
I1
sS'crit_base_damage'
p3111
F0
sg3106
g3077
sS'name'
p3112
S'Get Exclusive'
p3113
sbsS'LOSELOSE'
p3114
g1
(g10
g3
NtRp3115
(dp3116
g3080
F4
sg3081
S'Causes all politicians in the target radius to lose votes'
p3117
sg3083
I1
sg3084
F0
sg3085
F0
sg3086
S'Cunning'
p3118
sg3088
S'All'
p3119
sg3090
F4
sg3091
I0
sg3092
(lp3120
sg3110
I6
sg3111
F0
sg3106
g3114
sg3112
S'Lose/lose issue'
p3121
sbsS'LIE'
p3122
g1
(g10
g3
NtRp3123
(dp3124
g3080
F11
sg3081
S"It's only lying if they catch you. A strong attack with a danger of critically failing"
p3125
sg3083
F3
sg3084
F10
sg3085
F5
sg3086
S'Cunning'
p3126
sg3088
S'AllEnemy'
p3127
sg3090
F0
sg3091
I0
sg3092
(lp3128
g1
(g3094
g3
NtRp3129
(dp3130
g3097
S'miss_turn'
p3131
sg3099
S'(MISS)'
p3132
sg3101
S''
sg3103
F0
sg3104
F1
sg3105
F1
sg3106
S'Critical Fail'
p3133
sg3108
S'TRUE'
p3134
sbasg3110
I1
sg3111
F13
sg3106
g3122
sg3112
S'Lie'
p3135
sbsS'HILARIOUSANECDOTE'
p3136
g1
(g10
g3
NtRp3137
(dp3138
g3080
F8
sg3081
S'asdf'
p3139
sg3083
I1
sg3084
F5
sg3085
F2
sg3086
S'Wit'
p3140
sg3088
S'AllFriendly'
p3141
sg3090
F4
sg3091
F5
sg3092
(lp3142
g1
(g3094
g3
NtRp3143
(dp3144
g3097
S'add'
p3145
sg3099
S'(INCREASE)'
p3146
sg3101
S'flair'
p3147
sg3103
F2
sg3104
F1
sg3105
F4
sg3106
S'Increase Flair'
p3148
sg3108
S'TRUE'
p3149
sbasg3110
I1
sg3111
F11
sg3106
g3136
sg3112
S'Hilarious Anecdote'
p3150
sbsS'SENSATIONALISE'
p3151
g1
(g10
g3
NtRp3152
(dp3153
g3080
F8
sg3081
S'asdf'
p3154
sg3083
I1
sg3084
F0
sg3085
F0
sg3086
S'Wit'
p3155
sg3088
S'AllEnemy'
p3156
sg3090
F4
sg3091
F3
sg3092
(lp3157
sg3110
I1
sg3111
F0
sg3106
g3151
sg3112
S'Sensationalise'
p3158
sbsS'DENOUNCE'
p3159
g1
(g10
g3
NtRp3160
(dp3161
g3080
F5
sg3081
S'asdf'
p3162
sg3083
F6
sg3084
F10
sg3085
F2
sg3086
S'Cunning'
p3163
sg3088
S'AllEnemy'
p3164
sg3090
F2
sg3091
I0
sg3092
(lp3165
sg3110
I1
sg3111
F8
sg3106
g3159
sg3112
S'Denounce'
p3166
sbsS'WHADOWEWANT'
p3167
g1
(g10
g3
NtRp3168
(dp3169
g3080
F5
sg3081
S'asdf'
p3170
sg3083
I1
sg3084
F0
sg3085
F0
sg3086
S'Cunning'
p3171
sg3088
S'AllEnemy'
p3172
sg3090
F2
sg3091
I0
sg3092
(lp3173
sg3110
I1
sg3111
F0
sg3106
g3167
sg3112
S'Whadowewant!'
p3174
sbsS'SCOOP'
p3175
g1
(g10
g3
NtRp3176
(dp3177
g3080
F5
sg3081
S'asdf'
p3178
sg3083
I1
sg3084
F10
sg3085
F5
sg3086
S'Cunning'
p3179
sg3088
S'AllEnemy'
p3180
sg3090
F2
sg3091
I0
sg3092
(lp3181
sg3110
I1
sg3111
F8
sg3106
g3175
sg3112
S'Scoop'
p3182
sbsS'CHOOSETARGETS'
p3183
g1
(g10
g3
NtRp3184
(dp3185
g3080
F7
sg3081
S'asdf'
p3186
sg3083
I1
sg3084
F10
sg3085
F5
sg3086
S'Cunning'
p3187
sg3088
S'AllEnemy'
p3188
sg3090
F2
sg3091
I0
sg3092
(lp3189
sg3110
I1
sg3111
F9
sg3106
g3183
sg3112
S'Choose Targets'
p3190
sbsS'FILENAILS'
p3191
g1
(g10
g3
NtRp3192
(dp3193
g3080
F0
sg3081
S'asdf'
p3194
sg3083
I1
sg3084
F0
sg3085
F0
sg3086
S'Wit'
p3195
sg3088
S'AllEnemy'
p3196
sg3090
F0
sg3091
F3
sg3092
(lp3197
g1
(g3094
g3
NtRp3198
(dp3199
g3097
S'add_permanent'
p3200
sg3099
S''
sg3101
S'votes'
p3201
sg3103
F5
sg3104
F1
sg3105
F1
sg3106
S'Votes Restore'
p3202
sg3108
S''
sbasg3110
I1
sg3111
F0
sg3106
g3191
sg3112
S'File Nails'
p3203
sbsS'BRIBE'
p3204
g1
(g10
g3
NtRp3205
(dp3206
g3080
F10
sg3081
S'Is there anything more convincing than money? Buying loyalty gets expensive so be careful.'
p3207
sg3083
I1
sg3084
F0
sg3085
F0
sg3086
S'Money'
p3208
sg3088
S'AllEnemy'
p3209
sg3090
F4
sg3091
I0
sg3092
(lp3210
sg3110
I1
sg3111
F0
sg3106
g3204
sg3112
S'Bribe'
p3211
sbsS'SING'
p3212
g1
(g10
g3
NtRp3213
(dp3214
g3080
F-3
sg3081
S'Why bandy words with politicians when you can sing a catchy tune! Restores votes.'
p3215
sg3083
I1
sg3084
F0
sg3085
F0
sg3086
S'Cunning'
p3216
sg3088
S'AllFriendly'
p3217
sg3090
F-5
sg3091
I0
sg3092
(lp3218
sg3110
I4
sg3111
F0
sg3106
g3212
sg3112
S'Rousing Song'
p3219
sbsS'FEAR'
p3220
g1
(g10
g3
NtRp3221
(dp3222
g3080
F0
sg3081
S'asdf'
p3223
sg3083
F2
sg3084
F0
sg3085
F0
sg3086
S'Wit'
p3224
sg3088
S'AllFriendly'
p3225
sg3090
F0
sg3091
F4
sg3092
(lp3226
g3095
asg3110
I1
sg3111
F0
sg3106
g3220
sg3112
S'Fear Change'
p3227
sbsS'RAISEDEFCON'
p3228
g1
(g10
g3
NtRp3229
(dp3230
g3080
F5
sg3081
S'asdf'
p3231
sg3083
I1
sg3084
F7
sg3085
F3
sg3086
S'Cunning'
p3232
sg3088
S'AllEnemy'
p3233
sg3090
F4
sg3091
I0
sg3092
(lp3234
sg3110
I1
sg3111
F8
sg3106
g3228
sg3112
S'Raise DEFCON'
p3235
sbsS'BILLBOARD'
p3236
g1
(g10
g3
NtRp3237
(dp3238
g3080
F0
sg3081
S'Run a billboard ad to restore up to 30 votes'
p3239
sg3083
I1
sg3084
F0
sg3085
F0
sg3086
S''
sg3088
S'AllFriendly'
p3240
sg3090
F0
sg3091
I0
sg3092
(lp3241
g1
(g3094
g3
NtRp3242
(dp3243
g3097
S'add_permanent'
p3244
sg3099
S''
sg3101
S'votes'
p3245
sg3103
F30
sg3104
F1
sg3105
F1
sg3106
S'Votes Restore Billboard'
p3246
sg3108
S''
sbasg3110
I1
sg3111
F0
sg3106
g3236
sg3112
S'Billboard Ad'
p3247
sbsS'NEGATTACKAD'
p3248
g1
(g10
g3
NtRp3249
(dp3250
g3080
F8
sg3081
S"Take them all down. They're definitely all bad people. Not like you."
p3251
sg3083
I1
sg3084
F10
sg3085
F10
sg3086
S'Wit'
p3252
sg3088
S'AllEnemy'
p3253
sg3090
F4
sg3091
F3
sg3092
(lp3254
sg3110
I1
sg3111
F10
sg3106
g3248
sg3112
S'Negative Attack Ad'
p3255
sbsS'DAZZLE'
p3256
g1
(g10
g3
NtRp3257
(dp3258
g3080
F6
sg3081
S'Being dazzling and admirable is a great way to take heat off politics'
p3259
sg3083
I1
sg3084
F8
sg3085
F5
sg3086
S'Wit'
p3260
sg3088
S'AllEnemy'
p3261
sg3090
F3
sg3091
F3
sg3092
(lp3262
g1
(g3094
g3
NtRp3263
(dp3264
g3097
S'reduce'
p3265
sg3099
S'(REDUCE)'
p3266
sg3101
S'cunning'
p3267
sg3103
F2
sg3104
F2
sg3105
F5
sg3106
S'Reduce Cunning'
p3268
sg3108
S''
sbasg3110
I4
sg3111
F8
sg3106
g3256
sg3112
S'Dazzle'
p3269
sbsS'BELIEVEMEDIA'
p3270
g1
(g10
g3
NtRp3271
(dp3272
g3080
F3
sg3081
S'asdf'
p3273
sg3083
I1
sg3084
F15
sg3085
F10
sg3086
S'Cunning'
p3274
sg3088
S'AllEnemy'
p3275
sg3090
F1
sg3091
I0
sg3092
(lp3276
sg3110
I1
sg3111
F12
sg3106
g3270
sg3112
S'Believe Media'
p3277
sbsS'PRPREP'
p3278
g1
(g10
g3
NtRp3279
(dp3280
g3080
F0
sg3081
S"If you're going to need some spin, best see a spin doctor! Adds spin points."
p3281
sg3083
I1
sg3084
F0
sg3085
F0
sg3086
S''
sg3088
S'AllFriendly'
p3282
sg3090
F0
sg3091
I0
sg3092
(lp3283
g1
(g3094
g3
NtRp3284
(dp3285
g3097
S'add_permanent'
p3286
sg3099
S''
sg3101
S'spin'
p3287
sg3103
F5
sg3104
F0
sg3105
F0
sg3106
S'Spin Restore'
p3288
sg3108
S'TRUE'
p3289
sbasg3110
I1
sg3111
F0
sg3106
g3278
sg3112
S'PR Prep'
p3290
sbsS'CALLVATICAN'
p3291
g1
(g10
g3
NtRp3292
(dp3293
g3080
F0
sg3081
S'Brings in 2 additional ReligousNuts at 2 levels lower than this one'
p3294
sg3083
I1
sg3084
F0
sg3085
F0
sg3086
S'Wit'
p3295
sg3088
S'None'
p3296
sg3090
F0
sg3091
F5
sg3092
(lp3297
g1
(g3094
g3
NtRp3298
(dp3299
g3097
S'call_friends'
p3300
sg3099
S''
sg3101
S'ReligiousNut001:1'
p3301
sg3103
F2
sg3104
F1
sg3105
F1
sg3106
S'Call Friends'
p3302
sg3108
S''
sbasg3110
I1
sg3111
F0
sg3106
g3291
sg3112
S'Call Battycan'
p3303
sbsS'BLACKMAIL'
p3304
g1
(g10
g3
NtRp3305
(dp3306
g3080
F6
sg3081
S'asdf'
p3307
sg3083
I1
sg3084
F10
sg3085
F2
sg3086
S'Wit'
p3308
sg3088
S'AllEnemy'
p3309
sg3090
F3
sg3091
F4
sg3092
(lp3310
g1
(g3094
g3
NtRp3311
(dp3312
g3097
S'drain'
p3313
sg3099
S'(DRAIN)'
p3314
sg3101
S'votes'
p3315
sg3103
F1
sg3104
F2
sg3105
F5
sg3106
S'Drain Votes'
p3316
sg3108
S''
sbasg3110
I1
sg3111
F2
sg3106
g3304
sg3112
S'Blackmail'
p3317
sbsS'SCARE'
p3318
g1
(g10
g3
NtRp3319
(dp3320
g3080
F7
sg3081
S'Nothing rattles the brains like fear.'
p3321
sg3083
I1
sg3084
F10
sg3085
F2
sg3086
S'Cunning'
p3322
sg3088
S'AllEnemy'
p3323
sg3090
F2
sg3091
I0
sg3092
(lp3324
g3263
asg3110
I2
sg3111
F9
sg3106
g3318
sg3112
S'Scare Campaign'
p3325
sbsS'PROTEST'
p3326
g1
(g10
g3
NtRp3327
(dp3328
g3080
F5
sg3081
S'asdf'
p3329
sg3083
F6
sg3084
F10
sg3085
F2
sg3086
S'Cunning'
p3330
sg3088
S'AllEnemy'
p3331
sg3090
F2
sg3091
I0
sg3092
(lp3332
sg3110
I1
sg3111
F8
sg3106
g3326
sg3112
S'Protest'
p3333
sbsS'SPREADRUMOUR'
p3334
g1
(g10
g3
NtRp3335
(dp3336
g3080
F8
sg3081
S'asdf'
p3337
sg3083
I1
sg3084
F10
sg3085
F2
sg3086
S'Wit'
p3338
sg3088
S'AllEnemy'
p3339
sg3090
F3
sg3091
F3
sg3092
(lp3340
sg3110
I4
sg3111
F10
sg3106
g3334
sg3112
S'Spread Rumour'
p3341
sbsS'AGENDA'
p3342
g1
(g10
g3
NtRp3343
(dp3344
g3080
F5
sg3081
S'asdf'
p3345
sg3083
F6
sg3084
F10
sg3085
F2
sg3086
S'Cunning'
p3346
sg3088
S'AllEnemy'
p3347
sg3090
F2
sg3091
I0
sg3092
(lp3348
sg3110
I1
sg3111
F8
sg3106
g3342
sg3112
S'Push Agenda'
p3349
sbsS'FILIBUSTER'
p3350
g1
(g10
g3
NtRp3351
(dp3352
g3080
F6
sg3081
S"You're not moving until they give in. Cause all opposition to miss their turn"
p3353
sg3083
I1
sg3084
F0
sg3085
F0
sg3086
S'Wit'
p3354
sg3088
S'AllEnemy'
p3355
sg3090
F3
sg3091
F8
sg3092
(lp3356
g1
(g3094
g3
NtRp3357
(dp3358
g3097
S'miss_turn'
p3359
sg3099
S'(MISS)'
p3360
sg3101
S''
sg3103
F0
sg3104
F1
sg3105
F1
sg3106
S'Miss Turn'
p3361
sg3108
S''
sbasg3110
I1
sg3111
F0
sg3106
g3350
sg3112
S'Filibuster'
p3362
sbsS'GATHERINTEL'
p3363
g1
(g10
g3
NtRp3364
(dp3365
g3080
F0
sg3081
S'Increases Cunning.'
p3366
sg3083
I1
sg3084
F0
sg3085
F0
sg3086
S'Wit'
p3367
sg3088
S'AllFriendly'
p3368
sg3090
F0
sg3091
F3
sg3092
(lp3369
g3095
asg3110
I2
sg3111
F0
sg3106
g3363
sg3112
S'Gather Intelligence'
p3370
sbsS'LOVE'
p3371
g1
(g10
g3
NtRp3372
(dp3373
g3080
F6
sg3081
S'asdf'
p3374
sg3083
F2
sg3084
F8
sg3085
F2
sg3086
S'Cunning'
p3375
sg3088
S'AllEnemy'
p3376
sg3090
F1
sg3091
I0
sg3092
(lp3377
sg3110
I1
sg3111
F7
sg3106
g3371
sg3112
S'Love'
p3378
sbsS'OUTOFCONTEXT'
p3379
g1
(g10
g3
NtRp3380
(dp3381
g3080
F5
sg3081
S'asdf'
p3382
sg3083
I1
sg3084
F5
sg3085
F2
sg3086
S'Wit'
p3383
sg3088
S'AllEnemy'
p3384
sg3090
F3
sg3091
F2
sg3092
(lp3385
g3311
asg3110
I1
sg3111
F5
sg3106
g3379
sg3112
S'Take Out Of Context'
p3386
sbsS'GREATSUIT'
p3387
g1
(g10
g3
NtRp3388
(dp3389
g3080
F6
sg3081
S'Well, we could argue, but have you noticed how fabulous this suit is?'
p3390
sg3083
I1
sg3084
F11
sg3085
F6
sg3086
S'Cunning'
p3391
sg3088
S'AllEnemy'
p3392
sg3090
F3
sg3091
I0
sg3092
(lp3393
sg3110
I1
sg3111
F10
sg3106
g3387
sg3112
S'Look Great In Suit'
p3394
sbsS'PEACE'
p3395
g1
(g10
g3
NtRp3396
(dp3397
g3080
F0
sg3081
S'asdf'
p3398
sg3083
I1
sg3084
F0
sg3085
F0
sg3086
S'Wit'
p3399
sg3088
S'AllEnemy'
p3400
sg3090
F0
sg3091
F3
sg3092
(lp3401
g3263
asg3110
I4
sg3111
F0
sg3106
g3395
sg3112
S'Peace'
p3402
sbsS'INSPSPEECH'
p3403
g1
(g10
g3
NtRp3404
(dp3405
g3080
F-2
sg3081
S'Restore votes to all party members'
p3406
sg3083
I1
sg3084
F0
sg3085
F0
sg3086
S'Cunning'
p3407
sg3088
S'AllFriendly'
p3408
sg3090
F-2
sg3091
I0
sg3092
(lp3409
sg3110
I4
sg3111
F0
sg3106
g3403
sg3112
S'Inspirational Speech'
p3410
sbsS'RALLYENEMY'
p3411
g1
(g10
g3
NtRp3412
(dp3413
g3080
F0
sg3081
S'Get back some votes by rallying supporters'
p3414
sg3083
I1
sg3084
F0
sg3085
F0
sg3086
S'Wit'
p3415
sg3088
S'AllFriendly'
p3416
sg3090
F0
sg3091
F3
sg3092
(lp3417
g1
(g3094
g3
NtRp3418
(dp3419
g3097
S'add_permanent'
p3420
sg3099
S''
sg3101
S'votes'
p3421
sg3103
F8
sg3104
F1
sg3105
F1
sg3106
S'Votes Restore Rally Enemy'
p3422
sg3108
S''
sbasg3110
I1
sg3111
F0
sg3106
g3411
sg3112
S'Rally Constituents'
p3423
sbsS'STRIKE'
p3424
g1
(g10
g3
NtRp3425
(dp3426
g3080
F10
sg3081
S'asdf'
p3427
sg3083
I1
sg3084
F0
sg3085
F0
sg3086
S'Wit'
p3428
sg3088
S'AllEnemy'
p3429
sg3090
F0
sg3091
F3
sg3092
(lp3430
g3129
asg3110
I1
sg3111
F0
sg3106
g3424
sg3112
S'Call A Strike'
p3431
sbsS'SLANDER'
p3432
g1
(g10
g3
NtRp3433
(dp3434
g3080
F5
sg3081
S'Strong against polititians...careful with those voters, though!'
p3435
sg3083
F4
sg3084
F10
sg3085
F2
sg3086
S'Cunning'
p3436
sg3088
S'AllEnemy'
p3437
sg3090
F3
sg3091
I0
sg3092
(lp3438
g3311
asg3110
I1
sg3111
F7
sg3106
g3432
sg3112
S'Slander Opposition'
p3439
sbsS'NATTER'
p3440
g1
(g10
g3
NtRp3441
(dp3442
g3080
F8
sg3081
S'asdf'
p3443
sg3083
I1
sg3084
F15
sg3085
F5
sg3086
S'Cunning'
p3444
sg3088
S'AllEnemy'
p3445
sg3090
F1
sg3091
I0
sg3092
(lp3446
sg3110
I1
sg3111
F10
sg3106
g3440
sg3112
S'Natter On'
p3447
sbsS'GOSSIP'
p3448
g1
(g10
g3
NtRp3449
(dp3450
g3080
F3
sg3081
S'asdf'
p3451
sg3083
I1
sg3084
F10
sg3085
F2
sg3086
S'Wit'
p3452
sg3088
S'AllEnemy'
p3453
sg3090
F2
sg3091
F2
sg3092
(lp3454
g3263
asg3110
I1
sg3111
F6
sg3106
g3448
sg3112
S'Gossip'
p3455
sbsS'MISSTURN'
p3456
g1
(g10
g3
NtRp3457
(dp3458
g3080
F0
sg3081
S'asdf'
p3459
sg3083
I1
sg3084
F0
sg3085
F0
sg3086
S''
sg3088
S'AllEnemy'
p3460
sg3090
F0
sg3091
I0
sg3092
(lp3461
sg3110
I1
sg3111
F0
sg3106
g3456
sg3112
S'Miss Turn'
p3462
sbsS'BIELECTION'
p3463
g1
(g10
g3
NtRp3464
(dp3465
g3080
F4
sg3081
S'Redistribute votes amongst targets'
p3466
sg3083
I1
sg3084
F0
sg3085
F0
sg3086
S'Wit'
p3467
sg3088
S'All'
p3468
sg3090
F-4
sg3091
F4
sg3092
(lp3469
sg3110
I8
sg3111
F0
sg3106
g3463
sg3112
S'Bielection'
p3470
sbsS'RUNAD'
p3471
g1
(g10
g3
NtRp3472
(dp3473
g3080
F0
sg3081
S'Gets back up to 15 votes by running an ad'
p3474
sg3083
I1
sg3084
F0
sg3085
F0
sg3086
S''
sg3088
S'AllFriendly'
p3475
sg3090
F0
sg3091
I0
sg3092
(lp3476
g1
(g3094
g3
NtRp3477
(dp3478
g3097
S'add_permanent'
p3479
sg3099
S''
sg3101
S'votes'
p3480
sg3103
F15
sg3104
F1
sg3105
F1
sg3106
S'Votes Restore Ad'
p3481
sg3108
S''
sbasg3110
I1
sg3111
F0
sg3106
g3471
sg3112
S'Run Advertisement'
p3482
sbsS'PAYOFF'
p3483
g1
(g10
g3
NtRp3484
(dp3485
g3080
F8
sg3081
S'causes them to miss a number of turns'
p3486
sg3083
I1
sg3084
F8
sg3085
F2
sg3086
S'Wit'
p3487
sg3088
S'AllEnemy'
p3488
sg3090
F4
sg3091
F4
sg3092
(lp3489
g1
(g3094
g3
NtRp3490
(dp3491
g3097
S'miss_turn'
p3492
sg3099
S'(MISS)'
p3493
sg3101
S''
sg3103
F0
sg3104
F1
sg3105
F3
sg3106
S'Miss Turn Pay Off'
p3494
sg3108
S''
sbasg3110
I1
sg3111
F10
sg3106
g3483
sg3112
S'Pay Off'
p3495
sbsS'BUREAUCRACY'
p3496
g1
(g10
g3
NtRp3497
(dp3498
g3080
F5
sg3081
S'asdf'
p3499
sg3083
F6
sg3084
F10
sg3085
F2
sg3086
S'Cunning'
p3500
sg3088
S'AllEnemy'
p3501
sg3090
F2
sg3091
I0
sg3092
(lp3502
sg3110
I1
sg3111
F8
sg3106
g3496
sg3112
S'Bureaucracy'
p3503
sbsS'RALLYAUDIENCE'
p3504
g1
(g10
g3
NtRp3505
(dp3506
g3080
F8
sg3081
S'asdf'
p3507
sg3083
I1
sg3084
F0
sg3085
F0
sg3086
S'Wit'
p3508
sg3088
S'AllFriendly'
p3509
sg3090
F4
sg3091
F3
sg3092
(lp3510
g1
(g3094
g3
NtRp3511
(dp3512
g3097
S'add'
p3513
sg3099
S'(INCREASE)'
p3514
sg3101
S'charisma'
p3515
sg3103
F2
sg3104
F1
sg3105
F4
sg3106
S'Increase Charisma'
p3516
sg3108
S'TRUE'
p3517
sbasg3110
I1
sg3111
F0
sg3106
g3504
sg3112
S'Rally Audience'
p3518
sbsS'PORKBARREL'
p3519
g1
(g10
g3
NtRp3520
(dp3521
g3080
F8
sg3081
S'Do something that benefits them specifically. Not advised against politicians.'
p3522
sg3083
I1
sg3084
F0
sg3085
F0
sg3086
S'Wit'
p3523
sg3088
S'AllEnemy'
p3524
sg3090
F4
sg3091
F2
sg3092
(lp3525
sg3110
I1
sg3111
F0
sg3106
g3519
sg3112
S'Pork Barrel'
p3526
sbsS'INSPIRE'
p3527
g1
(g10
g3
NtRp3528
(dp3529
g3080
F0
sg3081
S'asdf'
p3530
sg3083
I1
sg3084
F0
sg3085
F0
sg3086
S'Wit'
p3531
sg3088
S'AllFriendly'
p3532
sg3090
F0
sg3091
F3
sg3092
(lp3533
g3095
asg3110
I4
sg3111
F0
sg3106
g3527
sg3112
S'Inspire'
p3534
sbsS'JOKE'
p3535
g1
(g10
g3
NtRp3536
(dp3537
g3080
F5
sg3081
S"Ha, ha, ha...what were we talking about? Diffuse the situation with some humour. High chance of critical hit. Knock 'em dead!"
p3538
sg3083
F3
sg3084
F20
sg3085
F15
sg3086
S'Cunning'
p3539
sg3088
S'AllEnemy'
p3540
sg3090
F2
sg3091
I0
sg3092
(lp3541
sg3110
I1
sg3111
F12
sg3106
g3535
sg3112
S'Joke'
p3542
sbsS'PRAYFORSOULS'
p3543
g1
(g10
g3
NtRp3544
(dp3545
g3080
F6
sg3081
S'asdf'
p3546
sg3083
F2
sg3084
F10
sg3085
F2
sg3086
S'Cunning'
p3547
sg3088
S'None'
p3548
sg3090
F3
sg3091
I0
sg3092
(lp3549
sg3110
I1
sg3111
F10
sg3106
g3543
sg3112
S'Pray'
p3550
sbsS'REVIVE'
p3551
g1
(g10
g3
NtRp3552
(dp3553
g3080
F0
sg3081
S'Revive a defeated comrade to half votes'
p3554
sg3083
I1
sg3084
F0
sg3085
F0
sg3086
S''
sg3088
S'DeadFriendly'
p3555
sg3090
F0
sg3091
F5
sg3092
(lp3556
g1
(g3094
g3
NtRp3557
(dp3558
g3097
S'revive'
p3559
sg3099
S''
sg3101
S''
sg3103
F0.5
sg3104
F0
sg3105
F0
sg3106
S'Revive'
p3560
sg3108
S''
sbasg3110
I1
sg3111
F0
sg3106
g3551
sg3112
S'Revive'
p3561
sbsS'HUMANSHIELD'
p3562
g1
(g10
g3
NtRp3563
(dp3564
g3080
F8
sg3081
S'No further questions. Step back, please.'
p3565
sg3083
I1
sg3084
F5
sg3085
F2
sg3086
S'Wit'
p3566
sg3088
S'AllEnemy'
p3567
sg3090
F4
sg3091
F4
sg3092
(lp3568
g3357
asg3110
I2
sg3111
F11
sg3106
g3562
sg3112
S'Human Shield'
p3569
sbsS'MAKEDEMANDS'
p3570
g1
(g10
g3
NtRp3571
(dp3572
g3080
F8
sg3081
S'asdf'
p3573
sg3083
I1
sg3084
F0
sg3085
F0
sg3086
S'Cunning'
p3574
sg3088
S'AllEnemy'
p3575
sg3090
F0
sg3091
I0
sg3092
(lp3576
g3129
asg3110
I1
sg3111
F0
sg3106
g3570
sg3112
S'Make Outrageous Demands'
p3577
sbsS'DEFENSE'
p3578
g1
(g10
g3
NtRp3579
(dp3580
g3080
F0
sg3081
S'Gather strenth; -50% to all incoming attacks'
p3581
sg3083
I1
sg3084
F0
sg3085
F0
sg3086
S''
sg3088
S'None'
p3582
sg3090
F0
sg3091
I0
sg3092
(lp3583
g1
(g3094
g3
NtRp3584
(dp3585
g3097
S'add'
p3586
sg3099
S'(DFND)'
p3587
sg3101
S'resistance'
p3588
sg3103
F0.5
sg3104
F1
sg3105
F1
sg3106
S'Defense'
p3589
sg3108
S'TRUE'
p3590
sbasg3110
I1
sg3111
F0
sg3106
g3578
sg3112
S'Defense'
p3591
sbsS'MISCONSTRUE'
p3592
g1
(g10
g3
NtRp3593
(dp3594
g3080
F8
sg3081
S'asdf'
p3595
sg3083
I1
sg3084
F0
sg3085
F0
sg3086
S'Cunning'
p3596
sg3088
S'AllEnemy'
p3597
sg3090
F0
sg3091
I0
sg3092
(lp3598
g3129
asg3110
I1
sg3111
F0
sg3106
g3592
sg3112
S'Misconstrue'
p3599
sbsS'NATIONALSECURITY'
p3600
g1
(g10
g3
NtRp3601
(dp3602
g3080
F7
sg3081
S"This is a matter of national security and they don't have codeword clearance"
p3603
sg3083
I1
sg3084
F10
sg3085
F2
sg3086
S'Cunning'
p3604
sg3088
S'AllEnemy'
p3605
sg3090
F2
sg3091
I0
sg3092
(lp3606
sg3110
I1
sg3111
F9
sg3106
g3600
sg3112
S'National Security'
p3607
sbsS'RALLY'
p3608
g1
(g10
g3
NtRp3609
(dp3610
g3080
F0
sg3081
S'Get back some votes by rallying supporters'
p3611
sg3083
I1
sg3084
F0
sg3085
F0
sg3086
S'Wit'
p3612
sg3088
S'AllFriendly'
p3613
sg3090
F0
sg3091
F3
sg3092
(lp3614
g1
(g3094
g3
NtRp3615
(dp3616
g3097
S'add_permanent'
p3617
sg3099
S''
sg3101
S'votes'
p3618
sg3103
F20
sg3104
F1
sg3105
F1
sg3106
S'Votes Restore Rally'
p3619
sg3108
S''
sbasg3110
I1
sg3111
F0
sg3106
g3608
sg3112
S'Rally Constituents'
p3620
sbsS'MESSAGE'
p3621
g1
(g10
g3
NtRp3622
(dp3623
g3080
F6
sg3081
S'You can certainly wear them down by repeating your party line over and over and over...if you want'
p3624
sg3083
F6
sg3084
F10
sg3085
F5
sg3086
S'Cunning'
p3625
sg3088
S'AllEnemy'
p3626
sg3090
F3
sg3091
I0
sg3092
(lp3627
sg3110
I1
sg3111
F10
sg3106
g3621
sg3112
S'Stay On Message'
p3628
sbsS'APPEALTOGOD'
p3629
g1
(g10
g3
NtRp3630
(dp3631
g3080
F10
sg3081
S'asdf'
p3632
sg3083
F3
sg3084
F5
sg3085
F2
sg3086
S'Wit'
p3633
sg3088
S'AllEnemy'
p3634
sg3090
F4
sg3091
F7
sg3092
(lp3635
sg3110
I4
sg3111
F13
sg3106
g3629
sg3112
S'Appeal To God'
p3636
sbssS'levels'
p3637
(lp3638
g1
(g10
g3
NtRp3639
(dp3640
S'votes'
p3641
F20
sS'level'
p3642
F1
sS'spin'
p3643
F5
sS'xp'
p3644
F0
sS'skill_points'
p3645
F0
sbag1
(g10
g3
NtRp3646
(dp3647
g3641
F12
sg3642
F2
sg3643
F5
sg3644
F100
sg3645
F2
sbag1
(g10
g3
NtRp3648
(dp3649
g3641
F15
sg3642
F3
sg3643
F6
sg3644
F200
sg3645
F2
sbag1
(g10
g3
NtRp3650
(dp3651
g3641
F20
sg3642
F4
sg3643
F6
sg3644
F500
sg3645
F2
sbag1
(g10
g3
NtRp3652
(dp3653
g3641
F25
sg3642
F5
sg3643
F7
sg3644
F1000
sg3645
F2
sbag1
(g10
g3
NtRp3654
(dp3655
g3641
F30
sg3642
F6
sg3643
F7
sg3644
F2000
sg3645
F2
sbag1
(g10
g3
NtRp3656
(dp3657
g3641
F35
sg3642
F7
sg3643
F8
sg3644
F5000
sg3645
F2
sbag1
(g10
g3
NtRp3658
(dp3659
g3641
F40
sg3642
F8
sg3643
F8
sg3644
F10000
sg3645
F2
sbag1
(g10
g3
NtRp3660
(dp3661
g3641
F45
sg3642
F9
sg3643
F9
sg3644
F15000
sg3645
F2
sbag1
(g10
g3
NtRp3662
(dp3663
g3641
F50
sg3642
F10
sg3643
F9
sg3644
F20000
sg3645
F2
sbag1
(g10
g3
NtRp3664
(dp3665
g3641
F55
sg3642
F11
sg3643
F10
sg3644
F40000
sg3645
F2
sbag1
(g10
g3
NtRp3666
(dp3667
g3641
S''
sg3642
F12
sg3643
S''
sg3644
S''
sg3645
S''
sbag1
(g10
g3
NtRp3668
(dp3669
g3641
S''
sg3642
F13
sg3643
S''
sg3644
S''
sg3645
S''
sbag1
(g10
g3
NtRp3670
(dp3671
g3641
S''
sg3642
F14
sg3643
S''
sg3644
S''
sg3645
S''
sbag1
(g10
g3
NtRp3672
(dp3673
g3641
S''
sg3642
F15
sg3643
S''
sg3644
S''
sg3645
S''
sbag1
(g10
g3
NtRp3674
(dp3675
g3641
S''
sg3642
F16
sg3643
S''
sg3644
S''
sg3645
S''
sbag1
(g10
g3
NtRp3676
(dp3677
g3641
S''
sg3642
F17
sg3643
S''
sg3644
S''
sg3645
S''
sbag1
(g10
g3
NtRp3678
(dp3679
g3641
S''
sg3642
F18
sg3643
S''
sg3644
S''
sg3645
S''
sbag1
(g10
g3
NtRp3680
(dp3681
g3641
S''
sg3642
F19
sg3643
S''
sg3644
S''
sg3645
S''
sbag1
(g10
g3
NtRp3682
(dp3683
g3641
S''
sg3642
F20
sg3643
S''
sg3644
S''
sg3645
S''
sbag1
(g10
g3
NtRp3684
(dp3685
g3641
S''
sg3642
F21
sg3643
S''
sg3644
S''
sg3645
S''
sbag1
(g10
g3
NtRp3686
(dp3687
g3641
S''
sg3642
F22
sg3643
S''
sg3644
S''
sg3645
S''
sbag1
(g10
g3
NtRp3688
(dp3689
g3641
S''
sg3642
F23
sg3643
S''
sg3644
S''
sg3645
S''
sbag1
(g10
g3
NtRp3690
(dp3691
g3641
S''
sg3642
F24
sg3643
S''
sg3644
S''
sg3645
S''
sbag1
(g10
g3
NtRp3692
(dp3693
g3641
S''
sg3642
F25
sg3643
S''
sg3644
S''
sg3645
S''
sbag1
(g10
g3
NtRp3694
(dp3695
g3641
S''
sg3642
F26
sg3643
S''
sg3644
S''
sg3645
S''
sbag1
(g10
g3
NtRp3696
(dp3697
g3641
S''
sg3642
F27
sg3643
S''
sg3644
S''
sg3645
S''
sbag1
(g10
g3
NtRp3698
(dp3699
g3641
S''
sg3642
F28
sg3643
S''
sg3644
S''
sg3645
S''
sbag1
(g10
g3
NtRp3700
(dp3701
g3641
S''
sg3642
F29
sg3643
S''
sg3644
S''
sg3645
S''
sbasg3092
(dp3702
g3107
g3095
sg3202
g3198
sg3288
g3284
sg3516
g3511
sg3361
g3357
sg3302
g3298
sg3481
g3477
sg3494
g3490
sg3422
g3418
sg3246
g3242
sg3560
g3557
sg3268
g3263
sg3316
g3311
sg3589
g3584
sg3133
g3129
sg3148
g3143
sg3619
g3615
ssS'characters'
p3703
(dp3704
S'Teacher001'
p3705
(lp3706
g1
(g10
g3
NtRp3707
(dp3708
S'flair_base'
p3709
F1
sS'spin_base'
p3710
F4
sS'flair_lvl'
p3711
F1.1499999999999999
sS'wit_base'
p3712
F1
sS'resistance'
p3713
(lp3714
sS'wit_lvl'
p3715
F1.0900000000000001
sS'cunning_base'
p3716
F1
sg3106
g3705
sS'votes_base'
p3717
F10
sS'speed_lvl'
p3718
F1.0800000000000001
sS'standard_attacks'
p3719
(lp3720
g3579
ag3327
asS'cunning_lvl'
p3721
F1.1000000000000001
sS'charisma_lvl'
p3722
F1.1499999999999999
sS'spin_attacks'
p3723
(lp3724
g3425
ag3412
asS'spin_lvl'
p3725
F1.0800000000000001
sS'charisma_base'
p3726
F1
sS'weaknesses'
p3727
(lp3728
sS'attack_group'
p3729
S'Teacher'
p3730
sS'votes_lvl'
p3731
F1.2
sg3112
S'Teacher'
p3732
sS'speed_base'
p3733
F1
sS'immunities'
p3734
(lp3735
sbasS'Politician001'
p3736
(lp3737
g1
(g10
g3
NtRp3738
(dp3739
g3709
F1
sg3710
F4
sg3711
F1.1499999999999999
sg3712
F1
sg3713
(lp3740
g3123
asg3715
F1.0900000000000001
sg3716
F1
sg3106
g3736
sg3717
F10
sg3718
F1.0800000000000001
sg3719
(lp3741
g3622
ag3433
ag3123
ag3536
ag3579
asg3721
F1.1000000000000001
sg3722
F1.1499999999999999
sg3723
(lp3742
g3464
ag3249
ag3552
asg3725
F1.0800000000000001
sg3726
F1
sg3727
(lp3743
g3205
asg3729
S'Politician'
p3744
sg3731
F1.2
sg3112
S'Politician'
p3745
sg3733
F1
sg3734
(lp3746
g3520
asbasS'SecretAgent'
p3747
(lp3748
g1
(g10
g3
NtRp3749
(dp3750
g3709
F1
sg3710
F4
sg3711
F1.1499999999999999
sg3712
F1
sg3713
(lp3751
sg3715
F1
sg3716
F1
sg3106
g3747
sg3717
F18
sg3718
F1
sg3719
(lp3752
g3601
ag3388
asg3721
F1
sg3722
F1
sg3723
(lp3753
g3563
ag3364
asg3725
F1
sg3726
F1
sg3727
(lp3754
sg3729
S'SecretAgent'
p3755
sg3731
F1.2
sg3112
S'Agent Kawalski'
p3756
sg3733
F1
sg3734
(lp3757
sbasS'Bumpkin001'
p3758
(lp3759
g1
(g10
g3
NtRp3760
(dp3761
g3709
F1
sg3710
F4
sg3711
F1.1499999999999999
sg3712
F1
sg3713
(lp3762
sg3715
F1.0900000000000001
sg3716
F1
sg3106
g3758
sg3717
F10
sg3718
F1.0800000000000001
sg3719
(lp3763
g3536
ag3271
asg3721
F1.1000000000000001
sg3722
F1.1499999999999999
sg3723
(lp3764
g3221
ag3335
asg3725
F1.0800000000000001
sg3726
F1
sg3727
(lp3765
g3123
ag3433
ag3319
asg3729
S'Bumpkin'
p3766
sg3731
F1.2
sg3112
S'Bumpkin'
p3767
sg3733
F1
sg3734
(lp3768
sbasS'WarVet001'
p3769
(lp3770
g1
(g10
g3
NtRp3771
(dp3772
g3709
F1
sg3710
F4
sg3711
F1.1499999999999999
sg3712
F1
sg3713
(lp3773
sg3715
F1.0900000000000001
sg3716
F1
sg3106
g3769
sg3717
F10
sg3718
F1.0800000000000001
sg3719
(lp3774
g3571
ag3579
asg3721
F1.1000000000000001
sg3722
F1.1499999999999999
sg3723
(lp3775
g3528
ag3412
asg3725
F1.0800000000000001
sg3726
F1
sg3727
(lp3776
sg3729
S'WarVet'
p3777
sg3731
F1.2
sg3112
S'War Veteran'
p3778
sg3733
F1
sg3734
(lp3779
sbasS'Receptionist001'
p3780
(lp3781
g1
(g10
g3
NtRp3782
(dp3783
g3709
F1
sg3710
F4
sg3711
F1.1499999999999999
sg3712
F1
sg3713
(lp3784
sg3715
F1.0900000000000001
sg3716
F1
sg3106
g3780
sg3717
F8
sg3718
F1.0800000000000001
sg3719
(lp3785
g3497
ag3441
asg3721
F1.1000000000000001
sg3722
F1.1499999999999999
sg3723
(lp3786
g3449
ag3192
asg3725
F1.0800000000000001
sg3726
F0
sg3727
(lp3787
sg3729
S'Receptionist'
p3788
sg3731
F1.2
sg3112
S'Receptionist'
p3789
sg3733
F1
sg3734
(lp3790
sbasS'DeepThroat'
p3791
(lp3792
g1
(g10
g3
NtRp3793
(dp3794
g3709
F1
sg3710
F4
sg3711
F1.1499999999999999
sg3712
F1
sg3713
(lp3795
sg3715
F1.0900000000000001
sg3716
F1
sg3106
g3791
sg3717
F10
sg3718
F1.0800000000000001
sg3719
(lp3796
g3433
ag3579
ag3571
asg3721
F1.1000000000000001
sg3722
F1.1499999999999999
sg3723
(lp3797
g3305
asg3725
F1.0800000000000001
sg3726
F1
sg3727
(lp3798
sg3729
S'DeepThroat'
p3799
sg3731
F1.2
sg3112
S'Mr Er...?'
p3800
sg3733
F1
sg3734
(lp3801
sbasS'Leo'
p3802
(lp3803
g1
(g10
g3
NtRp3804
(dp3805
g3709
F1
sg3710
F4
sg3711
F1.1499999999999999
sg3712
F1
sg3713
(lp3806
sg3715
F1
sg3716
F1
sg3106
g3802
sg3717
F14
sg3718
F1
sg3719
(lp3807
g3622
ag3433
ag3123
ag3536
ag3205
asg3721
F1
sg3722
F1
sg3723
(lp3808
g3464
ag3249
ag3520
ag3351
asg3725
F1
sg3726
F1
sg3727
(lp3809
sg3729
S'Theo'
p3810
sg3731
F1.2
sg3112
S'Theo'
p3811
sg3733
F1
sg3734
(lp3812
sbasS'HippyGirl001'
p3813
(lp3814
g1
(g10
g3
NtRp3815
(dp3816
g3709
F1
sg3710
F4
sg3711
F1.1499999999999999
sg3712
F1
sg3713
(lp3817
sg3715
F1.0900000000000001
sg3716
F1
sg3106
g3813
sg3717
F10
sg3718
F1.0800000000000001
sg3719
(lp3818
g3213
ag3327
ag3372
asg3721
F1.1000000000000001
sg3722
F1.1499999999999999
sg3723
(lp3819
g3396
ag3412
ag3552
asg3725
F1.0800000000000001
sg3726
F1
sg3727
(lp3820
g3536
asg3729
S'Hippy'
p3821
sg3731
F1.2
sg3112
S'Hippy Girl'
p3822
sg3733
F1
sg3734
(lp3823
sbasS'President'
p3824
(lp3825
g1
(g10
g3
NtRp3826
(dp3827
g3709
F1
sg3710
F4
sg3711
F1.1499999999999999
sg3712
F1
sg3713
(lp3828
sg3715
F1.0900000000000001
sg3716
F1
sg3106
g3824
sg3717
F10
sg3718
F1.0800000000000001
sg3719
(lp3829
g3622
ag3433
ag3123
ag3536
ag3579
asg3721
F1.1000000000000001
sg3722
F1.1499999999999999
sg3723
(lp3830
g3464
ag3249
ag3552
asg3725
F1.0800000000000001
sg3726
F1
sg3727
(lp3831
sg3729
S'Politician'
p3832
sg3731
F1.2
sg3112
S'President Allen'
p3833
sg3733
F1
sg3734
(lp3834
sbasS'Unionist001'
p3835
(lp3836
g1
(g10
g3
NtRp3837
(dp3838
g3709
F1
sg3710
F4
sg3711
F1.1499999999999999
sg3712
F1
sg3713
(lp3839
sg3715
F1.0900000000000001
sg3716
F1
sg3106
g3835
sg3717
F10
sg3718
F1.0800000000000001
sg3719
(lp3840
g3571
ag3579
ag3327
asg3721
F1.1000000000000001
sg3722
F1.1499999999999999
sg3723
(lp3841
g3425
asg3725
F1.0800000000000001
sg3726
F1
sg3727
(lp3842
sg3729
S'Unionist'
p3843
sg3731
F1.2
sg3112
S'Unionist'
p3844
sg3733
F1
sg3734
(lp3845
sbasS'Wife'
p3846
(lp3847
g1
(g10
g3
NtRp3848
(dp3849
g3709
F1
sg3710
F4
sg3711
F1.1499999999999999
sg3712
F3
sg3713
(lp3850
sg3715
F1
sg3716
F2
sg3106
g3846
sg3717
F12
sg3718
F1
sg3719
(lp3851
g3622
ag3123
ag3536
asg3721
F1
sg3722
F1
sg3723
(lp3852
g3609
ag3552
ag3257
asg3725
F1
sg3726
F1
sg3727
(lp3853
sg3729
S'Wife'
p3854
sg3731
F1.2
sg3112
S'Sarah Mossman'
p3855
sg3733
F3
sg3734
(lp3856
sbasS'PresidentAlien'
p3857
(lp3858
g1
(g10
g3
NtRp3859
(dp3860
g3709
F1
sg3710
F4
sg3711
F1.1499999999999999
sg3712
F1
sg3713
(lp3861
sg3715
F1.0900000000000001
sg3716
F1
sg3106
g3857
sg3717
F10
sg3718
F1.0800000000000001
sg3719
(lp3862
g3622
ag3433
ag3123
ag3536
ag3579
asg3721
F1.1000000000000001
sg3722
F1.1499999999999999
sg3723
(lp3863
g3464
ag3249
ag3552
asg3725
F1.0800000000000001
sg3726
F1
sg3727
(lp3864
sg3729
S'Politician'
p3865
sg3731
F1.2
sg3112
S'President Alien'
p3866
sg3733
F1
sg3734
(lp3867
sbasS'Governor'
p3868
(lp3869
g1
(g10
g3
NtRp3870
(dp3871
g3709
F1
sg3710
F4
sg3711
F1.1499999999999999
sg3712
F1
sg3713
(lp3872
sg3715
F1.0900000000000001
sg3716
F1
sg3106
g3868
sg3717
F10
sg3718
F1.0800000000000001
sg3719
(lp3873
g3622
ag3433
ag3123
ag3536
ag3579
asg3721
F1.1000000000000001
sg3722
F1.1499999999999999
sg3723
(lp3874
g3464
ag3249
ag3552
asg3725
F1.0800000000000001
sg3726
F1
sg3727
(lp3875
sg3729
S'Politician'
p3876
sg3731
F1.2
sg3112
g3868
sg3733
F1
sg3734
(lp3877
sbasS'Lobbyist001'
p3878
(lp3879
g1
(g10
g3
NtRp3880
(dp3881
g3709
F1
sg3710
F4
sg3711
F1.1499999999999999
sg3712
F1
sg3713
(lp3882
sg3715
F1.0900000000000001
sg3716
F1
sg3106
g3878
sg3717
F10
sg3718
F1.0800000000000001
sg3719
(lp3883
g3343
ag3571
asg3721
F1.1000000000000001
sg3722
F1.1499999999999999
sg3723
(lp3884
g3484
ag3305
asg3725
F1.0800000000000001
sg3726
F1
sg3727
(lp3885
g3520
asg3729
S'Lobbyist'
p3886
sg3731
F1.2
sg3112
S'Lobbyist'
p3887
sg3733
F1
sg3734
(lp3888
g3205
asbasS'Journalist001'
p3889
(lp3890
g1
(g10
g3
NtRp3891
(dp3892
g3709
F1
sg3710
F4
sg3711
F1.1499999999999999
sg3712
F2
sg3713
(lp3893
sg3715
F1.5
sg3716
F1
sg3106
g3889
sg3717
F16
sg3718
F1.5
sg3719
(lp3894
g3176
ag3593
asg3721
F1.1000000000000001
sg3722
F1.1499999999999999
sg3723
(lp3895
g3380
ag3078
ag3152
asg3725
F1.2
sg3726
F1
sg3727
(lp3896
sg3729
S'Journalist'
p3897
sg3731
F1.2
sg3112
S'Journalist'
p3898
sg3733
F1
sg3734
(lp3899
sbasS'ReligiousNut001'
p3900
(lp3901
g1
(g10
g3
NtRp3902
(dp3903
g3709
F1
sg3710
F4
sg3711
F1.1499999999999999
sg3712
F1
sg3713
(lp3904
sg3715
F1.0900000000000001
sg3716
F1
sg3106
g3900
sg3717
F10
sg3718
F1.0800000000000001
sg3719
(lp3905
g3160
ag3544
ag3579
asg3721
F1.1000000000000001
sg3722
F1.1499999999999999
sg3723
(lp3906
g3630
ag3292
asg3725
F1.0800000000000001
sg3726
F1
sg3727
(lp3907
sg3729
S'Religious'
p3908
sg3731
F1.2
sg3112
S'Religious Nut'
p3909
sg3733
F1
sg3734
(lp3910
g3536
asbasS'JointChief001'
p3911
(lp3912
g1
(g10
g3
NtRp3913
(dp3914
g3709
F1
sg3710
F4
sg3711
F1.1499999999999999
sg3712
F1
sg3713
(lp3915
sg3715
F1.0900000000000001
sg3716
F1
sg3106
g3911
sg3717
F10
sg3718
F1.0800000000000001
sg3719
(lp3916
g3571
ag3579
ag3601
ag3229
asg3721
F1.1000000000000001
sg3722
F1.1499999999999999
sg3723
(lp3917
g3364
asg3725
F1.0800000000000001
sg3726
F1
sg3727
(lp3918
sg3729
S'JointChief'
p3919
sg3731
F1.2
sg3112
S'Joint Chief'
p3920
sg3733
F1
sg3734
(lp3921
sbasS'Protester001'
p3922
(lp3923
g1
(g10
g3
NtRp3924
(dp3925
g3709
F0.5
sg3710
F4
sg3711
F1.1000000000000001
sg3712
F1
sg3713
(lp3926
g3536
asg3715
F1.01
sg3716
F1
sg3106
g3922
sg3717
F8
sg3718
F1.01
sg3719
(lp3927
g3327
ag3168
ag3213
asg3721
F1.01
sg3722
F1.1000000000000001
sg3723
(lp3928
g3412
asg3725
F1.01
sg3726
F1
sg3727
(lp3929
sg3729
S'Protestor'
p3930
sg3731
F1.01
sg3112
S'Protester'
p3931
sg3733
F1
sg3734
(lp3932
sbasS'TVPersonality001'
p3933
(lp3934
g1
(g10
g3
NtRp3935
(dp3936
g3709
F1
sg3710
F4
sg3711
F1.1499999999999999
sg3712
F1
sg3713
(lp3937
sg3715
F1.0900000000000001
sg3716
F1
sg3106
g3933
sg3717
F10
sg3718
F1.0800000000000001
sg3719
(lp3938
g3536
ag3176
asg3721
F1.1000000000000001
sg3722
F1.1499999999999999
sg3723
(lp3939
g3152
ag3137
asg3725
F1.0800000000000001
sg3726
F1
sg3727
(lp3940
sg3729
S'TVPersonality'
p3941
sg3731
F1.2
sg3112
S"Hecules O'Grady"
p3942
sg3733
F1
sg3734
(lp3943
sbasS'Player'
p3944
(lp3945
g1
(g10
g3
NtRp3946
(dp3947
g3709
F1
sg3710
F5
sg3711
F1.1499999999999999
sg3712
F1
sg3713
(lp3948
sg3715
F1.0900000000000001
sg3716
F1
sg3106
g3944
sg3717
F15
sg3718
F1.0800000000000001
sg3719
(lp3949
g3622
ag3123
ag3536
asg3721
F1.1000000000000001
sg3722
F1.1499999999999999
sg3723
(lp3950
g3249
asg3725
F1.0800000000000001
sg3726
F1
sg3727
(lp3951
sg3729
S'Player'
p3952
sg3731
F1.2
sg3112
S'Phillip Mossman'
p3953
sg3733
F2
sg3734
(lp3954
sbasS'Computer'
p3955
(lp3956
g1
(g10
g3
NtRp3957
(dp3958
g3709
F1
sg3710
F4
sg3711
F1.1499999999999999
sg3712
F1
sg3713
(lp3959
sg3715
F1.0900000000000001
sg3716
F1
sg3106
g3955
sg3717
F10
sg3718
F1.0800000000000001
sg3719
(lp3960
g3622
ag3433
ag3123
ag3536
ag3579
asg3721
F1.1000000000000001
sg3722
F1.1499999999999999
sg3723
(lp3961
g3464
ag3249
ag3552
asg3725
F1.0800000000000001
sg3726
F1
sg3727
(lp3962
sg3729
S'Politician'
p3963
sg3731
F1.2
sg3112
S'N.O.T.B.A.D'
p3964
sg3733
F1
sg3734
(lp3965
sbasS'CabinetPolitician001'
p3966
(lp3967
g1
(g10
g3
NtRp3968
(dp3969
g3709
F1
sg3710
F4
sg3711
F1.1499999999999999
sg3712
F1
sg3713
(lp3970
sg3715
F1.0900000000000001
sg3716
F1
sg3106
g3966
sg3717
F10
sg3718
F1.0800000000000001
sg3719
(lp3971
g3622
ag3433
ag3123
ag3536
ag3579
asg3721
F1.1000000000000001
sg3722
F1.1499999999999999
sg3723
(lp3972
g3464
ag3249
ag3552
asg3725
F1.0800000000000001
sg3726
F1
sg3727
(lp3973
sg3729
S'Politician'
p3974
sg3731
F1.2
sg3112
S'Cabinet Politician'
p3975
sg3733
F1
sg3734
(lp3976
sbasS'Constituent001'
p3977
(lp3978
g1
(g10
g3
NtRp3979
(dp3980
g3709
F1
sg3710
F4
sg3711
F1.1499999999999999
sg3712
F1
sg3713
(lp3981
sg3715
F1.0900000000000001
sg3716
F1
sg3106
g3977
sg3717
F12
sg3718
F1.5
sg3719
(lp3982
g3327
ag3343
ag3571
asg3721
F1.1000000000000001
sg3722
F1.1499999999999999
sg3723
(lp3983
g3552
asg3725
F1.0800000000000001
sg3726
F1
sg3727
(lp3984
sg3729
S'Constituent'
p3985
sg3731
F1.2
sg3112
S'Constituent'
p3986
sg3733
F2
sg3734
(lp3987
sbasS'Mayor'
p3988
(lp3989
g1
(g10
g3
NtRp3990
(dp3991
g3709
F1
sg3710
F4
sg3711
F1.1499999999999999
sg3712
F1
sg3713
(lp3992
sg3715
F1.0900000000000001
sg3716
F1
sg3106
g3988
sg3717
F10
sg3718
F1.0800000000000001
sg3719
(lp3993
g3622
ag3433
ag3123
ag3536
ag3579
asg3721
F1.1000000000000001
sg3722
F1.1499999999999999
sg3723
(lp3994
g3464
ag3249
ag3552
asg3725
F1.0800000000000001
sg3726
F1
sg3727
(lp3995
sg3729
S'Politician'
p3996
sg3731
F1.2
sg3112
S'Mayor Goodman'
p3997
sg3733
F1
sg3734
(lp3998
sbassS'quest_items'
p3999
(dp4000
S'SOUTHWINGDOORKEY'
p4001
g1
(g10
g3
NtRp4002
(dp4003
g3081
S'It looks old.'
p4004
sg3106
g4001
sg3112
S'Key to the South Wing'
p4005
sbsS'BILLOFRIGHTS'
p4006
g1
(g10
g3
NtRp4007
(dp4008
g3081
S''
sg3106
g4006
sg3112
S"Citizens' Bill of Rights"
p4009
sbsS'PEN'
p4010
g1
(g10
g3
NtRp4011
(dp4012
g3081
S'Ink flows freely... into your shirt pocket.'
p4013
sg3106
g4010
sg3112
S'A pen'
p4014
sbsS'INCRIMINATINGEVIDENCE'
p4015
g1
(g10
g3
NtRp4016
(dp4017
g3081
S'Very incriminating proof that something troubling is going on in the White House.'
p4018
sg3106
g4015
sg3112
S'Incriminating Evidence'
p4019
sbsS'WARVETROOMKEY'
p4020
g1
(g10
g3
NtRp4021
(dp4022
g3081
S'The key is imprinted with the seal of the President.'
p4023
sg3106
g4020
sg3112
S'Key to the West Room'
p4024
sbsS'CABINETROOMKEY'
p4025
g1
(g10
g3
NtRp4026
(dp4027
g3081
S'The key is imprinted with the seal of the President.'
p4028
sg3106
g4025
sg3112
S'Key to the Cabinet Room'
p4029
sbsS'TEACHERROOMKEY'
p4030
g1
(g10
g3
NtRp4031
(dp4032
g3081
S'The key is imprinted with the seal of the President.'
p4033
sg3106
g4030
sg3112
S'Key to the East Room'
p4034
sbssg3719
(dp4035
S'Theo'
p4036
(lp4037
g3622
ag3433
ag3123
ag3536
ag3205
ag3464
ag3249
ag3520
ag3351
asS'JointChief'
p4038
(lp4039
g3571
ag3579
ag3601
ag3364
ag3229
asS'Politician'
p4040
(lp4041
g3622
ag3433
ag3123
ag3536
ag3464
ag3249
ag3552
ag3579
asS'Bumpkin'
p4042
(lp4043
g3536
ag3221
ag3335
ag3271
asS'Wife'
p4044
(lp4045
g3622
ag3123
ag3536
ag3609
ag3552
ag3257
asS'Lobbyist'
p4046
(lp4047
g3343
ag3484
ag3305
ag3571
asS'DeepThroat'
p4048
(lp4049
g3433
ag3579
ag3305
ag3571
asS'Protestor'
p4050
(lp4051
g3412
ag3327
ag3168
ag3213
asS'SecretAgent'
p4052
(lp4053
g3563
ag3601
ag3364
ag3388
asS'Teacher'
p4054
(lp4055
g3425
ag3579
ag3327
ag3412
asS'Player'
p4056
(lp4057
g3622
ag3123
ag3536
ag3249
asS'Computer'
p4058
(lp4059
g3364
ag3601
ag3184
ag3305
ag3571
ag3433
asS'Receptionist'
p4060
(lp4061
g3497
ag3441
ag3449
ag3192
asS'Hippy'
p4062
(lp4063
g3213
ag3327
ag3372
ag3396
ag3412
ag3552
asS'Constituent'
p4064
(lp4065
g3327
ag3552
ag3343
ag3571
asS'TVPersonality'
p4066
(lp4067
g3536
ag3152
ag3176
ag3137
asS'WarVet'
p4068
(lp4069
g3571
ag3579
ag3528
ag3412
asS'Religious'
p4070
(lp4071
g3160
ag3630
ag3292
ag3544
ag3579
asS'Unionist'
p4072
(lp4073
g3571
ag3579
ag3327
ag3425
asS'Journalist'
p4074
(lp4075
g3176
ag3593
ag3380
ag3078
ag3152
assS'shops'
p4076
(dp4077
sS'encounters'
p4078
(dp4079
S'P-hard-14'
p4080
g1
(g10
g3
NtRp4081
(dp4082
S'item_attack_drops'
p4083
(lp4084
sS'item_attacks'
p4085
(lp4086
sg3112
S''
sS'money'
p4087
F50
sg3644
F135
sS'monster2_lvl'
p4088
S''
sS'bribe_cost'
p4089
F50
sS'monster3'
p4090
S''
sS'monster1_lvl'
p4091
F3
sS'monster3_lvl'
p4092
S''
sS'monster4_lvl'
p4093
S''
sS'monster4'
p4094
S''
sS'monster2'
p4095
S''
sg3106
g4080
sS'monster1'
p4096
S'Computer'
p4097
sbsS'P-hard-11'
p4098
g1
(g10
g3
NtRp4099
(dp4100
g4083
(lp4101
sg4085
(lp4102
sg3112
S''
sg4087
F50
sg3644
F135
sg4088
F3
sg4089
F50
sg4090
S'JointChief001'
p4103
sg4091
F3
sg4092
F3
sg4093
S''
sg4094
S''
sg4095
S'JointChief001'
p4104
sg3106
g4098
sg4096
S'JointChief001'
p4105
sbsS'P-hard-10'
p4106
g1
(g10
g3
NtRp4107
(dp4108
g4083
(lp4109
sg4085
(lp4110
sg3112
S''
sg4087
F50
sg3644
F135
sg4088
F3
sg4089
F50
sg4090
S'CabinetPolitician001'
p4111
sg4091
F3
sg4092
F3
sg4093
F2
sg4094
S'CabinetPolitician001'
p4112
sg4095
S'CabinetPolitician001'
p4113
sg3106
g4106
sg4096
S'CabinetPolitician001'
p4114
sbsS'P-hard-13'
p4115
g1
(g10
g3
NtRp4116
(dp4117
g4083
(lp4118
sg4085
(lp4119
sg3112
S''
sg4087
F50
sg3644
F135
sg4088
F3
sg4089
F50
sg4090
S'JointChief001'
p4120
sg4091
F3
sg4092
F3
sg4093
F3
sg4094
S'JointChief001'
p4121
sg4095
S'JointChief001'
p4122
sg3106
g4115
sg4096
S'JointChief001'
p4123
sbsS'P-hard-12'
p4124
g1
(g10
g3
NtRp4125
(dp4126
g4083
(lp4127
sg4085
(lp4128
sg3112
S''
sg4087
F50
sg3644
F135
sg4088
F3
sg4089
F50
sg4090
S'JointChief001'
p4129
sg4091
F3
sg4092
F3
sg4093
S''
sg4094
S''
sg4095
S'JointChief001'
p4130
sg3106
g4124
sg4096
S'JointChief001'
p4131
sbsS'P-easy-05'
p4132
g1
(g10
g3
NtRp4133
(dp4134
g4083
(lp4135
g1
(c__main__
ItemAttack
p4136
g3
NtRp4137
(dp4138
S'attack'
p4139
g3404
sS'quantity'
p4140
I1
sbasg4085
(lp4141
sg3112
S''
sg4087
F50
sg3644
F20
sg4088
S''
sg4089
F50
sg4090
S''
sg4091
F2
sg4092
S''
sg4093
S''
sg4094
S''
sg4095
S''
sg3106
g4132
sg4096
S'Journalist001'
p4142
sbsS'P-easy-04'
p4143
g1
(g10
g3
NtRp4144
(dp4145
g4083
(lp4146
g1
(g4136
g3
NtRp4147
(dp4148
g4139
g3279
sg4140
I1
sbasg4085
(lp4149
sg3112
S''
sg4087
F50
sg3644
F30
sg4088
F1
sg4089
F50
sg4090
S''
sg4091
F1
sg4092
S''
sg4093
S''
sg4094
S''
sg4095
S'Protester001'
p4150
sg3106
g4143
sg4096
S'Protester001'
p4151
sbsS'P-easy-07'
p4152
g1
(g10
g3
NtRp4153
(dp4154
g4083
(lp4155
g1
(g4136
g3
NtRp4156
(dp4157
g4139
g3279
sg4140
I1
sbasg4085
(lp4158
sg3112
S''
sg4087
F50
sg3644
F40
sg4088
F2
sg4089
F50
sg4090
S''
sg4091
F2
sg4092
S''
sg4093
S''
sg4094
S''
sg4095
S'Protester001'
p4159
sg3106
g4152
sg4096
S'Constituent001'
p4160
sbsS'P-easy-06'
p4161
g1
(g10
g3
NtRp4162
(dp4163
g4083
(lp4164
g1
(g4136
g3
NtRp4165
(dp4166
g4139
g3552
sg4140
I1
sbasg4085
(lp4167
sg3112
S''
sg4087
F50
sg3644
F40
sg4088
F2
sg4089
F50
sg4090
S''
sg4091
F2
sg4092
S''
sg4093
S''
sg4094
S''
sg4095
S'Lobbyist001'
p4168
sg3106
g4161
sg4096
S'Lobbyist001'
p4169
sbsS'P-easy-01'
p4170
g1
(g10
g3
NtRp4171
(dp4172
g4083
(lp4173
g1
(g4136
g3
NtRp4174
(dp4175
g4139
g3472
sg4140
I1
sbasg4085
(lp4176
g1
(g4136
g3
NtRp4177
(dp4178
g4139
g3404
sg4140
I1
sbasg3112
S'The quest for pen'
p4179
sg4087
F50
sg3644
F10
sg4088
S''
sg4089
F50
sg4090
S''
sg4091
F1
sg4092
S''
sg4093
S''
sg4094
S''
sg4095
S''
sg3106
g4170
sg4096
S'Receptionist001'
p4180
sbsS'P-easy-03'
p4181
g1
(g10
g3
NtRp4182
(dp4183
g4083
(lp4184
g1
(g4136
g3
NtRp4185
(dp4186
g4139
g3472
sg4140
I1
sbasg4085
(lp4187
g1
(g4136
g3
NtRp4188
(dp4189
g4139
g3404
sg4140
I1
sbasg3112
S''
sg4087
F50
sg3644
F30
sg4088
F1
sg4089
F50
sg4090
S''
sg4091
F1
sg4092
S''
sg4093
S''
sg4094
S''
sg4095
S'Protester001'
p4190
sg3106
g4181
sg4096
S'Protester001'
p4191
sbsS'P-easy-02'
p4192
g1
(g10
g3
NtRp4193
(dp4194
g4083
(lp4195
sg4085
(lp4196
sg3112
S''
sg4087
F50
sg3644
F30
sg4088
F1
sg4089
F50
sg4090
S''
sg4091
F1
sg4092
S''
sg4093
S''
sg4094
S''
sg4095
S'Protester001'
p4197
sg3106
g4192
sg4096
S'Protester001'
p4198
sbsS'P-easy-09'
p4199
g1
(g10
g3
NtRp4200
(dp4201
g4083
(lp4202
g1
(g4136
g3
NtRp4203
(dp4204
g4139
g3472
sg4140
I1
sbasg4085
(lp4205
sg3112
S''
sg4087
F50
sg3644
F60
sg4088
F2
sg4089
F50
sg4090
S''
sg4091
F2
sg4092
S''
sg4093
S''
sg4094
S''
sg4095
S'Constituent001'
p4206
sg3106
g4199
sg4096
S'Constituent001'
p4207
sbsS'P-easy-08'
p4208
g1
(g10
g3
NtRp4209
(dp4210
g4083
(lp4211
sg4085
(lp4212
sg3112
S''
sg4087
F50
sg3644
F40
sg4088
F2
sg4089
F50
sg4090
S'Constituent001'
p4213
sg4091
F2
sg4092
F2
sg4093
S''
sg4094
S''
sg4095
S'Constituent001'
p4214
sg3106
g4208
sg4096
S'Protester001'
p4215
sbsS'P-hard-08'
p4216
g1
(g10
g3
NtRp4217
(dp4218
g4083
(lp4219
sg4085
(lp4220
sg3112
S''
sg4087
F50
sg3644
F135
sg4088
F3
sg4089
F50
sg4090
S'CabinetPolitician001'
p4221
sg4091
F3
sg4092
F3
sg4093
S''
sg4094
S''
sg4095
S'CabinetPolitician001'
p4222
sg3106
g4216
sg4096
S'CabinetPolitician001'
p4223
sbsS'P-hard-09'
p4224
g1
(g10
g3
NtRp4225
(dp4226
g4083
(lp4227
sg4085
(lp4228
sg3112
S''
sg4087
F50
sg3644
F135
sg4088
F3
sg4089
F50
sg4090
S'CabinetPolitician001'
p4229
sg4091
F3
sg4092
F3
sg4093
F2
sg4094
S'CabinetPolitician001'
p4230
sg4095
S'CabinetPolitician001'
p4231
sg3106
g4224
sg4096
S'CabinetPolitician001'
p4232
sbsS'P-med-08'
p4233
g1
(g10
g3
NtRp4234
(dp4235
g4083
(lp4236
sg4085
(lp4237
sg3112
S''
sg4087
F50
sg3644
F135
sg4088
F3
sg4089
F50
sg4090
S'Politician001'
p4238
sg4091
F3
sg4092
F3
sg4093
S''
sg4094
S''
sg4095
S'Politician001'
p4239
sg3106
g4233
sg4096
S'Politician001'
p4240
sbsS'P-med-09'
p4241
g1
(g10
g3
NtRp4242
(dp4243
g4083
(lp4244
sg4085
(lp4245
sg3112
S''
sg4087
F50
sg3644
F135
sg4088
F3
sg4089
F50
sg4090
S'Politician001'
p4246
sg4091
F3
sg4092
F3
sg4093
S''
sg4094
S''
sg4095
S'ReligiousNut001'
p4247
sg3106
g4241
sg4096
S'Politician001'
p4248
sbsS'P-med-02'
p4249
g1
(g10
g3
NtRp4250
(dp4251
g4083
(lp4252
g1
(g4136
g3
NtRp4253
(dp4254
g4139
g3237
sg4140
I1
sbasg4085
(lp4255
sg3112
S''
sg4087
F50
sg3644
F90
sg4088
F3
sg4089
F50
sg4090
S''
sg4091
F3
sg4092
S''
sg4093
S''
sg4094
S''
sg4095
S'Politician001'
p4256
sg3106
g4249
sg4096
S'Politician001'
p4257
sbsS'P-med-03'
p4258
g1
(g10
g3
NtRp4259
(dp4260
g4083
(lp4261
sg4085
(lp4262
sg3112
S''
sg4087
F50
sg3644
F90
sg4088
F3
sg4089
F50
sg4090
S''
sg4091
F3
sg4092
S''
sg4093
S''
sg4094
S''
sg4095
S'Bumpkin001'
p4263
sg3106
g4258
sg4096
S'Bumpkin001'
p4264
sbsS'P-med-01'
p4265
g1
(g10
g3
NtRp4266
(dp4267
g4083
(lp4268
sg4085
(lp4269
sg3112
S''
sg4087
F50
sg3644
F90
sg4088
F3
sg4089
F50
sg4090
S''
sg4091
F3
sg4092
S''
sg4093
S''
sg4094
S''
sg4095
S'Politician001'
p4270
sg3106
g4265
sg4096
S'Politician001'
p4271
sbsS'P-med-06'
p4272
g1
(g10
g3
NtRp4273
(dp4274
g4083
(lp4275
sg4085
(lp4276
sg3112
S''
sg4087
F50
sg3644
F135
sg4088
F3
sg4089
F50
sg4090
S'Politician001'
p4277
sg4091
F3
sg4092
F3
sg4093
S''
sg4094
S''
sg4095
S'Governor'
p4278
sg3106
g4272
sg4096
S'Politician001'
p4279
sbsS'P-med-07'
p4280
g1
(g10
g3
NtRp4281
(dp4282
g4083
(lp4283
sg4085
(lp4284
sg3112
S''
sg4087
F50
sg3644
F90
sg4088
F3
sg4089
F50
sg4090
S''
sg4091
F3
sg4092
S''
sg4093
S''
sg4094
S''
sg4095
S'Journalist001'
p4285
sg3106
g4280
sg4096
S'Politician001'
p4286
sbsS'P-med-04'
p4287
g1
(g10
g3
NtRp4288
(dp4289
g4083
(lp4290
sg4085
(lp4291
sg3112
S''
sg4087
F50
sg3644
F135
sg4088
F3
sg4089
F50
sg4090
S'Protester001'
p4292
sg4091
F3
sg4092
F3
sg4093
S''
sg4094
S''
sg4095
S'Bumpkin001'
p4293
sg3106
g4287
sg4096
S'Constituent001'
p4294
sbsS'P-med-05'
p4295
g1
(g10
g3
NtRp4296
(dp4297
g4083
(lp4298
sg4085
(lp4299
sg3112
S''
sg4087
F50
sg3644
F135
sg4088
F3
sg4089
F50
sg4090
S'Politician001'
p4300
sg4091
F3
sg4092
F3
sg4093
S''
sg4094
S''
sg4095
S'Journalist001'
p4301
sg3106
g4295
sg4096
S'Journalist001'
p4302
sbsS'P-med-24'
p4303
g1
(g10
g3
NtRp4304
(dp4305
g4083
(lp4306
sg4085
(lp4307
sg3112
S''
sg4087
F50
sg3644
F135
sg4088
F3
sg4089
F50
sg4090
S'Politician001'
p4308
sg4091
F3
sg4092
F3
sg4093
S''
sg4094
S''
sg4095
S'PresidentAlien'
p4309
sg3106
g4303
sg4096
S'Politician001'
p4310
sbsS'P-med-20'
p4311
g1
(g10
g3
NtRp4312
(dp4313
g4083
(lp4314
sg4085
(lp4315
sg3112
S''
sg4087
F50
sg3644
F135
sg4088
F3
sg4089
F50
sg4090
S'Journalist001'
p4316
sg4091
F3
sg4092
F3
sg4093
S''
sg4094
S''
sg4095
S'TVPersonality001'
p4317
sg3106
g4311
sg4096
S'Journalist001'
p4318
sbsS'P-med-21'
p4319
g1
(g10
g3
NtRp4320
(dp4321
g4083
(lp4322
sg4085
(lp4323
sg3112
S''
sg4087
F50
sg3644
F135
sg4088
F3
sg4089
F50
sg4090
S'Politician001'
p4324
sg4091
F3
sg4092
F3
sg4093
S''
sg4094
S''
sg4095
S'President'
p4325
sg3106
g4319
sg4096
S'Politician001'
p4326
sbsS'P-med-22'
p4327
g1
(g10
g3
NtRp4328
(dp4329
g4083
(lp4330
sg4085
(lp4331
sg3112
S''
sg4087
F50
sg3644
F135
sg4088
F3
sg4089
F50
sg4090
S''
sg4091
F3
sg4092
S''
sg4093
S''
sg4094
S''
sg4095
S'DeepThroat'
p4332
sg3106
g4327
sg4096
S'DeepThroat'
p4333
sbsS'P-med-23'
p4334
g1
(g10
g3
NtRp4335
(dp4336
g4083
(lp4337
sg4085
(lp4338
sg3112
S''
sg4087
F50
sg3644
F135
sg4088
F3
sg4089
F50
sg4090
S'Politician001'
p4339
sg4091
F3
sg4092
F3
sg4093
F3
sg4094
S'Politician001'
p4340
sg4095
S'President'
p4341
sg3106
g4334
sg4096
S'Politician001'
p4342
sbsS'P-hard-06'
p4343
g1
(g10
g3
NtRp4344
(dp4345
g4083
(lp4346
sg4085
(lp4347
sg3112
S''
sg4087
F50
sg3644
F135
sg4088
F3
sg4089
F50
sg4090
S'Teacher001'
p4348
sg4091
F3
sg4092
F3
sg4093
S''
sg4094
S''
sg4095
S'Teacher001'
p4349
sg3106
g4343
sg4096
S'Teacher001'
p4350
sbsS'P-hard-07'
p4351
g1
(g10
g3
NtRp4352
(dp4353
g4083
(lp4354
sg4085
(lp4355
sg3112
S''
sg4087
F50
sg3644
F135
sg4088
F3
sg4089
F50
sg4090
S'Teacher001'
p4356
sg4091
F3
sg4092
F3
sg4093
F2
sg4094
S'Teacher001'
p4357
sg4095
S'Teacher001'
p4358
sg3106
g4351
sg4096
S'Teacher001'
p4359
sbsS'P-hard-04'
p4360
g1
(g10
g3
NtRp4361
(dp4362
g4083
(lp4363
sg4085
(lp4364
sg3112
S''
sg4087
F50
sg3644
F135
sg4088
F3
sg4089
F50
sg4090
S'WarVet001'
p4365
sg4091
F3
sg4092
F3
sg4093
S''
sg4094
S''
sg4095
S'WarVet001'
p4366
sg3106
g4360
sg4096
S'WarVet001'
p4367
sbsS'P-hard-05'
p4368
g1
(g10
g3
NtRp4369
(dp4370
g4083
(lp4371
sg4085
(lp4372
sg3112
S''
sg4087
F50
sg3644
F135
sg4088
F3
sg4089
F50
sg4090
S'WarVet001'
p4373
sg4091
F3
sg4092
F3
sg4093
F2
sg4094
S'WarVet001'
p4374
sg4095
S'WarVet001'
p4375
sg3106
g4368
sg4096
S'WarVet001'
p4376
sbsS'P-hard-02'
p4377
g1
(g10
g3
NtRp4378
(dp4379
g4083
(lp4380
sg4085
(lp4381
sg3112
S''
sg4087
F50
sg3644
F135
sg4088
F3
sg4089
F50
sg4090
S'Journalist001'
p4382
sg4091
F3
sg4092
F3
sg4093
S''
sg4094
S''
sg4095
S'TVPersonality001'
p4383
sg3106
g4377
sg4096
S'Journalist001'
p4384
sbsS'P-hard-03'
p4385
g1
(g10
g3
NtRp4386
(dp4387
g4083
(lp4388
sg4085
(lp4389
sg3112
S''
sg4087
F50
sg3644
F135
sg4088
F3
sg4089
F50
sg4090
S'Journalist001'
p4390
sg4091
F3
sg4092
F3
sg4093
S''
sg4094
S''
sg4095
S'Journalist001'
p4391
sg3106
g4385
sg4096
S'TVPersonality001'
p4392
sbsS'P-hard-01'
p4393
g1
(g10
g3
NtRp4394
(dp4395
g4083
(lp4396
sg4085
(lp4397
sg3112
S''
sg4087
F50
sg3644
F135
sg4088
F3
sg4089
F50
sg4090
S'Journalist001'
p4398
sg4091
F3
sg4092
F3
sg4093
S''
sg4094
S''
sg4095
S'Journalist001'
p4399
sg3106
g4393
sg4096
S'Journalist001'
p4400
sbsS'P-easy-10'
p4401
g1
(g10
g3
NtRp4402
(dp4403
g4083
(lp4404
sg4085
(lp4405
sg3112
S''
sg4087
F50
sg3644
F80
sg4088
F3
sg4089
F50
sg4090
S'Politician001'
p4406
sg4091
F2
sg4092
F3
sg4093
S''
sg4094
S''
sg4095
S'Mayor'
p4407
sg3106
g4401
sg4096
S'Politician001'
p4408
sbsS'P-med-19'
p4409
g1
(g10
g3
NtRp4410
(dp4411
g4083
(lp4412
sg4085
(lp4413
sg3112
S''
sg4087
F50
sg3644
F135
sg4088
F3
sg4089
F50
sg4090
S''
sg4091
F3
sg4092
S''
sg4093
S''
sg4094
S''
sg4095
S'DeepThroat'
p4414
sg3106
g4409
sg4096
S'DeepThroat'
p4415
sbsS'P-med-18'
p4416
g1
(g10
g3
NtRp4417
(dp4418
g4083
(lp4419
sg4085
(lp4420
sg3112
S''
sg4087
F50
sg3644
F135
sg4088
F3
sg4089
F50
sg4090
S'ReligiousNut001'
p4421
sg4091
F3
sg4092
F3
sg4093
F3
sg4094
S'ReligiousNut001'
p4422
sg4095
S'ReligiousNut001'
p4423
sg3106
g4416
sg4096
S'ReligiousNut001'
p4424
sbsS'P-med-15'
p4425
g1
(g10
g3
NtRp4426
(dp4427
g4083
(lp4428
sg4085
(lp4429
sg3112
S''
sg4087
F50
sg3644
F135
sg4088
F3
sg4089
F50
sg4090
S''
sg4091
F3
sg4092
S''
sg4093
S''
sg4094
S''
sg4095
S'ReligiousNut001'
p4430
sg3106
g4425
sg4096
S'ReligiousNut001'
p4431
sbsS'P-med-14'
p4432
g1
(g10
g3
NtRp4433
(dp4434
g4083
(lp4435
sg4085
(lp4436
sg3112
S''
sg4087
F50
sg3644
F135
sg4088
F3
sg4089
F50
sg4090
S'Lobbyist001'
p4437
sg4091
F3
sg4092
F3
sg4093
F3
sg4094
S'Lobbyist001'
p4438
sg4095
S'Lobbyist001'
p4439
sg3106
g4432
sg4096
S'Lobbyist001'
p4440
sbsS'P-med-17'
p4441
g1
(g10
g3
NtRp4442
(dp4443
g4083
(lp4444
sg4085
(lp4445
sg3112
S''
sg4087
F50
sg3644
F135
sg4088
F3
sg4089
F50
sg4090
S'ReligiousNut001'
p4446
sg4091
F3
sg4092
F3
sg4093
S''
sg4094
S''
sg4095
S'ReligiousNut001'
p4447
sg3106
g4441
sg4096
S'ReligiousNut001'
p4448
sbsS'P-med-16'
p4449
g1
(g10
g3
NtRp4450
(dp4451
g4083
(lp4452
sg4085
(lp4453
sg3112
S''
sg4087
F50
sg3644
F135
sg4088
F3
sg4089
F50
sg4090
S'ReligiousNut001'
p4454
sg4091
F3
sg4092
F3
sg4093
S''
sg4094
S''
sg4095
S'ReligiousNut001'
p4455
sg3106
g4449
sg4096
S'ReligiousNut001'
p4456
sbsS'P-med-11'
p4457
g1
(g10
g3
NtRp4458
(dp4459
g4083
(lp4460
sg4085
(lp4461
sg3112
S''
sg4087
F50
sg3644
F135
sg4088
F3
sg4089
F50
sg4090
S'Politician001'
p4462
sg4091
F3
sg4092
F3
sg4093
F3
sg4094
S'Politician001'
p4463
sg4095
S'Politician001'
p4464
sg3106
g4457
sg4096
S'Politician001'
p4465
sbsS'P-med-10'
p4466
g1
(g10
g3
NtRp4467
(dp4468
g4083
(lp4469
sg4085
(lp4470
sg3112
S''
sg4087
F50
sg3644
F135
sg4088
F3
sg4089
F50
sg4090
S'ReligiousNut001'
p4471
sg4091
F3
sg4092
F3
sg4093
S''
sg4094
S''
sg4095
S'Politician001'
p4472
sg3106
g4466
sg4096
S'Politician001'
p4473
sbsS'P-med-13'
p4474
g1
(g10
g3
NtRp4475
(dp4476
g4083
(lp4477
sg4085
(lp4478
sg3112
S''
sg4087
F50
sg3644
F135
sg4088
F3
sg4089
F50
sg4090
S'Lobbyist001'
p4479
sg4091
F3
sg4092
F3
sg4093
S''
sg4094
S''
sg4095
S'Lobbyist001'
p4480
sg3106
g4474
sg4096
S'Lobbyist001'
p4481
sbsS'P-med-12'
p4482
g1
(g10
g3
NtRp4483
(dp4484
g4083
(lp4485
sg4085
(lp4486
sg3112
S''
sg4087
F50
sg3644
F135
sg4088
F3
sg4089
F50
sg4090
S'Lobbyist001'
p4487
sg4091
F3
sg4092
F3
sg4093
S''
sg4094
S''
sg4095
S'Lobbyist001'
p4488
sg3106
g4482
sg4096
S'Lobbyist001'
p4489
sbssb.