ccopy_reg
_reconstructor
p1
(c__main__
GameData
p2
c__builtin__
object
p3
NtRp4
(dp5
S'attacks'
p6
(dp7
S'Lie'
p8
g1
(c__main__
TableRow
p9
g3
NtRp10
(dp11
S'base_damage_max'
p12
F8
sS'description'
p13
S'ghi'
p14
sS'name'
p15
g8
sS'crit_chance_max'
p16
F10
sS'crit_chance_min'
p17
F2
sS'target_type'
p18
S'AllEnemy'
p19
sS'base_damage_min'
p20
F0
sS'spin_cost'
p21
I0
sS'effects'
p22
(lp23
g1
(c__main__
Effect
p24
g3
NtRp25
(dp26
S'function'
p27
S'miss_turn'
p28
sS'abbrv'
p29
S'(MISS)'
p30
sS'attribute'
p31
S''
sS'value'
p32
F0
sS'rounds_min'
p33
F1
sS'rounds_max'
p34
F1
sS'id'
p35
S'Critical Fail'
p36
sS'apply_to_source'
p37
S'TRUE'
p38
sbasS'target_count'
p39
I1
sS'crit_base_damage'
p40
F15
sS'underlying_stat'
p41
S'Cunning'
p42
sbsS'Lose/lose issue'
p43
g1
(g9
g3
NtRp44
(dp45
g12
F4
sg13
S'Causes all politicians in the target radius to lose votes'
p46
sg15
g43
sg16
F0
sg17
F0
sg18
S'All'
p47
sg20
F4
sg21
I0
sg22
(lp48
sg39
I6
sg40
F0
sg41
S'Cunning'
p49
sbsS'Stay On Message'
p50
g1
(g9
g3
NtRp51
(dp52
g12
F5
sg13
S'abc'
p53
sg15
g50
sg16
F10
sg17
F2
sg18
S'AllEnemy'
p54
sg20
F2
sg21
I0
sg22
(lp55
sg39
I1
sg40
F8
sg41
S'Cunning'
p56
sbsS'Joke'
p57
g1
(g9
g3
NtRp58
(dp59
g12
F3
sg13
S'jkl'
p60
sg15
g57
sg16
F10
sg17
F2
sg18
S'AllEnemy'
p61
sg20
F1
sg21
I0
sg22
(lp62
g1
(g24
g3
NtRp63
(dp64
g27
S'reduce'
p65
sg29
S'(REDUCE)'
p66
sg31
S'cunning'
p67
sg32
F2
sg33
F2
sg34
F5
sg35
S'Reduce Cunning'
p68
sg37
S''
sbasg39
I1
sg40
F6
sg41
S'Wit'
p69
sbsS'Negative attack ad'
p70
g1
(g9
g3
NtRp71
(dp72
g12
F10
sg13
S''
sg15
g70
sg16
F10
sg17
F10
sg18
S'AllEnemy'
p73
sg20
F5
sg21
F5
sg22
(lp74
sg39
I1
sg40
F10
sg41
S'Cunning'
p75
sbsS'Slander Opposition'
p76
g1
(g9
g3
NtRp77
(dp78
g12
F3
sg13
S'def'
p79
sg15
g76
sg16
F10
sg17
F2
sg18
S'AllEnemy'
p80
sg20
F1
sg21
I0
sg22
(lp81
g1
(g24
g3
NtRp82
(dp83
g27
S'drain'
p84
sg29
S'(DRAIN)'
p85
sg31
S'votes'
p86
sg32
F1
sg33
F2
sg34
F5
sg35
S'Drain Votes'
p87
sg37
S''
sbasg39
I1
sg40
F5
sg41
S'Cunning'
p88
sbsS'Defense'
p89
g1
(g9
g3
NtRp90
(dp91
g12
F0
sg13
S'Gather strenth; -50% to all incoming attacks'
p92
sg15
g89
sg16
F0
sg17
F0
sg18
S'None'
p93
sg20
F0
sg21
I0
sg22
(lp94
g1
(g24
g3
NtRp95
(dp96
g27
S'add'
p97
sg29
S'(DFND)'
p98
sg31
S'resistance'
p99
sg32
F0.5
sg33
F1
sg34
F1
sg35
S'Defense'
p100
sg37
S'TRUE'
p101
sbasg39
I1
sg40
F0
sg41
S''
sbsS'Bribe'
p102
g1
(g9
g3
NtRp103
(dp104
g12
F1
sg13
S'mno'
p105
sg15
g102
sg16
F1
sg17
F1
sg18
S'AllEnemy'
p106
sg20
F1
sg21
I0
sg22
(lp107
sg39
I1
sg40
F1
sg41
S'Money'
p108
sbsS'Inspirational Speech'
p109
g1
(g9
g3
NtRp110
(dp111
g12
F-2
sg13
S'Restore votes to all party members'
p112
sg15
g109
sg16
F0
sg17
F0
sg18
S'AllFriendly'
p113
sg20
F-2
sg21
I0
sg22
(lp114
sg39
I4
sg40
F0
sg41
S'Cunning'
p115
sbsS'Bielection'
p116
g1
(g9
g3
NtRp117
(dp118
g12
F4
sg13
S'Redistribute votes amongst targets'
p119
sg15
g116
sg16
F0
sg17
F0
sg18
S'All'
p120
sg20
F-4
sg21
F10
sg22
(lp121
sg39
I8
sg40
F0
sg41
S'Cunning'
p122
sbssS'standard_attacks'
p123
(dp124
S'Player'
p125
(lp126
g51
ag77
ag10
ag58
ag103
ag117
ag71
assS'encounters'
p127
(dp128
S'P-easy-01'
p129
g1
(g9
g3
NtRp130
(dp131
S'xp'
p132
F100
sS'monster2_lvl'
p133
F1
sS'monster3'
p134
S'Politician001'
p135
sS'monster1_lvl'
p136
F1
sS'monster3_lvl'
p137
F1
sS'monster4_lvl'
p138
F1
sS'monster4'
p139
S'Politician001'
p140
sS'drops'
p141
S'Lose/lose issue'
p142
sS'monster2'
p143
S'Politician001'
p144
sg35
g129
sS'monster1'
p145
S'Politician001'
p146
sbssg22
(dp147
g36
g25
sg68
g63
sg87
g82
sg100
g95
ssS'characters'
p148
(dp149
S'Player'
p150
(lp151
g1
(g9
g3
NtRp152
(dp153
S'flair_base'
p154
F1
sS'spin_base'
p155
F5
sS'flair_lvl'
p156
F1.1499999999999999
sS'wit_base'
p157
F2
sS'resistance'
p158
(lp159
sS'wit_lvl'
p160
F1.0900000000000001
sS'cunning_base'
p161
F2
sg35
g150
sS'item_attacks'
p162
(lp163
g110
ag44
asS'votes_base'
p164
F10
sS'speed_lvl'
p165
F1.0800000000000001
sg123
(lp166
g51
ag77
ag10
ag58
ag103
asS'cunning_lvl'
p167
F1.1000000000000001
sS'charisma_lvl'
p168
F1.1499999999999999
sS'spin_attacks'
p169
(lp170
g117
ag71
asS'spin_lvl'
p171
F1.0800000000000001
sS'charisma_base'
p172
F2
sS'weaknesses'
p173
(lp174
sS'attack_group'
p175
S'Player'
p176
sS'votes_lvl'
p177
F1.2
sg15
S'Phillip Mossman'
p178
sS'speed_base'
p179
F2
sS'immunities'
p180
(lp181
sbasS'ReligiousNut001'
p182
(lp183
g1
(g9
g3
NtRp184
(dp185
g154
S''
sg155
S''
sg156
S''
sg157
S''
sg158
(lp186
sg160
S''
sg161
S''
sg35
g182
sg162
(lp187
sg164
S''
sg165
S''
sg123
(lp188
g51
ag77
ag10
ag58
ag103
asg167
S''
sg168
S''
sg169
(lp189
g117
ag71
asg171
S''
sg172
S''
sg173
(lp190
sg175
S'Player'
p191
sg177
S''
sg15
S'Religious Nut'
p192
sg179
S''
sg180
(lp193
g58
asbasS'Lobbyist001'
p194
(lp195
g1
(g9
g3
NtRp196
(dp197
g154
S''
sg155
S''
sg156
S''
sg157
S''
sg158
(lp198
sg160
S''
sg161
S''
sg35
g194
sg162
(lp199
sg164
S''
sg165
S''
sg123
(lp200
g51
ag77
ag10
ag58
ag103
asg167
S''
sg168
S''
sg169
(lp201
g117
ag71
asg171
S''
sg172
S''
sg173
(lp202
sg175
S'Player'
p203
sg177
S''
sg15
S'Lobbyist'
p204
sg179
S''
sg180
(lp205
g103
asbasS'Politician001'
p206
(lp207
g1
(g9
g3
NtRp208
(dp209
g154
F1
sg155
F4
sg156
F1.1499999999999999
sg157
F1
sg158
(lp210
g10
asg160
F1.0900000000000001
sg161
F1
sg35
g206
sg162
(lp211
g110
asg164
F20
sg165
F1.0800000000000001
sg123
(lp212
g51
ag77
ag10
ag58
ag103
asg167
F1.1000000000000001
sg168
F1.1499999999999999
sg169
(lp213
g117
ag71
asg171
F1.0800000000000001
sg172
F1
sg173
(lp214
g103
asg175
S'Player'
p215
sg177
F1.2
sg15
S'Politician'
p216
sg179
F1
sg180
(lp217
g51
asbasS'Bumpkin001'
p218
(lp219
g1
(g9
g3
NtRp220
(dp221
g154
S''
sg155
S''
sg156
S''
sg157
S''
sg158
(lp222
sg160
S''
sg161
S''
sg35
g218
sg162
(lp223
sg164
S''
sg165
S''
sg123
(lp224
g51
ag77
ag10
ag58
ag103
asg167
S''
sg168
S''
sg169
(lp225
g117
ag71
asg171
S''
sg172
S''
sg173
(lp226
g10
asg175
S'Player'
p227
sg177
S''
sg15
S'Bumpkin'
p228
sg179
S''
sg180
(lp229
sbassb.