ccopy_reg
_reconstructor
p1
(c__main__
GameData
p2
c__builtin__
object
p3
NtRp4
(dp5
S'attacks'
p6
(lp7
g1
(c__main__
TableRow
p8
g3
NtRp9
(dp10
S'base_damage_max'
p11
F5
sS'description'
p12
S'abc'
p13
sS'name'
p14
S'Stay On Message'
p15
sS'crit_chance_max'
p16
F10
sS'crit_chance_min'
p17
F2
sS'base_damage_min'
p18
F2
sS'effects'
p19
(lp20
sS'crit_base_damage'
p21
F8
sS'underlying_stat'
p22
S'Cunning'
p23
sbag1
(g8
g3
NtRp24
(dp25
g11
F3
sg12
S'def'
p26
sg14
S'Slander Opposition'
p27
sg16
F10
sg17
F2
sg18
F1
sg19
(lp28
g1
(c__main__
Effect
p29
g3
NtRp30
(dp31
S'function'
p32
S'drain'
p33
sS'attribute'
p34
S'votes'
p35
sS'rounds_max'
p36
F5
sS'rounds_min'
p37
F2
sS'value'
p38
F1
sS'id'
p39
S'Drain Votes'
p40
sbasg21
F5
sg22
S'Cunning'
p41
sbag1
(g8
g3
NtRp42
(dp43
g11
F8
sg12
S'ghi'
p44
sg14
S'Lie'
p45
sg16
F10
sg17
F2
sg18
F0
sg19
(lp46
g1
(g29
g3
NtRp47
(dp48
g32
S'miss_turn'
p49
sg34
F0
sg36
S''
sg37
F1
sg38
S''
sg39
S'Critical Fail'
p50
sbasg21
F15
sg22
S'Cunning'
p51
sbag1
(g8
g3
NtRp52
(dp53
g11
F3
sg12
S'jkl'
p54
sg14
S'Joke'
p55
sg16
F10
sg17
F2
sg18
F1
sg19
(lp56
g1
(g29
g3
NtRp57
(dp58
g32
S'reduce'
p59
sg34
S'cunning'
p60
sg36
F5
sg37
F2
sg38
F2
sg39
S'Reduce Cunning'
p61
sbasg21
F6
sg22
S'Wit'
p62
sbasS'encounters'
p63
(dp64
S'P-easy-01'
p65
g1
(g8
g3
NtRp66
(dp67
S'monster2_lvl'
p68
F1
sg39
g65
sS'monster1_lvl'
p69
F1
sS'monster3_lvl'
p70
F1
sS'monster4_lvl'
p71
F100
sS'monster4'
p72
S''
sS'monster2'
p73
S'Politician001'
p74
sS'monster3'
p75
S'Politician001'
p76
sS'monster1'
p77
S'Politician001'
p78
sbssg19
(dp79
g50
g47
sg61
g57
sg40
g30
ssS'characters'
p80
(dp81
S'Player'
p82
(lp83
g1
(g8
g3
NtRp84
(dp85
S'flair_base'
p86
F1
sS'charisma_lvl'
p87
F1.1499999999999999
sS'spin_lvl'
p88
F1.0800000000000001
sS'cunning_base'
p89
F2
sS'votes_lvl'
p90
F1.2
sS'charisma_base'
p91
F2
sS'wit_base'
p92
F2
sS'speed_base'
p93
F2
sS'votes_base'
p94
F10
sS'spin_base'
p95
F5
sS'wit_lvl'
p96
F1.0900000000000001
sS'speed_lvl'
p97
F1.0800000000000001
sS'cunning_lvl'
p98
F1.1000000000000001
sS'flair_lvl'
p99
F1.1499999999999999
sg39
g82
sbasS'Politician001'
p100
(lp101
g1
(g8
g3
NtRp102
(dp103
g86
F1
sg87
F1.1499999999999999
sg88
F1.0800000000000001
sg89
F1
sg90
F1.2
sg91
F1
sg92
F1
sg93
F1
sg94
F20
sg95
F4
sg96
F1.0900000000000001
sg97
F1.0800000000000001
sg98
F1.1000000000000001
sg99
F1.1499999999999999
sg39
g100
sbassb.