ccopy_reg
_reconstructor
p1
(c__main__
GameData
p2
c__builtin__
object
p3
NtRp4
(dp5
S'script'
p6
(dp7
S'_Act2'
p8
(lp9
g1
(c__main__
TableRow
p10
g3
NtRp11
(dp12
S'action'
p13
S'AddAlly'
p14
sS'trigger'
p15
g8
sS'param'
p16
S'Wife:1'
p17
sS'dialog'
p18
S''
sbag1
(g10
g3
NtRp19
(dp20
g13
S'GotoMap'
p21
sg15
S'_Act2'
p22
sg16
S'act2'
p23
sg18
S''
sbasS'FlunkyTest'
p24
(lp25
g1
(g10
g3
NtRp26
(dp27
g13
S'RequireCount'
p28
sg15
g24
sg16
S'FLUNKIES:3'
p29
sg18
S'Take out 3 flunkies'
p30
sbag1
(g10
g3
NtRp31
(dp32
g13
S'Say'
p33
sg15
S'FlunkyTest'
p34
sg16
S''
sg18
S'Thanks!'
p35
sbasS'Wife'
p36
(lp37
g1
(g10
g3
NtRp38
(dp39
g13
S'GotoMap'
p40
sg15
g36
sg16
S'act1'
p41
sg18
S''
sbag1
(g10
g3
NtRp42
(dp43
g13
S'_RequireFlag'
p44
sg15
S'Wife'
p45
sg16
S'GOHOMETOWIFE'
p46
sg18
S'What are you doing here, Phillip? You should be at work!'
p47
sbag1
(g10
g3
NtRp48
(dp49
g13
S'Say'
p50
sg15
S'Wife'
p51
sg16
S''
sg18
S'Welcome home, Phillip! How was your workday?'
p52
sbag1
(g10
g3
NtRp53
(dp54
g13
S'PlayerSay'
p55
sg15
S'Wife'
p56
sg16
S''
sg18
S'\xe2\x80\xa6'
p57
sbag1
(g10
g3
NtRp58
(dp59
g13
S'Say'
p60
sg15
S'Wife'
p61
sg16
S''
sg18
S"That good, huh? You know this isn't what you want. Why don't you strike out on your own?"
p62
sbag1
(g10
g3
NtRp63
(dp64
g13
S'PlayerSay'
p65
sg15
S'Wife'
p66
sg16
S''
sg18
S"I didn't think I knew where to start to be a Mayor, but Mayor Goodman makes it look easy."
p67
sbag1
(g10
g3
NtRp68
(dp69
g13
S'Say'
p70
sg15
S'Wife'
p71
sg16
S''
sg18
S"That's the spirit! You can do it! All you need is some money and support."
p72
sbag1
(g10
g3
NtRp73
(dp74
g13
S'PlayerSay'
p75
sg15
S'Wife'
p76
sg16
S''
sg18
S'Well...OK! Lets start with money. We need a sponsor.'
p77
sbag1
(g10
g3
NtRp78
(dp79
g13
S'Say'
p80
sg15
S'Wife'
p81
sg16
S''
sg18
S'OK, lets go get one!'
p82
sbag1
(g10
g3
NtRp83
(dp84
g13
S'AddAlly'
p85
sg15
S'Wife'
p86
sg16
S'Wife:1'
p87
sg18
S'Sarah Mossman Joins Your Political Party!'
p88
sbag1
(g10
g3
NtRp89
(dp90
g13
S'SetFlag'
p91
sg15
S'Wife'
p92
sg16
S'STARTSPONSOR'
p93
sg18
S''
sbag1
(g10
g3
NtRp94
(dp95
g13
S'Destroy'
p96
sg15
S'Wife'
p97
sg16
S''
sg18
S''
sbasS'Flunky2'
p98
(lp99
g1
(g10
g3
NtRp100
(dp101
g13
S'Increment'
p102
sg15
g98
sg16
S'FLUNKIES'
p103
sg18
S''
sbag1
(g10
g3
NtRp104
(dp105
g13
S'Say'
p106
sg15
S'Flunky2'
p107
sg16
S''
sg18
S'You talked to me'
p108
sbag1
(g10
g3
NtRp109
(dp110
g13
S'Destroy'
p111
sg15
S'Flunky2'
p112
sg16
S''
sg18
S''
sbasS'Flunky3'
p113
(lp114
g1
(g10
g3
NtRp115
(dp116
g13
S'Increment'
p117
sg15
g113
sg16
S'FLUNKIES'
p118
sg18
S''
sbag1
(g10
g3
NtRp119
(dp120
g13
S'Say'
p121
sg15
S'Flunky3'
p122
sg16
S''
sg18
S'You talked to me'
p123
sbag1
(g10
g3
NtRp124
(dp125
g13
S'Destroy'
p126
sg15
S'Flunky3'
p127
sg16
S''
sg18
S''
sbasS'Flunky1'
p128
(lp129
g1
(g10
g3
NtRp130
(dp131
g13
S'Increment'
p132
sg15
g128
sg16
S'FLUNKIES'
p133
sg18
S''
sbag1
(g10
g3
NtRp134
(dp135
g13
S'Say'
p136
sg15
S'Flunky1'
p137
sg16
S''
sg18
S'You talked to me'
p138
sbag1
(g10
g3
NtRp139
(dp140
g13
S'Destroy'
p141
sg15
S'Flunky1'
p142
sg16
S''
sg18
S''
sbasS'Protester2'
p143
(lp144
g1
(g10
g3
NtRp145
(dp146
g13
S'Say'
p147
sg15
g143
sg16
S''
sg18
S"Bees buzz, Mayors lie, who's this Phillip Mossman guy?"
p148
sbag1
(g10
g3
NtRp149
(dp150
g13
S'RequireFlag'
p151
sg15
S'Protester2'
p152
sg16
S'PROTESTORS'
p153
sg18
S''
sbag1
(g10
g3
NtRp154
(dp155
g13
S'Encounter'
p156
sg15
S'Protester2'
p157
sg16
S'P-easy-03'
p158
sg18
S''
sbag1
(g10
g3
NtRp159
(dp160
g13
S'Destroy'
p161
sg15
S'Protester2'
p162
sg16
S''
sg18
S''
sbasS'Protester1'
p163
(lp164
g1
(g10
g3
NtRp165
(dp166
g13
S'Say'
p167
sg15
g163
sg16
S''
sg18
S"Fee Fi Fo Fum, we think Mayor Goodman's Dumb!"
p168
sbag1
(g10
g3
NtRp169
(dp170
g13
S'RequireFlag'
p171
sg15
S'Protester1'
p172
sg16
S'PROTESTORS'
p173
sg18
S''
sbag1
(g10
g3
NtRp174
(dp175
g13
S'Encounter'
p176
sg15
S'Protester1'
p177
sg16
S'P-easy-02'
p178
sg18
S''
sbag1
(g10
g3
NtRp179
(dp180
g13
S'Destroy'
p181
sg15
S'Protester1'
p182
sg16
S''
sg18
S''
sbasS'Head Protester'
p183
(lp184
g1
(g10
g3
NtRp185
(dp186
g13
S'Say'
p187
sg15
g183
sg16
S''
sg18
S"I am the head protester. You'll never convince us to back down!"
p188
sbag1
(g10
g3
NtRp189
(dp190
g13
S'RequireFlag'
p191
sg15
S'Head Protester'
p192
sg16
S'PROTESTORS'
p193
sg18
S''
sbag1
(g10
g3
NtRp194
(dp195
g13
S'PlayerSay'
p196
sg15
S'Head Protester'
p197
sg16
S''
sg18
S'What are you protesting?'
p198
sbag1
(g10
g3
NtRp199
(dp200
g13
S'Say'
p201
sg15
S'Head Protester'
p202
sg16
S''
sg18
S'Er...Injustice!'
p203
sbag1
(g10
g3
NtRp204
(dp205
g13
S'PlayerSay'
p206
sg15
S'Head Protester'
p207
sg16
S''
sg18
S'Injustice against what?'
p208
sbag1
(g10
g3
NtRp209
(dp210
g13
S'Say'
p211
sg15
S'Head Protester'
p212
sg16
S''
sg18
S'\xe2\x80\xa6'
p213
sbag1
(g10
g3
NtRp214
(dp215
g13
S'Say'
p216
sg15
S'Head Protester'
p217
sg16
S''
sg18
S'The People!'
p218
sbag1
(g10
g3
NtRp219
(dp220
g13
S'PlayerSay'
p221
sg15
S'Head Protester'
p222
sg16
S''
sg18
S'Yes, but which people?'
p223
sbag1
(g10
g3
NtRp224
(dp225
g13
S'Say'
p226
sg15
S'Head Protester'
p227
sg16
S''
sg18
S'See? What a fascist, ALL people you slimey politician scum!'
p228
sbag1
(g10
g3
NtRp229
(dp230
g13
S'Encounter'
p231
sg15
S'Head Protester'
p232
sg16
S'P-easy-04'
p233
sg18
S''
sbag1
(g10
g3
NtRp234
(dp235
g13
S'Say'
p236
sg15
S'Head Protester'
p237
sg16
S''
sg18
S"Alright, fine! We'll stop protesting...whatever we were protesting."
p238
sbag1
(g10
g3
NtRp239
(dp240
g13
S'SetFlag'
p241
sg15
S'Head Protester'
p242
sg16
S'PROTESTORSDEAD'
p243
sg18
S''
sbag1
(g10
g3
NtRp244
(dp245
g13
S'Destroy'
p246
sg15
S'Head Protester'
p247
sg16
S''
sg18
S''
sbasS'Receptionist'
p248
(lp249
g1
(g10
g3
NtRp250
(dp251
g13
S'Encounter'
p252
sg15
g248
sg16
S'P-easy-01'
p253
sg18
S''
sbag1
(g10
g3
NtRp254
(dp255
g13
S'GiveItem'
p256
sg15
S'Receptionist'
p257
sg16
S'PEN'
p258
sg18
S'Receptionist sighs and hands over the pen.'
p259
sbag1
(g10
g3
NtRp260
(dp261
g13
S'Destroy'
p262
sg15
S'Receptionist'
p263
sg16
S''
sg18
S''
sbasS'Sponsor'
p264
(lp265
g1
(g10
g3
NtRp266
(dp267
g13
S'RequireFlag'
p268
sg15
g264
sg16
S'STARTSPONSOR'
p269
sg18
S"Hmmm...Money, money, money. Sorry, what? I wasn't talking to you."
p270
sbag1
(g10
g3
NtRp271
(dp272
g13
S'Say'
p273
sg15
S'Sponsor'
p274
sg16
S''
sg18
S"Hello, I'm investigating new investments today. How can I help you?"
p275
sbag1
(g10
g3
NtRp276
(dp277
g13
S'PlayerSay'
p278
sg15
S'Sponsor'
p279
sg16
S''
sg18
S"Well, I've decided to run for Mayor! I could really use an investor."
p280
sbag1
(g10
g3
NtRp281
(dp282
g13
S'Say'
p283
sg15
S'Sponsor'
p284
sg16
S''
sg18
S"I don't know. You seem a little young. I don't think I'm convinced."
p285
sbag1
(g10
g3
NtRp286
(dp287
g13
S'Encounter'
p288
sg15
S'Sponsor'
p289
sg16
S'P-easy-06'
p290
sg18
S''
sbag1
(g10
g3
NtRp291
(dp292
g13
S'Say'
p293
sg15
S'Sponsor'
p294
sg16
S''
sg18
S"Wow! You sure have what it takes! Alright, he's a pile of cash!"
p295
sbag1
(g10
g3
NtRp296
(dp297
g13
S'Say'
p298
sg15
S'Sponsor'
p299
sg16
S''
sg18
S'Also, now that you have some funds, you might find it useful to...grease the wheels in some difficult situations.'
p300
sbag1
(g10
g3
NtRp301
(dp302
g13
S'LearnAttack'
p303
sg15
S'Sponsor'
p304
sg16
S'BRIBE'
p305
sg18
S'Phillip and Sarah learn to Bribe'
p306
sbag1
(g10
g3
NtRp307
(dp308
g13
S'LearnAttack'
p309
sg15
S'Sponsor'
p310
sg16
S'Wife:BRIBE'
p311
sg18
S''
sbag1
(g10
g3
NtRp312
(dp313
g13
S'SetFlag'
p314
sg15
S'Sponsor'
p315
sg16
S'STARTCONSTITUENTS'
p316
sg18
S''
sbag1
(g10
g3
NtRp317
(dp318
g13
S'PlayerSay'
p319
sg15
S'Sponsor'
p320
sg16
S''
sg18
S'Er, thanks! I suppose we should go gather some support from our constituents now.'
p321
sbag1
(g10
g3
NtRp322
(dp323
g13
S'Say'
p324
sg15
S'Sponsor'
p325
sg16
S''
sg18
S"Makes sense to me! I'm off, too. Money, money, money."
p326
sbag1
(g10
g3
NtRp327
(dp328
g13
S'Destroy'
p329
sg15
S'Sponsor'
p330
sg16
S''
sg18
S''
sbasS'P-easy-01'
p331
(lp332
g1
(g10
g3
NtRp333
(dp334
g13
S'Say'
p335
sg15
g331
sg16
S'Player'
p336
sg18
S'Well now we are fighting'
p337
sbag1
(g10
g3
NtRp338
(dp339
g13
S'Say'
p340
sg15
S'P-easy-01'
p341
sg16
S'Receptionist001'
p342
sg18
S"Let's go!"
p343
sbag1
(g10
g3
NtRp344
(dp345
g13
S'BeginCombat'
p346
sg15
S'P-easy-01'
p347
sg16
S''
sg18
S''
sbag1
(g10
g3
NtRp348
(dp349
g13
S'Say'
p350
sg15
S'P-easy-01'
p351
sg16
S'Receptionist001'
p352
sg18
S'Alas, I am dead'
p353
sbasS'Mayor'
p354
(lp355
g1
(g10
g3
NtRp356
(dp357
g13
S'Say'
p358
sg15
g354
sg16
S''
sg18
S"Hello, I'm the Mayor!"
p359
sbag1
(g10
g3
NtRp360
(dp361
g13
S'PlayerSay'
p362
sg15
S'Mayor'
p363
sg16
S''
sg18
S"Hello, Mayor Goodman, I'm Philip Mossman."
p364
sbag1
(g10
g3
NtRp365
(dp366
g13
S'Say'
p367
sg15
S'Mayor'
p368
sg16
S''
sg18
S"Ah yes, you're my new assistant. A good thing, too."
p369
sbag1
(g10
g3
NtRp370
(dp371
g13
S'Say'
p372
sg15
S'Mayor'
p373
sg16
S''
sg18
S"I've been searching for minutes and haven't been able to find my pen! I bet my receptionist stole it. She has sticky fingers."
p374
sbag1
(g10
g3
NtRp375
(dp376
g13
S'Say'
p377
sg15
S'Mayor'
p378
sg16
S''
sg18
S"Well, don't just stand there, go and get it!"
p379
sbag1
(g10
g3
NtRp380
(dp381
g13
S'SetFlag'
p382
sg15
S'Mayor'
p383
sg16
S'PENQUEST'
p384
sg18
S''
sbag1
(g10
g3
NtRp385
(dp386
g13
S'RequireItem'
p387
sg15
S'Mayor'
p388
sg16
S'PEN'
p389
sg18
S'Are you simple? Go and get my pen from that thieving receptionist.'
p390
sbag1
(g10
g3
NtRp391
(dp392
g13
S'Say'
p393
sg15
S'Mayor'
p394
sg16
S''
sg18
S"Great! I know she can give you a bit of a tongue-lashing, but she's a fantastic receptionist."
p395
sbag1
(g10
g3
NtRp396
(dp397
g13
S'Say'
p398
sg15
S'Mayor'
p399
sg16
S''
sg18
S"I'm sure you want to learn a thing or two about politics \xe2\x80\x93 who doesn't? - so lets get started"
p400
sbag1
(g10
g3
NtRp401
(dp402
g13
S'SetFlag'
p403
sg15
S'Mayor'
p404
sg16
S'PROTESTORS'
p405
sg18
S''
sbag1
(g10
g3
NtRp406
(dp407
g13
S'RequireFlag'
p408
sg15
S'Mayor'
p409
sg16
S'PROTESTORSDEAD'
p410
sg18
S'Run outside and tell those protesters to scram, will you?'
p411
sbag1
(g10
g3
NtRp412
(dp413
g13
S'Say'
p414
sg15
S'Mayor'
p415
sg16
S''
sg18
S"Hope they didn't give you too much trouble!"
p416
sbag1
(g10
g3
NtRp417
(dp418
g13
S'Say'
p419
sg15
S'Mayor'
p420
sg16
S''
sg18
S"Now that's sorted, there's a journalist from the local newspaper coming for an interview."
p421
sbag1
(g10
g3
NtRp422
(dp423
g13
S'Say'
p424
sg15
S'Mayor'
p425
sg16
S''
sg18
S"I certainly don't have time for it, so you can do the interview."
p426
sbag1
(g10
g3
NtRp427
(dp428
g13
S'Say'
p429
sg15
S'Mayor'
p430
sg16
S''
sg18
S"Be careful not to give too much away and if you could throw a few punches at the opposition that'd help."
p431
sbag1
(g10
g3
NtRp432
(dp433
g13
S'PlayerSay'
p434
sg15
S'Mayor'
p435
sg16
S''
sg18
S'You want me to...throw a punch?'
p436
sbag1
(g10
g3
NtRp437
(dp438
g13
S'Say'
p439
sg15
S'Mayor'
p440
sg16
S''
sg18
S"You're in politics and don't know how to fight dirty? Sheesh! Here, let me show you."
p441
sbag1
(g10
g3
NtRp442
(dp443
g13
S'LearnAttack'
p444
sg15
S'Mayor'
p445
sg16
S'SLANDER'
p446
sg18
S'Mayor teaches Phillip to Slander Opposition'
p447
sbag1
(g10
g3
NtRp448
(dp449
g13
S'Say'
p450
sg15
S'Mayor'
p451
sg16
S''
sg18
S"It's a pretty great tactic because it keeps eating away at them long after you've done it."
p452
sbag1
(g10
g3
NtRp453
(dp454
g13
S'SetFlag'
p455
sg15
S'Mayor'
p456
sg16
S'INTERVIEWSTART'
p457
sg18
S''
sbag1
(g10
g3
NtRp458
(dp459
g13
S'RequireFlag'
p460
sg15
S'Mayor'
p461
sg16
S'JOURNALISTINTERVIEW'
p462
sg18
S'Go handle that interview and remember to slander the opposition.'
p463
sbag1
(g10
g3
NtRp464
(dp465
g13
S'SetFlag'
p466
sg15
S'Mayor'
p467
sg16
S'GOHOMETOWIFE'
p468
sg18
S''
sbag1
(g10
g3
NtRp469
(dp470
g13
S'Say'
p471
sg15
S'Mayor'
p472
sg16
S''
sg18
S'OK, fine, now could you buzz off for a while? I need to get some work done.'
p473
sbag1
(g10
g3
NtRp474
(dp475
g13
S'RequireFlag'
p476
sg15
S'Mayor'
p477
sg16
S'CONSTITUENTSWON'
p478
sg18
S"Go home to your family. I have things to do that don't involve you."
p479
sbasS'Journalist'
p480
(lp481
g1
(g10
g3
NtRp482
(dp483
g13
S'RequireFlag'
p484
sg15
g480
sg16
S'INTERVIEWSTART'
p485
sg18
S'Leave me alone, kid I need to get this done before my deadline!'
p486
sbag1
(g10
g3
NtRp487
(dp488
g13
S'Say'
p489
sg15
S'Journalist'
p490
sg16
S''
sg18
S"Hey, where's the Mayor?"
p491
sbag1
(g10
g3
NtRp492
(dp493
g13
S'PlayerSay'
p494
sg15
S'Journalist'
p495
sg16
S''
sg18
S"He couldn't make it. I'll be taking the interview."
p496
sbag1
(g10
g3
NtRp497
(dp498
g13
S'Say'
p499
sg15
S'Journalist'
p500
sg16
S''
sg18
S'Great! Easy pickings! Lets go.'
p501
sbag1
(g10
g3
NtRp502
(dp503
g13
S'Encounter'
p504
sg15
S'Journalist'
p505
sg16
S'P-easy-05'
p506
sg18
S''
sbag1
(g10
g3
NtRp507
(dp508
g13
S'Say'
p509
sg15
S'Journalist'
p510
sg16
S''
sg18
S"SNORE! Fine, if I can't get anything juicy here I'll do another puff piece on my poodle Frank."
p511
sbag1
(g10
g3
NtRp512
(dp513
g13
S'SetFlag'
p514
sg15
S'Journalist'
p515
sg16
S'JOURNALISTINTERVIEW'
p516
sg18
S''
sbag1
(g10
g3
NtRp517
(dp518
g13
S'Destroy'
p519
sg15
S'Journalist'
p520
sg16
S''
sg18
S''
sbassS'attacks'
p521
(dp522
S'GETEXCLUSIVE'
p523
g1
(g10
g3
NtRp524
(dp525
S'base_damage_max'
p526
F4
sS'description'
p527
S'asdf'
p528
sS'weight'
p529
I1
sS'crit_chance_max'
p530
F5
sS'crit_chance_min'
p531
F2
sS'underlying_stat'
p532
S'Wit'
p533
sS'target_type'
p534
S'AllFriendly'
p535
sS'base_damage_min'
p536
F2
sS'spin_cost'
p537
F5
sS'effects'
p538
(lp539
g1
(c__main__
Effect
p540
g3
NtRp541
(dp542
S'function'
p543
S'add'
p544
sS'abbrv'
p545
S'(INCREASE)'
p546
sS'attribute'
p547
S'cunning'
p548
sS'value'
p549
F2
sS'rounds_min'
p550
F1
sS'rounds_max'
p551
F4
sS'id'
p552
S'Increase Cunning'
p553
sS'apply_to_source'
p554
S'TRUE'
p555
sbasS'target_count'
p556
I1
sS'crit_base_damage'
p557
F8
sg552
g523
sS'name'
p558
S'Get Exclusive'
p559
sbsS'LOSELOSE'
p560
g1
(g10
g3
NtRp561
(dp562
g526
F4
sg527
S'Causes all politicians in the target radius to lose votes'
p563
sg529
I1
sg530
F0
sg531
F0
sg532
S'Cunning'
p564
sg534
S'All'
p565
sg536
F4
sg537
I0
sg538
(lp566
sg556
I6
sg557
F0
sg552
g560
sg558
S'Lose/lose issue'
p567
sbsS'LIE'
p568
g1
(g10
g3
NtRp569
(dp570
g526
F6
sg527
S"It's only lying if they catch you. A strong attack with a danger of failing entirely and leaving you high and dry."
p571
sg529
F3
sg530
F10
sg531
F2
sg532
S'Wit'
p572
sg534
S'AllEnemy'
p573
sg536
F0
sg537
I0
sg538
(lp574
g1
(g540
g3
NtRp575
(dp576
g543
S'miss_turn'
p577
sg545
S'(MISS)'
p578
sg547
S''
sg549
F0
sg550
F1
sg551
F1
sg552
S'Critical Fail'
p579
sg554
S'TRUE'
p580
sbasg556
I1
sg557
F10
sg552
g568
sg558
S'Lie'
p581
sbsS'HILARIOUSANECDOTE'
p582
g1
(g10
g3
NtRp583
(dp584
g526
F8
sg527
S'asdf'
p585
sg529
I1
sg530
F0
sg531
F0
sg532
S'Wit'
p586
sg534
S'AllFriendly'
p587
sg536
F4
sg537
F5
sg538
(lp588
g1
(g540
g3
NtRp589
(dp590
g543
S'add'
p591
sg545
S'(INCREASE)'
p592
sg547
S'flair'
p593
sg549
F2
sg550
F1
sg551
F4
sg552
S'Increase Flair'
p594
sg554
S'TRUE'
p595
sbasg556
I1
sg557
F0
sg552
g582
sg558
S'Hilarious Anecdote'
p596
sbsS'SENSATIONALISE'
p597
g1
(g10
g3
NtRp598
(dp599
g526
F8
sg527
S'asdf'
p600
sg529
I1
sg530
F0
sg531
F0
sg532
S'Wit'
p601
sg534
S'AllEnemy'
p602
sg536
F4
sg537
F3
sg538
(lp603
sg556
I1
sg557
F0
sg552
g597
sg558
S'Sensationalise'
p604
sbsS'DENOUNCE'
p605
g1
(g10
g3
NtRp606
(dp607
g526
F5
sg527
S'asdf'
p608
sg529
F6
sg530
F10
sg531
F2
sg532
S'Cunning'
p609
sg534
S'AllEnemy'
p610
sg536
F2
sg537
I0
sg538
(lp611
sg556
I1
sg557
F8
sg552
g605
sg558
S'Denounce'
p612
sbsS'WHADOWEWANT'
p613
g1
(g10
g3
NtRp614
(dp615
g526
F6
sg527
S'asdf'
p616
sg529
I1
sg530
F0
sg531
F0
sg532
S'Cunning'
p617
sg534
S'AllEnemy'
p618
sg536
F3
sg537
I0
sg538
(lp619
sg556
I1
sg557
F0
sg552
g613
sg558
S'Whadowewant!'
p620
sbsS'SCOOP'
p621
g1
(g10
g3
NtRp622
(dp623
g526
F5
sg527
S'asdf'
p624
sg529
I1
sg530
F10
sg531
F5
sg532
S'Cunning'
p625
sg534
S'AllEnemy'
p626
sg536
F2
sg537
I0
sg538
(lp627
sg556
I1
sg557
F8
sg552
g621
sg558
S'Scoop'
p628
sbsS'CHOOSETARGETS'
p629
g1
(g10
g3
NtRp630
(dp631
g526
F7
sg527
S'asdf'
p632
sg529
I1
sg530
F10
sg531
F5
sg532
S'Cunning'
p633
sg534
S'AllEnemy'
p634
sg536
F2
sg537
I0
sg538
(lp635
sg556
I1
sg557
F9
sg552
g629
sg558
S'Choose Targets'
p636
sbsS'FILENAILS'
p637
g1
(g10
g3
NtRp638
(dp639
g526
F0
sg527
S'asdf'
p640
sg529
I1
sg530
F0
sg531
F0
sg532
S'Wit'
p641
sg534
S'AllEnemy'
p642
sg536
F0
sg537
F3
sg538
(lp643
g1
(g540
g3
NtRp644
(dp645
g543
S'add_permanent'
p646
sg545
S''
sg547
S'votes'
p647
sg549
F5
sg550
F1
sg551
F1
sg552
S'Votes Restore'
p648
sg554
S'TRUE'
p649
sbasg556
I1
sg557
F0
sg552
g637
sg558
S'File Nails'
p650
sbsS'BRIBE'
p651
g1
(g10
g3
NtRp652
(dp653
g526
F1
sg527
S'Is there anything more convincing than money? Buying loyalty gets expensive so be careful.'
p654
sg529
I1
sg530
F1
sg531
F1
sg532
S'Money'
p655
sg534
S'AllEnemy'
p656
sg536
F2
sg537
I0
sg538
(lp657
sg556
I1
sg557
F1
sg552
g651
sg558
S'Bribe'
p658
sbsS'SING'
p659
g1
(g10
g3
NtRp660
(dp661
g526
F-3
sg527
S'Why bandy words with politicians when you can sing a catchy tune! Restores votes.'
p662
sg529
I1
sg530
F0
sg531
F0
sg532
S'Wit'
p663
sg534
S'AllFriendly'
p664
sg536
F-5
sg537
I0
sg538
(lp665
sg556
I4
sg557
F0
sg552
g659
sg558
S'Rousing Song'
p666
sbsS'FEAR'
p667
g1
(g10
g3
NtRp668
(dp669
g526
F0
sg527
S'asdf'
p670
sg529
F2
sg530
F0
sg531
F0
sg532
S'Wit'
p671
sg534
S'AllFriendly'
p672
sg536
F0
sg537
F4
sg538
(lp673
g541
asg556
I1
sg557
F0
sg552
g667
sg558
S'Fear Change'
p674
sbsS'RAISEDEFCON'
p675
g1
(g10
g3
NtRp676
(dp677
g526
F5
sg527
S'asdf'
p678
sg529
I1
sg530
F7
sg531
F3
sg532
S'Cunning'
p679
sg534
S'AllEnemy'
p680
sg536
F4
sg537
I0
sg538
(lp681
sg556
I1
sg557
F8
sg552
g675
sg558
S'Raise DEFCON'
p682
sbsS'NEGATTACKAD'
p683
g1
(g10
g3
NtRp684
(dp685
g526
F8
sg527
S"Take them all down. They're definitely all bad people. Not like you."
p686
sg529
I1
sg530
F10
sg531
F10
sg532
S'Cunning'
p687
sg534
S'AllEnemy'
p688
sg536
F3
sg537
F5
sg538
(lp689
sg556
I1
sg557
F10
sg552
g683
sg558
S'Negative Attack Ad'
p690
sbsS'DAZZLE'
p691
g1
(g10
g3
NtRp692
(dp693
g526
F3
sg527
S'Being dazzling and admirable is a great way to take heat off politics'
p694
sg529
I1
sg530
F8
sg531
F5
sg532
S'Wit'
p695
sg534
S'AllEnemy'
p696
sg536
F2
sg537
F3
sg538
(lp697
g1
(g540
g3
NtRp698
(dp699
g543
S'reduce'
p700
sg545
S'(REDUCE)'
p701
sg547
S'cunning'
p702
sg549
F2
sg550
F2
sg551
F5
sg552
S'Reduce Cunning'
p703
sg554
S''
sbasg556
I4
sg557
F8
sg552
g691
sg558
S'Dazzle'
p704
sbsS'BELIEVEMEDIA'
p705
g1
(g10
g3
NtRp706
(dp707
g526
F3
sg527
S'asdf'
p708
sg529
I1
sg530
F15
sg531
F5
sg532
S'Cunning'
p709
sg534
S'AllEnemy'
p710
sg536
F1
sg537
I0
sg538
(lp711
sg556
I1
sg557
F12
sg552
g705
sg558
S'Believe Media'
p712
sbsS'PRPREP'
p713
g1
(g10
g3
NtRp714
(dp715
g526
F0
sg527
S"If you're going to need some spin, best see a spin doctor! Adds spin points."
p716
sg529
I1
sg530
F0
sg531
F0
sg532
S''
sg534
S'AllFriendly'
p717
sg536
F0
sg537
I0
sg538
(lp718
g1
(g540
g3
NtRp719
(dp720
g543
S'add_permanent'
p721
sg545
S''
sg547
S'spin'
p722
sg549
F5
sg550
F0
sg551
F0
sg552
S'Spin Restore'
p723
sg554
S'TRUE'
p724
sbasg556
I1
sg557
F0
sg552
g713
sg558
S'PR Prep'
p725
sbsS'CALLVATICAN'
p726
g1
(g10
g3
NtRp727
(dp728
g526
F0
sg527
S'Brings in 2 additional ReligousNuts at 2 levels lower than this one'
p729
sg529
I1
sg530
F0
sg531
F0
sg532
S'Wit'
p730
sg534
S'None'
p731
sg536
F0
sg537
F5
sg538
(lp732
g1
(g540
g3
NtRp733
(dp734
g543
S'call_friends'
p735
sg545
S''
sg547
S''
sg549
F2
sg550
F1
sg551
F1
sg552
S'Call Friends'
p736
sg554
S''
sbasg556
I1
sg557
F0
sg552
g726
sg558
S'Call Vatican'
p737
sbsS'BLACKMAIL'
p738
g1
(g10
g3
NtRp739
(dp740
g526
F6
sg527
S'asdf'
p741
sg529
I1
sg530
F10
sg531
F2
sg532
S'Wit'
p742
sg534
S'AllEnemy'
p743
sg536
F3
sg537
F4
sg538
(lp744
g1
(g540
g3
NtRp745
(dp746
g543
S'drain'
p747
sg545
S'(DRAIN)'
p748
sg547
S'votes'
p749
sg549
F1
sg550
F2
sg551
F5
sg552
S'Drain Votes'
p750
sg554
S''
sbasg556
I1
sg557
F2
sg552
g738
sg558
S'Blackmail'
p751
sbsS'PROTEST'
p752
g1
(g10
g3
NtRp753
(dp754
g526
F5
sg527
S'asdf'
p755
sg529
F6
sg530
F10
sg531
F2
sg532
S'Cunning'
p756
sg534
S'AllEnemy'
p757
sg536
F2
sg537
I0
sg538
(lp758
sg556
I1
sg557
F8
sg552
g752
sg558
S'Protest'
p759
sbsS'SPREADRUMOUR'
p760
g1
(g10
g3
NtRp761
(dp762
g526
F6
sg527
S'asdf'
p763
sg529
I1
sg530
F10
sg531
F2
sg532
S'Wit'
p764
sg534
S'AllEnemy'
p765
sg536
F2
sg537
F3
sg538
(lp766
sg556
I4
sg557
F8
sg552
g760
sg558
S'Spread Rumour'
p767
sbsS'AGENDA'
p768
g1
(g10
g3
NtRp769
(dp770
g526
F5
sg527
S'asdf'
p771
sg529
F6
sg530
F10
sg531
F2
sg532
S'Cunning'
p772
sg534
S'AllEnemy'
p773
sg536
F2
sg537
I0
sg538
(lp774
sg556
I1
sg557
F8
sg552
g768
sg558
S'Push Agenda'
p775
sbsS'FILIBUSTER'
p776
g1
(g10
g3
NtRp777
(dp778
g526
F0
sg527
S"You're not moving until they give in. Cause all opposition to miss their turn"
p779
sg529
I1
sg530
F0
sg531
F0
sg532
S'Wit'
p780
sg534
S'AllEnemy'
p781
sg536
F0
sg537
F8
sg538
(lp782
g1
(g540
g3
NtRp783
(dp784
g543
S'miss_turn'
p785
sg545
S'(MISS)'
p786
sg547
S''
sg549
F0
sg550
F1
sg551
F1
sg552
S'Miss Turn'
p787
sg554
S''
sbasg556
I1
sg557
F0
sg552
g776
sg558
S'Filibuster'
p788
sbsS'GATHERINTEL'
p789
g1
(g10
g3
NtRp790
(dp791
g526
F0
sg527
S'Increases Cunning.'
p792
sg529
I1
sg530
F0
sg531
F0
sg532
S'Wit'
p793
sg534
S'AllFriendly'
p794
sg536
F0
sg537
F3
sg538
(lp795
g541
asg556
I2
sg557
F0
sg552
g789
sg558
S'Gather Intelligence'
p796
sbsS'LOVE'
p797
g1
(g10
g3
NtRp798
(dp799
g526
F6
sg527
S'asdf'
p800
sg529
F2
sg530
F8
sg531
F2
sg532
S'Cunning'
p801
sg534
S'AllEnemy'
p802
sg536
F1
sg537
I0
sg538
(lp803
sg556
I1
sg557
F7
sg552
g797
sg558
S'Love'
p804
sbsS'OUTOFCONTEXT'
p805
g1
(g10
g3
NtRp806
(dp807
g526
F3
sg527
S'asdf'
p808
sg529
I1
sg530
F5
sg531
F2
sg532
S'Wit'
p809
sg534
S'AllEnemy'
p810
sg536
F2
sg537
F2
sg538
(lp811
g745
asg556
I1
sg557
F5
sg552
g805
sg558
S'Take Out Of Context'
p812
sbsS'GREATSUIT'
p813
g1
(g10
g3
NtRp814
(dp815
g526
F6
sg527
S'Well, we could argue, but have you noticed how fabulous this suit is?'
p816
sg529
I1
sg530
F11
sg531
F6
sg532
S'Cunning'
p817
sg534
S'AllEnemy'
p818
sg536
F3
sg537
I0
sg538
(lp819
sg556
I1
sg557
F12
sg552
g813
sg558
S'Look Great In Suit'
p820
sbsS'PEACE'
p821
g1
(g10
g3
NtRp822
(dp823
g526
F0
sg527
S'asdf'
p824
sg529
I1
sg530
F0
sg531
F0
sg532
S'Wit'
p825
sg534
S'AllEnemy'
p826
sg536
F0
sg537
F3
sg538
(lp827
g698
asg556
I4
sg557
F0
sg552
g821
sg558
S'Peace'
p828
sbsS'INSPSPEECH'
p829
g1
(g10
g3
NtRp830
(dp831
g526
F-2
sg527
S'Restore votes to all party members'
p832
sg529
I1
sg530
F0
sg531
F0
sg532
S'Cunning'
p833
sg534
S'AllFriendly'
p834
sg536
F-2
sg537
I0
sg538
(lp835
sg556
I4
sg557
F0
sg552
g829
sg558
S'Inspirational Speech'
p836
sbsS'STRIKE'
p837
g1
(g10
g3
NtRp838
(dp839
g526
F8
sg527
S'asdf'
p840
sg529
I1
sg530
F0
sg531
F0
sg532
S'Wit'
p841
sg534
S'AllEnemy'
p842
sg536
F0
sg537
F3
sg538
(lp843
g575
asg556
I1
sg557
F0
sg552
g837
sg558
S'Call A Strike'
p844
sbsS'SLANDER'
p845
g1
(g10
g3
NtRp846
(dp847
g526
F3
sg527
S'Strong against polititians...careful with those voters, though!'
p848
sg529
F4
sg530
F10
sg531
F2
sg532
S'Wit'
p849
sg534
S'AllEnemy'
p850
sg536
F2
sg537
I0
sg538
(lp851
g745
asg556
I1
sg557
F5
sg552
g845
sg558
S'Slander Opposition'
p852
sbsS'NATTER'
p853
g1
(g10
g3
NtRp854
(dp855
g526
F8
sg527
S'asdf'
p856
sg529
I1
sg530
F15
sg531
F5
sg532
S'Cunning'
p857
sg534
S'AllEnemy'
p858
sg536
F1
sg537
I0
sg538
(lp859
sg556
I1
sg557
F10
sg552
g853
sg558
S'Natter On'
p860
sbsS'GOSSIP'
p861
g1
(g10
g3
NtRp862
(dp863
g526
F3
sg527
S'asdf'
p864
sg529
I1
sg530
F10
sg531
F2
sg532
S'Wit'
p865
sg534
S'AllEnemy'
p866
sg536
F1
sg537
F2
sg538
(lp867
g698
asg556
I1
sg557
F6
sg552
g861
sg558
S'Gossip'
p868
sbsS'MISSTURN'
p869
g1
(g10
g3
NtRp870
(dp871
g526
F0
sg527
S'asdf'
p872
sg529
I1
sg530
F0
sg531
F0
sg532
S''
sg534
S'AllEnemy'
p873
sg536
F0
sg537
I0
sg538
(lp874
sg556
I1
sg557
F0
sg552
g869
sg558
S'Miss Turn'
p875
sbsS'BIELECTION'
p876
g1
(g10
g3
NtRp877
(dp878
g526
F4
sg527
S'Redistribute votes amongst targets'
p879
sg529
I1
sg530
F0
sg531
F0
sg532
S'Cunning'
p880
sg534
S'All'
p881
sg536
F-4
sg537
F4
sg538
(lp882
sg556
I8
sg557
F0
sg552
g876
sg558
S'Bielection'
p883
sbsS'SCARE'
p884
g1
(g10
g3
NtRp885
(dp886
g526
F7
sg527
S'Nothing rattles the brains like fear.'
p887
sg529
I1
sg530
F10
sg531
F2
sg532
S'Wit'
p888
sg534
S'AllEnemy'
p889
sg536
F2
sg537
I0
sg538
(lp890
g698
asg556
I2
sg557
F9
sg552
g884
sg558
S'Scare Campaign'
p891
sbsS'PAYOFF'
p892
g1
(g10
g3
NtRp893
(dp894
g526
F7
sg527
S'causes them to miss a number of turns'
p895
sg529
I1
sg530
F8
sg531
F2
sg532
S'Wit'
p896
sg534
S'AllEnemy'
p897
sg536
F2
sg537
F4
sg538
(lp898
g1
(g540
g3
NtRp899
(dp900
g543
S'miss_turn'
p901
sg545
S'(MISS)'
p902
sg547
S''
sg549
F0
sg550
F1
sg551
F3
sg552
S'Miss Turn Pay Off'
p903
sg554
S''
sbasg556
I1
sg557
F9
sg552
g892
sg558
S'Pay Off'
p904
sbsS'BUREAUCRACY'
p905
g1
(g10
g3
NtRp906
(dp907
g526
F5
sg527
S'asdf'
p908
sg529
F6
sg530
F10
sg531
F2
sg532
S'Cunning'
p909
sg534
S'AllEnemy'
p910
sg536
F2
sg537
I0
sg538
(lp911
sg556
I1
sg557
F8
sg552
g905
sg558
S'Bureaucracy'
p912
sbsS'RALLYAUDIENCE'
p913
g1
(g10
g3
NtRp914
(dp915
g526
F8
sg527
S'asdf'
p916
sg529
I1
sg530
F0
sg531
F0
sg532
S'Wit'
p917
sg534
S'AllFriendly'
p918
sg536
F4
sg537
F3
sg538
(lp919
g1
(g540
g3
NtRp920
(dp921
g543
S'add'
p922
sg545
S'(INCREASE)'
p923
sg547
S'charisma'
p924
sg549
F2
sg550
F1
sg551
F4
sg552
S'Increase Charisma'
p925
sg554
S'TRUE'
p926
sbasg556
I1
sg557
F0
sg552
g913
sg558
S'Rally Audience'
p927
sbsS'PORKBARREL'
p928
g1
(g10
g3
NtRp929
(dp930
g526
F6
sg527
S'Do something that benefits them specifically. Not advised against politicians.'
p931
sg529
I1
sg530
F0
sg531
F0
sg532
S'Wit'
p932
sg534
S'AllEnemy'
p933
sg536
F2
sg537
F2
sg538
(lp934
sg556
I1
sg557
F0
sg552
g928
sg558
S'Pork Barrel'
p935
sbsS'INSPIRE'
p936
g1
(g10
g3
NtRp937
(dp938
g526
F0
sg527
S'asdf'
p939
sg529
I1
sg530
F0
sg531
F0
sg532
S'Wit'
p940
sg534
S'AllFriendly'
p941
sg536
F0
sg537
F3
sg538
(lp942
g541
asg556
I4
sg557
F0
sg552
g936
sg558
S'Inspire'
p943
sbsS'JOKE'
p944
g1
(g10
g3
NtRp945
(dp946
g526
F3
sg527
S"Ha, ha, ha...what were we talking about? Diffuse the situation with some humour. Not good if it falls flat, but if they get it, it'll knock 'em dead."
p947
sg529
F3
sg530
F30
sg531
F10
sg532
S'Wit'
p948
sg534
S'AllEnemy'
p949
sg536
F2
sg537
I0
sg538
(lp950
sg556
I1
sg557
F10
sg552
g944
sg558
S'Joke'
p951
sbsS'PRAYFORSOULS'
p952
g1
(g10
g3
NtRp953
(dp954
g526
F6
sg527
S'asdf'
p955
sg529
F2
sg530
F10
sg531
F2
sg532
S'Cunning'
p956
sg534
S'None'
p957
sg536
F3
sg537
I0
sg538
(lp958
sg556
I1
sg557
F10
sg552
g952
sg558
S'Pray'
p959
sbsS'REVIVE'
p960
g1
(g10
g3
NtRp961
(dp962
g526
F0
sg527
S'Revive a defeated comrade to half votes'
p963
sg529
I1
sg530
F0
sg531
F0
sg532
S''
sg534
S'DeadFriendly'
p964
sg536
F0
sg537
F3
sg538
(lp965
g1
(g540
g3
NtRp966
(dp967
g543
S'revive'
p968
sg545
S''
sg547
S''
sg549
F0.5
sg550
F0
sg551
F0
sg552
S'Revive'
p969
sg554
S''
sbasg556
I1
sg557
F0
sg552
g960
sg558
S'Revive'
p970
sbsS'HUMANSHIELD'
p971
g1
(g10
g3
NtRp972
(dp973
g526
F5
sg527
S'No further questions. Step back, please.'
p974
sg529
I1
sg530
F5
sg531
F2
sg532
S'Wit'
p975
sg534
S'AllEnemy'
p976
sg536
F2
sg537
F4
sg538
(lp977
g783
asg556
I2
sg557
F12
sg552
g971
sg558
S'Human Shield'
p978
sbsS'MAKEDEMANDS'
p979
g1
(g10
g3
NtRp980
(dp981
g526
F8
sg527
S'asdf'
p982
sg529
I1
sg530
F0
sg531
F0
sg532
S'Cunning'
p983
sg534
S'AllEnemy'
p984
sg536
F0
sg537
I0
sg538
(lp985
g575
asg556
I1
sg557
F0
sg552
g979
sg558
S'Make Outrageous Demands'
p986
sbsS'DEFENSE'
p987
g1
(g10
g3
NtRp988
(dp989
g526
F0
sg527
S'Gather strenth; -50% to all incoming attacks'
p990
sg529
I1
sg530
F0
sg531
F0
sg532
S''
sg534
S'None'
p991
sg536
F0
sg537
I0
sg538
(lp992
g1
(g540
g3
NtRp993
(dp994
g543
S'add'
p995
sg545
S'(DFND)'
p996
sg547
S'resistance'
p997
sg549
F0.5
sg550
F1
sg551
F1
sg552
S'Defense'
p998
sg554
S'TRUE'
p999
sbasg556
I1
sg557
F0
sg552
g987
sg558
S'Defense'
p1000
sbsS'MISCONSTRUE'
p1001
g1
(g10
g3
NtRp1002
(dp1003
g526
F8
sg527
S'asdf'
p1004
sg529
I1
sg530
F0
sg531
F0
sg532
S'Cunning'
p1005
sg534
S'AllEnemy'
p1006
sg536
F0
sg537
I0
sg538
(lp1007
g575
asg556
I1
sg557
F0
sg552
g1001
sg558
S'Misconstrue'
p1008
sbsS'NATIONALSECURITY'
p1009
g1
(g10
g3
NtRp1010
(dp1011
g526
F7
sg527
S"This is a matter of national security and they don't have codeword clearance"
p1012
sg529
I1
sg530
F10
sg531
F2
sg532
S'Cunning'
p1013
sg534
S'AllEnemy'
p1014
sg536
F2
sg537
I0
sg538
(lp1015
sg556
I1
sg557
F9
sg552
g1009
sg558
S'National Security'
p1016
sbsS'RALLY'
p1017
g1
(g10
g3
NtRp1018
(dp1019
g526
F-2
sg527
S'Get back some votes by rallying supporters'
p1020
sg529
I1
sg530
F0
sg531
F0
sg532
S'Wit'
p1021
sg534
S'AllFriendly'
p1022
sg536
F-4
sg537
F2
sg538
(lp1023
sg556
I1
sg557
F0
sg552
g1017
sg558
S'Rally Constituents'
p1024
sbsS'MESSAGE'
p1025
g1
(g10
g3
NtRp1026
(dp1027
g526
F5
sg527
S'You can certainly wear them down by repeating your party line over and over and over...if you want'
p1028
sg529
F6
sg530
F10
sg531
F2
sg532
S'Wit'
p1029
sg534
S'AllEnemy'
p1030
sg536
F2
sg537
I0
sg538
(lp1031
sg556
I1
sg557
F8
sg552
g1025
sg558
S'Stay On Message'
p1032
sbsS'APPEALTOGOD'
p1033
g1
(g10
g3
NtRp1034
(dp1035
g526
F6
sg527
S'asdf'
p1036
sg529
F3
sg530
F0
sg531
F0
sg532
S'Wit'
p1037
sg534
S'AllEnemy'
p1038
sg536
F4
sg537
F7
sg538
(lp1039
sg556
I4
sg557
F0
sg552
g1033
sg558
S'Appeal To God'
p1040
sbssS'levels'
p1041
(lp1042
g1
(g10
g3
NtRp1043
(dp1044
S'votes'
p1045
F10
sS'level'
p1046
F1
sS'spin'
p1047
F5
sS'xp'
p1048
F0
sS'skill_points'
p1049
F0
sbag1
(g10
g3
NtRp1050
(dp1051
g1045
F12
sg1046
F2
sg1047
F5
sg1048
F5
sg1049
F2
sbag1
(g10
g3
NtRp1052
(dp1053
g1045
F15
sg1046
F3
sg1047
F6
sg1048
F200
sg1049
F2
sbag1
(g10
g3
NtRp1054
(dp1055
g1045
F20
sg1046
F4
sg1047
F6
sg1048
F500
sg1049
F2
sbag1
(g10
g3
NtRp1056
(dp1057
g1045
F25
sg1046
F5
sg1047
F7
sg1048
F1000
sg1049
F2
sbag1
(g10
g3
NtRp1058
(dp1059
g1045
F30
sg1046
F6
sg1047
F7
sg1048
F2000
sg1049
F2
sbag1
(g10
g3
NtRp1060
(dp1061
g1045
F35
sg1046
F7
sg1047
F8
sg1048
F5000
sg1049
F2
sbag1
(g10
g3
NtRp1062
(dp1063
g1045
F40
sg1046
F8
sg1047
F8
sg1048
F10000
sg1049
F2
sbag1
(g10
g3
NtRp1064
(dp1065
g1045
F45
sg1046
F9
sg1047
F9
sg1048
F15000
sg1049
F2
sbag1
(g10
g3
NtRp1066
(dp1067
g1045
F50
sg1046
F10
sg1047
F9
sg1048
F20000
sg1049
F2
sbag1
(g10
g3
NtRp1068
(dp1069
g1045
F55
sg1046
F11
sg1047
F10
sg1048
F40000
sg1049
F2
sbag1
(g10
g3
NtRp1070
(dp1071
g1045
S''
sg1046
F12
sg1047
S''
sg1048
S''
sg1049
S''
sbag1
(g10
g3
NtRp1072
(dp1073
g1045
S''
sg1046
F13
sg1047
S''
sg1048
S''
sg1049
S''
sbag1
(g10
g3
NtRp1074
(dp1075
g1045
S''
sg1046
F14
sg1047
S''
sg1048
S''
sg1049
S''
sbag1
(g10
g3
NtRp1076
(dp1077
g1045
S''
sg1046
F15
sg1047
S''
sg1048
S''
sg1049
S''
sbag1
(g10
g3
NtRp1078
(dp1079
g1045
S''
sg1046
F16
sg1047
S''
sg1048
S''
sg1049
S''
sbag1
(g10
g3
NtRp1080
(dp1081
g1045
S''
sg1046
F17
sg1047
S''
sg1048
S''
sg1049
S''
sbag1
(g10
g3
NtRp1082
(dp1083
g1045
S''
sg1046
F18
sg1047
S''
sg1048
S''
sg1049
S''
sbag1
(g10
g3
NtRp1084
(dp1085
g1045
S''
sg1046
F19
sg1047
S''
sg1048
S''
sg1049
S''
sbag1
(g10
g3
NtRp1086
(dp1087
g1045
S''
sg1046
F20
sg1047
S''
sg1048
S''
sg1049
S''
sbag1
(g10
g3
NtRp1088
(dp1089
g1045
S''
sg1046
F21
sg1047
S''
sg1048
S''
sg1049
S''
sbag1
(g10
g3
NtRp1090
(dp1091
g1045
S''
sg1046
F22
sg1047
S''
sg1048
S''
sg1049
S''
sbag1
(g10
g3
NtRp1092
(dp1093
g1045
S''
sg1046
F23
sg1047
S''
sg1048
S''
sg1049
S''
sbag1
(g10
g3
NtRp1094
(dp1095
g1045
S''
sg1046
F24
sg1047
S''
sg1048
S''
sg1049
S''
sbag1
(g10
g3
NtRp1096
(dp1097
g1045
S''
sg1046
F25
sg1047
S''
sg1048
S''
sg1049
S''
sbag1
(g10
g3
NtRp1098
(dp1099
g1045
S''
sg1046
F26
sg1047
S''
sg1048
S''
sg1049
S''
sbag1
(g10
g3
NtRp1100
(dp1101
g1045
S''
sg1046
F27
sg1047
S''
sg1048
S''
sg1049
S''
sbag1
(g10
g3
NtRp1102
(dp1103
g1045
S''
sg1046
F28
sg1047
S''
sg1048
S''
sg1049
S''
sbag1
(g10
g3
NtRp1104
(dp1105
g1045
S''
sg1046
F29
sg1047
S''
sg1048
S''
sg1049
S''
sbasg538
(dp1106
g553
g541
sg648
g644
sg723
g719
sg925
g920
sg787
g783
sg736
g733
sg903
g899
sg969
g966
sg703
g698
sg750
g745
sg998
g993
sg579
g575
sg594
g589
ssS'characters'
p1107
(dp1108
S'Teacher001'
p1109
(lp1110
g1
(g10
g3
NtRp1111
(dp1112
S'flair_base'
p1113
F1
sS'spin_base'
p1114
F4
sS'flair_lvl'
p1115
F1.1499999999999999
sS'wit_base'
p1116
F1
sS'resistance'
p1117
(lp1118
sS'wit_lvl'
p1119
F1.0900000000000001
sS'cunning_base'
p1120
F1
sg552
g1109
sS'votes_base'
p1121
F10
sS'speed_lvl'
p1122
F1.0800000000000001
sS'standard_attacks'
p1123
(lp1124
g988
ag753
asS'cunning_lvl'
p1125
F1.1000000000000001
sS'charisma_lvl'
p1126
F1.1499999999999999
sS'spin_attacks'
p1127
(lp1128
g838
ag1018
asS'spin_lvl'
p1129
F1.0800000000000001
sS'charisma_base'
p1130
F1
sS'weaknesses'
p1131
(lp1132
sS'attack_group'
p1133
S'Teacher'
p1134
sS'votes_lvl'
p1135
F1.2
sg558
S'Teacher'
p1136
sS'speed_base'
p1137
F1
sS'immunities'
p1138
(lp1139
sbasS'Politician001'
p1140
(lp1141
g1
(g10
g3
NtRp1142
(dp1143
g1113
F1
sg1114
F4
sg1115
F1.1499999999999999
sg1116
F1
sg1117
(lp1144
g569
asg1119
F1.0900000000000001
sg1120
F1
sg552
g1140
sg1121
F10
sg1122
F1.0800000000000001
sg1123
(lp1145
g1026
ag846
ag569
ag945
ag988
asg1125
F1.1000000000000001
sg1126
F1.1499999999999999
sg1127
(lp1146
g877
ag684
ag961
asg1129
F1.0800000000000001
sg1130
F1
sg1131
(lp1147
g652
asg1133
S'Politician'
p1148
sg1135
F1.2
sg558
S'Politician'
p1149
sg1137
F1
sg1138
(lp1150
g929
asbasS'SecretAgent'
p1151
(lp1152
g1
(g10
g3
NtRp1153
(dp1154
g1113
F1
sg1114
F4
sg1115
F1.1499999999999999
sg1116
F1
sg1117
(lp1155
sg1119
F1.0900000000000001
sg1120
F1
sg552
g1151
sg1121
F18
sg1122
F1.0800000000000001
sg1123
(lp1156
g988
ag1010
ag814
asg1125
F1.1000000000000001
sg1126
F1.1499999999999999
sg1127
(lp1157
g972
ag790
asg1129
F1.0800000000000001
sg1130
F1
sg1131
(lp1158
sg1133
S'SecretAgent'
p1159
sg1135
F1.2
sg558
S'Agent Kawalski'
p1160
sg1137
F1
sg1138
(lp1161
sbasS'Bumpkin001'
p1162
(lp1163
g1
(g10
g3
NtRp1164
(dp1165
g1113
F1
sg1114
F4
sg1115
F1.1499999999999999
sg1116
F1
sg1117
(lp1166
sg1119
F1.0900000000000001
sg1120
F1
sg552
g1162
sg1121
F10
sg1122
F1.0800000000000001
sg1123
(lp1167
g945
ag706
asg1125
F1.1000000000000001
sg1126
F1.1499999999999999
sg1127
(lp1168
g668
ag761
asg1129
F1.0800000000000001
sg1130
F1
sg1131
(lp1169
g569
ag846
ag885
asg1133
S'Bumpkin'
p1170
sg1135
F1.2
sg558
S'Bumpkin'
p1171
sg1137
F1
sg1138
(lp1172
sbasS'WarVet001'
p1173
(lp1174
g1
(g10
g3
NtRp1175
(dp1176
g1113
F1
sg1114
F4
sg1115
F1.1499999999999999
sg1116
F1
sg1117
(lp1177
sg1119
F1.0900000000000001
sg1120
F1
sg552
g1173
sg1121
F10
sg1122
F1.0800000000000001
sg1123
(lp1178
g980
ag988
asg1125
F1.1000000000000001
sg1126
F1.1499999999999999
sg1127
(lp1179
g937
ag1018
asg1129
F1.0800000000000001
sg1130
F1
sg1131
(lp1180
sg1133
S'WarVet'
p1181
sg1135
F1.2
sg558
S'War Veteran'
p1182
sg1137
F1
sg1138
(lp1183
sbasS'Receptionist001'
p1184
(lp1185
g1
(g10
g3
NtRp1186
(dp1187
g1113
F1
sg1114
F4
sg1115
F1.1499999999999999
sg1116
F1
sg1117
(lp1188
sg1119
F1.0900000000000001
sg1120
F1
sg552
g1184
sg1121
F10
sg1122
F1.0800000000000001
sg1123
(lp1189
g906
ag854
asg1125
F1.1000000000000001
sg1126
F1.1499999999999999
sg1127
(lp1190
g862
ag638
asg1129
F1.0800000000000001
sg1130
F1
sg1131
(lp1191
sg1133
S'Receptionist'
p1192
sg1135
F1.2
sg558
S'Receptionist'
p1193
sg1137
F1
sg1138
(lp1194
sbasS'DeepThroat'
p1195
(lp1196
g1
(g10
g3
NtRp1197
(dp1198
g1113
F1
sg1114
F4
sg1115
F1.1499999999999999
sg1116
F1
sg1117
(lp1199
sg1119
F1.0900000000000001
sg1120
F1
sg552
g1195
sg1121
F10
sg1122
F1.0800000000000001
sg1123
(lp1200
g846
ag988
ag980
asg1125
F1.1000000000000001
sg1126
F1.1499999999999999
sg1127
(lp1201
g739
asg1129
F1.0800000000000001
sg1130
F1
sg1131
(lp1202
sg1133
S'DeepThroat'
p1203
sg1135
F1.2
sg558
S'Deep Throat'
p1204
sg1137
F1
sg1138
(lp1205
sbasS'Leo'
p1206
(lp1207
g1
(g10
g3
NtRp1208
(dp1209
g1113
F1
sg1114
F4
sg1115
F1.1499999999999999
sg1116
F1
sg1117
(lp1210
sg1119
F1.0900000000000001
sg1120
F1
sg552
g1206
sg1121
F14
sg1122
F1.0800000000000001
sg1123
(lp1211
g1026
ag846
ag569
ag945
ag652
asg1125
F1.1000000000000001
sg1126
F1.1499999999999999
sg1127
(lp1212
g877
ag684
ag929
ag777
asg1129
F1.0800000000000001
sg1130
F1
sg1131
(lp1213
sg1133
S'Theo'
p1214
sg1135
F1.2
sg558
S'Theo'
p1215
sg1137
F1
sg1138
(lp1216
sbasS'HippyGirl001'
p1217
(lp1218
g1
(g10
g3
NtRp1219
(dp1220
g1113
F1
sg1114
F4
sg1115
F1.1499999999999999
sg1116
F1
sg1117
(lp1221
sg1119
F1.0900000000000001
sg1120
F1
sg552
g1217
sg1121
F10
sg1122
F1.0800000000000001
sg1123
(lp1222
g660
ag753
ag798
asg1125
F1.1000000000000001
sg1126
F1.1499999999999999
sg1127
(lp1223
g822
ag1018
ag961
asg1129
F1.0800000000000001
sg1130
F1
sg1131
(lp1224
g945
asg1133
S'Hippy'
p1225
sg1135
F1.2
sg558
S'Hippy Girl'
p1226
sg1137
F1
sg1138
(lp1227
sbasS'President'
p1228
(lp1229
g1
(g10
g3
NtRp1230
(dp1231
g1113
F1
sg1114
F4
sg1115
F1.1499999999999999
sg1116
F1
sg1117
(lp1232
sg1119
F1.0900000000000001
sg1120
F1
sg552
g1228
sg1121
F10
sg1122
F1.0800000000000001
sg1123
(lp1233
g1026
ag846
ag569
ag945
ag988
asg1125
F1.1000000000000001
sg1126
F1.1499999999999999
sg1127
(lp1234
g877
ag684
ag961
asg1129
F1.0800000000000001
sg1130
F1
sg1131
(lp1235
sg1133
S'Politician'
p1236
sg1135
F1.2
sg558
S'President Allen'
p1237
sg1137
F1
sg1138
(lp1238
sbasS'Unionist001'
p1239
(lp1240
g1
(g10
g3
NtRp1241
(dp1242
g1113
F1
sg1114
F4
sg1115
F1.1499999999999999
sg1116
F1
sg1117
(lp1243
sg1119
F1.0900000000000001
sg1120
F1
sg552
g1239
sg1121
F10
sg1122
F1.0800000000000001
sg1123
(lp1244
g980
ag988
ag753
asg1125
F1.1000000000000001
sg1126
F1.1499999999999999
sg1127
(lp1245
g838
asg1129
F1.0800000000000001
sg1130
F1
sg1131
(lp1246
sg1133
S'Unionist'
p1247
sg1135
F1.2
sg558
S'Unionist'
p1248
sg1137
F1
sg1138
(lp1249
sbasS'Wife'
p1250
(lp1251
g1
(g10
g3
NtRp1252
(dp1253
g1113
F1
sg1114
F4
sg1115
F1.1499999999999999
sg1116
F1
sg1117
(lp1254
sg1119
F1.0900000000000001
sg1120
F1
sg552
g1250
sg1121
F12
sg1122
F1.0800000000000001
sg1123
(lp1255
g988
ag1026
asg1125
F1.1000000000000001
sg1126
F1.1499999999999999
sg1127
(lp1256
g1018
ag961
ag692
asg1129
F1.0800000000000001
sg1130
F1
sg1131
(lp1257
sg1133
S'Wife'
p1258
sg1135
F1.2
sg558
S'Sarah Mossman'
p1259
sg1137
F1
sg1138
(lp1260
sbasS'PresidentAlien'
p1261
(lp1262
g1
(g10
g3
NtRp1263
(dp1264
g1113
F1
sg1114
F4
sg1115
F1.1499999999999999
sg1116
F1
sg1117
(lp1265
sg1119
F1.0900000000000001
sg1120
F1
sg552
g1261
sg1121
F10
sg1122
F1.0800000000000001
sg1123
(lp1266
g1026
ag846
ag569
ag945
ag988
asg1125
F1.1000000000000001
sg1126
F1.1499999999999999
sg1127
(lp1267
g877
ag684
ag961
asg1129
F1.0800000000000001
sg1130
F1
sg1131
(lp1268
sg1133
S'Politician'
p1269
sg1135
F1.2
sg558
S'President Alien'
p1270
sg1137
F1
sg1138
(lp1271
sbasS'Governor'
p1272
(lp1273
g1
(g10
g3
NtRp1274
(dp1275
g1113
F1
sg1114
F4
sg1115
F1.1499999999999999
sg1116
F1
sg1117
(lp1276
sg1119
F1.0900000000000001
sg1120
F1
sg552
g1272
sg1121
F10
sg1122
F1.0800000000000001
sg1123
(lp1277
g1026
ag846
ag569
ag945
ag988
asg1125
F1.1000000000000001
sg1126
F1.1499999999999999
sg1127
(lp1278
g877
ag684
ag961
asg1129
F1.0800000000000001
sg1130
F1
sg1131
(lp1279
sg1133
S'Politician'
p1280
sg1135
F1.2
sg558
g1272
sg1137
F1
sg1138
(lp1281
sbasS'Lobbyist001'
p1282
(lp1283
g1
(g10
g3
NtRp1284
(dp1285
g1113
F1
sg1114
F4
sg1115
F1.1499999999999999
sg1116
F1
sg1117
(lp1286
sg1119
F1.0900000000000001
sg1120
F1
sg552
g1282
sg1121
F10
sg1122
F1.0800000000000001
sg1123
(lp1287
g769
ag980
asg1125
F1.1000000000000001
sg1126
F1.1499999999999999
sg1127
(lp1288
g893
ag739
asg1129
F1.0800000000000001
sg1130
F1
sg1131
(lp1289
g929
asg1133
S'Lobbyist'
p1290
sg1135
F1.2
sg558
S'Lobbyist'
p1291
sg1137
F1
sg1138
(lp1292
g652
asbasS'Journalist001'
p1293
(lp1294
g1
(g10
g3
NtRp1295
(dp1296
g1113
F1
sg1114
F4
sg1115
F1.1499999999999999
sg1116
F1
sg1117
(lp1297
sg1119
F1.0900000000000001
sg1120
F1
sg552
g1293
sg1121
F10
sg1122
F1.0800000000000001
sg1123
(lp1298
g622
ag1002
asg1125
F1.1000000000000001
sg1126
F1.1499999999999999
sg1127
(lp1299
g806
ag524
ag598
asg1129
F1.0800000000000001
sg1130
F1
sg1131
(lp1300
sg1133
S'Journalist'
p1301
sg1135
F1.2
sg558
S'Journalist'
p1302
sg1137
F1
sg1138
(lp1303
sbasS'ReligiousNut001'
p1304
(lp1305
g1
(g10
g3
NtRp1306
(dp1307
g1113
F1
sg1114
F4
sg1115
F1.1499999999999999
sg1116
F1
sg1117
(lp1308
sg1119
F1.0900000000000001
sg1120
F1
sg552
g1304
sg1121
F10
sg1122
F1.0800000000000001
sg1123
(lp1309
g606
ag953
ag988
asg1125
F1.1000000000000001
sg1126
F1.1499999999999999
sg1127
(lp1310
g1034
ag727
asg1129
F1.0800000000000001
sg1130
F1
sg1131
(lp1311
sg1133
S'Religious'
p1312
sg1135
F1.2
sg558
S'Religious Nut'
p1313
sg1137
F1
sg1138
(lp1314
g945
asbasS'JointChief001'
p1315
(lp1316
g1
(g10
g3
NtRp1317
(dp1318
g1113
F1
sg1114
F4
sg1115
F1.1499999999999999
sg1116
F1
sg1117
(lp1319
sg1119
F1.0900000000000001
sg1120
F1
sg552
g1315
sg1121
F10
sg1122
F1.0800000000000001
sg1123
(lp1320
g980
ag988
ag1010
ag676
asg1125
F1.1000000000000001
sg1126
F1.1499999999999999
sg1127
(lp1321
g790
asg1129
F1.0800000000000001
sg1130
F1
sg1131
(lp1322
sg1133
S'JointChief'
p1323
sg1135
F1.2
sg558
S'Joint Chief'
p1324
sg1137
F1
sg1138
(lp1325
sbasS'Protester001'
p1326
(lp1327
g1
(g10
g3
NtRp1328
(dp1329
g1113
F1
sg1114
F4
sg1115
F1.1499999999999999
sg1116
F1
sg1117
(lp1330
sg1119
F1.0900000000000001
sg1120
F1
sg552
g1326
sg1121
F10
sg1122
F1.0800000000000001
sg1123
(lp1331
g753
ag614
ag660
asg1125
F1.1000000000000001
sg1126
F1.1499999999999999
sg1127
(lp1332
g1018
asg1129
F1.0800000000000001
sg1130
F1
sg1131
(lp1333
sg1133
S'Protestor'
p1334
sg1135
F1.2
sg558
S'Protester'
p1335
sg1137
F1
sg1138
(lp1336
sbasS'TVPersonality001'
p1337
(lp1338
g1
(g10
g3
NtRp1339
(dp1340
g1113
F1
sg1114
F4
sg1115
F1.1499999999999999
sg1116
F1
sg1117
(lp1341
sg1119
F1.0900000000000001
sg1120
F1
sg552
g1337
sg1121
F10
sg1122
F1.0800000000000001
sg1123
(lp1342
g945
ag622
asg1125
F1.1000000000000001
sg1126
F1.1499999999999999
sg1127
(lp1343
g598
ag583
asg1129
F1.0800000000000001
sg1130
F1
sg1131
(lp1344
sg1133
S'TVPersonality'
p1345
sg1135
F1.2
sg558
S"Hecules O'Grady"
p1346
sg1137
F1
sg1138
(lp1347
sbasS'Player'
p1348
(lp1349
g1
(g10
g3
NtRp1350
(dp1351
g1113
F1
sg1114
F5
sg1115
F1.1499999999999999
sg1116
F1
sg1117
(lp1352
sg1119
F1.0900000000000001
sg1120
F1
sg552
g1348
sg1121
F15
sg1122
F1.0800000000000001
sg1123
(lp1353
g1026
ag569
ag945
asg1125
F1.1000000000000001
sg1126
F1.1499999999999999
sg1127
(lp1354
g877
ag684
ag1018
asg1129
F1.0800000000000001
sg1130
F1
sg1131
(lp1355
sg1133
S'Player'
p1356
sg1135
F1.2
sg558
S'Phillip Mossman'
p1357
sg1137
F2
sg1138
(lp1358
sbasS'Computer'
p1359
(lp1360
g1
(g10
g3
NtRp1361
(dp1362
g1113
F1
sg1114
F4
sg1115
F1.1499999999999999
sg1116
F1
sg1117
(lp1363
sg1119
F1.0900000000000001
sg1120
F1
sg552
g1359
sg1121
F10
sg1122
F1.0800000000000001
sg1123
(lp1364
g1026
ag846
ag569
ag945
ag988
asg1125
F1.1000000000000001
sg1126
F1.1499999999999999
sg1127
(lp1365
g877
ag684
ag961
asg1129
F1.0800000000000001
sg1130
F1
sg1131
(lp1366
sg1133
S'Politician'
p1367
sg1135
F1.2
sg558
S'N.O.T.B.A.D'
p1368
sg1137
F1
sg1138
(lp1369
sbasS'CabinetPolitician001'
p1370
(lp1371
g1
(g10
g3
NtRp1372
(dp1373
g1113
F1
sg1114
F4
sg1115
F1.1499999999999999
sg1116
F1
sg1117
(lp1374
sg1119
F1.0900000000000001
sg1120
F1
sg552
g1370
sg1121
F10
sg1122
F1.0800000000000001
sg1123
(lp1375
g1026
ag846
ag569
ag945
ag988
asg1125
F1.1000000000000001
sg1126
F1.1499999999999999
sg1127
(lp1376
g877
ag684
ag961
asg1129
F1.0800000000000001
sg1130
F1
sg1131
(lp1377
sg1133
S'Politician'
p1378
sg1135
F1.2
sg558
S'Cabinet Politician'
p1379
sg1137
F1
sg1138
(lp1380
sbasS'Constituent001'
p1381
(lp1382
g1
(g10
g3
NtRp1383
(dp1384
g1113
F1
sg1114
F4
sg1115
F1.1499999999999999
sg1116
F1
sg1117
(lp1385
sg1119
F1.0900000000000001
sg1120
F1
sg552
g1381
sg1121
F10
sg1122
F1.0800000000000001
sg1123
(lp1386
g753
ag769
ag980
asg1125
F1.1000000000000001
sg1126
F1.1499999999999999
sg1127
(lp1387
g961
asg1129
F1.0800000000000001
sg1130
F1
sg1131
(lp1388
sg1133
S'Constituent'
p1389
sg1135
F1.2
sg558
S'Constituent'
p1390
sg1137
F1
sg1138
(lp1391
sbasS'Mayor'
p1392
(lp1393
g1
(g10
g3
NtRp1394
(dp1395
g1113
F1
sg1114
F4
sg1115
F1.1499999999999999
sg1116
F1
sg1117
(lp1396
sg1119
F1.0900000000000001
sg1120
F1
sg552
g1392
sg1121
F10
sg1122
F1.0800000000000001
sg1123
(lp1397
g1026
ag846
ag569
ag945
ag988
asg1125
F1.1000000000000001
sg1126
F1.1499999999999999
sg1127
(lp1398
g877
ag684
ag961
asg1129
F1.0800000000000001
sg1130
F1
sg1131
(lp1399
sg1133
S'Politician'
p1400
sg1135
F1.2
sg558
S'Mayor Goodman'
p1401
sg1137
F1
sg1138
(lp1402
sbassS'quest_items'
p1403
(dp1404
S'PEN'
p1405
g1
(g10
g3
NtRp1406
(dp1407
g558
S'A pen'
p1408
sg552
g1405
sbsS'BILLOFRIGHTS'
p1409
g1
(g10
g3
NtRp1410
(dp1411
g558
S"Citizens' Bill of Rights"
p1412
sg552
g1409
sbssg1123
(dp1413
S'Theo'
p1414
(lp1415
g1026
ag846
ag569
ag945
ag652
ag877
ag684
ag929
ag777
asS'JointChief'
p1416
(lp1417
g980
ag988
ag1010
ag790
ag676
asS'Politician'
p1418
(lp1419
g1026
ag846
ag569
ag945
ag877
ag684
ag961
ag988
asS'Bumpkin'
p1420
(lp1421
g945
ag668
ag761
ag706
asS'TVPersonality'
p1422
(lp1423
g945
ag598
ag622
ag583
asS'SecretAgent'
p1424
(lp1425
g988
ag972
ag1010
ag790
ag814
asS'DeepThroat'
p1426
(lp1427
g846
ag988
ag739
ag980
asS'Protestor'
p1428
(lp1429
g1018
ag753
ag614
ag660
asS'Lobbyist'
p1430
(lp1431
g769
ag893
ag739
ag980
asS'Teacher'
p1432
(lp1433
g838
ag988
ag753
ag1018
asS'Player'
p1434
(lp1435
g1026
ag569
ag945
ag877
ag684
ag1018
asS'Computer'
p1436
(lp1437
g790
ag1010
ag630
ag739
ag980
ag846
asS'Receptionist'
p1438
(lp1439
g906
ag854
ag862
ag638
asS'Hippy'
p1440
(lp1441
g660
ag753
ag798
ag822
ag1018
ag961
asS'Constituent'
p1442
(lp1443
g753
ag961
ag769
ag980
asS'Wife'
p1444
(lp1445
g1018
ag961
ag988
ag1026
ag692
asS'WarVet'
p1446
(lp1447
g980
ag988
ag937
ag1018
asS'Religious'
p1448
(lp1449
g606
ag1034
ag727
ag953
ag988
asS'Unionist'
p1450
(lp1451
g980
ag988
ag753
ag838
asS'Journalist'
p1452
(lp1453
g622
ag1002
ag806
ag524
ag598
assS'encounters'
p1454
(dp1455
S'P-easy-05'
p1456
g1
(g10
g3
NtRp1457
(dp1458
S'item_attack_drops'
p1459
(lp1460
sS'item_attacks'
p1461
(lp1462
sg1048
F10
sS'monster2_lvl'
p1463
S''
sS'monster3'
p1464
S''
sS'monster1_lvl'
p1465
F1
sS'monster3_lvl'
p1466
S''
sS'monster4_lvl'
p1467
S''
sS'monster4'
p1468
S''
sS'monster2'
p1469
S''
sg552
g1456
sS'monster1'
p1470
S'Journalist001'
p1471
sbsS'P-easy-04'
p1472
g1
(g10
g3
NtRp1473
(dp1474
g1459
(lp1475
sg1461
(lp1476
sg1048
F10
sg1463
F1
sg1464
S'Protester001'
p1477
sg1465
F1
sg1466
F1
sg1467
S''
sg1468
S''
sg1469
S'Protester001'
p1478
sg552
g1472
sg1470
S'Protester001'
p1479
sbsS'P-easy-06'
p1480
g1
(g10
g3
NtRp1481
(dp1482
g1459
(lp1483
sg1461
(lp1484
sg1048
F10
sg1463
F1
sg1464
S''
sg1465
F1
sg1466
S''
sg1467
S''
sg1468
S''
sg1469
S'Lobbyist001'
p1485
sg552
g1480
sg1470
S'Lobbyist001'
p1486
sbsS'P-easy-01'
p1487
g1
(g10
g3
NtRp1488
(dp1489
g1459
(lp1490
g1
(c__main__
ItemAttack
p1491
g3
NtRp1492
(dp1493
S'attack'
p1494
g561
sS'quantity'
p1495
I1
sbasg1461
(lp1496
g1
(g1491
g3
NtRp1497
(dp1498
g1494
g830
sg1495
I1
sbasg1048
F10
sg1463
S''
sg1464
S''
sg1465
F1
sg1466
S''
sg1467
S''
sg1468
S''
sg1469
S''
sg552
g1487
sg1470
S'Receptionist001'
p1499
sbsS'P-easy-03'
p1500
g1
(g10
g3
NtRp1501
(dp1502
g1459
(lp1503
sg1461
(lp1504
sg1048
F10
sg1463
F1
sg1464
S''
sg1465
F1
sg1466
S''
sg1467
S''
sg1468
S''
sg1469
S'Protester001'
p1505
sg552
g1500
sg1470
S'Protester001'
p1506
sbsS'P-easy-02'
p1507
g1
(g10
g3
NtRp1508
(dp1509
g1459
(lp1510
sg1461
(lp1511
sg1048
F10
sg1463
F1
sg1464
S''
sg1465
F1
sg1466
S''
sg1467
S''
sg1468
S''
sg1469
S'Protester001'
p1512
sg552
g1507
sg1470
S'Protester001'
p1513
sbssb.