ccopy_reg
_reconstructor
p1
(c__main__
GameData
p2
c__builtin__
object
p3
NtRp4
(dp5
S'script'
p6
(dp7
S'Theo'
p8
(lp9
g1
(c__main__
TableRow
p10
g3
NtRp11
(dp12
S'action'
p13
S'RequireFlag'
p14
sS'trigger'
p15
g8
sS'param'
p16
S'GOVERNORDEFEATED'
p17
sS'dialog'
p18
S'The Governor is in the north wing.'
p19
sbasS'Wife'
p20
(lp21
g1
(g10
g3
NtRp22
(dp23
g13
S'RequireFlag'
p24
sg15
g20
sg16
S'GOHOMETOWIFE'
p25
sg18
S'What are you doing here, Phillip? You should be at work!'
p26
sbag1
(g10
g3
NtRp27
(dp28
g13
S'Say'
p29
sg15
S'Wife'
p30
sg16
S''
sg18
S'Welcome home, Phillip! How was your workday?'
p31
sbag1
(g10
g3
NtRp32
(dp33
g13
S'PlayerSay'
p34
sg15
S'Wife'
p35
sg16
S''
sg18
S'...'
p36
sbag1
(g10
g3
NtRp37
(dp38
g13
S'Say'
p39
sg15
S'Wife'
p40
sg16
S''
sg18
S"That good, huh? You know this isn't what you want. Why don't you strike out on your own?"
p41
sbag1
(g10
g3
NtRp42
(dp43
g13
S'PlayerSay'
p44
sg15
S'Wife'
p45
sg16
S''
sg18
S"I didn't think I knew where to start to be a Mayor, but Mayor Goodman makes it look easy."
p46
sbag1
(g10
g3
NtRp47
(dp48
g13
S'Say'
p49
sg15
S'Wife'
p50
sg16
S''
sg18
S"That's the spirit! You can do it! All you need is some money and support."
p51
sbag1
(g10
g3
NtRp52
(dp53
g13
S'PlayerSay'
p54
sg15
S'Wife'
p55
sg16
S''
sg18
S'Well...OK! Lets start with money. We need a sponsor.'
p56
sbag1
(g10
g3
NtRp57
(dp58
g13
S'Say'
p59
sg15
S'Wife'
p60
sg16
S''
sg18
S'OK, lets go get one!'
p61
sbag1
(g10
g3
NtRp62
(dp63
g13
S'AddAlly'
p64
sg15
S'Wife'
p65
sg16
S'Wife:1'
p66
sg18
S'Sarah Mossman Joins Your Political Party!'
p67
sbag1
(g10
g3
NtRp68
(dp69
g13
S'SetFlag'
p70
sg15
S'Wife'
p71
sg16
S'STARTSPONSOR'
p72
sg18
S''
sbag1
(g10
g3
NtRp73
(dp74
g13
S'Destroy'
p75
sg15
S'Wife'
p76
sg16
S''
sg18
S''
sbasS'Constituent2'
p77
(lp78
g1
(g10
g3
NtRp79
(dp80
g13
S'RequireFlag'
p81
sg15
g77
sg16
S'STARTCONSTITUENTS'
p82
sg18
S'What?'
p83
sbag1
(g10
g3
NtRp84
(dp85
g13
S'PlayerSay'
p86
sg15
S'Constituent2'
p87
sg16
S''
sg18
S'Vote Phillip Mossman for Mayor!'
p88
sbag1
(g10
g3
NtRp89
(dp90
g13
S'Say'
p91
sg15
S'Constituent2'
p92
sg16
S''
sg18
S'But Mayor Goodman has always taken care of me.'
p93
sbag1
(g10
g3
NtRp94
(dp95
g13
S'Encounter'
p96
sg15
S'Constituent2'
p97
sg16
S'P-easy-08'
p98
sg18
S''
sbag1
(g10
g3
NtRp99
(dp100
g13
S'Say'
p101
sg15
S'Constituent2'
p102
sg16
S''
sg18
S"I think it's time for a change!"
p103
sbag1
(g10
g3
NtRp104
(dp105
g13
S'Destroy'
p106
sg15
S'Constituent2'
p107
sg16
S''
sg18
S''
sbasS'Constituent3'
p108
(lp109
g1
(g10
g3
NtRp110
(dp111
g13
S'RequireFlag'
p112
sg15
g108
sg16
S'STARTCONSTITUENTS'
p113
sg18
S'What?'
p114
sbag1
(g10
g3
NtRp115
(dp116
g13
S'PlayerSay'
p117
sg15
S'Constituent3'
p118
sg16
S''
sg18
S'Vote Phillip Mossman for Mayor!'
p119
sbag1
(g10
g3
NtRp120
(dp121
g13
S'Say'
p122
sg15
S'Constituent3'
p123
sg16
S''
sg18
S'But Mayor Goodman has always taken care of me.'
p124
sbag1
(g10
g3
NtRp125
(dp126
g13
S'Encounter'
p127
sg15
S'Constituent3'
p128
sg16
S'P-easy-09'
p129
sg18
S''
sbag1
(g10
g3
NtRp130
(dp131
g13
S'Say'
p132
sg15
S'Constituent3'
p133
sg16
S''
sg18
S"I think it's time for a change!"
p134
sbag1
(g10
g3
NtRp135
(dp136
g13
S'PlayerSay'
p137
sg15
S'Constituent3'
p138
sg16
S''
sg18
S"I think I'm ready to take on Mayor Goodman now!"
p139
sbag1
(g10
g3
NtRp140
(dp141
g13
S'SetFlag'
p142
sg15
S'Constituent3'
p143
sg16
S'CONSTITUENTSWON'
p144
sg18
S''
sbag1
(g10
g3
NtRp145
(dp146
g13
S'Destroy'
p147
sg15
S'Constituent3'
p148
sg16
S''
sg18
S''
sbasS'Constituent1'
p149
(lp150
g1
(g10
g3
NtRp151
(dp152
g13
S'RequireFlag'
p153
sg15
g149
sg16
S'STARTCONSTITUENTS'
p154
sg18
S'Yes?'
p155
sbag1
(g10
g3
NtRp156
(dp157
g13
S'PlayerSay'
p158
sg15
S'Constituent1'
p159
sg16
S''
sg18
S'Vote Phillip Mossman for Mayor!'
p160
sbag1
(g10
g3
NtRp161
(dp162
g13
S'Say'
p163
sg15
S'Constituent1'
p164
sg16
S''
sg18
S'Who?'
p165
sbag1
(g10
g3
NtRp166
(dp167
g13
S'PlayerSay'
p168
sg15
S'Constituent1'
p169
sg16
S''
sg18
S'Er, me!'
p170
sbag1
(g10
g3
NtRp171
(dp172
g13
S'Say'
p173
sg15
S'Constituent1'
p174
sg16
S''
sg18
S'Why? How will you help local business?'
p175
sbag1
(g10
g3
NtRp176
(dp177
g13
S'Encounter'
p178
sg15
S'Constituent1'
p179
sg16
S'P-easy-07'
p180
sg18
S''
sbag1
(g10
g3
NtRp181
(dp182
g13
S'Say'
p183
sg15
S'Constituent1'
p184
sg16
S''
sg18
S'You make a good case!'
p185
sbag1
(g10
g3
NtRp186
(dp187
g13
S'Destroy'
p188
sg15
S'Constituent1'
p189
sg16
S''
sg18
S''
sbasS'Protester2'
p190
(lp191
g1
(g10
g3
NtRp192
(dp193
g13
S'Say'
p194
sg15
g190
sg16
S''
sg18
S"Bees buzz, Mayors lie, who's this Phillip Mossman guy?"
p195
sbag1
(g10
g3
NtRp196
(dp197
g13
S'RequireFlag'
p198
sg15
S'Protester2'
p199
sg16
S'PROTESTORS'
p200
sg18
S''
sbag1
(g10
g3
NtRp201
(dp202
g13
S'Encounter'
p203
sg15
S'Protester2'
p204
sg16
S'P-easy-03'
p205
sg18
S''
sbag1
(g10
g3
NtRp206
(dp207
g13
S'Destroy'
p208
sg15
S'Protester2'
p209
sg16
S''
sg18
S''
sbasS'CheatAct2'
p210
(lp211
g1
(g10
g3
NtRp212
(dp213
g13
S'AddAlly'
p214
sg15
g210
sg16
S'Wife:1'
p215
sg18
S''
sbag1
(g10
g3
NtRp216
(dp217
g13
S'LearnAttack'
p218
sg15
S'CheatAct2'
p219
sg16
S'BRIBE'
p220
sg18
S''
sbag1
(g10
g3
NtRp221
(dp222
g13
S'LearnAttack'
p223
sg15
S'CheatAct2'
p224
sg16
S'Wife:BRIBE'
p225
sg18
S''
sbag1
(g10
g3
NtRp226
(dp227
g13
S'LearnAttack'
p228
sg15
S'CheatAct2'
p229
sg16
S'SLANDER'
p230
sg18
S''
sbag1
(g10
g3
NtRp231
(dp232
g13
S'GotoMap'
p233
sg15
S'CheatAct2'
p234
sg16
S'act2'
p235
sg18
S''
sbasS'Protester1'
p236
(lp237
g1
(g10
g3
NtRp238
(dp239
g13
S'LearnAttack'
p240
sg15
g236
sg16
S'RUNAD'
p241
sg18
S''
sbag1
(g10
g3
NtRp242
(dp243
g13
S'Say'
p244
sg15
S'Protester1'
p245
sg16
S''
sg18
S"Fee Fi Fo Fum, we think Mayor Goodman's Dumb!"
p246
sbag1
(g10
g3
NtRp247
(dp248
g13
S'Say'
p249
sg15
S'Protester1'
p250
sg16
S'Protester2'
p251
sg18
S"Bees buzz, Mayors lie, who's this Phillip Mossman guy?"
p252
sbag1
(g10
g3
NtRp253
(dp254
g13
S'Encounter'
p255
sg15
S'Protester1'
p256
sg16
S'P-easy-02'
p257
sg18
S''
sbag1
(g10
g3
NtRp258
(dp259
g13
S'Destroy'
p260
sg15
S'Protester1'
p261
sg16
S''
sg18
S''
sbasS'Politician1'
p262
(lp263
g1
(g10
g3
NtRp264
(dp265
g13
S'Say'
p266
sg15
g262
sg16
S''
sg18
S"I'm sorry Mayor Mossman, the Governor cannot see you now. He's very busy"
p267
sbag1
(g10
g3
NtRp268
(dp269
g13
S'PlayerSay'
p270
sg15
S'Politician1'
p271
sg16
S''
sg18
S"It's very important. I need to understand what Mayor Goodman was talking about. It was clear there were other powers at play."
p272
sbag1
(g10
g3
NtRp273
(dp274
g13
S'Say'
p275
sg15
S'Politician1'
p276
sg16
S''
sg18
S'Yes well, I fail to see how your country spat has anything to do with Governer Badden.'
p277
sbag1
(g10
g3
NtRp278
(dp279
g13
S'Encounter'
p280
sg15
S'Politician1'
p281
sg16
S'P-med-01'
p282
sg18
S''
sbag1
(g10
g3
NtRp283
(dp284
g13
S'Say'
p285
sg15
S'Politician1'
p286
sg16
S''
sg18
S'Fair point. The governor will see you now.'
p287
sbag1
(g10
g3
NtRp288
(dp289
g13
S'Destroy'
p290
sg15
S'Politician1'
p291
sg16
S''
sg18
S''
sbasS'Politician2'
p292
(lp293
g1
(g10
g3
NtRp294
(dp295
g13
S'Say'
p296
sg15
g292
sg16
S''
sg18
S'What are you doing in here? Who are you? Some Mayor?'
p297
sbag1
(g10
g3
NtRp298
(dp299
g13
S'PlayerSay'
p300
sg15
S'Politician2'
p301
sg16
S''
sg18
S"I am Mayor Phillip Mossman. I'm here to speak to the Governor."
p302
sbag1
(g10
g3
NtRp303
(dp304
g13
S'Say'
p305
sg15
S'Politician2'
p306
sg16
S''
sg18
S"I'm afraid the Governor's schedule is very tight. Come back next month."
p307
sbag1
(g10
g3
NtRp308
(dp309
g13
S'Encounter'
p310
sg15
S'Politician2'
p311
sg16
S'P-med-02'
p312
sg18
S''
sbag1
(g10
g3
NtRp313
(dp314
g13
S'Say'
p315
sg15
S'Politician2'
p316
sg16
S''
sg18
S'I see. Well, maybe we can squeeze you in.'
p317
sbag1
(g10
g3
NtRp318
(dp319
g13
S'SetFlag'
p320
sg15
S'Politician2'
p321
sg16
S'GOVPOLITICIANSFIRST'
p322
sg18
S''
sbag1
(g10
g3
NtRp323
(dp324
g13
S'Destroy'
p325
sg15
S'Politician2'
p326
sg16
S''
sg18
S''
sbasS'Head Protester'
p327
(lp328
g1
(g10
g3
NtRp329
(dp330
g13
S'Say'
p331
sg15
g327
sg16
S''
sg18
S"I am the head protester. You'll never convince us to back down!"
p332
sbag1
(g10
g3
NtRp333
(dp334
g13
S'RequireFlag'
p335
sg15
S'Head Protester'
p336
sg16
S'PROTESTORS'
p337
sg18
S''
sbag1
(g10
g3
NtRp338
(dp339
g13
S'PlayerSay'
p340
sg15
S'Head Protester'
p341
sg16
S''
sg18
S'What are you protesting?'
p342
sbag1
(g10
g3
NtRp343
(dp344
g13
S'Say'
p345
sg15
S'Head Protester'
p346
sg16
S''
sg18
S'Er...Injustice!'
p347
sbag1
(g10
g3
NtRp348
(dp349
g13
S'PlayerSay'
p350
sg15
S'Head Protester'
p351
sg16
S''
sg18
S'Injustice against what?'
p352
sbag1
(g10
g3
NtRp353
(dp354
g13
S'Say'
p355
sg15
S'Head Protester'
p356
sg16
S''
sg18
S'...'
p357
sbag1
(g10
g3
NtRp358
(dp359
g13
S'Say'
p360
sg15
S'Head Protester'
p361
sg16
S''
sg18
S'The People!'
p362
sbag1
(g10
g3
NtRp363
(dp364
g13
S'PlayerSay'
p365
sg15
S'Head Protester'
p366
sg16
S''
sg18
S'Yes, but which people?'
p367
sbag1
(g10
g3
NtRp368
(dp369
g13
S'Say'
p370
sg15
S'Head Protester'
p371
sg16
S''
sg18
S'See? What a fascist, ALL people you slimey politician scum!'
p372
sbag1
(g10
g3
NtRp373
(dp374
g13
S'Encounter'
p375
sg15
S'Head Protester'
p376
sg16
S'P-easy-04'
p377
sg18
S''
sbag1
(g10
g3
NtRp378
(dp379
g13
S'Say'
p380
sg15
S'Head Protester'
p381
sg16
S''
sg18
S"Alright, fine! We'll stop protesting...whatever we were protesting."
p382
sbag1
(g10
g3
NtRp383
(dp384
g13
S'SetFlag'
p385
sg15
S'Head Protester'
p386
sg16
S'PROTESTORSDEAD'
p387
sg18
S''
sbag1
(g10
g3
NtRp388
(dp389
g13
S'Destroy'
p390
sg15
S'Head Protester'
p391
sg16
S''
sg18
S''
sbasS'Journalist'
p392
(lp393
g1
(g10
g3
NtRp394
(dp395
g13
S'RequireFlag'
p396
sg15
g392
sg16
S'INTERVIEWSTART'
p397
sg18
S'Leave me alone, kid I need to get this done before my deadline!'
p398
sbag1
(g10
g3
NtRp399
(dp400
g13
S'Say'
p401
sg15
S'Journalist'
p402
sg16
S''
sg18
S"Hey, where's the Mayor?"
p403
sbag1
(g10
g3
NtRp404
(dp405
g13
S'PlayerSay'
p406
sg15
S'Journalist'
p407
sg16
S''
sg18
S"He couldn't make it. I'll be taking the interview."
p408
sbag1
(g10
g3
NtRp409
(dp410
g13
S'Say'
p411
sg15
S'Journalist'
p412
sg16
S''
sg18
S'Great! Easy pickings! Lets go.'
p413
sbag1
(g10
g3
NtRp414
(dp415
g13
S'Encounter'
p416
sg15
S'Journalist'
p417
sg16
S'P-easy-05'
p418
sg18
S''
sbag1
(g10
g3
NtRp419
(dp420
g13
S'Say'
p421
sg15
S'Journalist'
p422
sg16
S''
sg18
S"SNORE! Fine, if I can't get anything juicy here I'll do another puff piece on my poodle Frank."
p423
sbag1
(g10
g3
NtRp424
(dp425
g13
S'SetFlag'
p426
sg15
S'Journalist'
p427
sg16
S'JOURNALISTINTERVIEW'
p428
sg18
S''
sbag1
(g10
g3
NtRp429
(dp430
g13
S'Destroy'
p431
sg15
S'Journalist'
p432
sg16
S''
sg18
S''
sbasS'Sponsor'
p433
(lp434
g1
(g10
g3
NtRp435
(dp436
g13
S'RequireFlag'
p437
sg15
g433
sg16
S'STARTSPONSOR'
p438
sg18
S"Hmmm...Money, money, money. Sorry, what? I wasn't talking to you."
p439
sbag1
(g10
g3
NtRp440
(dp441
g13
S'Say'
p442
sg15
S'Sponsor'
p443
sg16
S''
sg18
S"Hello, I'm investigating new investments today. How can I help you?"
p444
sbag1
(g10
g3
NtRp445
(dp446
g13
S'PlayerSay'
p447
sg15
S'Sponsor'
p448
sg16
S''
sg18
S"Well, I've decided to run for Mayor! I could really use an investor."
p449
sbag1
(g10
g3
NtRp450
(dp451
g13
S'Say'
p452
sg15
S'Sponsor'
p453
sg16
S''
sg18
S"I don't know. You seem a little young. I don't think I'm convinced."
p454
sbag1
(g10
g3
NtRp455
(dp456
g13
S'Encounter'
p457
sg15
S'Sponsor'
p458
sg16
S'P-easy-06'
p459
sg18
S''
sbag1
(g10
g3
NtRp460
(dp461
g13
S'Say'
p462
sg15
S'Sponsor'
p463
sg16
S''
sg18
S"Wow! You sure have what it takes! Alright, he's a pile of cash!"
p464
sbag1
(g10
g3
NtRp465
(dp466
g13
S'Say'
p467
sg15
S'Sponsor'
p468
sg16
S''
sg18
S'Also, now that you have some funds, you might find it useful to...grease the wheels in some difficult situations.'
p469
sbag1
(g10
g3
NtRp470
(dp471
g13
S'LearnAttack'
p472
sg15
S'Sponsor'
p473
sg16
S'BRIBE'
p474
sg18
S'Phillip and Sarah learn to Bribe'
p475
sbag1
(g10
g3
NtRp476
(dp477
g13
S'LearnAttack'
p478
sg15
S'Sponsor'
p479
sg16
S'Wife:BRIBE'
p480
sg18
S''
sbag1
(g10
g3
NtRp481
(dp482
g13
S'SetFlag'
p483
sg15
S'Sponsor'
p484
sg16
S'STARTCONSTITUENTS'
p485
sg18
S''
sbag1
(g10
g3
NtRp486
(dp487
g13
S'PlayerSay'
p488
sg15
S'Sponsor'
p489
sg16
S''
sg18
S'Er, thanks! I suppose we should go gather some support from our constituents now.'
p490
sbag1
(g10
g3
NtRp491
(dp492
g13
S'Say'
p493
sg15
S'Sponsor'
p494
sg16
S''
sg18
S"Makes sense to me! I'm off, too. Money, money, money."
p495
sbag1
(g10
g3
NtRp496
(dp497
g13
S'Destroy'
p498
sg15
S'Sponsor'
p499
sg16
S''
sg18
S''
sbasS'Hick'
p500
(lp501
g1
(g10
g3
NtRp502
(dp503
g13
S'Say'
p504
sg15
g500
sg16
S''
sg18
S''
sbasS'Mayor'
p505
(lp506
g1
(g10
g3
NtRp507
(dp508
g13
S'Say'
p509
sg15
g505
sg16
S''
sg18
S"Hello, I'm the Mayor!"
p510
sbag1
(g10
g3
NtRp511
(dp512
g13
S'PlayerSay'
p513
sg15
S'Mayor'
p514
sg16
S''
sg18
S"Hello, Mayor Goodman, I'm Philip Mossman."
p515
sbag1
(g10
g3
NtRp516
(dp517
g13
S'Say'
p518
sg15
S'Mayor'
p519
sg16
S''
sg18
S"Ah yes, you're my new assistant. A good thing, too."
p520
sbag1
(g10
g3
NtRp521
(dp522
g13
S'Say'
p523
sg15
S'Mayor'
p524
sg16
S''
sg18
S"I've been searching for minutes and haven't been able to find my pen! I bet my receptionist stole it. She has sticky fingers."
p525
sbag1
(g10
g3
NtRp526
(dp527
g13
S'Say'
p528
sg15
S'Mayor'
p529
sg16
S''
sg18
S"Well, don't just stand there, go and get it!"
p530
sbag1
(g10
g3
NtRp531
(dp532
g13
S'SetFlag'
p533
sg15
S'Mayor'
p534
sg16
S'PENQUEST'
p535
sg18
S''
sbag1
(g10
g3
NtRp536
(dp537
g13
S'RequireItem'
p538
sg15
S'Mayor'
p539
sg16
S'PEN'
p540
sg18
S'Are you simple? Go and get my pen from that thieving receptionist.'
p541
sbag1
(g10
g3
NtRp542
(dp543
g13
S'Say'
p544
sg15
S'Mayor'
p545
sg16
S''
sg18
S"Great! I know she can give you a bit of a tongue-lashing, but she's a fantastic receptionist."
p546
sbag1
(g10
g3
NtRp547
(dp548
g13
S'Say'
p549
sg15
S'Mayor'
p550
sg16
S''
sg18
S"I'm sure you want to learn a thing or two about politics \xe2\x80\x93 who doesn't? - so lets get started"
p551
sbag1
(g10
g3
NtRp552
(dp553
g13
S'SetFlag'
p554
sg15
S'Mayor'
p555
sg16
S'PROTESTORS'
p556
sg18
S''
sbag1
(g10
g3
NtRp557
(dp558
g13
S'RequireFlag'
p559
sg15
S'Mayor'
p560
sg16
S'PROTESTORSDEAD'
p561
sg18
S'Run outside and tell those protesters to scram, will you?'
p562
sbag1
(g10
g3
NtRp563
(dp564
g13
S'Say'
p565
sg15
S'Mayor'
p566
sg16
S''
sg18
S"Hope they didn't give you too much trouble!"
p567
sbag1
(g10
g3
NtRp568
(dp569
g13
S'Say'
p570
sg15
S'Mayor'
p571
sg16
S''
sg18
S"Now that's sorted, there's a journalist from the local newspaper coming for an interview."
p572
sbag1
(g10
g3
NtRp573
(dp574
g13
S'Say'
p575
sg15
S'Mayor'
p576
sg16
S''
sg18
S"I certainly don't have time for it, so you can do the interview."
p577
sbag1
(g10
g3
NtRp578
(dp579
g13
S'Say'
p580
sg15
S'Mayor'
p581
sg16
S''
sg18
S"Be careful not to give too much away and if you could throw a few punches at the opposition that'd help."
p582
sbag1
(g10
g3
NtRp583
(dp584
g13
S'PlayerSay'
p585
sg15
S'Mayor'
p586
sg16
S''
sg18
S'You want me to...throw a punch?'
p587
sbag1
(g10
g3
NtRp588
(dp589
g13
S'Say'
p590
sg15
S'Mayor'
p591
sg16
S''
sg18
S"You're in politics and don't know how to fight dirty? Sheesh! Here, let me show you."
p592
sbag1
(g10
g3
NtRp593
(dp594
g13
S'LearnAttack'
p595
sg15
S'Mayor'
p596
sg16
S'SLANDER'
p597
sg18
S'Mayor teaches Phillip to Slander Opposition'
p598
sbag1
(g10
g3
NtRp599
(dp600
g13
S'Say'
p601
sg15
S'Mayor'
p602
sg16
S''
sg18
S"It's a pretty great tactic because it keeps eating away at them long after you've done it."
p603
sbag1
(g10
g3
NtRp604
(dp605
g13
S'SetFlag'
p606
sg15
S'Mayor'
p607
sg16
S'INTERVIEWSTART'
p608
sg18
S''
sbag1
(g10
g3
NtRp609
(dp610
g13
S'RequireFlag'
p611
sg15
S'Mayor'
p612
sg16
S'JOURNALISTINTERVIEW'
p613
sg18
S'Go handle that interview and remember to slander the opposition.'
p614
sbag1
(g10
g3
NtRp615
(dp616
g13
S'SetFlag'
p617
sg15
S'Mayor'
p618
sg16
S'GOHOMETOWIFE'
p619
sg18
S''
sbag1
(g10
g3
NtRp620
(dp621
g13
S'Say'
p622
sg15
S'Mayor'
p623
sg16
S''
sg18
S'OK, fine, now could you buzz off for a while? I need to get some work done.'
p624
sbag1
(g10
g3
NtRp625
(dp626
g13
S'RequireFlag'
p627
sg15
S'Mayor'
p628
sg16
S'CONSTITUENTSWON'
p629
sg18
S"Go home to your family. I have things to do that don't involve you."
p630
sbag1
(g10
g3
NtRp631
(dp632
g13
S'Say'
p633
sg15
S'Mayor'
p634
sg16
S''
sg18
S"What's this I hear about you campaigning for Mayor? After everything I've taught you!"
p635
sbag1
(g10
g3
NtRp636
(dp637
g13
S'PlayerSay'
p638
sg15
S'Mayor'
p639
sg16
S''
sg18
S"I'm sorry Mayor Goodman, but it's time for someone who's ready to make a difference for our town."
p640
sbag1
(g10
g3
NtRp641
(dp642
g13
S'Say'
p643
sg15
S'Mayor'
p644
sg16
S''
sg18
S"You really are a fool. Do you think He's going to allow that?"
p645
sbag1
(g10
g3
NtRp646
(dp647
g13
S'Encounter'
p648
sg15
S'Mayor'
p649
sg16
S'P-easy-10'
p650
sg18
S''
sbag1
(g10
g3
NtRp651
(dp652
g13
S'Say'
p653
sg15
S'Mayor'
p654
sg16
S''
sg18
S"Well, you've beaten me but you don't have a clue what you're in for. I hope you're up to this kid!"
p655
sbag1
(g10
g3
NtRp656
(dp657
g13
S'Destroy'
p658
sg15
S'Mayor'
p659
sg16
S''
sg18
S''
sbasS'Governor'
p660
(lp661
g1
(g10
g3
NtRp662
(dp663
g13
S'RequireFlag'
p664
sg15
g660
sg16
S'GOVPOLITICIANSFIRST'
p665
sg18
S"I'm very busy. Please speak to the others."
p666
sbag1
(g10
g3
NtRp667
(dp668
g13
S'Say'
p669
sg15
S'Governor'
p670
sg16
S''
sg18
S'You have quite a way with words, Mayor Mossman. Why are you here?'
p671
sbag1
(g10
g3
NtRp672
(dp673
g13
S'PlayerSay'
p674
sg15
S'Governor'
p675
sg16
S''
sg18
S"Mayor Goodman said some troubling things, Governor Badden. I'm here to get to the bottom of it."
p676
sbag1
(g10
g3
NtRp677
(dp678
g13
S'Say'
p679
sg15
S'Governor'
p680
sg16
S''
sg18
S"If I knew anything about what you're talking about, I wouldn't tell you. I don't trust you at all."
p681
sbag1
(g10
g3
NtRp682
(dp683
g13
S'PlayerSay'
p684
sg15
S'Governor'
p685
sg16
S''
sg18
S'What can I do to convince you?'
p686
sbag1
(g10
g3
NtRp687
(dp688
g13
S'Say'
p689
sg15
S'Governor'
p690
sg16
S''
sg18
S"Well...there's some hicks in the south wing that I've been dodging. They want to know about the recent funding cuts. Get rid of them."
p691
sbag1
(g10
g3
NtRp692
(dp693
g13
S'RequireFlag'
p694
sg15
S'Governor'
p695
sg16
S'DEALWITHHICKS'
p696
sg18
S"I'm not saying another word until you get rid of the hicks in the south wing."
p697
sbasS'Receptionist'
p698
(lp699
g1
(g10
g3
NtRp700
(dp701
g13
S'Label'
p702
sg15
g698
sg16
S'START'
p703
sg18
S''
sbag1
(g10
g3
NtRp704
(dp705
g13
S'Say'
p706
sg15
S'Receptionist'
p707
sg16
S''
sg18
S'I have some fine wares for you'
p708
sbag1
(g10
g3
NtRp709
(dp710
g13
S'Shop'
p711
sg15
S'Receptionist'
p712
sg16
S'Shop1'
p713
sg18
S''
sbag1
(g10
g3
NtRp714
(dp715
g13
S'Say'
p716
sg15
S'Receptionist'
p717
sg16
S''
sg18
S'Thankyou, come again'
p718
sbag1
(g10
g3
NtRp719
(dp720
g13
S'Reset'
p721
sg15
S'Receptionist'
p722
sg16
S'START'
p723
sg18
S''
sbassS'attacks'
p724
(dp725
S'GETEXCLUSIVE'
p726
g1
(g10
g3
NtRp727
(dp728
S'base_damage_max'
p729
F4
sS'description'
p730
S'asdf'
p731
sS'weight'
p732
I1
sS'crit_chance_max'
p733
F5
sS'crit_chance_min'
p734
F2
sS'underlying_stat'
p735
S'Wit'
p736
sS'target_type'
p737
S'AllFriendly'
p738
sS'base_damage_min'
p739
F2
sS'spin_cost'
p740
F5
sS'effects'
p741
(lp742
g1
(c__main__
Effect
p743
g3
NtRp744
(dp745
S'function'
p746
S'add'
p747
sS'abbrv'
p748
S'(INCREASE)'
p749
sS'attribute'
p750
S'cunning'
p751
sS'value'
p752
F2
sS'rounds_min'
p753
F1
sS'rounds_max'
p754
F4
sS'id'
p755
S'Increase Cunning'
p756
sS'apply_to_source'
p757
S'TRUE'
p758
sbasS'target_count'
p759
I1
sS'crit_base_damage'
p760
F8
sg755
g726
sS'name'
p761
S'Get Exclusive'
p762
sbsS'LOSELOSE'
p763
g1
(g10
g3
NtRp764
(dp765
g729
F4
sg730
S'Causes all politicians in the target radius to lose votes'
p766
sg732
I1
sg733
F0
sg734
F0
sg735
S'Cunning'
p767
sg737
S'All'
p768
sg739
F4
sg740
I0
sg741
(lp769
sg759
I6
sg760
F0
sg755
g763
sg761
S'Lose/lose issue'
p770
sbsS'LIE'
p771
g1
(g10
g3
NtRp772
(dp773
g729
F6
sg730
S"It's only lying if they catch you. A strong attack with a danger of failing entirely and leaving you high and dry."
p774
sg732
F3
sg733
F10
sg734
F2
sg735
S'Wit'
p775
sg737
S'AllEnemy'
p776
sg739
F0
sg740
I0
sg741
(lp777
g1
(g743
g3
NtRp778
(dp779
g746
S'miss_turn'
p780
sg748
S'(MISS)'
p781
sg750
S''
sg752
F0
sg753
F1
sg754
F1
sg755
S'Critical Fail'
p782
sg757
S'TRUE'
p783
sbasg759
I1
sg760
F10
sg755
g771
sg761
S'Lie'
p784
sbsS'HILARIOUSANECDOTE'
p785
g1
(g10
g3
NtRp786
(dp787
g729
F8
sg730
S'asdf'
p788
sg732
I1
sg733
F0
sg734
F0
sg735
S'Wit'
p789
sg737
S'AllFriendly'
p790
sg739
F4
sg740
F5
sg741
(lp791
g1
(g743
g3
NtRp792
(dp793
g746
S'add'
p794
sg748
S'(INCREASE)'
p795
sg750
S'flair'
p796
sg752
F2
sg753
F1
sg754
F4
sg755
S'Increase Flair'
p797
sg757
S'TRUE'
p798
sbasg759
I1
sg760
F0
sg755
g785
sg761
S'Hilarious Anecdote'
p799
sbsS'SENSATIONALISE'
p800
g1
(g10
g3
NtRp801
(dp802
g729
F8
sg730
S'asdf'
p803
sg732
I1
sg733
F0
sg734
F0
sg735
S'Wit'
p804
sg737
S'AllEnemy'
p805
sg739
F4
sg740
F3
sg741
(lp806
sg759
I1
sg760
F0
sg755
g800
sg761
S'Sensationalise'
p807
sbsS'DENOUNCE'
p808
g1
(g10
g3
NtRp809
(dp810
g729
F5
sg730
S'asdf'
p811
sg732
F6
sg733
F10
sg734
F2
sg735
S'Cunning'
p812
sg737
S'AllEnemy'
p813
sg739
F2
sg740
I0
sg741
(lp814
sg759
I1
sg760
F8
sg755
g808
sg761
S'Denounce'
p815
sbsS'WHADOWEWANT'
p816
g1
(g10
g3
NtRp817
(dp818
g729
F6
sg730
S'asdf'
p819
sg732
I1
sg733
F0
sg734
F0
sg735
S'Cunning'
p820
sg737
S'AllEnemy'
p821
sg739
F3
sg740
I0
sg741
(lp822
sg759
I1
sg760
F0
sg755
g816
sg761
S'Whadowewant!'
p823
sbsS'SCOOP'
p824
g1
(g10
g3
NtRp825
(dp826
g729
F5
sg730
S'asdf'
p827
sg732
I1
sg733
F10
sg734
F5
sg735
S'Cunning'
p828
sg737
S'AllEnemy'
p829
sg739
F2
sg740
I0
sg741
(lp830
sg759
I1
sg760
F8
sg755
g824
sg761
S'Scoop'
p831
sbsS'CHOOSETARGETS'
p832
g1
(g10
g3
NtRp833
(dp834
g729
F7
sg730
S'asdf'
p835
sg732
I1
sg733
F10
sg734
F5
sg735
S'Cunning'
p836
sg737
S'AllEnemy'
p837
sg739
F2
sg740
I0
sg741
(lp838
sg759
I1
sg760
F9
sg755
g832
sg761
S'Choose Targets'
p839
sbsS'FILENAILS'
p840
g1
(g10
g3
NtRp841
(dp842
g729
F0
sg730
S'asdf'
p843
sg732
I1
sg733
F0
sg734
F0
sg735
S'Wit'
p844
sg737
S'AllEnemy'
p845
sg739
F0
sg740
F3
sg741
(lp846
g1
(g743
g3
NtRp847
(dp848
g746
S'add_permanent'
p849
sg748
S''
sg750
S'votes'
p850
sg752
F5
sg753
F1
sg754
F1
sg755
S'Votes Restore'
p851
sg757
S'TRUE'
p852
sbasg759
I1
sg760
F0
sg755
g840
sg761
S'File Nails'
p853
sbsS'BRIBE'
p854
g1
(g10
g3
NtRp855
(dp856
g729
F3
sg730
S'Is there anything more convincing than money? Buying loyalty gets expensive so be careful.'
p857
sg732
I1
sg733
F1
sg734
F1
sg735
S'Money'
p858
sg737
S'AllEnemy'
p859
sg739
F2
sg740
I0
sg741
(lp860
sg759
I1
sg760
F1
sg755
g854
sg761
S'Bribe'
p861
sbsS'SING'
p862
g1
(g10
g3
NtRp863
(dp864
g729
F-3
sg730
S'Why bandy words with politicians when you can sing a catchy tune! Restores votes.'
p865
sg732
I1
sg733
F0
sg734
F0
sg735
S'Wit'
p866
sg737
S'AllFriendly'
p867
sg739
F-5
sg740
I0
sg741
(lp868
sg759
I4
sg760
F0
sg755
g862
sg761
S'Rousing Song'
p869
sbsS'FEAR'
p870
g1
(g10
g3
NtRp871
(dp872
g729
F0
sg730
S'asdf'
p873
sg732
F2
sg733
F0
sg734
F0
sg735
S'Wit'
p874
sg737
S'AllFriendly'
p875
sg739
F0
sg740
F4
sg741
(lp876
g744
asg759
I1
sg760
F0
sg755
g870
sg761
S'Fear Change'
p877
sbsS'RAISEDEFCON'
p878
g1
(g10
g3
NtRp879
(dp880
g729
F5
sg730
S'asdf'
p881
sg732
I1
sg733
F7
sg734
F3
sg735
S'Cunning'
p882
sg737
S'AllEnemy'
p883
sg739
F4
sg740
I0
sg741
(lp884
sg759
I1
sg760
F8
sg755
g878
sg761
S'Raise DEFCON'
p885
sbsS'NEGATTACKAD'
p886
g1
(g10
g3
NtRp887
(dp888
g729
F8
sg730
S"Take them all down. They're definitely all bad people. Not like you."
p889
sg732
I1
sg733
F10
sg734
F10
sg735
S'Cunning'
p890
sg737
S'AllEnemy'
p891
sg739
F3
sg740
F5
sg741
(lp892
sg759
I1
sg760
F10
sg755
g886
sg761
S'Negative Attack Ad'
p893
sbsS'DAZZLE'
p894
g1
(g10
g3
NtRp895
(dp896
g729
F3
sg730
S'Being dazzling and admirable is a great way to take heat off politics'
p897
sg732
I1
sg733
F8
sg734
F5
sg735
S'Wit'
p898
sg737
S'AllEnemy'
p899
sg739
F2
sg740
F3
sg741
(lp900
g1
(g743
g3
NtRp901
(dp902
g746
S'reduce'
p903
sg748
S'(REDUCE)'
p904
sg750
S'cunning'
p905
sg752
F2
sg753
F2
sg754
F5
sg755
S'Reduce Cunning'
p906
sg757
S''
sbasg759
I4
sg760
F8
sg755
g894
sg761
S'Dazzle'
p907
sbsS'BELIEVEMEDIA'
p908
g1
(g10
g3
NtRp909
(dp910
g729
F3
sg730
S'asdf'
p911
sg732
I1
sg733
F15
sg734
F5
sg735
S'Cunning'
p912
sg737
S'AllEnemy'
p913
sg739
F1
sg740
I0
sg741
(lp914
sg759
I1
sg760
F12
sg755
g908
sg761
S'Believe Media'
p915
sbsS'PRPREP'
p916
g1
(g10
g3
NtRp917
(dp918
g729
F0
sg730
S"If you're going to need some spin, best see a spin doctor! Adds spin points."
p919
sg732
I1
sg733
F0
sg734
F0
sg735
S''
sg737
S'AllFriendly'
p920
sg739
F0
sg740
I0
sg741
(lp921
g1
(g743
g3
NtRp922
(dp923
g746
S'add_permanent'
p924
sg748
S''
sg750
S'spin'
p925
sg752
F5
sg753
F0
sg754
F0
sg755
S'Spin Restore'
p926
sg757
S'TRUE'
p927
sbasg759
I1
sg760
F0
sg755
g916
sg761
S'PR Prep'
p928
sbsS'CALLVATICAN'
p929
g1
(g10
g3
NtRp930
(dp931
g729
F0
sg730
S'Brings in 2 additional ReligousNuts at 2 levels lower than this one'
p932
sg732
I1
sg733
F0
sg734
F0
sg735
S'Wit'
p933
sg737
S'None'
p934
sg739
F0
sg740
F5
sg741
(lp935
g1
(g743
g3
NtRp936
(dp937
g746
S'call_friends'
p938
sg748
S''
sg750
S'ReligiousNut001:2'
p939
sg752
F2
sg753
F0
sg754
F0
sg755
S'Call Friends'
p940
sg757
S''
sbasg759
I1
sg760
F0
sg755
g929
sg761
S'Call Vatican'
p941
sbsS'BLACKMAIL'
p942
g1
(g10
g3
NtRp943
(dp944
g729
F6
sg730
S'asdf'
p945
sg732
I1
sg733
F10
sg734
F2
sg735
S'Wit'
p946
sg737
S'AllEnemy'
p947
sg739
F3
sg740
F4
sg741
(lp948
g1
(g743
g3
NtRp949
(dp950
g746
S'drain'
p951
sg748
S'(DRAIN)'
p952
sg750
S'votes'
p953
sg752
F1
sg753
F2
sg754
F5
sg755
S'Drain Votes'
p954
sg757
S''
sbasg759
I1
sg760
F2
sg755
g942
sg761
S'Blackmail'
p955
sbsS'RUNAD'
p956
g1
(g10
g3
NtRp957
(dp958
g729
F0
sg730
S'Gets back some votes by running an ad'
p959
sg732
I1
sg733
F0
sg734
F0
sg735
S''
sg737
S'AllFriendly'
p960
sg739
F0
sg740
I0
sg741
(lp961
g1
(g743
g3
NtRp962
(dp963
g746
S'add_permanent'
p964
sg748
S''
sg750
S'votes'
p965
sg752
F10
sg753
F1
sg754
F1
sg755
S'Votes Restore Ad'
p966
sg757
S'TRUE'
p967
sbasg759
I1
sg760
F0
sg755
g956
sg761
S'Run Advertisement'
p968
sbsS'PROTEST'
p969
g1
(g10
g3
NtRp970
(dp971
g729
F5
sg730
S'asdf'
p972
sg732
F6
sg733
F10
sg734
F2
sg735
S'Cunning'
p973
sg737
S'AllEnemy'
p974
sg739
F2
sg740
I0
sg741
(lp975
sg759
I1
sg760
F8
sg755
g969
sg761
S'Protest'
p976
sbsS'SPREADRUMOUR'
p977
g1
(g10
g3
NtRp978
(dp979
g729
F6
sg730
S'asdf'
p980
sg732
I1
sg733
F10
sg734
F2
sg735
S'Wit'
p981
sg737
S'AllEnemy'
p982
sg739
F2
sg740
F3
sg741
(lp983
sg759
I4
sg760
F8
sg755
g977
sg761
S'Spread Rumour'
p984
sbsS'AGENDA'
p985
g1
(g10
g3
NtRp986
(dp987
g729
F5
sg730
S'asdf'
p988
sg732
F6
sg733
F10
sg734
F2
sg735
S'Cunning'
p989
sg737
S'AllEnemy'
p990
sg739
F2
sg740
I0
sg741
(lp991
sg759
I1
sg760
F8
sg755
g985
sg761
S'Push Agenda'
p992
sbsS'FILIBUSTER'
p993
g1
(g10
g3
NtRp994
(dp995
g729
F0
sg730
S"You're not moving until they give in. Cause all opposition to miss their turn"
p996
sg732
I1
sg733
F0
sg734
F0
sg735
S'Wit'
p997
sg737
S'AllEnemy'
p998
sg739
F0
sg740
F8
sg741
(lp999
g1
(g743
g3
NtRp1000
(dp1001
g746
S'miss_turn'
p1002
sg748
S'(MISS)'
p1003
sg750
S''
sg752
F0
sg753
F1
sg754
F1
sg755
S'Miss Turn'
p1004
sg757
S''
sbasg759
I1
sg760
F0
sg755
g993
sg761
S'Filibuster'
p1005
sbsS'GATHERINTEL'
p1006
g1
(g10
g3
NtRp1007
(dp1008
g729
F0
sg730
S'Increases Cunning.'
p1009
sg732
I1
sg733
F0
sg734
F0
sg735
S'Wit'
p1010
sg737
S'AllFriendly'
p1011
sg739
F0
sg740
F3
sg741
(lp1012
g744
asg759
I2
sg760
F0
sg755
g1006
sg761
S'Gather Intelligence'
p1013
sbsS'LOVE'
p1014
g1
(g10
g3
NtRp1015
(dp1016
g729
F6
sg730
S'asdf'
p1017
sg732
F2
sg733
F8
sg734
F2
sg735
S'Cunning'
p1018
sg737
S'AllEnemy'
p1019
sg739
F1
sg740
I0
sg741
(lp1020
sg759
I1
sg760
F7
sg755
g1014
sg761
S'Love'
p1021
sbsS'OUTOFCONTEXT'
p1022
g1
(g10
g3
NtRp1023
(dp1024
g729
F3
sg730
S'asdf'
p1025
sg732
I1
sg733
F5
sg734
F2
sg735
S'Wit'
p1026
sg737
S'AllEnemy'
p1027
sg739
F2
sg740
F2
sg741
(lp1028
g949
asg759
I1
sg760
F5
sg755
g1022
sg761
S'Take Out Of Context'
p1029
sbsS'GREATSUIT'
p1030
g1
(g10
g3
NtRp1031
(dp1032
g729
F6
sg730
S'Well, we could argue, but have you noticed how fabulous this suit is?'
p1033
sg732
I1
sg733
F11
sg734
F6
sg735
S'Cunning'
p1034
sg737
S'AllEnemy'
p1035
sg739
F3
sg740
I0
sg741
(lp1036
sg759
I1
sg760
F12
sg755
g1030
sg761
S'Look Great In Suit'
p1037
sbsS'PEACE'
p1038
g1
(g10
g3
NtRp1039
(dp1040
g729
F0
sg730
S'asdf'
p1041
sg732
I1
sg733
F0
sg734
F0
sg735
S'Wit'
p1042
sg737
S'AllEnemy'
p1043
sg739
F0
sg740
F3
sg741
(lp1044
g901
asg759
I4
sg760
F0
sg755
g1038
sg761
S'Peace'
p1045
sbsS'INSPSPEECH'
p1046
g1
(g10
g3
NtRp1047
(dp1048
g729
F-2
sg730
S'Restore votes to all party members'
p1049
sg732
I1
sg733
F0
sg734
F0
sg735
S'Cunning'
p1050
sg737
S'AllFriendly'
p1051
sg739
F-2
sg740
I0
sg741
(lp1052
sg759
I4
sg760
F0
sg755
g1046
sg761
S'Inspirational Speech'
p1053
sbsS'STRIKE'
p1054
g1
(g10
g3
NtRp1055
(dp1056
g729
F8
sg730
S'asdf'
p1057
sg732
I1
sg733
F0
sg734
F0
sg735
S'Wit'
p1058
sg737
S'AllEnemy'
p1059
sg739
F0
sg740
F3
sg741
(lp1060
g778
asg759
I1
sg760
F0
sg755
g1054
sg761
S'Call A Strike'
p1061
sbsS'SLANDER'
p1062
g1
(g10
g3
NtRp1063
(dp1064
g729
F3
sg730
S'Strong against polititians...careful with those voters, though!'
p1065
sg732
F4
sg733
F10
sg734
F2
sg735
S'Wit'
p1066
sg737
S'AllEnemy'
p1067
sg739
F2
sg740
I0
sg741
(lp1068
g949
asg759
I1
sg760
F5
sg755
g1062
sg761
S'Slander Opposition'
p1069
sbsS'NATTER'
p1070
g1
(g10
g3
NtRp1071
(dp1072
g729
F8
sg730
S'asdf'
p1073
sg732
I1
sg733
F15
sg734
F5
sg735
S'Cunning'
p1074
sg737
S'AllEnemy'
p1075
sg739
F1
sg740
I0
sg741
(lp1076
sg759
I1
sg760
F10
sg755
g1070
sg761
S'Natter On'
p1077
sbsS'GOSSIP'
p1078
g1
(g10
g3
NtRp1079
(dp1080
g729
F3
sg730
S'asdf'
p1081
sg732
I1
sg733
F10
sg734
F2
sg735
S'Wit'
p1082
sg737
S'AllEnemy'
p1083
sg739
F1
sg740
F2
sg741
(lp1084
g901
asg759
I1
sg760
F6
sg755
g1078
sg761
S'Gossip'
p1085
sbsS'MISSTURN'
p1086
g1
(g10
g3
NtRp1087
(dp1088
g729
F0
sg730
S'asdf'
p1089
sg732
I1
sg733
F0
sg734
F0
sg735
S''
sg737
S'AllEnemy'
p1090
sg739
F0
sg740
I0
sg741
(lp1091
sg759
I1
sg760
F0
sg755
g1086
sg761
S'Miss Turn'
p1092
sbsS'BIELECTION'
p1093
g1
(g10
g3
NtRp1094
(dp1095
g729
F4
sg730
S'Redistribute votes amongst targets'
p1096
sg732
I1
sg733
F0
sg734
F0
sg735
S'Cunning'
p1097
sg737
S'All'
p1098
sg739
F-4
sg740
F4
sg741
(lp1099
sg759
I8
sg760
F0
sg755
g1093
sg761
S'Bielection'
p1100
sbsS'SCARE'
p1101
g1
(g10
g3
NtRp1102
(dp1103
g729
F7
sg730
S'Nothing rattles the brains like fear.'
p1104
sg732
I1
sg733
F10
sg734
F2
sg735
S'Wit'
p1105
sg737
S'AllEnemy'
p1106
sg739
F2
sg740
I0
sg741
(lp1107
g901
asg759
I2
sg760
F9
sg755
g1101
sg761
S'Scare Campaign'
p1108
sbsS'PAYOFF'
p1109
g1
(g10
g3
NtRp1110
(dp1111
g729
F7
sg730
S'causes them to miss a number of turns'
p1112
sg732
I1
sg733
F8
sg734
F2
sg735
S'Wit'
p1113
sg737
S'AllEnemy'
p1114
sg739
F2
sg740
F4
sg741
(lp1115
g1
(g743
g3
NtRp1116
(dp1117
g746
S'miss_turn'
p1118
sg748
S'(MISS)'
p1119
sg750
S''
sg752
F0
sg753
F1
sg754
F3
sg755
S'Miss Turn Pay Off'
p1120
sg757
S''
sbasg759
I1
sg760
F9
sg755
g1109
sg761
S'Pay Off'
p1121
sbsS'BUREAUCRACY'
p1122
g1
(g10
g3
NtRp1123
(dp1124
g729
F5
sg730
S'asdf'
p1125
sg732
F6
sg733
F10
sg734
F2
sg735
S'Cunning'
p1126
sg737
S'AllEnemy'
p1127
sg739
F2
sg740
I0
sg741
(lp1128
sg759
I1
sg760
F8
sg755
g1122
sg761
S'Bureaucracy'
p1129
sbsS'RALLYAUDIENCE'
p1130
g1
(g10
g3
NtRp1131
(dp1132
g729
F8
sg730
S'asdf'
p1133
sg732
I1
sg733
F0
sg734
F0
sg735
S'Wit'
p1134
sg737
S'AllFriendly'
p1135
sg739
F4
sg740
F3
sg741
(lp1136
g1
(g743
g3
NtRp1137
(dp1138
g746
S'add'
p1139
sg748
S'(INCREASE)'
p1140
sg750
S'charisma'
p1141
sg752
F2
sg753
F1
sg754
F4
sg755
S'Increase Charisma'
p1142
sg757
S'TRUE'
p1143
sbasg759
I1
sg760
F0
sg755
g1130
sg761
S'Rally Audience'
p1144
sbsS'PORKBARREL'
p1145
g1
(g10
g3
NtRp1146
(dp1147
g729
F6
sg730
S'Do something that benefits them specifically. Not advised against politicians.'
p1148
sg732
I1
sg733
F0
sg734
F0
sg735
S'Wit'
p1149
sg737
S'AllEnemy'
p1150
sg739
F2
sg740
F2
sg741
(lp1151
sg759
I1
sg760
F0
sg755
g1145
sg761
S'Pork Barrel'
p1152
sbsS'INSPIRE'
p1153
g1
(g10
g3
NtRp1154
(dp1155
g729
F0
sg730
S'asdf'
p1156
sg732
I1
sg733
F0
sg734
F0
sg735
S'Wit'
p1157
sg737
S'AllFriendly'
p1158
sg739
F0
sg740
F3
sg741
(lp1159
g744
asg759
I4
sg760
F0
sg755
g1153
sg761
S'Inspire'
p1160
sbsS'JOKE'
p1161
g1
(g10
g3
NtRp1162
(dp1163
g729
F3
sg730
S"Ha, ha, ha...what were we talking about? Diffuse the situation with some humour. Not good if it falls flat, but if they get it, it'll knock 'em dead."
p1164
sg732
F3
sg733
F30
sg734
F10
sg735
S'Wit'
p1165
sg737
S'AllEnemy'
p1166
sg739
F2
sg740
I0
sg741
(lp1167
sg759
I1
sg760
F10
sg755
g1161
sg761
S'Joke'
p1168
sbsS'PRAYFORSOULS'
p1169
g1
(g10
g3
NtRp1170
(dp1171
g729
F6
sg730
S'asdf'
p1172
sg732
F2
sg733
F10
sg734
F2
sg735
S'Cunning'
p1173
sg737
S'None'
p1174
sg739
F3
sg740
I0
sg741
(lp1175
sg759
I1
sg760
F10
sg755
g1169
sg761
S'Pray'
p1176
sbsS'REVIVE'
p1177
g1
(g10
g3
NtRp1178
(dp1179
g729
F0
sg730
S'Revive a defeated comrade to half votes'
p1180
sg732
I1
sg733
F0
sg734
F0
sg735
S''
sg737
S'DeadFriendly'
p1181
sg739
F0
sg740
F3
sg741
(lp1182
g1
(g743
g3
NtRp1183
(dp1184
g746
S'revive'
p1185
sg748
S''
sg750
S''
sg752
F0.5
sg753
F0
sg754
F0
sg755
S'Revive'
p1186
sg757
S''
sbasg759
I1
sg760
F0
sg755
g1177
sg761
S'Revive'
p1187
sbsS'HUMANSHIELD'
p1188
g1
(g10
g3
NtRp1189
(dp1190
g729
F5
sg730
S'No further questions. Step back, please.'
p1191
sg732
I1
sg733
F5
sg734
F2
sg735
S'Wit'
p1192
sg737
S'AllEnemy'
p1193
sg739
F2
sg740
F4
sg741
(lp1194
g1000
asg759
I2
sg760
F12
sg755
g1188
sg761
S'Human Shield'
p1195
sbsS'MAKEDEMANDS'
p1196
g1
(g10
g3
NtRp1197
(dp1198
g729
F8
sg730
S'asdf'
p1199
sg732
I1
sg733
F0
sg734
F0
sg735
S'Cunning'
p1200
sg737
S'AllEnemy'
p1201
sg739
F0
sg740
I0
sg741
(lp1202
g778
asg759
I1
sg760
F0
sg755
g1196
sg761
S'Make Outrageous Demands'
p1203
sbsS'DEFENSE'
p1204
g1
(g10
g3
NtRp1205
(dp1206
g729
F0
sg730
S'Gather strenth; -50% to all incoming attacks'
p1207
sg732
I1
sg733
F0
sg734
F0
sg735
S''
sg737
S'None'
p1208
sg739
F0
sg740
I0
sg741
(lp1209
g1
(g743
g3
NtRp1210
(dp1211
g746
S'add'
p1212
sg748
S'(DFND)'
p1213
sg750
S'resistance'
p1214
sg752
F0.5
sg753
F1
sg754
F1
sg755
S'Defense'
p1215
sg757
S'TRUE'
p1216
sbasg759
I1
sg760
F0
sg755
g1204
sg761
S'Defense'
p1217
sbsS'MISCONSTRUE'
p1218
g1
(g10
g3
NtRp1219
(dp1220
g729
F8
sg730
S'asdf'
p1221
sg732
I1
sg733
F0
sg734
F0
sg735
S'Cunning'
p1222
sg737
S'AllEnemy'
p1223
sg739
F0
sg740
I0
sg741
(lp1224
g778
asg759
I1
sg760
F0
sg755
g1218
sg761
S'Misconstrue'
p1225
sbsS'NATIONALSECURITY'
p1226
g1
(g10
g3
NtRp1227
(dp1228
g729
F7
sg730
S"This is a matter of national security and they don't have codeword clearance"
p1229
sg732
I1
sg733
F10
sg734
F2
sg735
S'Cunning'
p1230
sg737
S'AllEnemy'
p1231
sg739
F2
sg740
I0
sg741
(lp1232
sg759
I1
sg760
F9
sg755
g1226
sg761
S'National Security'
p1233
sbsS'RALLY'
p1234
g1
(g10
g3
NtRp1235
(dp1236
g729
F-2
sg730
S'Get back some votes by rallying supporters'
p1237
sg732
F5
sg733
F0
sg734
F0
sg735
S'Wit'
p1238
sg737
S'AllFriendly'
p1239
sg739
F-4
sg740
F2
sg741
(lp1240
g936
asg759
I1
sg760
F0
sg755
g1234
sg761
S'Rally Constituents'
p1241
sbsS'MESSAGE'
p1242
g1
(g10
g3
NtRp1243
(dp1244
g729
F5
sg730
S'You can certainly wear them down by repeating your party line over and over and over...if you want'
p1245
sg732
F6
sg733
F10
sg734
F2
sg735
S'Wit'
p1246
sg737
S'AllEnemy'
p1247
sg739
F2
sg740
I0
sg741
(lp1248
sg759
I1
sg760
F8
sg755
g1242
sg761
S'Stay On Message'
p1249
sbsS'APPEALTOGOD'
p1250
g1
(g10
g3
NtRp1251
(dp1252
g729
F6
sg730
S'asdf'
p1253
sg732
F3
sg733
F0
sg734
F0
sg735
S'Wit'
p1254
sg737
S'AllEnemy'
p1255
sg739
F4
sg740
F7
sg741
(lp1256
sg759
I4
sg760
F0
sg755
g1250
sg761
S'Appeal To God'
p1257
sbssS'levels'
p1258
(lp1259
g1
(g10
g3
NtRp1260
(dp1261
S'votes'
p1262
F10
sS'level'
p1263
F1
sS'spin'
p1264
F5
sS'xp'
p1265
F0
sS'skill_points'
p1266
F0
sbag1
(g10
g3
NtRp1267
(dp1268
g1262
F12
sg1263
F2
sg1264
F5
sg1265
F100
sg1266
F2
sbag1
(g10
g3
NtRp1269
(dp1270
g1262
F15
sg1263
F3
sg1264
F6
sg1265
F200
sg1266
F2
sbag1
(g10
g3
NtRp1271
(dp1272
g1262
F20
sg1263
F4
sg1264
F6
sg1265
F500
sg1266
F2
sbag1
(g10
g3
NtRp1273
(dp1274
g1262
F25
sg1263
F5
sg1264
F7
sg1265
F1000
sg1266
F2
sbag1
(g10
g3
NtRp1275
(dp1276
g1262
F30
sg1263
F6
sg1264
F7
sg1265
F2000
sg1266
F2
sbag1
(g10
g3
NtRp1277
(dp1278
g1262
F35
sg1263
F7
sg1264
F8
sg1265
F5000
sg1266
F2
sbag1
(g10
g3
NtRp1279
(dp1280
g1262
F40
sg1263
F8
sg1264
F8
sg1265
F10000
sg1266
F2
sbag1
(g10
g3
NtRp1281
(dp1282
g1262
F45
sg1263
F9
sg1264
F9
sg1265
F15000
sg1266
F2
sbag1
(g10
g3
NtRp1283
(dp1284
g1262
F50
sg1263
F10
sg1264
F9
sg1265
F20000
sg1266
F2
sbag1
(g10
g3
NtRp1285
(dp1286
g1262
F55
sg1263
F11
sg1264
F10
sg1265
F40000
sg1266
F2
sbag1
(g10
g3
NtRp1287
(dp1288
g1262
S''
sg1263
F12
sg1264
S''
sg1265
S''
sg1266
S''
sbag1
(g10
g3
NtRp1289
(dp1290
g1262
S''
sg1263
F13
sg1264
S''
sg1265
S''
sg1266
S''
sbag1
(g10
g3
NtRp1291
(dp1292
g1262
S''
sg1263
F14
sg1264
S''
sg1265
S''
sg1266
S''
sbag1
(g10
g3
NtRp1293
(dp1294
g1262
S''
sg1263
F15
sg1264
S''
sg1265
S''
sg1266
S''
sbag1
(g10
g3
NtRp1295
(dp1296
g1262
S''
sg1263
F16
sg1264
S''
sg1265
S''
sg1266
S''
sbag1
(g10
g3
NtRp1297
(dp1298
g1262
S''
sg1263
F17
sg1264
S''
sg1265
S''
sg1266
S''
sbag1
(g10
g3
NtRp1299
(dp1300
g1262
S''
sg1263
F18
sg1264
S''
sg1265
S''
sg1266
S''
sbag1
(g10
g3
NtRp1301
(dp1302
g1262
S''
sg1263
F19
sg1264
S''
sg1265
S''
sg1266
S''
sbag1
(g10
g3
NtRp1303
(dp1304
g1262
S''
sg1263
F20
sg1264
S''
sg1265
S''
sg1266
S''
sbag1
(g10
g3
NtRp1305
(dp1306
g1262
S''
sg1263
F21
sg1264
S''
sg1265
S''
sg1266
S''
sbag1
(g10
g3
NtRp1307
(dp1308
g1262
S''
sg1263
F22
sg1264
S''
sg1265
S''
sg1266
S''
sbag1
(g10
g3
NtRp1309
(dp1310
g1262
S''
sg1263
F23
sg1264
S''
sg1265
S''
sg1266
S''
sbag1
(g10
g3
NtRp1311
(dp1312
g1262
S''
sg1263
F24
sg1264
S''
sg1265
S''
sg1266
S''
sbag1
(g10
g3
NtRp1313
(dp1314
g1262
S''
sg1263
F25
sg1264
S''
sg1265
S''
sg1266
S''
sbag1
(g10
g3
NtRp1315
(dp1316
g1262
S''
sg1263
F26
sg1264
S''
sg1265
S''
sg1266
S''
sbag1
(g10
g3
NtRp1317
(dp1318
g1262
S''
sg1263
F27
sg1264
S''
sg1265
S''
sg1266
S''
sbag1
(g10
g3
NtRp1319
(dp1320
g1262
S''
sg1263
F28
sg1264
S''
sg1265
S''
sg1266
S''
sbag1
(g10
g3
NtRp1321
(dp1322
g1262
S''
sg1263
F29
sg1264
S''
sg1265
S''
sg1266
S''
sbasg741
(dp1323
g756
g744
sg851
g847
sg926
g922
sg1142
g1137
sg1004
g1000
sg940
g936
sg966
g962
sg1120
g1116
sg1186
g1183
sg906
g901
sg954
g949
sg1215
g1210
sg782
g778
sg797
g792
ssS'characters'
p1324
(dp1325
S'Teacher001'
p1326
(lp1327
g1
(g10
g3
NtRp1328
(dp1329
S'flair_base'
p1330
F1
sS'spin_base'
p1331
F4
sS'flair_lvl'
p1332
F1.1499999999999999
sS'wit_base'
p1333
F1
sS'resistance'
p1334
(lp1335
sS'wit_lvl'
p1336
F1.0900000000000001
sS'cunning_base'
p1337
F1
sg755
g1326
sS'votes_base'
p1338
F10
sS'speed_lvl'
p1339
F1.0800000000000001
sS'standard_attacks'
p1340
(lp1341
g1205
ag970
asS'cunning_lvl'
p1342
F1.1000000000000001
sS'charisma_lvl'
p1343
F1.1499999999999999
sS'spin_attacks'
p1344
(lp1345
g1055
ag1235
asS'spin_lvl'
p1346
F1.0800000000000001
sS'charisma_base'
p1347
F1
sS'weaknesses'
p1348
(lp1349
sS'attack_group'
p1350
S'Teacher'
p1351
sS'votes_lvl'
p1352
F1.2
sg761
S'Teacher'
p1353
sS'speed_base'
p1354
F1
sS'immunities'
p1355
(lp1356
sbasS'Politician001'
p1357
(lp1358
g1
(g10
g3
NtRp1359
(dp1360
g1330
F1
sg1331
F4
sg1332
F1.1499999999999999
sg1333
F1
sg1334
(lp1361
g772
asg1336
F1.0900000000000001
sg1337
F1
sg755
g1357
sg1338
F10
sg1339
F1.0800000000000001
sg1340
(lp1362
g1243
ag1063
ag772
ag1162
ag1205
asg1342
F1.1000000000000001
sg1343
F1.1499999999999999
sg1344
(lp1363
g1094
ag887
ag1178
asg1346
F1.0800000000000001
sg1347
F1
sg1348
(lp1364
g855
asg1350
S'Politician'
p1365
sg1352
F1.2
sg761
S'Politician'
p1366
sg1354
F1
sg1355
(lp1367
g1146
asbasS'SecretAgent'
p1368
(lp1369
g1
(g10
g3
NtRp1370
(dp1371
g1330
F1
sg1331
F4
sg1332
F1.1499999999999999
sg1333
F1
sg1334
(lp1372
sg1336
F1.0900000000000001
sg1337
F1
sg755
g1368
sg1338
F18
sg1339
F1.0800000000000001
sg1340
(lp1373
g1205
ag1227
ag1031
asg1342
F1.1000000000000001
sg1343
F1.1499999999999999
sg1344
(lp1374
g1189
ag1007
asg1346
F1.0800000000000001
sg1347
F1
sg1348
(lp1375
sg1350
S'SecretAgent'
p1376
sg1352
F1.2
sg761
S'Agent Kawalski'
p1377
sg1354
F1
sg1355
(lp1378
sbasS'Bumpkin001'
p1379
(lp1380
g1
(g10
g3
NtRp1381
(dp1382
g1330
F1
sg1331
F4
sg1332
F1.1499999999999999
sg1333
F1
sg1334
(lp1383
sg1336
F1.0900000000000001
sg1337
F1
sg755
g1379
sg1338
F10
sg1339
F1.0800000000000001
sg1340
(lp1384
g1162
ag909
asg1342
F1.1000000000000001
sg1343
F1.1499999999999999
sg1344
(lp1385
g871
ag978
asg1346
F1.0800000000000001
sg1347
F1
sg1348
(lp1386
g772
ag1063
ag1102
asg1350
S'Bumpkin'
p1387
sg1352
F1.2
sg761
S'Bumpkin'
p1388
sg1354
F1
sg1355
(lp1389
sbasS'WarVet001'
p1390
(lp1391
g1
(g10
g3
NtRp1392
(dp1393
g1330
F1
sg1331
F4
sg1332
F1.1499999999999999
sg1333
F1
sg1334
(lp1394
sg1336
F1.0900000000000001
sg1337
F1
sg755
g1390
sg1338
F10
sg1339
F1.0800000000000001
sg1340
(lp1395
g1197
ag1205
asg1342
F1.1000000000000001
sg1343
F1.1499999999999999
sg1344
(lp1396
g1154
ag1235
asg1346
F1.0800000000000001
sg1347
F1
sg1348
(lp1397
sg1350
S'WarVet'
p1398
sg1352
F1.2
sg761
S'War Veteran'
p1399
sg1354
F1
sg1355
(lp1400
sbasS'Receptionist001'
p1401
(lp1402
g1
(g10
g3
NtRp1403
(dp1404
g1330
F1
sg1331
F4
sg1332
F1.1499999999999999
sg1333
F1
sg1334
(lp1405
sg1336
F1.0900000000000001
sg1337
F1
sg755
g1401
sg1338
F10
sg1339
F1.0800000000000001
sg1340
(lp1406
g1123
ag1071
asg1342
F1.1000000000000001
sg1343
F1.1499999999999999
sg1344
(lp1407
g1079
ag841
asg1346
F1.0800000000000001
sg1347
F1
sg1348
(lp1408
sg1350
S'Receptionist'
p1409
sg1352
F1.2
sg761
S'Receptionist'
p1410
sg1354
F1
sg1355
(lp1411
sbasS'DeepThroat'
p1412
(lp1413
g1
(g10
g3
NtRp1414
(dp1415
g1330
F1
sg1331
F4
sg1332
F1.1499999999999999
sg1333
F1
sg1334
(lp1416
sg1336
F1.0900000000000001
sg1337
F1
sg755
g1412
sg1338
F10
sg1339
F1.0800000000000001
sg1340
(lp1417
g1063
ag1205
ag1197
asg1342
F1.1000000000000001
sg1343
F1.1499999999999999
sg1344
(lp1418
g943
asg1346
F1.0800000000000001
sg1347
F1
sg1348
(lp1419
sg1350
S'DeepThroat'
p1420
sg1352
F1.2
sg761
S'Deep Throat'
p1421
sg1354
F1
sg1355
(lp1422
sbasS'Leo'
p1423
(lp1424
g1
(g10
g3
NtRp1425
(dp1426
g1330
F1
sg1331
F4
sg1332
F1.1499999999999999
sg1333
F1
sg1334
(lp1427
sg1336
F1.0900000000000001
sg1337
F1
sg755
g1423
sg1338
F14
sg1339
F1.0800000000000001
sg1340
(lp1428
g1243
ag1063
ag772
ag1162
ag855
asg1342
F1.1000000000000001
sg1343
F1.1499999999999999
sg1344
(lp1429
g1094
ag887
ag1146
ag994
asg1346
F1.0800000000000001
sg1347
F1
sg1348
(lp1430
sg1350
S'Theo'
p1431
sg1352
F1.2
sg761
S'Theo'
p1432
sg1354
F1
sg1355
(lp1433
sbasS'HippyGirl001'
p1434
(lp1435
g1
(g10
g3
NtRp1436
(dp1437
g1330
F1
sg1331
F4
sg1332
F1.1499999999999999
sg1333
F1
sg1334
(lp1438
sg1336
F1.0900000000000001
sg1337
F1
sg755
g1434
sg1338
F10
sg1339
F1.0800000000000001
sg1340
(lp1439
g863
ag970
ag1015
asg1342
F1.1000000000000001
sg1343
F1.1499999999999999
sg1344
(lp1440
g1039
ag1235
ag1178
asg1346
F1.0800000000000001
sg1347
F1
sg1348
(lp1441
g1162
asg1350
S'Hippy'
p1442
sg1352
F1.2
sg761
S'Hippy Girl'
p1443
sg1354
F1
sg1355
(lp1444
sbasS'President'
p1445
(lp1446
g1
(g10
g3
NtRp1447
(dp1448
g1330
F1
sg1331
F4
sg1332
F1.1499999999999999
sg1333
F1
sg1334
(lp1449
sg1336
F1.0900000000000001
sg1337
F1
sg755
g1445
sg1338
F10
sg1339
F1.0800000000000001
sg1340
(lp1450
g1243
ag1063
ag772
ag1162
ag1205
asg1342
F1.1000000000000001
sg1343
F1.1499999999999999
sg1344
(lp1451
g1094
ag887
ag1178
asg1346
F1.0800000000000001
sg1347
F1
sg1348
(lp1452
sg1350
S'Politician'
p1453
sg1352
F1.2
sg761
S'President Allen'
p1454
sg1354
F1
sg1355
(lp1455
sbasS'Unionist001'
p1456
(lp1457
g1
(g10
g3
NtRp1458
(dp1459
g1330
F1
sg1331
F4
sg1332
F1.1499999999999999
sg1333
F1
sg1334
(lp1460
sg1336
F1.0900000000000001
sg1337
F1
sg755
g1456
sg1338
F10
sg1339
F1.0800000000000001
sg1340
(lp1461
g1197
ag1205
ag970
asg1342
F1.1000000000000001
sg1343
F1.1499999999999999
sg1344
(lp1462
g1055
asg1346
F1.0800000000000001
sg1347
F1
sg1348
(lp1463
sg1350
S'Unionist'
p1464
sg1352
F1.2
sg761
S'Unionist'
p1465
sg1354
F1
sg1355
(lp1466
sbasS'Wife'
p1467
(lp1468
g1
(g10
g3
NtRp1469
(dp1470
g1330
F1
sg1331
F4
sg1332
F1.1499999999999999
sg1333
F1
sg1334
(lp1471
sg1336
F1.0900000000000001
sg1337
F1
sg755
g1467
sg1338
F12
sg1339
F1.0800000000000001
sg1340
(lp1472
g1205
ag1243
asg1342
F1.1000000000000001
sg1343
F1.1499999999999999
sg1344
(lp1473
g1235
ag1178
ag895
asg1346
F1.0800000000000001
sg1347
F1
sg1348
(lp1474
sg1350
S'Wife'
p1475
sg1352
F1.2
sg761
S'Sarah Mossman'
p1476
sg1354
F1
sg1355
(lp1477
sbasS'PresidentAlien'
p1478
(lp1479
g1
(g10
g3
NtRp1480
(dp1481
g1330
F1
sg1331
F4
sg1332
F1.1499999999999999
sg1333
F1
sg1334
(lp1482
sg1336
F1.0900000000000001
sg1337
F1
sg755
g1478
sg1338
F10
sg1339
F1.0800000000000001
sg1340
(lp1483
g1243
ag1063
ag772
ag1162
ag1205
asg1342
F1.1000000000000001
sg1343
F1.1499999999999999
sg1344
(lp1484
g1094
ag887
ag1178
asg1346
F1.0800000000000001
sg1347
F1
sg1348
(lp1485
sg1350
S'Politician'
p1486
sg1352
F1.2
sg761
S'President Alien'
p1487
sg1354
F1
sg1355
(lp1488
sbasS'Governor'
p1489
(lp1490
g1
(g10
g3
NtRp1491
(dp1492
g1330
F1
sg1331
F4
sg1332
F1.1499999999999999
sg1333
F1
sg1334
(lp1493
sg1336
F1.0900000000000001
sg1337
F1
sg755
g1489
sg1338
F10
sg1339
F1.0800000000000001
sg1340
(lp1494
g1243
ag1063
ag772
ag1162
ag1205
asg1342
F1.1000000000000001
sg1343
F1.1499999999999999
sg1344
(lp1495
g1094
ag887
ag1178
asg1346
F1.0800000000000001
sg1347
F1
sg1348
(lp1496
sg1350
S'Politician'
p1497
sg1352
F1.2
sg761
g1489
sg1354
F1
sg1355
(lp1498
sbasS'Lobbyist001'
p1499
(lp1500
g1
(g10
g3
NtRp1501
(dp1502
g1330
F1
sg1331
F4
sg1332
F1.1499999999999999
sg1333
F1
sg1334
(lp1503
sg1336
F1.0900000000000001
sg1337
F1
sg755
g1499
sg1338
F10
sg1339
F1.0800000000000001
sg1340
(lp1504
g986
ag1197
asg1342
F1.1000000000000001
sg1343
F1.1499999999999999
sg1344
(lp1505
g1110
ag943
asg1346
F1.0800000000000001
sg1347
F1
sg1348
(lp1506
g1146
asg1350
S'Lobbyist'
p1507
sg1352
F1.2
sg761
S'Lobbyist'
p1508
sg1354
F1
sg1355
(lp1509
g855
asbasS'Journalist001'
p1510
(lp1511
g1
(g10
g3
NtRp1512
(dp1513
g1330
F1
sg1331
F4
sg1332
F1.1499999999999999
sg1333
F1
sg1334
(lp1514
sg1336
F1.0900000000000001
sg1337
F1
sg755
g1510
sg1338
F10
sg1339
F1.0800000000000001
sg1340
(lp1515
g825
ag1219
asg1342
F1.1000000000000001
sg1343
F1.1499999999999999
sg1344
(lp1516
g1023
ag727
ag801
asg1346
F1.0800000000000001
sg1347
F1
sg1348
(lp1517
sg1350
S'Journalist'
p1518
sg1352
F1.2
sg761
S'Journalist'
p1519
sg1354
F1
sg1355
(lp1520
sbasS'ReligiousNut001'
p1521
(lp1522
g1
(g10
g3
NtRp1523
(dp1524
g1330
F1
sg1331
F4
sg1332
F1.1499999999999999
sg1333
F1
sg1334
(lp1525
sg1336
F1.0900000000000001
sg1337
F1
sg755
g1521
sg1338
F10
sg1339
F1.0800000000000001
sg1340
(lp1526
g809
ag1170
ag1205
asg1342
F1.1000000000000001
sg1343
F1.1499999999999999
sg1344
(lp1527
g1251
ag930
asg1346
F1.0800000000000001
sg1347
F1
sg1348
(lp1528
sg1350
S'Religious'
p1529
sg1352
F1.2
sg761
S'Religious Nut'
p1530
sg1354
F1
sg1355
(lp1531
g1162
asbasS'JointChief001'
p1532
(lp1533
g1
(g10
g3
NtRp1534
(dp1535
g1330
F1
sg1331
F4
sg1332
F1.1499999999999999
sg1333
F1
sg1334
(lp1536
sg1336
F1.0900000000000001
sg1337
F1
sg755
g1532
sg1338
F10
sg1339
F1.0800000000000001
sg1340
(lp1537
g1197
ag1205
ag1227
ag879
asg1342
F1.1000000000000001
sg1343
F1.1499999999999999
sg1344
(lp1538
g1007
asg1346
F1.0800000000000001
sg1347
F1
sg1348
(lp1539
sg1350
S'JointChief'
p1540
sg1352
F1.2
sg761
S'Joint Chief'
p1541
sg1354
F1
sg1355
(lp1542
sbasS'Protester001'
p1543
(lp1544
g1
(g10
g3
NtRp1545
(dp1546
g1330
F1
sg1331
F4
sg1332
F1.1499999999999999
sg1333
F1
sg1334
(lp1547
sg1336
F1.0900000000000001
sg1337
F1
sg755
g1543
sg1338
F10
sg1339
F1.0800000000000001
sg1340
(lp1548
g970
asg1342
F1.1000000000000001
sg1343
F1.1499999999999999
sg1344
(lp1549
g1235
asg1346
F1.0800000000000001
sg1347
F1
sg1348
(lp1550
sg1350
S'Protestor'
p1551
sg1352
F1.2
sg761
S'Protester'
p1552
sg1354
F1
sg1355
(lp1553
sbasS'TVPersonality001'
p1554
(lp1555
g1
(g10
g3
NtRp1556
(dp1557
g1330
F1
sg1331
F4
sg1332
F1.1499999999999999
sg1333
F1
sg1334
(lp1558
sg1336
F1.0900000000000001
sg1337
F1
sg755
g1554
sg1338
F10
sg1339
F1.0800000000000001
sg1340
(lp1559
g1162
ag825
asg1342
F1.1000000000000001
sg1343
F1.1499999999999999
sg1344
(lp1560
g801
ag786
asg1346
F1.0800000000000001
sg1347
F1
sg1348
(lp1561
sg1350
S'TVPersonality'
p1562
sg1352
F1.2
sg761
S"Hecules O'Grady"
p1563
sg1354
F1
sg1355
(lp1564
sbasS'Player'
p1565
(lp1566
g1
(g10
g3
NtRp1567
(dp1568
g1330
F1
sg1331
F5
sg1332
F1.1499999999999999
sg1333
F1
sg1334
(lp1569
sg1336
F1.0900000000000001
sg1337
F1
sg755
g1565
sg1338
F15
sg1339
F1.0800000000000001
sg1340
(lp1570
g855
ag1243
ag772
ag1162
asg1342
F1.1000000000000001
sg1343
F1.1499999999999999
sg1344
(lp1571
g1094
ag887
ag1235
asg1346
F1.0800000000000001
sg1347
F1
sg1348
(lp1572
sg1350
S'Player'
p1573
sg1352
F1.2
sg761
S'Phillip Mossman'
p1574
sg1354
F2
sg1355
(lp1575
sbasS'Computer'
p1576
(lp1577
g1
(g10
g3
NtRp1578
(dp1579
g1330
F1
sg1331
F4
sg1332
F1.1499999999999999
sg1333
F1
sg1334
(lp1580
sg1336
F1.0900000000000001
sg1337
F1
sg755
g1576
sg1338
F10
sg1339
F1.0800000000000001
sg1340
(lp1581
g1243
ag1063
ag772
ag1162
ag1205
asg1342
F1.1000000000000001
sg1343
F1.1499999999999999
sg1344
(lp1582
g1094
ag887
ag1178
asg1346
F1.0800000000000001
sg1347
F1
sg1348
(lp1583
sg1350
S'Politician'
p1584
sg1352
F1.2
sg761
S'N.O.T.B.A.D'
p1585
sg1354
F1
sg1355
(lp1586
sbasS'CabinetPolitician001'
p1587
(lp1588
g1
(g10
g3
NtRp1589
(dp1590
g1330
F1
sg1331
F4
sg1332
F1.1499999999999999
sg1333
F1
sg1334
(lp1591
sg1336
F1.0900000000000001
sg1337
F1
sg755
g1587
sg1338
F10
sg1339
F1.0800000000000001
sg1340
(lp1592
g1243
ag1063
ag772
ag1162
ag1205
asg1342
F1.1000000000000001
sg1343
F1.1499999999999999
sg1344
(lp1593
g1094
ag887
ag1178
asg1346
F1.0800000000000001
sg1347
F1
sg1348
(lp1594
sg1350
S'Politician'
p1595
sg1352
F1.2
sg761
S'Cabinet Politician'
p1596
sg1354
F1
sg1355
(lp1597
sbasS'Constituent001'
p1598
(lp1599
g1
(g10
g3
NtRp1600
(dp1601
g1330
F1
sg1331
F4
sg1332
F1.1499999999999999
sg1333
F1
sg1334
(lp1602
sg1336
F1.0900000000000001
sg1337
F1
sg755
g1598
sg1338
F10
sg1339
F1.0800000000000001
sg1340
(lp1603
g970
ag986
ag1197
asg1342
F1.1000000000000001
sg1343
F1.1499999999999999
sg1344
(lp1604
g1178
asg1346
F1.0800000000000001
sg1347
F1
sg1348
(lp1605
sg1350
S'Constituent'
p1606
sg1352
F1.2
sg761
S'Constituent'
p1607
sg1354
F1
sg1355
(lp1608
sbasS'Mayor'
p1609
(lp1610
g1
(g10
g3
NtRp1611
(dp1612
g1330
F1
sg1331
F4
sg1332
F1.1499999999999999
sg1333
F1
sg1334
(lp1613
sg1336
F1.0900000000000001
sg1337
F1
sg755
g1609
sg1338
F10
sg1339
F1.0800000000000001
sg1340
(lp1614
g1243
ag1063
ag772
ag1162
ag1205
asg1342
F1.1000000000000001
sg1343
F1.1499999999999999
sg1344
(lp1615
g1094
ag887
ag1178
asg1346
F1.0800000000000001
sg1347
F1
sg1348
(lp1616
sg1350
S'Politician'
p1617
sg1352
F1.2
sg761
S'Mayor Goodman'
p1618
sg1354
F1
sg1355
(lp1619
sbassS'quest_items'
p1620
(dp1621
S'PEN'
p1622
g1
(g10
g3
NtRp1623
(dp1624
g730
S'Hairy.'
p1625
sg755
g1622
sg761
S'A pen'
p1626
sbsS'BILLOFRIGHTS'
p1627
g1
(g10
g3
NtRp1628
(dp1629
g730
S''
sg755
g1627
sg761
S"Citizens' Bill of Rights"
p1630
sbssg1340
(dp1631
S'Theo'
p1632
(lp1633
g1243
ag1063
ag772
ag1162
ag855
ag1094
ag887
ag1146
ag994
asS'JointChief'
p1634
(lp1635
g1197
ag1205
ag1227
ag1007
ag879
asS'Politician'
p1636
(lp1637
g1243
ag1063
ag772
ag1162
ag1094
ag887
ag1178
ag1205
asS'Bumpkin'
p1638
(lp1639
g1162
ag871
ag978
ag909
asS'TVPersonality'
p1640
(lp1641
g1162
ag801
ag825
ag786
asS'SecretAgent'
p1642
(lp1643
g1205
ag1189
ag1227
ag1007
ag1031
asS'DeepThroat'
p1644
(lp1645
g1063
ag1205
ag943
ag1197
asS'Protestor'
p1646
(lp1647
g1235
ag970
asS'Lobbyist'
p1648
(lp1649
g986
ag1110
ag943
ag1197
asS'Teacher'
p1650
(lp1651
g1055
ag1205
ag970
ag1235
asS'Player'
p1652
(lp1653
g855
ag1243
ag772
ag1162
ag1094
ag887
ag1235
asS'Computer'
p1654
(lp1655
g1007
ag1227
ag833
ag943
ag1197
ag1063
asS'Receptionist'
p1656
(lp1657
g1123
ag1071
ag1079
ag841
asS'Hippy'
p1658
(lp1659
g863
ag970
ag1015
ag1039
ag1235
ag1178
asS'Constituent'
p1660
(lp1661
g970
ag1178
ag986
ag1197
asS'Wife'
p1662
(lp1663
g1235
ag1178
ag1205
ag1243
ag895
asS'WarVet'
p1664
(lp1665
g1197
ag1205
ag1154
ag1235
asS'Religious'
p1666
(lp1667
g809
ag1251
ag930
ag1170
ag1205
asS'Unionist'
p1668
(lp1669
g1197
ag1205
ag970
ag1055
asS'Journalist'
p1670
(lp1671
g825
ag1219
ag1023
ag727
ag801
assS'shops'
p1672
(dp1673
S'Shop1'
p1674
(lp1675
g1
(g10
g3
NtRp1676
(dp1677
S'price'
p1678
F20
sS'shop_id'
p1679
g1674
sS'item_attack'
p1680
g957
sbag1
(g10
g3
NtRp1681
(dp1682
g1678
F10
sg1679
S'Shop1'
p1683
sg1680
g917
sbag1
(g10
g3
NtRp1684
(dp1685
g1678
F30
sg1679
S'Shop1'
p1686
sg1680
g1047
sbassS'encounters'
p1687
(dp1688
S'P-easy-10'
p1689
g1
(g10
g3
NtRp1690
(dp1691
S'item_attack_drops'
p1692
(lp1693
sS'item_attacks'
p1694
(lp1695
sg761
S''
sg1265
F10
sS'monster2_lvl'
p1696
F1
sS'bribe_cost'
p1697
F109
sS'monster3'
p1698
S'Politician001'
p1699
sS'monster1_lvl'
p1700
F1
sS'monster3_lvl'
p1701
F1
sS'monster4_lvl'
p1702
S''
sS'monster4'
p1703
S''
sS'monster2'
p1704
S'Mayor'
p1705
sg755
g1689
sS'monster1'
p1706
S'Politician001'
p1707
sbsS'P-easy-05'
p1708
g1
(g10
g3
NtRp1709
(dp1710
g1692
(lp1711
g1
(c__main__
ItemAttack
p1712
g3
NtRp1713
(dp1714
S'attack'
p1715
g1047
sS'quantity'
p1716
I1
sbasg1694
(lp1717
sg761
S''
sg1265
F10
sg1696
S''
sg1697
F104
sg1698
S''
sg1700
F1
sg1701
S''
sg1702
S''
sg1703
S''
sg1704
S''
sg755
g1708
sg1706
S'Journalist001'
p1718
sbsS'P-easy-04'
p1719
g1
(g10
g3
NtRp1720
(dp1721
g1692
(lp1722
g1
(g1712
g3
NtRp1723
(dp1724
g1715
g917
sg1716
I1
sbasg1694
(lp1725
sg761
S''
sg1265
F10
sg1696
F1
sg1697
F103
sg1698
S'Protester001'
p1726
sg1700
F1
sg1701
F1
sg1702
S''
sg1703
S''
sg1704
S'Protester001'
p1727
sg755
g1719
sg1706
S'Protester001'
p1728
sbsS'P-easy-07'
p1729
g1
(g10
g3
NtRp1730
(dp1731
g1692
(lp1732
g1
(g1712
g3
NtRp1733
(dp1734
g1715
g917
sg1716
I1
sbasg1694
(lp1735
sg761
S''
sg1265
F10
sg1696
S''
sg1697
F106
sg1698
S''
sg1700
F1
sg1701
S''
sg1702
S''
sg1703
S''
sg1704
S''
sg755
g1729
sg1706
S'Constituent001'
p1736
sbsS'P-easy-06'
p1737
g1
(g10
g3
NtRp1738
(dp1739
g1692
(lp1740
g1
(g1712
g3
NtRp1741
(dp1742
g1715
g1178
sg1716
I1
sbasg1694
(lp1743
sg761
S''
sg1265
F10
sg1696
F1
sg1697
F105
sg1698
S''
sg1700
F1
sg1701
S''
sg1702
S''
sg1703
S''
sg1704
S'Lobbyist001'
p1744
sg755
g1737
sg1706
S'Lobbyist001'
p1745
sbsS'P-easy-01'
p1746
g1
(g10
g3
NtRp1747
(dp1748
g1692
(lp1749
g1
(g1712
g3
NtRp1750
(dp1751
g1715
g957
sg1716
I1
sbasg1694
(lp1752
g1
(g1712
g3
NtRp1753
(dp1754
g1715
g1047
sg1716
I1
sbasg761
S'The quest for pen'
p1755
sg1265
F10
sg1696
S''
sg1697
F100
sg1698
S''
sg1700
F1
sg1701
S''
sg1702
S''
sg1703
S''
sg1704
S''
sg755
g1746
sg1706
S'Receptionist001'
p1756
sbsS'P-easy-03'
p1757
g1
(g10
g3
NtRp1758
(dp1759
g1692
(lp1760
g1
(g1712
g3
NtRp1761
(dp1762
g1715
g957
sg1716
I1
sbasg1694
(lp1763
sg761
S''
sg1265
F10
sg1696
F1
sg1697
F102
sg1698
S''
sg1700
F1
sg1701
S''
sg1702
S''
sg1703
S''
sg1704
S'Protester001'
p1764
sg755
g1757
sg1706
S'Protester001'
p1765
sbsS'P-easy-02'
p1766
g1
(g10
g3
NtRp1767
(dp1768
g1692
(lp1769
sg1694
(lp1770
sg761
S''
sg1265
F10
sg1696
F1
sg1697
F101
sg1698
S''
sg1700
F1
sg1701
S''
sg1702
S''
sg1703
S''
sg1704
S'Protester001'
p1771
sg755
g1766
sg1706
S'Protester001'
p1772
sbsS'P-med-02'
p1773
g1
(g10
g3
NtRp1774
(dp1775
g1692
(lp1776
sg1694
(lp1777
sg761
S''
sg1265
F10
sg1696
F1
sg1697
F111
sg1698
S''
sg1700
F1
sg1701
S''
sg1702
S''
sg1703
S''
sg1704
S'Politician001'
p1778
sg755
g1773
sg1706
S'Politician001'
p1779
sbsS'P-med-01'
p1780
g1
(g10
g3
NtRp1781
(dp1782
g1692
(lp1783
sg1694
(lp1784
sg761
S''
sg1265
F10
sg1696
F1
sg1697
F110
sg1698
S''
sg1700
F1
sg1701
S''
sg1702
S''
sg1703
S''
sg1704
S'Politician001'
p1785
sg755
g1780
sg1706
S'Politician001'
p1786
sbsS'P-easy-09'
p1787
g1
(g10
g3
NtRp1788
(dp1789
g1692
(lp1790
g1
(g1712
g3
NtRp1791
(dp1792
g1715
g957
sg1716
I1
sbasg1694
(lp1793
sg761
S''
sg1265
F10
sg1696
F1
sg1697
F108
sg1698
S'Constituent001'
p1794
sg1700
F1
sg1701
F1
sg1702
S''
sg1703
S''
sg1704
S'Constituent001'
p1795
sg755
g1787
sg1706
S'Constituent001'
p1796
sbsS'P-easy-08'
p1797
g1
(g10
g3
NtRp1798
(dp1799
g1692
(lp1800
sg1694
(lp1801
sg761
S''
sg1265
F10
sg1696
F1
sg1697
F107
sg1698
S''
sg1700
F1
sg1701
S''
sg1702
S''
sg1703
S''
sg1704
S'Constituent001'
p1802
sg755
g1797
sg1706
S'Constituent001'
p1803
sbssb.