ccopy_reg
_reconstructor
p1
(c__main__
GameData
p2
c__builtin__
object
p3
NtRp4
(dp5
S'script'
p6
(dp7
S'_Act2'
p8
(lp9
g1
(c__main__
TableRow
p10
g3
NtRp11
(dp12
S'action'
p13
S'AddAlly'
p14
sS'trigger'
p15
g8
sS'param'
p16
S'Wife:1'
p17
sS'dialog'
p18
S''
sbag1
(g10
g3
NtRp19
(dp20
g13
S'GotoMap'
p21
sg15
S'_Act2'
p22
sg16
S'act2'
p23
sg18
S''
sbasS'Wife'
p24
(lp25
g1
(g10
g3
NtRp26
(dp27
g13
S'GotoMap'
p28
sg15
g24
sg16
S'act1'
p29
sg18
S''
sbag1
(g10
g3
NtRp30
(dp31
g13
S'_RequireFlag'
p32
sg15
S'Wife'
p33
sg16
S'GOHOMETOWIFE'
p34
sg18
S'What are you doing here, Phillip? You should be at work!'
p35
sbag1
(g10
g3
NtRp36
(dp37
g13
S'Say'
p38
sg15
S'Wife'
p39
sg16
S''
sg18
S'Welcome home, Phillip! How was your workday?'
p40
sbag1
(g10
g3
NtRp41
(dp42
g13
S'PlayerSay'
p43
sg15
S'Wife'
p44
sg16
S''
sg18
S'\xe2\x80\xa6'
p45
sbag1
(g10
g3
NtRp46
(dp47
g13
S'Say'
p48
sg15
S'Wife'
p49
sg16
S''
sg18
S"That good, huh? You know this isn't what you want. Why don't you strike out on your own?"
p50
sbag1
(g10
g3
NtRp51
(dp52
g13
S'PlayerSay'
p53
sg15
S'Wife'
p54
sg16
S''
sg18
S"I didn't think I knew where to start to be a Mayor, but Mayor Goodman makes it look easy."
p55
sbag1
(g10
g3
NtRp56
(dp57
g13
S'Say'
p58
sg15
S'Wife'
p59
sg16
S''
sg18
S"That's the spirit! You can do it! All you need is some money and support."
p60
sbag1
(g10
g3
NtRp61
(dp62
g13
S'PlayerSay'
p63
sg15
S'Wife'
p64
sg16
S''
sg18
S'Well...OK! Lets start with money. We need a sponsor.'
p65
sbag1
(g10
g3
NtRp66
(dp67
g13
S'Say'
p68
sg15
S'Wife'
p69
sg16
S''
sg18
S'OK, lets go get one!'
p70
sbag1
(g10
g3
NtRp71
(dp72
g13
S'AddAlly'
p73
sg15
S'Wife'
p74
sg16
S'Wife:1'
p75
sg18
S'Sarah Mossman Joins Your Political Party!'
p76
sbag1
(g10
g3
NtRp77
(dp78
g13
S'SetFlag'
p79
sg15
S'Wife'
p80
sg16
S'STARTSPONSOR'
p81
sg18
S''
sbag1
(g10
g3
NtRp82
(dp83
g13
S'Destroy'
p84
sg15
S'Wife'
p85
sg16
S''
sg18
S''
sbasS'Protester2'
p86
(lp87
g1
(g10
g3
NtRp88
(dp89
g13
S'Say'
p90
sg15
g86
sg16
S''
sg18
S"Bees buzz, Mayors lie, who's this Phillip Mossman guy?"
p91
sbag1
(g10
g3
NtRp92
(dp93
g13
S'RequireFlag'
p94
sg15
S'Protester2'
p95
sg16
S'PROTESTORS'
p96
sg18
S''
sbag1
(g10
g3
NtRp97
(dp98
g13
S'Encounter'
p99
sg15
S'Protester2'
p100
sg16
S'P-easy-03'
p101
sg18
S''
sbag1
(g10
g3
NtRp102
(dp103
g13
S'Destroy'
p104
sg15
S'Protester2'
p105
sg16
S''
sg18
S''
sbasS'Protester1'
p106
(lp107
g1
(g10
g3
NtRp108
(dp109
g13
S'Say'
p110
sg15
g106
sg16
S''
sg18
S"Fee Fi Fo Fum, we think Mayor Goodman's Dumb!"
p111
sbag1
(g10
g3
NtRp112
(dp113
g13
S'RequireFlag'
p114
sg15
S'Protester1'
p115
sg16
S'PROTESTORS'
p116
sg18
S''
sbag1
(g10
g3
NtRp117
(dp118
g13
S'Encounter'
p119
sg15
S'Protester1'
p120
sg16
S'P-easy-02'
p121
sg18
S''
sbag1
(g10
g3
NtRp122
(dp123
g13
S'Destroy'
p124
sg15
S'Protester1'
p125
sg16
S''
sg18
S''
sbasS'Head Protester'
p126
(lp127
g1
(g10
g3
NtRp128
(dp129
g13
S'Say'
p130
sg15
g126
sg16
S''
sg18
S"I am the head protester. You'll never convince us to back down!"
p131
sbag1
(g10
g3
NtRp132
(dp133
g13
S'RequireFlag'
p134
sg15
S'Head Protester'
p135
sg16
S'PROTESTORS'
p136
sg18
S''
sbag1
(g10
g3
NtRp137
(dp138
g13
S'PlayerSay'
p139
sg15
S'Head Protester'
p140
sg16
S''
sg18
S'What are you protesting?'
p141
sbag1
(g10
g3
NtRp142
(dp143
g13
S'Say'
p144
sg15
S'Head Protester'
p145
sg16
S''
sg18
S'Er...Injustice!'
p146
sbag1
(g10
g3
NtRp147
(dp148
g13
S'PlayerSay'
p149
sg15
S'Head Protester'
p150
sg16
S''
sg18
S'Injustice against what?'
p151
sbag1
(g10
g3
NtRp152
(dp153
g13
S'Say'
p154
sg15
S'Head Protester'
p155
sg16
S''
sg18
S'\xe2\x80\xa6'
p156
sbag1
(g10
g3
NtRp157
(dp158
g13
S'Say'
p159
sg15
S'Head Protester'
p160
sg16
S''
sg18
S'The People!'
p161
sbag1
(g10
g3
NtRp162
(dp163
g13
S'PlayerSay'
p164
sg15
S'Head Protester'
p165
sg16
S''
sg18
S'Yes, but which people?'
p166
sbag1
(g10
g3
NtRp167
(dp168
g13
S'Say'
p169
sg15
S'Head Protester'
p170
sg16
S''
sg18
S'See? What a fascist, ALL people you slimey politician scum!'
p171
sbag1
(g10
g3
NtRp172
(dp173
g13
S'Encounter'
p174
sg15
S'Head Protester'
p175
sg16
S'P-easy-04'
p176
sg18
S''
sbag1
(g10
g3
NtRp177
(dp178
g13
S'Say'
p179
sg15
S'Head Protester'
p180
sg16
S''
sg18
S"Alright, fine! We'll stop protesting...whatever we were protesting."
p181
sbag1
(g10
g3
NtRp182
(dp183
g13
S'SetFlag'
p184
sg15
S'Head Protester'
p185
sg16
S'PROTESTORSDEAD'
p186
sg18
S''
sbag1
(g10
g3
NtRp187
(dp188
g13
S'Destroy'
p189
sg15
S'Head Protester'
p190
sg16
S''
sg18
S''
sbasS'Journalist'
p191
(lp192
g1
(g10
g3
NtRp193
(dp194
g13
S'RequireFlag'
p195
sg15
g191
sg16
S'INTERVIEWSTART'
p196
sg18
S'Leave me alone, kid I need to get this done before my deadline!'
p197
sbag1
(g10
g3
NtRp198
(dp199
g13
S'Say'
p200
sg15
S'Journalist'
p201
sg16
S''
sg18
S"Hey, where's the Mayor?"
p202
sbag1
(g10
g3
NtRp203
(dp204
g13
S'PlayerSay'
p205
sg15
S'Journalist'
p206
sg16
S''
sg18
S"He couldn't make it. I'll be taking the interview."
p207
sbag1
(g10
g3
NtRp208
(dp209
g13
S'Say'
p210
sg15
S'Journalist'
p211
sg16
S''
sg18
S'Great! Easy pickings! Lets go.'
p212
sbag1
(g10
g3
NtRp213
(dp214
g13
S'Encounter'
p215
sg15
S'Journalist'
p216
sg16
S'P-easy-05'
p217
sg18
S''
sbag1
(g10
g3
NtRp218
(dp219
g13
S'Say'
p220
sg15
S'Journalist'
p221
sg16
S''
sg18
S"SNORE! Fine, if I can't get anything juicy here I'll do another puff piece on my poodle Frank."
p222
sbag1
(g10
g3
NtRp223
(dp224
g13
S'SetFlag'
p225
sg15
S'Journalist'
p226
sg16
S'JOURNALISTINTERVIEW'
p227
sg18
S''
sbag1
(g10
g3
NtRp228
(dp229
g13
S'Destroy'
p230
sg15
S'Journalist'
p231
sg16
S''
sg18
S''
sbasS'Sponsor'
p232
(lp233
g1
(g10
g3
NtRp234
(dp235
g13
S'RequireFlag'
p236
sg15
g232
sg16
S'STARTSPONSOR'
p237
sg18
S"Hmmm...Money, money, money. Sorry, what? I wasn't talking to you."
p238
sbag1
(g10
g3
NtRp239
(dp240
g13
S'Say'
p241
sg15
S'Sponsor'
p242
sg16
S''
sg18
S"Hello, I'm investigating new investments today. How can I help you?"
p243
sbag1
(g10
g3
NtRp244
(dp245
g13
S'PlayerSay'
p246
sg15
S'Sponsor'
p247
sg16
S''
sg18
S"Well, I've decided to run for Mayor! I could really use an investor."
p248
sbag1
(g10
g3
NtRp249
(dp250
g13
S'Say'
p251
sg15
S'Sponsor'
p252
sg16
S''
sg18
S"I don't know. You seem a little young. I don't think I'm convinced."
p253
sbag1
(g10
g3
NtRp254
(dp255
g13
S'Encounter'
p256
sg15
S'Sponsor'
p257
sg16
S'P-easy-06'
p258
sg18
S''
sbag1
(g10
g3
NtRp259
(dp260
g13
S'Say'
p261
sg15
S'Sponsor'
p262
sg16
S''
sg18
S"Wow! You sure have what it takes! Alright, he's a pile of cash!"
p263
sbag1
(g10
g3
NtRp264
(dp265
g13
S'Say'
p266
sg15
S'Sponsor'
p267
sg16
S''
sg18
S'Also, now that you have some funds, you might find it useful to...grease the wheels in some difficult situations.'
p268
sbag1
(g10
g3
NtRp269
(dp270
g13
S'LearnAttack'
p271
sg15
S'Sponsor'
p272
sg16
S'BRIBE'
p273
sg18
S'Phillip and Sarah learn to Bribe'
p274
sbag1
(g10
g3
NtRp275
(dp276
g13
S'LearnAttack'
p277
sg15
S'Sponsor'
p278
sg16
S'Wife:BRIBE'
p279
sg18
S''
sbag1
(g10
g3
NtRp280
(dp281
g13
S'SetFlag'
p282
sg15
S'Sponsor'
p283
sg16
S'STARTCONSTITUENTS'
p284
sg18
S''
sbag1
(g10
g3
NtRp285
(dp286
g13
S'PlayerSay'
p287
sg15
S'Sponsor'
p288
sg16
S''
sg18
S'Er, thanks! I suppose we should go gather some support from our constituents now.'
p289
sbag1
(g10
g3
NtRp290
(dp291
g13
S'Say'
p292
sg15
S'Sponsor'
p293
sg16
S''
sg18
S"Makes sense to me! I'm off, too. Money, money, money."
p294
sbag1
(g10
g3
NtRp295
(dp296
g13
S'Destroy'
p297
sg15
S'Sponsor'
p298
sg16
S''
sg18
S''
sbasS'Mayor'
p299
(lp300
g1
(g10
g3
NtRp301
(dp302
g13
S'Say'
p303
sg15
g299
sg16
S''
sg18
S"Hello, I'm the Mayor!"
p304
sbag1
(g10
g3
NtRp305
(dp306
g13
S'PlayerSay'
p307
sg15
S'Mayor'
p308
sg16
S''
sg18
S"Hello, Mayor Goodman, I'm Philip Mossman."
p309
sbag1
(g10
g3
NtRp310
(dp311
g13
S'Say'
p312
sg15
S'Mayor'
p313
sg16
S''
sg18
S"Ah yes, you're my new assistant. A good thing, too."
p314
sbag1
(g10
g3
NtRp315
(dp316
g13
S'Say'
p317
sg15
S'Mayor'
p318
sg16
S''
sg18
S"I've been searching for minutes and haven't been able to find my pen! I bet my receptionist stole it. She has sticky fingers."
p319
sbag1
(g10
g3
NtRp320
(dp321
g13
S'Say'
p322
sg15
S'Mayor'
p323
sg16
S''
sg18
S"Well, don't just stand there, go and get it!"
p324
sbag1
(g10
g3
NtRp325
(dp326
g13
S'SetFlag'
p327
sg15
S'Mayor'
p328
sg16
S'PENQUEST'
p329
sg18
S''
sbag1
(g10
g3
NtRp330
(dp331
g13
S'RequireItem'
p332
sg15
S'Mayor'
p333
sg16
S'PEN'
p334
sg18
S'Are you simple? Go and get my pen from that thieving receptionist.'
p335
sbag1
(g10
g3
NtRp336
(dp337
g13
S'Say'
p338
sg15
S'Mayor'
p339
sg16
S''
sg18
S"Great! I know she can give you a bit of a tongue-lashing, but she's a fantastic receptionist."
p340
sbag1
(g10
g3
NtRp341
(dp342
g13
S'Say'
p343
sg15
S'Mayor'
p344
sg16
S''
sg18
S"I'm sure you want to learn a thing or two about politics \xe2\x80\x93 who doesn't? - so lets get started"
p345
sbag1
(g10
g3
NtRp346
(dp347
g13
S'SetFlag'
p348
sg15
S'Mayor'
p349
sg16
S'PROTESTORS'
p350
sg18
S''
sbag1
(g10
g3
NtRp351
(dp352
g13
S'RequireFlag'
p353
sg15
S'Mayor'
p354
sg16
S'PROTESTORSDEAD'
p355
sg18
S'Run outside and tell those protesters to scram, will you?'
p356
sbag1
(g10
g3
NtRp357
(dp358
g13
S'Say'
p359
sg15
S'Mayor'
p360
sg16
S''
sg18
S"Hope they didn't give you too much trouble!"
p361
sbag1
(g10
g3
NtRp362
(dp363
g13
S'Say'
p364
sg15
S'Mayor'
p365
sg16
S''
sg18
S"Now that's sorted, there's a journalist from the local newspaper coming for an interview."
p366
sbag1
(g10
g3
NtRp367
(dp368
g13
S'Say'
p369
sg15
S'Mayor'
p370
sg16
S''
sg18
S"I certainly don't have time for it, so you can do the interview."
p371
sbag1
(g10
g3
NtRp372
(dp373
g13
S'Say'
p374
sg15
S'Mayor'
p375
sg16
S''
sg18
S"Be careful not to give too much away and if you could throw a few punches at the opposition that'd help."
p376
sbag1
(g10
g3
NtRp377
(dp378
g13
S'PlayerSay'
p379
sg15
S'Mayor'
p380
sg16
S''
sg18
S'You want me to...throw a punch?'
p381
sbag1
(g10
g3
NtRp382
(dp383
g13
S'Say'
p384
sg15
S'Mayor'
p385
sg16
S''
sg18
S"You're in politics and don't know how to fight dirty? Sheesh! Here, let me show you."
p386
sbag1
(g10
g3
NtRp387
(dp388
g13
S'LearnAttack'
p389
sg15
S'Mayor'
p390
sg16
S'SLANDER'
p391
sg18
S'Mayor teaches Phillip to Slander Opposition'
p392
sbag1
(g10
g3
NtRp393
(dp394
g13
S'Say'
p395
sg15
S'Mayor'
p396
sg16
S''
sg18
S"It's a pretty great tactic because it keeps eating away at them long after you've done it."
p397
sbag1
(g10
g3
NtRp398
(dp399
g13
S'SetFlag'
p400
sg15
S'Mayor'
p401
sg16
S'INTERVIEWSTART'
p402
sg18
S''
sbag1
(g10
g3
NtRp403
(dp404
g13
S'RequireFlag'
p405
sg15
S'Mayor'
p406
sg16
S'JOURNALISTINTERVIEW'
p407
sg18
S'Go handle that interview and remember to slander the opposition.'
p408
sbag1
(g10
g3
NtRp409
(dp410
g13
S'SetFlag'
p411
sg15
S'Mayor'
p412
sg16
S'GOHOMETOWIFE'
p413
sg18
S''
sbag1
(g10
g3
NtRp414
(dp415
g13
S'Say'
p416
sg15
S'Mayor'
p417
sg16
S''
sg18
S'OK, fine, now could you buzz off for a while? I need to get some work done.'
p418
sbag1
(g10
g3
NtRp419
(dp420
g13
S'RequireFlag'
p421
sg15
S'Mayor'
p422
sg16
S'CONSTITUENTSWON'
p423
sg18
S"Go home to your family. I have things to do that don't involve you."
p424
sbasS'Receptionist'
p425
(lp426
g1
(g10
g3
NtRp427
(dp428
g13
S'RequireFlag'
p429
sg15
g425
sg16
S'PENQUEST'
p430
sg18
S"You must be Mayor Goodman's new assistant. He's in his office."
p431
sbag1
(g10
g3
NtRp432
(dp433
g13
S'PlayerSay'
p434
sg15
S'Receptionist'
p435
sg16
S''
sg18
S"The Mayor is looking for his pen. He seemed to think you'd know where it was."
p436
sbag1
(g10
g3
NtRp437
(dp438
g13
S'Say'
p439
sg15
S'Receptionist'
p440
sg16
S''
sg18
S"Did that buffoon accuse me of stealing again? This is MY pen and he isn't having it."
p441
sbag1
(g10
g3
NtRp442
(dp443
g13
S'Encounter'
p444
sg15
S'Receptionist'
p445
sg16
S'P-easy-01'
p446
sg18
S''
sbag1
(g10
g3
NtRp447
(dp448
g13
S'GiveItem'
p449
sg15
S'Receptionist'
p450
sg16
S'PEN'
p451
sg18
S'Receptionist sighs and hands over the pen.'
p452
sbag1
(g10
g3
NtRp453
(dp454
g13
S'Destroy'
p455
sg15
S'Receptionist'
p456
sg16
S''
sg18
S''
sbassS'attacks'
p457
(dp458
S'GETEXCLUSIVE'
p459
g1
(g10
g3
NtRp460
(dp461
S'base_damage_max'
p462
F4
sS'description'
p463
S'asdf'
p464
sS'weight'
p465
I1
sS'crit_chance_max'
p466
F5
sS'crit_chance_min'
p467
F2
sS'underlying_stat'
p468
S'Wit'
p469
sS'target_type'
p470
S'AllFriendly'
p471
sS'base_damage_min'
p472
F2
sS'spin_cost'
p473
F5
sS'effects'
p474
(lp475
g1
(c__main__
Effect
p476
g3
NtRp477
(dp478
S'function'
p479
S'add'
p480
sS'abbrv'
p481
S'(INCREASE)'
p482
sS'attribute'
p483
S'cunning'
p484
sS'value'
p485
F2
sS'rounds_min'
p486
F1
sS'rounds_max'
p487
F4
sS'id'
p488
S'Increase Cunning'
p489
sS'apply_to_source'
p490
S'TRUE'
p491
sbasS'target_count'
p492
I1
sS'crit_base_damage'
p493
F8
sg488
g459
sS'name'
p494
S'Get Exclusive'
p495
sbsS'LOSELOSE'
p496
g1
(g10
g3
NtRp497
(dp498
g462
F4
sg463
S'Causes all politicians in the target radius to lose votes'
p499
sg465
I1
sg466
F0
sg467
F0
sg468
S'Cunning'
p500
sg470
S'All'
p501
sg472
F4
sg473
I0
sg474
(lp502
sg492
I6
sg493
F0
sg488
g496
sg494
S'Lose/lose issue'
p503
sbsS'LIE'
p504
g1
(g10
g3
NtRp505
(dp506
g462
F6
sg463
S"It's only lying if they catch you. A strong attack with a danger of failing entirely and leaving you high and dry."
p507
sg465
F3
sg466
F10
sg467
F2
sg468
S'Wit'
p508
sg470
S'AllEnemy'
p509
sg472
F0
sg473
I0
sg474
(lp510
g1
(g476
g3
NtRp511
(dp512
g479
S'miss_turn'
p513
sg481
S'(MISS)'
p514
sg483
S''
sg485
F0
sg486
F1
sg487
F1
sg488
S'Critical Fail'
p515
sg490
S'TRUE'
p516
sbasg492
I1
sg493
F10
sg488
g504
sg494
S'Lie'
p517
sbsS'HILARIOUSANECDOTE'
p518
g1
(g10
g3
NtRp519
(dp520
g462
F8
sg463
S'asdf'
p521
sg465
I1
sg466
F0
sg467
F0
sg468
S'Wit'
p522
sg470
S'AllFriendly'
p523
sg472
F4
sg473
F5
sg474
(lp524
g1
(g476
g3
NtRp525
(dp526
g479
S'add'
p527
sg481
S'(INCREASE)'
p528
sg483
S'flair'
p529
sg485
F2
sg486
F1
sg487
F4
sg488
S'Increase Flair'
p530
sg490
S'TRUE'
p531
sbasg492
I1
sg493
F0
sg488
g518
sg494
S'Hilarious Anecdote'
p532
sbsS'SENSATIONALISE'
p533
g1
(g10
g3
NtRp534
(dp535
g462
F8
sg463
S'asdf'
p536
sg465
I1
sg466
F0
sg467
F0
sg468
S'Wit'
p537
sg470
S'AllEnemy'
p538
sg472
F4
sg473
F3
sg474
(lp539
sg492
I1
sg493
F0
sg488
g533
sg494
S'Sensationalise'
p540
sbsS'DENOUNCE'
p541
g1
(g10
g3
NtRp542
(dp543
g462
F5
sg463
S'asdf'
p544
sg465
F6
sg466
F10
sg467
F2
sg468
S'Cunning'
p545
sg470
S'AllEnemy'
p546
sg472
F2
sg473
I0
sg474
(lp547
sg492
I1
sg493
F8
sg488
g541
sg494
S'Denounce'
p548
sbsS'WHADOWEWANT'
p549
g1
(g10
g3
NtRp550
(dp551
g462
F6
sg463
S'asdf'
p552
sg465
I1
sg466
F0
sg467
F0
sg468
S'Cunning'
p553
sg470
S'AllEnemy'
p554
sg472
F3
sg473
I0
sg474
(lp555
sg492
I1
sg493
F0
sg488
g549
sg494
S'Whadowewant!'
p556
sbsS'SCOOP'
p557
g1
(g10
g3
NtRp558
(dp559
g462
F5
sg463
S'asdf'
p560
sg465
I1
sg466
F10
sg467
F5
sg468
S'Cunning'
p561
sg470
S'AllEnemy'
p562
sg472
F2
sg473
I0
sg474
(lp563
sg492
I1
sg493
F8
sg488
g557
sg494
S'Scoop'
p564
sbsS'CHOOSETARGETS'
p565
g1
(g10
g3
NtRp566
(dp567
g462
F7
sg463
S'asdf'
p568
sg465
I1
sg466
F10
sg467
F5
sg468
S'Cunning'
p569
sg470
S'AllEnemy'
p570
sg472
F2
sg473
I0
sg474
(lp571
sg492
I1
sg493
F9
sg488
g565
sg494
S'Choose Targets'
p572
sbsS'FILENAILS'
p573
g1
(g10
g3
NtRp574
(dp575
g462
F0
sg463
S'asdf'
p576
sg465
I1
sg466
F0
sg467
F0
sg468
S'Wit'
p577
sg470
S'AllEnemy'
p578
sg472
F0
sg473
F3
sg474
(lp579
g1
(g476
g3
NtRp580
(dp581
g479
S'add_permanent'
p582
sg481
S''
sg483
S'votes'
p583
sg485
F5
sg486
F1
sg487
F1
sg488
S'Votes Restore'
p584
sg490
S'TRUE'
p585
sbasg492
I1
sg493
F0
sg488
g573
sg494
S'File Nails'
p586
sbsS'BRIBE'
p587
g1
(g10
g3
NtRp588
(dp589
g462
F1
sg463
S'Is there anything more convincing than money? Buying loyalty gets expensive so be careful.'
p590
sg465
I1
sg466
F1
sg467
F1
sg468
S'Money'
p591
sg470
S'AllEnemy'
p592
sg472
F2
sg473
I0
sg474
(lp593
sg492
I1
sg493
F1
sg488
g587
sg494
S'Bribe'
p594
sbsS'SING'
p595
g1
(g10
g3
NtRp596
(dp597
g462
F-3
sg463
S'Why bandy words with politicians when you can sing a catchy tune! Restores votes.'
p598
sg465
I1
sg466
F0
sg467
F0
sg468
S'Wit'
p599
sg470
S'AllFriendly'
p600
sg472
F-5
sg473
I0
sg474
(lp601
sg492
I4
sg493
F0
sg488
g595
sg494
S'Rousing Song'
p602
sbsS'FEAR'
p603
g1
(g10
g3
NtRp604
(dp605
g462
F0
sg463
S'asdf'
p606
sg465
F2
sg466
F0
sg467
F0
sg468
S'Wit'
p607
sg470
S'AllFriendly'
p608
sg472
F0
sg473
F4
sg474
(lp609
g477
asg492
I1
sg493
F0
sg488
g603
sg494
S'Fear Change'
p610
sbsS'RAISEDEFCON'
p611
g1
(g10
g3
NtRp612
(dp613
g462
F5
sg463
S'asdf'
p614
sg465
I1
sg466
F7
sg467
F3
sg468
S'Cunning'
p615
sg470
S'AllEnemy'
p616
sg472
F4
sg473
I0
sg474
(lp617
sg492
I1
sg493
F8
sg488
g611
sg494
S'Raise DEFCON'
p618
sbsS'NEGATTACKAD'
p619
g1
(g10
g3
NtRp620
(dp621
g462
F8
sg463
S"Take them all down. They're definitely all bad people. Not like you."
p622
sg465
I1
sg466
F10
sg467
F10
sg468
S'Cunning'
p623
sg470
S'AllEnemy'
p624
sg472
F3
sg473
F5
sg474
(lp625
sg492
I1
sg493
F10
sg488
g619
sg494
S'Negative Attack Ad'
p626
sbsS'DAZZLE'
p627
g1
(g10
g3
NtRp628
(dp629
g462
F3
sg463
S'Being dazzling and admirable is a great way to take heat off politics'
p630
sg465
I1
sg466
F8
sg467
F5
sg468
S'Wit'
p631
sg470
S'AllEnemy'
p632
sg472
F2
sg473
F3
sg474
(lp633
g1
(g476
g3
NtRp634
(dp635
g479
S'reduce'
p636
sg481
S'(REDUCE)'
p637
sg483
S'cunning'
p638
sg485
F2
sg486
F2
sg487
F5
sg488
S'Reduce Cunning'
p639
sg490
S''
sbasg492
I4
sg493
F8
sg488
g627
sg494
S'Dazzle'
p640
sbsS'BELIEVEMEDIA'
p641
g1
(g10
g3
NtRp642
(dp643
g462
F3
sg463
S'asdf'
p644
sg465
I1
sg466
F15
sg467
F5
sg468
S'Cunning'
p645
sg470
S'AllEnemy'
p646
sg472
F1
sg473
I0
sg474
(lp647
sg492
I1
sg493
F12
sg488
g641
sg494
S'Believe Media'
p648
sbsS'PRPREP'
p649
g1
(g10
g3
NtRp650
(dp651
g462
F0
sg463
S"If you're going to need some spin, best see a spin doctor! Adds spin points."
p652
sg465
I1
sg466
F0
sg467
F0
sg468
S''
sg470
S'AllFriendly'
p653
sg472
F0
sg473
I0
sg474
(lp654
g1
(g476
g3
NtRp655
(dp656
g479
S'add_permanent'
p657
sg481
S''
sg483
S'spin'
p658
sg485
F5
sg486
F0
sg487
F0
sg488
S'Spin Restore'
p659
sg490
S'TRUE'
p660
sbasg492
I1
sg493
F0
sg488
g649
sg494
S'PR Prep'
p661
sbsS'CALLVATICAN'
p662
g1
(g10
g3
NtRp663
(dp664
g462
F0
sg463
S'Brings in 2 additional ReligousNuts at 2 levels lower than this one'
p665
sg465
I1
sg466
F0
sg467
F0
sg468
S'Wit'
p666
sg470
S'None'
p667
sg472
F0
sg473
F5
sg474
(lp668
g1
(g476
g3
NtRp669
(dp670
g479
S'call_friends'
p671
sg481
S''
sg483
S''
sg485
F2
sg486
F1
sg487
F1
sg488
S'Call Friends'
p672
sg490
S''
sbasg492
I1
sg493
F0
sg488
g662
sg494
S'Call Vatican'
p673
sbsS'BLACKMAIL'
p674
g1
(g10
g3
NtRp675
(dp676
g462
F6
sg463
S'asdf'
p677
sg465
I1
sg466
F10
sg467
F2
sg468
S'Wit'
p678
sg470
S'AllEnemy'
p679
sg472
F3
sg473
F4
sg474
(lp680
g1
(g476
g3
NtRp681
(dp682
g479
S'drain'
p683
sg481
S'(DRAIN)'
p684
sg483
S'votes'
p685
sg485
F1
sg486
F2
sg487
F5
sg488
S'Drain Votes'
p686
sg490
S''
sbasg492
I1
sg493
F2
sg488
g674
sg494
S'Blackmail'
p687
sbsS'PROTEST'
p688
g1
(g10
g3
NtRp689
(dp690
g462
F5
sg463
S'asdf'
p691
sg465
F6
sg466
F10
sg467
F2
sg468
S'Cunning'
p692
sg470
S'AllEnemy'
p693
sg472
F2
sg473
I0
sg474
(lp694
sg492
I1
sg493
F8
sg488
g688
sg494
S'Protest'
p695
sbsS'SPREADRUMOUR'
p696
g1
(g10
g3
NtRp697
(dp698
g462
F6
sg463
S'asdf'
p699
sg465
I1
sg466
F10
sg467
F2
sg468
S'Wit'
p700
sg470
S'AllEnemy'
p701
sg472
F2
sg473
F3
sg474
(lp702
sg492
I4
sg493
F8
sg488
g696
sg494
S'Spread Rumour'
p703
sbsS'AGENDA'
p704
g1
(g10
g3
NtRp705
(dp706
g462
F5
sg463
S'asdf'
p707
sg465
F6
sg466
F10
sg467
F2
sg468
S'Cunning'
p708
sg470
S'AllEnemy'
p709
sg472
F2
sg473
I0
sg474
(lp710
sg492
I1
sg493
F8
sg488
g704
sg494
S'Push Agenda'
p711
sbsS'FILIBUSTER'
p712
g1
(g10
g3
NtRp713
(dp714
g462
F0
sg463
S"You're not moving until they give in. Cause all opposition to miss their turn"
p715
sg465
I1
sg466
F0
sg467
F0
sg468
S'Wit'
p716
sg470
S'AllEnemy'
p717
sg472
F0
sg473
F8
sg474
(lp718
g1
(g476
g3
NtRp719
(dp720
g479
S'miss_turn'
p721
sg481
S'(MISS)'
p722
sg483
S''
sg485
F0
sg486
F1
sg487
F1
sg488
S'Miss Turn'
p723
sg490
S''
sbasg492
I1
sg493
F0
sg488
g712
sg494
S'Filibuster'
p724
sbsS'GATHERINTEL'
p725
g1
(g10
g3
NtRp726
(dp727
g462
F0
sg463
S'Increases Cunning.'
p728
sg465
I1
sg466
F0
sg467
F0
sg468
S'Wit'
p729
sg470
S'AllFriendly'
p730
sg472
F0
sg473
F3
sg474
(lp731
g477
asg492
I2
sg493
F0
sg488
g725
sg494
S'Gather Intelligence'
p732
sbsS'LOVE'
p733
g1
(g10
g3
NtRp734
(dp735
g462
F6
sg463
S'asdf'
p736
sg465
F2
sg466
F8
sg467
F2
sg468
S'Cunning'
p737
sg470
S'AllEnemy'
p738
sg472
F1
sg473
I0
sg474
(lp739
sg492
I1
sg493
F7
sg488
g733
sg494
S'Love'
p740
sbsS'OUTOFCONTEXT'
p741
g1
(g10
g3
NtRp742
(dp743
g462
F3
sg463
S'asdf'
p744
sg465
I1
sg466
F5
sg467
F2
sg468
S'Wit'
p745
sg470
S'AllEnemy'
p746
sg472
F2
sg473
F2
sg474
(lp747
g681
asg492
I1
sg493
F5
sg488
g741
sg494
S'Take Out Of Context'
p748
sbsS'GREATSUIT'
p749
g1
(g10
g3
NtRp750
(dp751
g462
F6
sg463
S'Well, we could argue, but have you noticed how fabulous this suit is?'
p752
sg465
I1
sg466
F11
sg467
F6
sg468
S'Cunning'
p753
sg470
S'AllEnemy'
p754
sg472
F3
sg473
I0
sg474
(lp755
sg492
I1
sg493
F12
sg488
g749
sg494
S'Look Great In Suit'
p756
sbsS'PEACE'
p757
g1
(g10
g3
NtRp758
(dp759
g462
F0
sg463
S'asdf'
p760
sg465
I1
sg466
F0
sg467
F0
sg468
S'Wit'
p761
sg470
S'AllEnemy'
p762
sg472
F0
sg473
F3
sg474
(lp763
g634
asg492
I4
sg493
F0
sg488
g757
sg494
S'Peace'
p764
sbsS'INSPSPEECH'
p765
g1
(g10
g3
NtRp766
(dp767
g462
F-2
sg463
S'Restore votes to all party members'
p768
sg465
I1
sg466
F0
sg467
F0
sg468
S'Cunning'
p769
sg470
S'AllFriendly'
p770
sg472
F-2
sg473
I0
sg474
(lp771
sg492
I4
sg493
F0
sg488
g765
sg494
S'Inspirational Speech'
p772
sbsS'STRIKE'
p773
g1
(g10
g3
NtRp774
(dp775
g462
F8
sg463
S'asdf'
p776
sg465
I1
sg466
F0
sg467
F0
sg468
S'Wit'
p777
sg470
S'AllEnemy'
p778
sg472
F0
sg473
F3
sg474
(lp779
g511
asg492
I1
sg493
F0
sg488
g773
sg494
S'Call A Strike'
p780
sbsS'SLANDER'
p781
g1
(g10
g3
NtRp782
(dp783
g462
F3
sg463
S'Strong against polititians...careful with those voters, though!'
p784
sg465
F4
sg466
F10
sg467
F2
sg468
S'Wit'
p785
sg470
S'AllEnemy'
p786
sg472
F2
sg473
I0
sg474
(lp787
g681
asg492
I1
sg493
F5
sg488
g781
sg494
S'Slander Opposition'
p788
sbsS'NATTER'
p789
g1
(g10
g3
NtRp790
(dp791
g462
F8
sg463
S'asdf'
p792
sg465
I1
sg466
F15
sg467
F5
sg468
S'Cunning'
p793
sg470
S'AllEnemy'
p794
sg472
F1
sg473
I0
sg474
(lp795
sg492
I1
sg493
F10
sg488
g789
sg494
S'Natter On'
p796
sbsS'GOSSIP'
p797
g1
(g10
g3
NtRp798
(dp799
g462
F3
sg463
S'asdf'
p800
sg465
I1
sg466
F10
sg467
F2
sg468
S'Wit'
p801
sg470
S'AllEnemy'
p802
sg472
F1
sg473
F2
sg474
(lp803
g634
asg492
I1
sg493
F6
sg488
g797
sg494
S'Gossip'
p804
sbsS'MISSTURN'
p805
g1
(g10
g3
NtRp806
(dp807
g462
F0
sg463
S'asdf'
p808
sg465
I1
sg466
F0
sg467
F0
sg468
S''
sg470
S'AllEnemy'
p809
sg472
F0
sg473
I0
sg474
(lp810
sg492
I1
sg493
F0
sg488
g805
sg494
S'Miss Turn'
p811
sbsS'BIELECTION'
p812
g1
(g10
g3
NtRp813
(dp814
g462
F4
sg463
S'Redistribute votes amongst targets'
p815
sg465
I1
sg466
F0
sg467
F0
sg468
S'Cunning'
p816
sg470
S'All'
p817
sg472
F-4
sg473
F4
sg474
(lp818
sg492
I8
sg493
F0
sg488
g812
sg494
S'Bielection'
p819
sbsS'SCARE'
p820
g1
(g10
g3
NtRp821
(dp822
g462
F7
sg463
S'Nothing rattles the brains like fear.'
p823
sg465
I1
sg466
F10
sg467
F2
sg468
S'Wit'
p824
sg470
S'AllEnemy'
p825
sg472
F2
sg473
I0
sg474
(lp826
g634
asg492
I2
sg493
F9
sg488
g820
sg494
S'Scare Campaign'
p827
sbsS'PAYOFF'
p828
g1
(g10
g3
NtRp829
(dp830
g462
F7
sg463
S'causes them to miss a number of turns'
p831
sg465
I1
sg466
F8
sg467
F2
sg468
S'Wit'
p832
sg470
S'AllEnemy'
p833
sg472
F2
sg473
F4
sg474
(lp834
g1
(g476
g3
NtRp835
(dp836
g479
S'miss_turn'
p837
sg481
S'(MISS)'
p838
sg483
S''
sg485
F0
sg486
F1
sg487
F3
sg488
S'Miss Turn Pay Off'
p839
sg490
S''
sbasg492
I1
sg493
F9
sg488
g828
sg494
S'Pay Off'
p840
sbsS'BUREAUCRACY'
p841
g1
(g10
g3
NtRp842
(dp843
g462
F5
sg463
S'asdf'
p844
sg465
F6
sg466
F10
sg467
F2
sg468
S'Cunning'
p845
sg470
S'AllEnemy'
p846
sg472
F2
sg473
I0
sg474
(lp847
sg492
I1
sg493
F8
sg488
g841
sg494
S'Bureaucracy'
p848
sbsS'RALLYAUDIENCE'
p849
g1
(g10
g3
NtRp850
(dp851
g462
F8
sg463
S'asdf'
p852
sg465
I1
sg466
F0
sg467
F0
sg468
S'Wit'
p853
sg470
S'AllFriendly'
p854
sg472
F4
sg473
F3
sg474
(lp855
g1
(g476
g3
NtRp856
(dp857
g479
S'add'
p858
sg481
S'(INCREASE)'
p859
sg483
S'charisma'
p860
sg485
F2
sg486
F1
sg487
F4
sg488
S'Increase Charisma'
p861
sg490
S'TRUE'
p862
sbasg492
I1
sg493
F0
sg488
g849
sg494
S'Rally Audience'
p863
sbsS'PORKBARREL'
p864
g1
(g10
g3
NtRp865
(dp866
g462
F6
sg463
S'Do something that benefits them specifically. Not advised against politicians.'
p867
sg465
I1
sg466
F0
sg467
F0
sg468
S'Wit'
p868
sg470
S'AllEnemy'
p869
sg472
F2
sg473
F2
sg474
(lp870
sg492
I1
sg493
F0
sg488
g864
sg494
S'Pork Barrel'
p871
sbsS'INSPIRE'
p872
g1
(g10
g3
NtRp873
(dp874
g462
F0
sg463
S'asdf'
p875
sg465
I1
sg466
F0
sg467
F0
sg468
S'Wit'
p876
sg470
S'AllFriendly'
p877
sg472
F0
sg473
F3
sg474
(lp878
g477
asg492
I4
sg493
F0
sg488
g872
sg494
S'Inspire'
p879
sbsS'JOKE'
p880
g1
(g10
g3
NtRp881
(dp882
g462
F3
sg463
S"Ha, ha, ha...what were we talking about? Diffuse the situation with some humour. Not good if it falls flat, but if they get it, it'll knock 'em dead."
p883
sg465
F3
sg466
F30
sg467
F10
sg468
S'Wit'
p884
sg470
S'AllEnemy'
p885
sg472
F2
sg473
I0
sg474
(lp886
sg492
I1
sg493
F10
sg488
g880
sg494
S'Joke'
p887
sbsS'PRAYFORSOULS'
p888
g1
(g10
g3
NtRp889
(dp890
g462
F6
sg463
S'asdf'
p891
sg465
F2
sg466
F10
sg467
F2
sg468
S'Cunning'
p892
sg470
S'None'
p893
sg472
F3
sg473
I0
sg474
(lp894
sg492
I1
sg493
F10
sg488
g888
sg494
S'Pray'
p895
sbsS'REVIVE'
p896
g1
(g10
g3
NtRp897
(dp898
g462
F0
sg463
S'Revive a defeated comrade to half votes'
p899
sg465
I1
sg466
F0
sg467
F0
sg468
S''
sg470
S'DeadFriendly'
p900
sg472
F0
sg473
F3
sg474
(lp901
g1
(g476
g3
NtRp902
(dp903
g479
S'revive'
p904
sg481
S''
sg483
S''
sg485
F0.5
sg486
F0
sg487
F0
sg488
S'Revive'
p905
sg490
S''
sbasg492
I1
sg493
F0
sg488
g896
sg494
S'Revive'
p906
sbsS'HUMANSHIELD'
p907
g1
(g10
g3
NtRp908
(dp909
g462
F5
sg463
S'No further questions. Step back, please.'
p910
sg465
I1
sg466
F5
sg467
F2
sg468
S'Wit'
p911
sg470
S'AllEnemy'
p912
sg472
F2
sg473
F4
sg474
(lp913
g719
asg492
I2
sg493
F12
sg488
g907
sg494
S'Human Shield'
p914
sbsS'MAKEDEMANDS'
p915
g1
(g10
g3
NtRp916
(dp917
g462
F8
sg463
S'asdf'
p918
sg465
I1
sg466
F0
sg467
F0
sg468
S'Cunning'
p919
sg470
S'AllEnemy'
p920
sg472
F0
sg473
I0
sg474
(lp921
g511
asg492
I1
sg493
F0
sg488
g915
sg494
S'Make Outrageous Demands'
p922
sbsS'DEFENSE'
p923
g1
(g10
g3
NtRp924
(dp925
g462
F0
sg463
S'Gather strenth; -50% to all incoming attacks'
p926
sg465
I1
sg466
F0
sg467
F0
sg468
S''
sg470
S'None'
p927
sg472
F0
sg473
I0
sg474
(lp928
g1
(g476
g3
NtRp929
(dp930
g479
S'add'
p931
sg481
S'(DFND)'
p932
sg483
S'resistance'
p933
sg485
F0.5
sg486
F1
sg487
F1
sg488
S'Defense'
p934
sg490
S'TRUE'
p935
sbasg492
I1
sg493
F0
sg488
g923
sg494
S'Defense'
p936
sbsS'MISCONSTRUE'
p937
g1
(g10
g3
NtRp938
(dp939
g462
F8
sg463
S'asdf'
p940
sg465
I1
sg466
F0
sg467
F0
sg468
S'Cunning'
p941
sg470
S'AllEnemy'
p942
sg472
F0
sg473
I0
sg474
(lp943
g511
asg492
I1
sg493
F0
sg488
g937
sg494
S'Misconstrue'
p944
sbsS'NATIONALSECURITY'
p945
g1
(g10
g3
NtRp946
(dp947
g462
F7
sg463
S"This is a matter of national security and they don't have codeword clearance"
p948
sg465
I1
sg466
F10
sg467
F2
sg468
S'Cunning'
p949
sg470
S'AllEnemy'
p950
sg472
F2
sg473
I0
sg474
(lp951
sg492
I1
sg493
F9
sg488
g945
sg494
S'National Security'
p952
sbsS'RALLY'
p953
g1
(g10
g3
NtRp954
(dp955
g462
F-2
sg463
S'Get back some votes by rallying supporters'
p956
sg465
I1
sg466
F0
sg467
F0
sg468
S'Wit'
p957
sg470
S'AllFriendly'
p958
sg472
F-4
sg473
F2
sg474
(lp959
sg492
I1
sg493
F0
sg488
g953
sg494
S'Rally Constituents'
p960
sbsS'MESSAGE'
p961
g1
(g10
g3
NtRp962
(dp963
g462
F5
sg463
S'You can certainly wear them down by repeating your party line over and over and over...if you want'
p964
sg465
F6
sg466
F10
sg467
F2
sg468
S'Wit'
p965
sg470
S'AllEnemy'
p966
sg472
F2
sg473
I0
sg474
(lp967
sg492
I1
sg493
F8
sg488
g961
sg494
S'Stay On Message'
p968
sbsS'APPEALTOGOD'
p969
g1
(g10
g3
NtRp970
(dp971
g462
F6
sg463
S'asdf'
p972
sg465
F3
sg466
F0
sg467
F0
sg468
S'Wit'
p973
sg470
S'AllEnemy'
p974
sg472
F4
sg473
F7
sg474
(lp975
sg492
I4
sg493
F0
sg488
g969
sg494
S'Appeal To God'
p976
sbssS'levels'
p977
(lp978
g1
(g10
g3
NtRp979
(dp980
S'votes'
p981
F10
sS'level'
p982
F1
sS'spin'
p983
F5
sS'xp'
p984
F0
sS'skill_points'
p985
F0
sbag1
(g10
g3
NtRp986
(dp987
g981
F12
sg982
F2
sg983
F5
sg984
F5
sg985
F2
sbag1
(g10
g3
NtRp988
(dp989
g981
F15
sg982
F3
sg983
F6
sg984
F200
sg985
F2
sbag1
(g10
g3
NtRp990
(dp991
g981
F20
sg982
F4
sg983
F6
sg984
F500
sg985
F2
sbag1
(g10
g3
NtRp992
(dp993
g981
F25
sg982
F5
sg983
F7
sg984
F1000
sg985
F2
sbag1
(g10
g3
NtRp994
(dp995
g981
F30
sg982
F6
sg983
F7
sg984
F2000
sg985
F2
sbag1
(g10
g3
NtRp996
(dp997
g981
F35
sg982
F7
sg983
F8
sg984
F5000
sg985
F2
sbag1
(g10
g3
NtRp998
(dp999
g981
F40
sg982
F8
sg983
F8
sg984
F10000
sg985
F2
sbag1
(g10
g3
NtRp1000
(dp1001
g981
F45
sg982
F9
sg983
F9
sg984
F15000
sg985
F2
sbag1
(g10
g3
NtRp1002
(dp1003
g981
F50
sg982
F10
sg983
F9
sg984
F20000
sg985
F2
sbag1
(g10
g3
NtRp1004
(dp1005
g981
F55
sg982
F11
sg983
F10
sg984
F40000
sg985
F2
sbag1
(g10
g3
NtRp1006
(dp1007
g981
S''
sg982
F12
sg983
S''
sg984
S''
sg985
S''
sbag1
(g10
g3
NtRp1008
(dp1009
g981
S''
sg982
F13
sg983
S''
sg984
S''
sg985
S''
sbag1
(g10
g3
NtRp1010
(dp1011
g981
S''
sg982
F14
sg983
S''
sg984
S''
sg985
S''
sbag1
(g10
g3
NtRp1012
(dp1013
g981
S''
sg982
F15
sg983
S''
sg984
S''
sg985
S''
sbag1
(g10
g3
NtRp1014
(dp1015
g981
S''
sg982
F16
sg983
S''
sg984
S''
sg985
S''
sbag1
(g10
g3
NtRp1016
(dp1017
g981
S''
sg982
F17
sg983
S''
sg984
S''
sg985
S''
sbag1
(g10
g3
NtRp1018
(dp1019
g981
S''
sg982
F18
sg983
S''
sg984
S''
sg985
S''
sbag1
(g10
g3
NtRp1020
(dp1021
g981
S''
sg982
F19
sg983
S''
sg984
S''
sg985
S''
sbag1
(g10
g3
NtRp1022
(dp1023
g981
S''
sg982
F20
sg983
S''
sg984
S''
sg985
S''
sbag1
(g10
g3
NtRp1024
(dp1025
g981
S''
sg982
F21
sg983
S''
sg984
S''
sg985
S''
sbag1
(g10
g3
NtRp1026
(dp1027
g981
S''
sg982
F22
sg983
S''
sg984
S''
sg985
S''
sbag1
(g10
g3
NtRp1028
(dp1029
g981
S''
sg982
F23
sg983
S''
sg984
S''
sg985
S''
sbag1
(g10
g3
NtRp1030
(dp1031
g981
S''
sg982
F24
sg983
S''
sg984
S''
sg985
S''
sbag1
(g10
g3
NtRp1032
(dp1033
g981
S''
sg982
F25
sg983
S''
sg984
S''
sg985
S''
sbag1
(g10
g3
NtRp1034
(dp1035
g981
S''
sg982
F26
sg983
S''
sg984
S''
sg985
S''
sbag1
(g10
g3
NtRp1036
(dp1037
g981
S''
sg982
F27
sg983
S''
sg984
S''
sg985
S''
sbag1
(g10
g3
NtRp1038
(dp1039
g981
S''
sg982
F28
sg983
S''
sg984
S''
sg985
S''
sbag1
(g10
g3
NtRp1040
(dp1041
g981
S''
sg982
F29
sg983
S''
sg984
S''
sg985
S''
sbasg474
(dp1042
g489
g477
sg584
g580
sg659
g655
sg861
g856
sg723
g719
sg672
g669
sg839
g835
sg905
g902
sg639
g634
sg686
g681
sg934
g929
sg515
g511
sg530
g525
ssS'characters'
p1043
(dp1044
S'Teacher001'
p1045
(lp1046
g1
(g10
g3
NtRp1047
(dp1048
S'flair_base'
p1049
F1
sS'spin_base'
p1050
F4
sS'flair_lvl'
p1051
F1.1499999999999999
sS'wit_base'
p1052
F1
sS'resistance'
p1053
(lp1054
sS'wit_lvl'
p1055
F1.0900000000000001
sS'cunning_base'
p1056
F1
sg488
g1045
sS'votes_base'
p1057
F10
sS'speed_lvl'
p1058
F1.0800000000000001
sS'standard_attacks'
p1059
(lp1060
g924
ag689
asS'cunning_lvl'
p1061
F1.1000000000000001
sS'charisma_lvl'
p1062
F1.1499999999999999
sS'spin_attacks'
p1063
(lp1064
g774
ag954
asS'spin_lvl'
p1065
F1.0800000000000001
sS'charisma_base'
p1066
F1
sS'weaknesses'
p1067
(lp1068
sS'attack_group'
p1069
S'Teacher'
p1070
sS'votes_lvl'
p1071
F1.2
sg494
S'Teacher'
p1072
sS'speed_base'
p1073
F1
sS'immunities'
p1074
(lp1075
sbasS'Politician001'
p1076
(lp1077
g1
(g10
g3
NtRp1078
(dp1079
g1049
F1
sg1050
F4
sg1051
F1.1499999999999999
sg1052
F1
sg1053
(lp1080
g505
asg1055
F1.0900000000000001
sg1056
F1
sg488
g1076
sg1057
F10
sg1058
F1.0800000000000001
sg1059
(lp1081
g962
ag782
ag505
ag881
ag924
asg1061
F1.1000000000000001
sg1062
F1.1499999999999999
sg1063
(lp1082
g813
ag620
ag897
asg1065
F1.0800000000000001
sg1066
F1
sg1067
(lp1083
g588
asg1069
S'Politician'
p1084
sg1071
F1.2
sg494
S'Politician'
p1085
sg1073
F1
sg1074
(lp1086
g865
asbasS'SecretAgent'
p1087
(lp1088
g1
(g10
g3
NtRp1089
(dp1090
g1049
F1
sg1050
F4
sg1051
F1.1499999999999999
sg1052
F1
sg1053
(lp1091
sg1055
F1.0900000000000001
sg1056
F1
sg488
g1087
sg1057
F18
sg1058
F1.0800000000000001
sg1059
(lp1092
g924
ag946
ag750
asg1061
F1.1000000000000001
sg1062
F1.1499999999999999
sg1063
(lp1093
g908
ag726
asg1065
F1.0800000000000001
sg1066
F1
sg1067
(lp1094
sg1069
S'SecretAgent'
p1095
sg1071
F1.2
sg494
S'Agent Kawalski'
p1096
sg1073
F1
sg1074
(lp1097
sbasS'Bumpkin001'
p1098
(lp1099
g1
(g10
g3
NtRp1100
(dp1101
g1049
F1
sg1050
F4
sg1051
F1.1499999999999999
sg1052
F1
sg1053
(lp1102
sg1055
F1.0900000000000001
sg1056
F1
sg488
g1098
sg1057
F10
sg1058
F1.0800000000000001
sg1059
(lp1103
g881
ag642
asg1061
F1.1000000000000001
sg1062
F1.1499999999999999
sg1063
(lp1104
g604
ag697
asg1065
F1.0800000000000001
sg1066
F1
sg1067
(lp1105
g505
ag782
ag821
asg1069
S'Bumpkin'
p1106
sg1071
F1.2
sg494
S'Bumpkin'
p1107
sg1073
F1
sg1074
(lp1108
sbasS'WarVet001'
p1109
(lp1110
g1
(g10
g3
NtRp1111
(dp1112
g1049
F1
sg1050
F4
sg1051
F1.1499999999999999
sg1052
F1
sg1053
(lp1113
sg1055
F1.0900000000000001
sg1056
F1
sg488
g1109
sg1057
F10
sg1058
F1.0800000000000001
sg1059
(lp1114
g916
ag924
asg1061
F1.1000000000000001
sg1062
F1.1499999999999999
sg1063
(lp1115
g873
ag954
asg1065
F1.0800000000000001
sg1066
F1
sg1067
(lp1116
sg1069
S'WarVet'
p1117
sg1071
F1.2
sg494
S'War Veteran'
p1118
sg1073
F1
sg1074
(lp1119
sbasS'Receptionist001'
p1120
(lp1121
g1
(g10
g3
NtRp1122
(dp1123
g1049
F1
sg1050
F4
sg1051
F1.1499999999999999
sg1052
F1
sg1053
(lp1124
sg1055
F1.0900000000000001
sg1056
F1
sg488
g1120
sg1057
F10
sg1058
F1.0800000000000001
sg1059
(lp1125
g842
ag790
asg1061
F1.1000000000000001
sg1062
F1.1499999999999999
sg1063
(lp1126
g798
ag574
asg1065
F1.0800000000000001
sg1066
F1
sg1067
(lp1127
sg1069
S'Receptionist'
p1128
sg1071
F1.2
sg494
S'Receptionist'
p1129
sg1073
F1
sg1074
(lp1130
sbasS'DeepThroat'
p1131
(lp1132
g1
(g10
g3
NtRp1133
(dp1134
g1049
F1
sg1050
F4
sg1051
F1.1499999999999999
sg1052
F1
sg1053
(lp1135
sg1055
F1.0900000000000001
sg1056
F1
sg488
g1131
sg1057
F10
sg1058
F1.0800000000000001
sg1059
(lp1136
g782
ag924
ag916
asg1061
F1.1000000000000001
sg1062
F1.1499999999999999
sg1063
(lp1137
g675
asg1065
F1.0800000000000001
sg1066
F1
sg1067
(lp1138
sg1069
S'DeepThroat'
p1139
sg1071
F1.2
sg494
S'Deep Throat'
p1140
sg1073
F1
sg1074
(lp1141
sbasS'Leo'
p1142
(lp1143
g1
(g10
g3
NtRp1144
(dp1145
g1049
F1
sg1050
F4
sg1051
F1.1499999999999999
sg1052
F1
sg1053
(lp1146
sg1055
F1.0900000000000001
sg1056
F1
sg488
g1142
sg1057
F14
sg1058
F1.0800000000000001
sg1059
(lp1147
g962
ag782
ag505
ag881
ag588
asg1061
F1.1000000000000001
sg1062
F1.1499999999999999
sg1063
(lp1148
g813
ag620
ag865
ag713
asg1065
F1.0800000000000001
sg1066
F1
sg1067
(lp1149
sg1069
S'Theo'
p1150
sg1071
F1.2
sg494
S'Theo'
p1151
sg1073
F1
sg1074
(lp1152
sbasS'HippyGirl001'
p1153
(lp1154
g1
(g10
g3
NtRp1155
(dp1156
g1049
F1
sg1050
F4
sg1051
F1.1499999999999999
sg1052
F1
sg1053
(lp1157
sg1055
F1.0900000000000001
sg1056
F1
sg488
g1153
sg1057
F10
sg1058
F1.0800000000000001
sg1059
(lp1158
g596
ag689
ag734
asg1061
F1.1000000000000001
sg1062
F1.1499999999999999
sg1063
(lp1159
g758
ag954
ag897
asg1065
F1.0800000000000001
sg1066
F1
sg1067
(lp1160
g881
asg1069
S'Hippy'
p1161
sg1071
F1.2
sg494
S'Hippy Girl'
p1162
sg1073
F1
sg1074
(lp1163
sbasS'President'
p1164
(lp1165
g1
(g10
g3
NtRp1166
(dp1167
g1049
F1
sg1050
F4
sg1051
F1.1499999999999999
sg1052
F1
sg1053
(lp1168
sg1055
F1.0900000000000001
sg1056
F1
sg488
g1164
sg1057
F10
sg1058
F1.0800000000000001
sg1059
(lp1169
g962
ag782
ag505
ag881
ag924
asg1061
F1.1000000000000001
sg1062
F1.1499999999999999
sg1063
(lp1170
g813
ag620
ag897
asg1065
F1.0800000000000001
sg1066
F1
sg1067
(lp1171
sg1069
S'Politician'
p1172
sg1071
F1.2
sg494
S'President Allen'
p1173
sg1073
F1
sg1074
(lp1174
sbasS'Unionist001'
p1175
(lp1176
g1
(g10
g3
NtRp1177
(dp1178
g1049
F1
sg1050
F4
sg1051
F1.1499999999999999
sg1052
F1
sg1053
(lp1179
sg1055
F1.0900000000000001
sg1056
F1
sg488
g1175
sg1057
F10
sg1058
F1.0800000000000001
sg1059
(lp1180
g916
ag924
ag689
asg1061
F1.1000000000000001
sg1062
F1.1499999999999999
sg1063
(lp1181
g774
asg1065
F1.0800000000000001
sg1066
F1
sg1067
(lp1182
sg1069
S'Unionist'
p1183
sg1071
F1.2
sg494
S'Unionist'
p1184
sg1073
F1
sg1074
(lp1185
sbasS'Wife'
p1186
(lp1187
g1
(g10
g3
NtRp1188
(dp1189
g1049
F1
sg1050
F4
sg1051
F1.1499999999999999
sg1052
F1
sg1053
(lp1190
sg1055
F1.0900000000000001
sg1056
F1
sg488
g1186
sg1057
F12
sg1058
F1.0800000000000001
sg1059
(lp1191
g924
ag962
asg1061
F1.1000000000000001
sg1062
F1.1499999999999999
sg1063
(lp1192
g954
ag897
ag628
asg1065
F1.0800000000000001
sg1066
F1
sg1067
(lp1193
sg1069
S'Wife'
p1194
sg1071
F1.2
sg494
S'Sarah Mossman'
p1195
sg1073
F1
sg1074
(lp1196
sbasS'PresidentAlien'
p1197
(lp1198
g1
(g10
g3
NtRp1199
(dp1200
g1049
F1
sg1050
F4
sg1051
F1.1499999999999999
sg1052
F1
sg1053
(lp1201
sg1055
F1.0900000000000001
sg1056
F1
sg488
g1197
sg1057
F10
sg1058
F1.0800000000000001
sg1059
(lp1202
g962
ag782
ag505
ag881
ag924
asg1061
F1.1000000000000001
sg1062
F1.1499999999999999
sg1063
(lp1203
g813
ag620
ag897
asg1065
F1.0800000000000001
sg1066
F1
sg1067
(lp1204
sg1069
S'Politician'
p1205
sg1071
F1.2
sg494
S'President Alien'
p1206
sg1073
F1
sg1074
(lp1207
sbasS'Governor'
p1208
(lp1209
g1
(g10
g3
NtRp1210
(dp1211
g1049
F1
sg1050
F4
sg1051
F1.1499999999999999
sg1052
F1
sg1053
(lp1212
sg1055
F1.0900000000000001
sg1056
F1
sg488
g1208
sg1057
F10
sg1058
F1.0800000000000001
sg1059
(lp1213
g962
ag782
ag505
ag881
ag924
asg1061
F1.1000000000000001
sg1062
F1.1499999999999999
sg1063
(lp1214
g813
ag620
ag897
asg1065
F1.0800000000000001
sg1066
F1
sg1067
(lp1215
sg1069
S'Politician'
p1216
sg1071
F1.2
sg494
g1208
sg1073
F1
sg1074
(lp1217
sbasS'Lobbyist001'
p1218
(lp1219
g1
(g10
g3
NtRp1220
(dp1221
g1049
F1
sg1050
F4
sg1051
F1.1499999999999999
sg1052
F1
sg1053
(lp1222
sg1055
F1.0900000000000001
sg1056
F1
sg488
g1218
sg1057
F10
sg1058
F1.0800000000000001
sg1059
(lp1223
g705
ag916
asg1061
F1.1000000000000001
sg1062
F1.1499999999999999
sg1063
(lp1224
g829
ag675
asg1065
F1.0800000000000001
sg1066
F1
sg1067
(lp1225
g865
asg1069
S'Lobbyist'
p1226
sg1071
F1.2
sg494
S'Lobbyist'
p1227
sg1073
F1
sg1074
(lp1228
g588
asbasS'Journalist001'
p1229
(lp1230
g1
(g10
g3
NtRp1231
(dp1232
g1049
F1
sg1050
F4
sg1051
F1.1499999999999999
sg1052
F1
sg1053
(lp1233
sg1055
F1.0900000000000001
sg1056
F1
sg488
g1229
sg1057
F10
sg1058
F1.0800000000000001
sg1059
(lp1234
g558
ag938
asg1061
F1.1000000000000001
sg1062
F1.1499999999999999
sg1063
(lp1235
g742
ag460
ag534
asg1065
F1.0800000000000001
sg1066
F1
sg1067
(lp1236
sg1069
S'Journalist'
p1237
sg1071
F1.2
sg494
S'Journalist'
p1238
sg1073
F1
sg1074
(lp1239
sbasS'ReligiousNut001'
p1240
(lp1241
g1
(g10
g3
NtRp1242
(dp1243
g1049
F1
sg1050
F4
sg1051
F1.1499999999999999
sg1052
F1
sg1053
(lp1244
sg1055
F1.0900000000000001
sg1056
F1
sg488
g1240
sg1057
F10
sg1058
F1.0800000000000001
sg1059
(lp1245
g542
ag889
ag924
asg1061
F1.1000000000000001
sg1062
F1.1499999999999999
sg1063
(lp1246
g970
ag663
asg1065
F1.0800000000000001
sg1066
F1
sg1067
(lp1247
sg1069
S'Religious'
p1248
sg1071
F1.2
sg494
S'Religious Nut'
p1249
sg1073
F1
sg1074
(lp1250
g881
asbasS'JointChief001'
p1251
(lp1252
g1
(g10
g3
NtRp1253
(dp1254
g1049
F1
sg1050
F4
sg1051
F1.1499999999999999
sg1052
F1
sg1053
(lp1255
sg1055
F1.0900000000000001
sg1056
F1
sg488
g1251
sg1057
F10
sg1058
F1.0800000000000001
sg1059
(lp1256
g916
ag924
ag946
ag612
asg1061
F1.1000000000000001
sg1062
F1.1499999999999999
sg1063
(lp1257
g726
asg1065
F1.0800000000000001
sg1066
F1
sg1067
(lp1258
sg1069
S'JointChief'
p1259
sg1071
F1.2
sg494
S'Joint Chief'
p1260
sg1073
F1
sg1074
(lp1261
sbasS'Protester001'
p1262
(lp1263
g1
(g10
g3
NtRp1264
(dp1265
g1049
F1
sg1050
F4
sg1051
F1.1499999999999999
sg1052
F1
sg1053
(lp1266
sg1055
F1.0900000000000001
sg1056
F1
sg488
g1262
sg1057
F10
sg1058
F1.0800000000000001
sg1059
(lp1267
g689
ag550
ag596
asg1061
F1.1000000000000001
sg1062
F1.1499999999999999
sg1063
(lp1268
g954
asg1065
F1.0800000000000001
sg1066
F1
sg1067
(lp1269
sg1069
S'Protestor'
p1270
sg1071
F1.2
sg494
S'Protester'
p1271
sg1073
F1
sg1074
(lp1272
sbasS'TVPersonality001'
p1273
(lp1274
g1
(g10
g3
NtRp1275
(dp1276
g1049
F1
sg1050
F4
sg1051
F1.1499999999999999
sg1052
F1
sg1053
(lp1277
sg1055
F1.0900000000000001
sg1056
F1
sg488
g1273
sg1057
F10
sg1058
F1.0800000000000001
sg1059
(lp1278
g881
ag558
asg1061
F1.1000000000000001
sg1062
F1.1499999999999999
sg1063
(lp1279
g534
ag519
asg1065
F1.0800000000000001
sg1066
F1
sg1067
(lp1280
sg1069
S'TVPersonality'
p1281
sg1071
F1.2
sg494
S"Hecules O'Grady"
p1282
sg1073
F1
sg1074
(lp1283
sbasS'Player'
p1284
(lp1285
g1
(g10
g3
NtRp1286
(dp1287
g1049
F1
sg1050
F5
sg1051
F1.1499999999999999
sg1052
F1
sg1053
(lp1288
sg1055
F1.0900000000000001
sg1056
F1
sg488
g1284
sg1057
F15
sg1058
F1.0800000000000001
sg1059
(lp1289
g962
ag505
ag881
asg1061
F1.1000000000000001
sg1062
F1.1499999999999999
sg1063
(lp1290
g813
ag620
ag954
asg1065
F1.0800000000000001
sg1066
F1
sg1067
(lp1291
sg1069
S'Player'
p1292
sg1071
F1.2
sg494
S'Phillip Mossman'
p1293
sg1073
F2
sg1074
(lp1294
sbasS'Computer'
p1295
(lp1296
g1
(g10
g3
NtRp1297
(dp1298
g1049
F1
sg1050
F4
sg1051
F1.1499999999999999
sg1052
F1
sg1053
(lp1299
sg1055
F1.0900000000000001
sg1056
F1
sg488
g1295
sg1057
F10
sg1058
F1.0800000000000001
sg1059
(lp1300
g962
ag782
ag505
ag881
ag924
asg1061
F1.1000000000000001
sg1062
F1.1499999999999999
sg1063
(lp1301
g813
ag620
ag897
asg1065
F1.0800000000000001
sg1066
F1
sg1067
(lp1302
sg1069
S'Politician'
p1303
sg1071
F1.2
sg494
S'N.O.T.B.A.D'
p1304
sg1073
F1
sg1074
(lp1305
sbasS'CabinetPolitician001'
p1306
(lp1307
g1
(g10
g3
NtRp1308
(dp1309
g1049
F1
sg1050
F4
sg1051
F1.1499999999999999
sg1052
F1
sg1053
(lp1310
sg1055
F1.0900000000000001
sg1056
F1
sg488
g1306
sg1057
F10
sg1058
F1.0800000000000001
sg1059
(lp1311
g962
ag782
ag505
ag881
ag924
asg1061
F1.1000000000000001
sg1062
F1.1499999999999999
sg1063
(lp1312
g813
ag620
ag897
asg1065
F1.0800000000000001
sg1066
F1
sg1067
(lp1313
sg1069
S'Politician'
p1314
sg1071
F1.2
sg494
S'Cabinet Politician'
p1315
sg1073
F1
sg1074
(lp1316
sbasS'Constituent001'
p1317
(lp1318
g1
(g10
g3
NtRp1319
(dp1320
g1049
F1
sg1050
F4
sg1051
F1.1499999999999999
sg1052
F1
sg1053
(lp1321
sg1055
F1.0900000000000001
sg1056
F1
sg488
g1317
sg1057
F10
sg1058
F1.0800000000000001
sg1059
(lp1322
g689
ag705
ag916
asg1061
F1.1000000000000001
sg1062
F1.1499999999999999
sg1063
(lp1323
g897
asg1065
F1.0800000000000001
sg1066
F1
sg1067
(lp1324
sg1069
S'Constituent'
p1325
sg1071
F1.2
sg494
S'Constituent'
p1326
sg1073
F1
sg1074
(lp1327
sbasS'Mayor'
p1328
(lp1329
g1
(g10
g3
NtRp1330
(dp1331
g1049
F1
sg1050
F4
sg1051
F1.1499999999999999
sg1052
F1
sg1053
(lp1332
sg1055
F1.0900000000000001
sg1056
F1
sg488
g1328
sg1057
F10
sg1058
F1.0800000000000001
sg1059
(lp1333
g962
ag782
ag505
ag881
ag924
asg1061
F1.1000000000000001
sg1062
F1.1499999999999999
sg1063
(lp1334
g813
ag620
ag897
asg1065
F1.0800000000000001
sg1066
F1
sg1067
(lp1335
sg1069
S'Politician'
p1336
sg1071
F1.2
sg494
S'Mayor Goodman'
p1337
sg1073
F1
sg1074
(lp1338
sbassS'quest_items'
p1339
(dp1340
S'PEN'
p1341
g1
(g10
g3
NtRp1342
(dp1343
g494
S'A pen'
p1344
sg488
g1341
sbsS'BILLOFRIGHTS'
p1345
g1
(g10
g3
NtRp1346
(dp1347
g494
S"Citizens' Bill of Rights"
p1348
sg488
g1345
sbssg1059
(dp1349
S'Theo'
p1350
(lp1351
g962
ag782
ag505
ag881
ag588
ag813
ag620
ag865
ag713
asS'JointChief'
p1352
(lp1353
g916
ag924
ag946
ag726
ag612
asS'Politician'
p1354
(lp1355
g962
ag782
ag505
ag881
ag813
ag620
ag897
ag924
asS'Bumpkin'
p1356
(lp1357
g881
ag604
ag697
ag642
asS'TVPersonality'
p1358
(lp1359
g881
ag534
ag558
ag519
asS'SecretAgent'
p1360
(lp1361
g924
ag908
ag946
ag726
ag750
asS'DeepThroat'
p1362
(lp1363
g782
ag924
ag675
ag916
asS'Protestor'
p1364
(lp1365
g954
ag689
ag550
ag596
asS'Lobbyist'
p1366
(lp1367
g705
ag829
ag675
ag916
asS'Teacher'
p1368
(lp1369
g774
ag924
ag689
ag954
asS'Player'
p1370
(lp1371
g962
ag505
ag881
ag813
ag620
ag954
asS'Computer'
p1372
(lp1373
g726
ag946
ag566
ag675
ag916
ag782
asS'Receptionist'
p1374
(lp1375
g842
ag790
ag798
ag574
asS'Hippy'
p1376
(lp1377
g596
ag689
ag734
ag758
ag954
ag897
asS'Constituent'
p1378
(lp1379
g689
ag897
ag705
ag916
asS'Wife'
p1380
(lp1381
g954
ag897
ag924
ag962
ag628
asS'WarVet'
p1382
(lp1383
g916
ag924
ag873
ag954
asS'Religious'
p1384
(lp1385
g542
ag970
ag663
ag889
ag924
asS'Unionist'
p1386
(lp1387
g916
ag924
ag689
ag774
asS'Journalist'
p1388
(lp1389
g558
ag938
ag742
ag460
ag534
assS'encounters'
p1390
(dp1391
S'P-easy-05'
p1392
g1
(g10
g3
NtRp1393
(dp1394
S'item_attack_drops'
p1395
(lp1396
sS'item_attacks'
p1397
(lp1398
sg984
F10
sS'monster2_lvl'
p1399
S''
sS'monster3'
p1400
S''
sS'monster1_lvl'
p1401
F1
sS'monster3_lvl'
p1402
S''
sS'monster4_lvl'
p1403
S''
sS'monster4'
p1404
S''
sS'monster2'
p1405
S''
sg488
g1392
sS'monster1'
p1406
S'Journalist001'
p1407
sbsS'P-easy-04'
p1408
g1
(g10
g3
NtRp1409
(dp1410
g1395
(lp1411
sg1397
(lp1412
sg984
F10
sg1399
F1
sg1400
S'Protester001'
p1413
sg1401
F1
sg1402
F1
sg1403
S''
sg1404
S''
sg1405
S'Protester001'
p1414
sg488
g1408
sg1406
S'Protester001'
p1415
sbsS'P-easy-06'
p1416
g1
(g10
g3
NtRp1417
(dp1418
g1395
(lp1419
sg1397
(lp1420
sg984
F10
sg1399
F1
sg1400
S''
sg1401
F1
sg1402
S''
sg1403
S''
sg1404
S''
sg1405
S'Lobbyist001'
p1421
sg488
g1416
sg1406
S'Lobbyist001'
p1422
sbsS'P-easy-01'
p1423
g1
(g10
g3
NtRp1424
(dp1425
g1395
(lp1426
g1
(c__main__
ItemAttack
p1427
g3
NtRp1428
(dp1429
S'attack'
p1430
g497
sS'quantity'
p1431
I1
sbasg1397
(lp1432
g1
(g1427
g3
NtRp1433
(dp1434
g1430
g766
sg1431
I1
sbasg984
F10
sg1399
S''
sg1400
S''
sg1401
F1
sg1402
S''
sg1403
S''
sg1404
S''
sg1405
S''
sg488
g1423
sg1406
S'Receptionist001'
p1435
sbsS'P-easy-03'
p1436
g1
(g10
g3
NtRp1437
(dp1438
g1395
(lp1439
sg1397
(lp1440
sg984
F10
sg1399
F1
sg1400
S''
sg1401
F1
sg1402
S''
sg1403
S''
sg1404
S''
sg1405
S'Protester001'
p1441
sg488
g1436
sg1406
S'Protester001'
p1442
sbsS'P-easy-02'
p1443
g1
(g10
g3
NtRp1444
(dp1445
g1395
(lp1446
sg1397
(lp1447
sg984
F10
sg1399
F1
sg1400
S''
sg1401
F1
sg1402
S''
sg1403
S''
sg1404
S''
sg1405
S'Protester001'
p1448
sg488
g1443
sg1406
S'Protester001'
p1449
sbssb.