ccopy_reg
_reconstructor
p1
(c__main__
GameData
p2
c__builtin__
object
p3
NtRp4
(dp5
S'attacks'
p6
(dp7
S'Lie'
p8
g1
(c__main__
TableRow
p9
g3
NtRp10
(dp11
S'base_damage_max'
p12
F8
sS'description'
p13
S'ghi'
p14
sS'name'
p15
g8
sS'crit_chance_max'
p16
F10
sS'crit_chance_min'
p17
F2
sS'target_type'
p18
S'AllEnemy'
p19
sS'base_damage_min'
p20
F0
sS'spin_cost'
p21
I0
sS'effects'
p22
(lp23
g1
(c__main__
Effect
p24
g3
NtRp25
(dp26
S'function'
p27
S'miss_turn'
p28
sS'attribute'
p29
S''
sS'rounds_max'
p30
F1
sS'rounds_min'
p31
F1
sS'value'
p32
F0
sS'id'
p33
S'Critical Fail'
p34
sS'apply_to_source'
p35
S'TRUE'
p36
sbasS'target_count'
p37
I1
sS'crit_base_damage'
p38
F15
sS'underlying_stat'
p39
S'Cunning'
p40
sbsS'Lose/lose issue'
p41
g1
(g9
g3
NtRp42
(dp43
g12
F4
sg13
S'Causes all politicians in the target radius to lose votes'
p44
sg15
g41
sg16
F0
sg17
F0
sg18
S'All'
p45
sg20
F4
sg21
I0
sg22
(lp46
sg37
I6
sg38
F0
sg39
S'Cunning'
p47
sbsS'Stay On Message'
p48
g1
(g9
g3
NtRp49
(dp50
g12
F5
sg13
S'abc'
p51
sg15
g48
sg16
F10
sg17
F2
sg18
S'AllEnemy'
p52
sg20
F2
sg21
I0
sg22
(lp53
sg37
I1
sg38
F8
sg39
S'Cunning'
p54
sbsS'Joke'
p55
g1
(g9
g3
NtRp56
(dp57
g12
F3
sg13
S'jkl'
p58
sg15
g55
sg16
F10
sg17
F2
sg18
S'AllEnemy'
p59
sg20
F1
sg21
I0
sg22
(lp60
g1
(g24
g3
NtRp61
(dp62
g27
S'reduce'
p63
sg29
S'cunning'
p64
sg30
F5
sg31
F2
sg32
F2
sg33
S'Reduce Cunning'
p65
sg35
S''
sbasg37
I1
sg38
F6
sg39
S'Wit'
p66
sbsS'Negative attack ad'
p67
g1
(g9
g3
NtRp68
(dp69
g12
F10
sg13
S''
sg15
g67
sg16
F10
sg17
F10
sg18
S'AllEnemy'
p70
sg20
F5
sg21
F5
sg22
(lp71
sg37
I1
sg38
F10
sg39
S'Cunning'
p72
sbsS'Slander Opposition'
p73
g1
(g9
g3
NtRp74
(dp75
g12
F3
sg13
S'def'
p76
sg15
g73
sg16
F10
sg17
F2
sg18
S'AllEnemy'
p77
sg20
F1
sg21
I0
sg22
(lp78
g1
(g24
g3
NtRp79
(dp80
g27
S'drain'
p81
sg29
S'votes'
p82
sg30
F5
sg31
F2
sg32
F1
sg33
S'Drain Votes'
p83
sg35
S''
sbasg37
I1
sg38
F5
sg39
S'Cunning'
p84
sbsS'Defense'
p85
g1
(g9
g3
NtRp86
(dp87
g12
F0
sg13
S'Gather strenth; -50% to all incoming attacks'
p88
sg15
g85
sg16
F0
sg17
F0
sg18
S'None'
p89
sg20
F0
sg21
I0
sg22
(lp90
g1
(g24
g3
NtRp91
(dp92
g27
S'add'
p93
sg29
S'resistance'
p94
sg30
F1
sg31
F1
sg32
F0.5
sg33
S'Defense'
p95
sg35
S'TRUE'
p96
sbasg37
I1
sg38
F0
sg39
S''
sbsS'Bribe'
p97
g1
(g9
g3
NtRp98
(dp99
g12
F1
sg13
S'mno'
p100
sg15
g97
sg16
F1
sg17
F1
sg18
S'AllEnemy'
p101
sg20
F1
sg21
I0
sg22
(lp102
sg37
I1
sg38
F1
sg39
S'Money'
p103
sbsS'Inspirational Speech'
p104
g1
(g9
g3
NtRp105
(dp106
g12
F-2
sg13
S'Restore votes to all party members'
p107
sg15
g104
sg16
F0
sg17
F0
sg18
S'AllFriendly'
p108
sg20
F-2
sg21
I0
sg22
(lp109
sg37
I4
sg38
F0
sg39
S'Cunning'
p110
sbsS'Bielection'
p111
g1
(g9
g3
NtRp112
(dp113
g12
F4
sg13
S'Redistribute votes amongst targets'
p114
sg15
g111
sg16
F0
sg17
F0
sg18
S'All'
p115
sg20
F-4
sg21
F10
sg22
(lp116
sg37
I8
sg38
F0
sg39
S'Cunning'
p117
sbssS'standard_attacks'
p118
(dp119
S'Player'
p120
(lp121
g49
ag74
ag10
ag56
ag98
ag112
ag68
assS'encounters'
p122
(dp123
S'P-easy-01'
p124
g1
(g9
g3
NtRp125
(dp126
S'xp'
p127
F100
sS'monster2_lvl'
p128
F1
sS'monster3'
p129
S'Politician001'
p130
sS'monster1_lvl'
p131
F1
sS'monster3_lvl'
p132
F1
sS'monster4_lvl'
p133
F1
sS'monster4'
p134
S'Politician001'
p135
sS'drops'
p136
S'Lose/lose issue'
p137
sS'monster2'
p138
S'Politician001'
p139
sg33
g124
sS'monster1'
p140
S'Politician001'
p141
sbssg22
(dp142
g34
g25
sg65
g61
sg83
g79
sg95
g91
ssS'characters'
p143
(dp144
S'Player'
p145
(lp146
g1
(g9
g3
NtRp147
(dp148
S'flair_base'
p149
F1
sS'spin_base'
p150
F5
sS'flair_lvl'
p151
F1.1499999999999999
sS'wit_base'
p152
F2
sS'resistance'
p153
(lp154
sS'wit_lvl'
p155
F1.0900000000000001
sS'cunning_base'
p156
F2
sg33
g145
sS'item_attacks'
p157
(lp158
g105
ag42
asS'votes_base'
p159
F10
sS'speed_lvl'
p160
F1.0800000000000001
sg118
(lp161
g49
ag74
ag10
ag56
ag98
asS'cunning_lvl'
p162
F1.1000000000000001
sS'charisma_lvl'
p163
F1.1499999999999999
sS'spin_attacks'
p164
(lp165
g112
ag68
asS'spin_lvl'
p166
F1.0800000000000001
sS'charisma_base'
p167
F2
sS'weaknesses'
p168
(lp169
sS'attack_group'
p170
S'Player'
p171
sS'votes_lvl'
p172
F1.2
sS'speed_base'
p173
F2
sS'immunities'
p174
(lp175
sbasS'ReligiousNut001'
p176
(lp177
g1
(g9
g3
NtRp178
(dp179
g149
S''
sg150
S''
sg151
S''
sg152
S''
sg153
(lp180
sg155
S''
sg156
S''
sg33
g176
sg157
(lp181
sg159
S''
sg160
S''
sg118
(lp182
g49
ag74
ag10
ag56
ag98
asg162
S''
sg163
S''
sg164
(lp183
g112
ag68
asg166
S''
sg167
S''
sg168
(lp184
sg170
S'Player'
p185
sg172
S''
sg173
S''
sg174
(lp186
g56
asbasS'Lobbyist001'
p187
(lp188
g1
(g9
g3
NtRp189
(dp190
g149
S''
sg150
S''
sg151
S''
sg152
S''
sg153
(lp191
sg155
S''
sg156
S''
sg33
g187
sg157
(lp192
sg159
S''
sg160
S''
sg118
(lp193
g49
ag74
ag10
ag56
ag98
asg162
S''
sg163
S''
sg164
(lp194
g112
ag68
asg166
S''
sg167
S''
sg168
(lp195
sg170
S'Player'
p196
sg172
S''
sg173
S''
sg174
(lp197
g98
asbasS'Politician001'
p198
(lp199
g1
(g9
g3
NtRp200
(dp201
g149
F1
sg150
F4
sg151
F1.1499999999999999
sg152
F1
sg153
(lp202
g10
asg155
F1.0900000000000001
sg156
F1
sg33
g198
sg157
(lp203
g105
asg159
F20
sg160
F1.0800000000000001
sg118
(lp204
g49
ag74
ag10
ag56
ag98
asg162
F1.1000000000000001
sg163
F1.1499999999999999
sg164
(lp205
g112
ag68
asg166
F1.0800000000000001
sg167
F1
sg168
(lp206
g98
asg170
S'Player'
p207
sg172
F1.2
sg173
F1
sg174
(lp208
g49
asbasS'Bumpkin001'
p209
(lp210
g1
(g9
g3
NtRp211
(dp212
g149
S''
sg150
S''
sg151
S''
sg152
S''
sg153
(lp213
sg155
S''
sg156
S''
sg33
g209
sg157
(lp214
sg159
S''
sg160
S''
sg118
(lp215
g49
ag74
ag10
ag56
ag98
asg162
S''
sg163
S''
sg164
(lp216
g112
ag68
asg166
S''
sg167
S''
sg168
(lp217
g10
asg170
S'Player'
p218
sg172
S''
sg173
S''
sg174
(lp219
sbassb.