ccopy_reg
_reconstructor
p1
(c__main__
GameData
p2
c__builtin__
object
p3
NtRp4
(dp5
S'script'
p6
(dp7
S'StairsToWhiteHouse'
p8
(lp9
g1
(c__main__
TableRow
p10
g3
NtRp11
(dp12
S'action'
p13
S'Label'
p14
sS'trigger'
p15
g8
sS'param'
p16
S'START'
p17
sS'dialog'
p18
S''
sbag1
(g10
g3
NtRp19
(dp20
g13
S'PlayerSay'
p21
sg15
S'StairsToWhiteHouse'
p22
sg16
S''
sg18
S"I can't go upstairs now, I have a job to do!"
p23
sbag1
(g10
g3
NtRp24
(dp25
g13
S'Jump'
p26
sg15
S'StairsToWhiteHouse'
p27
sg16
S'START'
p28
sg18
S''
sbasS'Lobbyist3'
p29
(lp30
g1
(g10
g3
NtRp31
(dp32
g13
S'RequireFlag'
p33
sg15
g29
sg16
S'STARTLOBBYISTS'
p34
sg18
S'Mutter, mutter'
p35
sbag1
(g10
g3
NtRp36
(dp37
g13
S'Say'
p38
sg15
S'Lobbyist3'
p39
sg16
S''
sg18
S"To get the support of my organisation, you'll need to tell me what you can do for the conservation of internet memes."
p40
sbag1
(g10
g3
NtRp41
(dp42
g13
S'PlayerSay'
p43
sg15
S'Lobbyist3'
p44
sg16
S''
sg18
S'For...internet memes?'
p45
sbag1
(g10
g3
NtRp46
(dp47
g13
S'Say'
p48
sg15
S'Lobbyist3'
p49
sg16
S''
sg18
S"Yes, these are serious times. Who remembers hitting the giant crab for massive damage.There's another console release. I bet you can't even remember what you had to do to get massive damage."
p50
sbag1
(g10
g3
NtRp51
(dp52
g13
S'PlayerSay'
p53
sg15
S'Lobbyist3'
p54
sg16
S''
sg18
S'Giant...crab...?'
p55
sbag1
(g10
g3
NtRp56
(dp57
g13
S'Say'
p58
sg15
S'Lobbyist3'
p59
sg16
S''
sg18
S"You have to flip him over, that's what! We have to act quickly to save the internet memes. Even as I speak, fewer and fewer Gangnum style videos are made. It's a crime!"
p60
sbag1
(g10
g3
NtRp61
(dp62
g13
S'Say'
p63
sg15
S'Lobbyist3'
p64
sg16
S''
sg18
S'We need to build safehouses for all of the lolcats, provide IT helpdesk support for rickrole education and somebody needs to save the Sharknado from extinction!'
p65
sbag1
(g10
g3
NtRp66
(dp67
g13
S'Encounter'
p68
sg15
S'Lobbyist3'
p69
sg16
S'P-med-13'
p70
sg18
S''
sbag1
(g10
g3
NtRp71
(dp72
g13
S'Increment'
p73
sg15
S'Lobbyist3'
p74
sg16
S'LOBBYISTS'
p75
sg18
S''
sbag1
(g10
g3
NtRp76
(dp77
g13
S'Say'
p78
sg15
S'Lobbyist3'
p79
sg16
S''
sg18
S'Nailed It.'
p80
sbag1
(g10
g3
NtRp81
(dp82
g13
S'Destroy'
p83
sg15
S'Lobbyist3'
p84
sg16
S''
sg18
S''
sbasS'Kawalski'
p85
(lp86
g1
(g10
g3
NtRp87
(dp88
g13
S'RequireFlag'
p89
sg15
g85
sg16
S'ACCESSKAWALSKI'
p90
sg18
S"I'm not allowed to speak to you, sir."
p91
sbag1
(g10
g3
NtRp92
(dp93
g13
S'Say'
p94
sg15
S'Kawalski'
p95
sg16
S''
sg18
S'A pleasure to meet you, President Mossman. I am Agent Kawalski, your security detail.'
p96
sbag1
(g10
g3
NtRp97
(dp98
g13
S'PlayerSay'
p99
sg15
S'Kawalski'
p100
sg16
S''
sg18
S'Great to meet you, Agent Kawalski. What do I need to know?'
p101
sbag1
(g10
g3
NtRp102
(dp103
g13
S'Say'
p104
sg15
S'Kawalski'
p105
sg16
S''
sg18
S'Well actually, it does have to do with your security. Something terrible is happening at the White House.'
p106
sbag1
(g10
g3
NtRp107
(dp108
g13
S'PlayerSay'
p109
sg15
S'Kawalski'
p110
sg16
S''
sg18
S"If you're trying to warn me about the aliens, it's under control."
p111
sbag1
(g10
g3
NtRp112
(dp113
g13
S'Say'
p114
sg15
S'Kawalski'
p115
sg16
S''
sg18
S'No, no, this is different. I think somebody is trying to take over the White House.'
p116
sbag1
(g10
g3
NtRp117
(dp118
g13
S'PlayerSay'
p119
sg15
S'Kawalski'
p120
sg16
S''
sg18
S"Wouldn't we know?"
p121
sbag1
(g10
g3
NtRp122
(dp123
g13
S'Say'
p124
sg15
S'Kawalski'
p125
sg16
S''
sg18
S"It's too early for those kind of details. I just want you to keep your eyes open, Mr President."
p126
sbag1
(g10
g3
NtRp127
(dp128
g13
S'PlayerSay'
p129
sg15
S'Kawalski'
p130
sg16
S''
sg18
S'No problem.'
p131
sbag1
(g10
g3
NtRp132
(dp133
g13
S'Destroy'
p134
sg15
S'Kawalski'
p135
sg16
S''
sg18
S''
sbag1
(g10
g3
NtRp136
(dp137
g13
S'AddAlly'
p138
sg15
S'Kawalski'
p139
sg16
S'SecretAgent:6'
p140
sg18
S'Kawalski joins your political party!'
p141
sbag1
(g10
g3
NtRp142
(dp143
g13
S'SetFlag'
p144
sg15
S'Kawalski'
p145
sg16
S'KAWALSKIJOIN'
p146
sg18
S''
sbasS'Religious4'
p147
(lp148
g1
(g10
g3
NtRp149
(dp150
g13
S'Say'
p151
sg15
g147
sg16
S''
sg18
S'Welcome, my child. We have travelled here from Battycan City to be assured you are a man of faith before we endorse you.'
p152
sbag1
(g10
g3
NtRp153
(dp154
g13
S'PlayerSay'
p155
sg15
S'Religious4'
p156
sg16
S''
sg18
S'Er, what faith is that?'
p157
sbag1
(g10
g3
NtRp158
(dp159
g13
S'Say'
p160
sg15
S'Religious4'
p161
sg16
S''
sg18
S'Why, the one true god: Coffee.'
p162
sbag1
(g10
g3
NtRp163
(dp164
g13
S'PlayerSay'
p165
sg15
S'Religious4'
p166
sg16
S''
sg18
S'...Coffee?'
p167
sbag1
(g10
g3
NtRp168
(dp169
g13
S'Say'
p170
sg15
S'Religious4'
p171
sg16
S''
sg18
S"Yes of course. He who lifts you up when you're feeling low, who is your inspiration in the dark and who can achieve miraculous feats of effort with dedicated prayer."
p172
sbag1
(g10
g3
NtRp173
(dp174
g13
S'PlayerSay'
p175
sg15
S'Religious4'
p176
sg16
S''
sg18
S'This may be a religion I can get behind.'
p177
sbag1
(g10
g3
NtRp178
(dp179
g13
S'Encounter'
p180
sg15
S'Religious4'
p181
sg16
S'P-med-15'
p182
sg18
S''
sbag1
(g10
g3
NtRp183
(dp184
g13
S'Increment'
p185
sg15
S'Religious4'
p186
sg16
S'RELIGIOUSNUTS'
p187
sg18
S''
sbag1
(g10
g3
NtRp188
(dp189
g13
S'Say'
p190
sg15
S'Religious4'
p191
sg16
S''
sg18
S'Wonderful, the Battycan will be most pleased.'
p192
sbag1
(g10
g3
NtRp193
(dp194
g13
S'Destroy'
p195
sg15
S'Religious4'
p196
sg16
S''
sg18
S''
sbasS'Religious1'
p197
(lp198
g1
(g10
g3
NtRp199
(dp200
g13
S'Say'
p201
sg15
g197
sg16
S''
sg18
S'Have you had your morning prayer?'
p202
sbag1
(g10
g3
NtRp203
(dp204
g13
S'Encounter'
p205
sg15
S'Religious1'
p206
sg16
S'P-med-16'
p207
sg18
S''
sbag1
(g10
g3
NtRp208
(dp209
g13
S'Increment'
p210
sg15
S'Religious1'
p211
sg16
S'RELIGIOUSNUTS'
p212
sg18
S''
sbag1
(g10
g3
NtRp213
(dp214
g13
S'Say'
p215
sg15
S'Religious1'
p216
sg16
S''
sg18
S'Some people pray upwards of 5 times a day, but this can cause hallucinations.'
p217
sbag1
(g10
g3
NtRp218
(dp219
g13
S'Destroy'
p220
sg15
S'Religious1'
p221
sg16
S''
sg18
S''
sbasS'Religious3'
p222
(lp223
g1
(g10
g3
NtRp224
(dp225
g13
S'Say'
p226
sg15
g222
sg16
S''
sg18
S'Mmmmmm...Coffee....ommmmm'
p227
sbag1
(g10
g3
NtRp228
(dp229
g13
S'Encounter'
p230
sg15
S'Religious3'
p231
sg16
S'P-med-17'
p232
sg18
S''
sbag1
(g10
g3
NtRp233
(dp234
g13
S'Increment'
p235
sg15
S'Religious3'
p236
sg16
S'RELIGIOUSNUTS'
p237
sg18
S''
sbag1
(g10
g3
NtRp238
(dp239
g13
S'Say'
p240
sg15
S'Religious3'
p241
sg16
S''
sg18
S'I must return to my meditation.'
p242
sbag1
(g10
g3
NtRp243
(dp244
g13
S'Destroy'
p245
sg15
S'Religious3'
p246
sg16
S''
sg18
S''
sbasS'Religious2'
p247
(lp248
g1
(g10
g3
NtRp249
(dp250
g13
S'Say'
p251
sg15
g247
sg16
S''
sg18
S'Do not be swayed by the seductive powers of tea!'
p252
sbag1
(g10
g3
NtRp253
(dp254
g13
S'Encounter'
p255
sg15
S'Religious2'
p256
sg16
S'P-med-18'
p257
sg18
S''
sbag1
(g10
g3
NtRp258
(dp259
g13
S'Increment'
p260
sg15
S'Religious2'
p261
sg16
S'RELIGIOUSNUTS'
p262
sg18
S''
sbag1
(g10
g3
NtRp263
(dp264
g13
S'Say'
p265
sg15
S'Religious2'
p266
sg16
S''
sg18
S'The Battycan will be satisfied with this news.'
p267
sbag1
(g10
g3
NtRp268
(dp269
g13
S'Destroy'
p270
sg15
S'Religious2'
p271
sg16
S''
sg18
S''
sbasS'Constituent2'
p272
(lp273
g1
(g10
g3
NtRp274
(dp275
g13
S'RequireFlag'
p276
sg15
g272
sg16
S'STARTCONSTITUENTS'
p277
sg18
S'What?'
p278
sbag1
(g10
g3
NtRp279
(dp280
g13
S'PlayerSay'
p281
sg15
S'Constituent2'
p282
sg16
S''
sg18
S'Vote Phillip Mossman for Mayor!'
p283
sbag1
(g10
g3
NtRp284
(dp285
g13
S'Say'
p286
sg15
S'Constituent2'
p287
sg16
S''
sg18
S'But Mayor Goodman has always taken care of me.'
p288
sbag1
(g10
g3
NtRp289
(dp290
g13
S'Encounter'
p291
sg15
S'Constituent2'
p292
sg16
S'P-easy-08'
p293
sg18
S''
sbag1
(g10
g3
NtRp294
(dp295
g13
S'Say'
p296
sg15
S'Constituent2'
p297
sg16
S''
sg18
S"I think it's time for a change!"
p298
sbag1
(g10
g3
NtRp299
(dp300
g13
S'Destroy'
p301
sg15
S'Constituent2'
p302
sg16
S''
sg18
S''
sbasS'Constituent3'
p303
(lp304
g1
(g10
g3
NtRp305
(dp306
g13
S'RequireFlag'
p307
sg15
g303
sg16
S'STARTCONSTITUENTS'
p308
sg18
S'What?'
p309
sbag1
(g10
g3
NtRp310
(dp311
g13
S'PlayerSay'
p312
sg15
S'Constituent3'
p313
sg16
S''
sg18
S'Vote Phillip Mossman for Mayor!'
p314
sbag1
(g10
g3
NtRp315
(dp316
g13
S'Say'
p317
sg15
S'Constituent3'
p318
sg16
S''
sg18
S'But Mayor Goodman has always taken care of me.'
p319
sbag1
(g10
g3
NtRp320
(dp321
g13
S'Encounter'
p322
sg15
S'Constituent3'
p323
sg16
S'P-easy-09'
p324
sg18
S''
sbag1
(g10
g3
NtRp325
(dp326
g13
S'Say'
p327
sg15
S'Constituent3'
p328
sg16
S''
sg18
S"I think it's time for a change!"
p329
sbag1
(g10
g3
NtRp330
(dp331
g13
S'PlayerSay'
p332
sg15
S'Constituent3'
p333
sg16
S''
sg18
S"I think I'm ready to take on Mayor Goodman now!"
p334
sbag1
(g10
g3
NtRp335
(dp336
g13
S'SetFlag'
p337
sg15
S'Constituent3'
p338
sg16
S'CONSTITUENTSWON'
p339
sg18
S''
sbag1
(g10
g3
NtRp340
(dp341
g13
S'Destroy'
p342
sg15
S'Constituent3'
p343
sg16
S''
sg18
S''
sbasS'Constituent1'
p344
(lp345
g1
(g10
g3
NtRp346
(dp347
g13
S'RequireFlag'
p348
sg15
g344
sg16
S'STARTCONSTITUENTS'
p349
sg18
S'Yes?'
p350
sbag1
(g10
g3
NtRp351
(dp352
g13
S'PlayerSay'
p353
sg15
S'Constituent1'
p354
sg16
S''
sg18
S'Vote Phillip Mossman for Mayor!'
p355
sbag1
(g10
g3
NtRp356
(dp357
g13
S'Say'
p358
sg15
S'Constituent1'
p359
sg16
S''
sg18
S'Who?'
p360
sbag1
(g10
g3
NtRp361
(dp362
g13
S'PlayerSay'
p363
sg15
S'Constituent1'
p364
sg16
S''
sg18
S'Er, me!'
p365
sbag1
(g10
g3
NtRp366
(dp367
g13
S'Say'
p368
sg15
S'Constituent1'
p369
sg16
S''
sg18
S'Why? How will you help local business?'
p370
sbag1
(g10
g3
NtRp371
(dp372
g13
S'Encounter'
p373
sg15
S'Constituent1'
p374
sg16
S'P-easy-07'
p375
sg18
S''
sbag1
(g10
g3
NtRp376
(dp377
g13
S'Say'
p378
sg15
S'Constituent1'
p379
sg16
S''
sg18
S'You make a good case!'
p380
sbag1
(g10
g3
NtRp381
(dp382
g13
S'Destroy'
p383
sg15
S'Constituent1'
p384
sg16
S''
sg18
S''
sbasS'Cabinet1'
p385
(lp386
g1
(g10
g3
NtRp387
(dp388
g13
S'Say'
p389
sg15
g385
sg16
S''
sg18
S'Good afternoon, Mr President. How can I help?'
p390
sbag1
(g10
g3
NtRp391
(dp392
g13
S'PlayerSay'
p393
sg15
S'Cabinet1'
p394
sg16
S''
sg18
S'I want to know where the orders to mobilise the military and reallocate education funds came from.'
p395
sbag1
(g10
g3
NtRp396
(dp397
g13
S'Say'
p398
sg15
S'Cabinet1'
p399
sg16
S''
sg18
S'But...it came from you, sir. They were both faxed over to me this afternoon.'
p400
sbag1
(g10
g3
NtRp401
(dp402
g13
S'PlayerSay'
p403
sg15
S'Cabinet1'
p404
sg16
S''
sg18
S'Tell me every detail.'
p405
sbag1
(g10
g3
NtRp406
(dp407
g13
S'Encounter'
p408
sg15
S'Cabinet1'
p409
sg16
S'P-hard-08'
p410
sg18
S''
sbag1
(g10
g3
NtRp411
(dp412
g13
S'Increment'
p413
sg15
S'Cabinet1'
p414
sg16
S'CABINETMEMBERS'
p415
sg18
S''
sbag1
(g10
g3
NtRp416
(dp417
g13
S'Say'
p418
sg15
S'Cabinet1'
p419
sg16
S''
sg18
S'I cannot understand how this could happen.'
p420
sbag1
(g10
g3
NtRp421
(dp422
g13
S'Destroy'
p423
sg15
S'Cabinet1'
p424
sg16
S''
sg18
S''
sbasS'Cabinet2'
p425
(lp426
g1
(g10
g3
NtRp427
(dp428
g13
S'Say'
p429
sg15
g425
sg16
S''
sg18
S'Good afternoon, Mr President. What seems to be the problem?'
p430
sbag1
(g10
g3
NtRp431
(dp432
g13
S'PlayerSay'
p433
sg15
S'Cabinet2'
p434
sg16
S''
sg18
S'Find out where the education funds have been allocated.'
p435
sbag1
(g10
g3
NtRp436
(dp437
g13
S'Say'
p438
sg15
S'Cabinet2'
p439
sg16
S''
sg18
S'To the military, Sir. I saw to it myself.'
p440
sbag1
(g10
g3
NtRp441
(dp442
g13
S'PlayerSay'
p443
sg15
S'Cabinet2'
p444
sg16
S''
sg18
S'How did this happen? Tell me everything!'
p445
sbag1
(g10
g3
NtRp446
(dp447
g13
S'Encounter'
p448
sg15
S'Cabinet2'
p449
sg16
S'P-hard-09'
p450
sg18
S''
sbag1
(g10
g3
NtRp451
(dp452
g13
S'Increment'
p453
sg15
S'Cabinet2'
p454
sg16
S'CABINETMEMBERS'
p455
sg18
S''
sbag1
(g10
g3
NtRp456
(dp457
g13
S'PlayerSay'
p458
sg15
S'Cabinet2'
p459
sg16
S''
sg18
S"It can't be a coincidence that both situations involved the military."
p460
sbag1
(g10
g3
NtRp461
(dp462
g13
S'Destroy'
p463
sg15
S'Cabinet2'
p464
sg16
S''
sg18
S''
sbasS'Cabinet3'
p465
(lp466
g1
(g10
g3
NtRp467
(dp468
g13
S'Say'
p469
sg15
g465
sg16
S''
sg18
S"Mr President, I'm sorry, I couldn't know it wasn't your signature."
p470
sbag1
(g10
g3
NtRp471
(dp472
g13
S'PlayerSay'
p473
sg15
S'Cabinet3'
p474
sg16
S''
sg18
S'Never mind that now. Where are the troops heading?'
p475
sbag1
(g10
g3
NtRp476
(dp477
g13
S'Say'
p478
sg15
S'Cabinet3'
p479
sg16
S''
sg18
S"North...to Canada. We assumed it was planned. There's a pact allowing troops into Canada."
p480
sbag1
(g10
g3
NtRp481
(dp482
g13
S'PlayerSay'
p483
sg15
S'Cabinet3'
p484
sg16
S''
sg18
S'What could they be up to?'
p485
sbag1
(g10
g3
NtRp486
(dp487
g13
S'Encounter'
p488
sg15
S'Cabinet3'
p489
sg16
S'P-hard-10'
p490
sg18
S''
sbag1
(g10
g3
NtRp491
(dp492
g13
S'Increment'
p493
sg15
S'Cabinet3'
p494
sg16
S'CABINETMEMBERS'
p495
sg18
S''
sbag1
(g10
g3
NtRp496
(dp497
g13
S'PlayerSay'
p498
sg15
S'Cabinet3'
p499
sg16
S''
sg18
S"I'd better get to the Joint Chiefs. This is getting out-of-hand.."
p500
sbag1
(g10
g3
NtRp501
(dp502
g13
S'Destroy'
p503
sg15
S'Cabinet3'
p504
sg16
S''
sg18
S''
sbasS'Wife'
p505
(lp506
g1
(g10
g3
NtRp507
(dp508
g13
S'RequireFlag'
p509
sg15
g505
sg16
S'GOHOMETOWIFE'
p510
sg18
S'What are you doing here, Phillip? You should be at work!'
p511
sbag1
(g10
g3
NtRp512
(dp513
g13
S'Say'
p514
sg15
S'Wife'
p515
sg16
S''
sg18
S'Welcome home, Phillip! How was your workday?'
p516
sbag1
(g10
g3
NtRp517
(dp518
g13
S'PlayerSay'
p519
sg15
S'Wife'
p520
sg16
S''
sg18
S'...'
p521
sbag1
(g10
g3
NtRp522
(dp523
g13
S'Say'
p524
sg15
S'Wife'
p525
sg16
S''
sg18
S"That good, huh? You know this isn't what you want. Why don't you strike out on your own?"
p526
sbag1
(g10
g3
NtRp527
(dp528
g13
S'PlayerSay'
p529
sg15
S'Wife'
p530
sg16
S''
sg18
S"I didn't think I knew where to start to be a Mayor, but Mayor Goodman makes it look easy."
p531
sbag1
(g10
g3
NtRp532
(dp533
g13
S'Say'
p534
sg15
S'Wife'
p535
sg16
S''
sg18
S"That's the spirit! You can do it! All you need is some money and support."
p536
sbag1
(g10
g3
NtRp537
(dp538
g13
S'PlayerSay'
p539
sg15
S'Wife'
p540
sg16
S''
sg18
S'Well...OK! Lets start with money. We need a sponsor.'
p541
sbag1
(g10
g3
NtRp542
(dp543
g13
S'Say'
p544
sg15
S'Wife'
p545
sg16
S''
sg18
S'OK, lets go get one!'
p546
sbag1
(g10
g3
NtRp547
(dp548
g13
S'AddAlly'
p549
sg15
S'Wife'
p550
sg16
S'Wife:2'
p551
sg18
S'Sarah Mossman Joins Your Political Party!'
p552
sbag1
(g10
g3
NtRp553
(dp554
g13
S'SetFlag'
p555
sg15
S'Wife'
p556
sg16
S'STARTSPONSOR'
p557
sg18
S''
sbag1
(g10
g3
NtRp558
(dp559
g13
S'Destroy'
p560
sg15
S'Wife'
p561
sg16
S''
sg18
S''
sbasS'Lobbyist4'
p562
(lp563
g1
(g10
g3
NtRp564
(dp565
g13
S'RequireFlag'
p566
sg15
g562
sg16
S'STARTLOBBYISTS'
p567
sg18
S'Please tend to your other meetings so that we can see you.'
p568
sbag1
(g10
g3
NtRp569
(dp570
g13
S'Say'
p571
sg15
S'Lobbyist4'
p572
sg16
S''
sg18
S"If you are elected, I would like to know what you would plan to support the Storyteller's Guild and their efforts to revive a lost art."
p573
sbag1
(g10
g3
NtRp574
(dp575
g13
S'PlayerSay'
p576
sg15
S'Lobbyist4'
p577
sg16
S''
sg18
S"I'm all for protecting the arts. How can I help?"
p578
sbag1
(g10
g3
NtRp579
(dp580
g13
S'Say'
p581
sg15
S'Lobbyist4'
p582
sg16
S''
sg18
S'Storytelling is being butchered and almost completely ignored. I could list movies and television, but the real culprit is video games.'
p583
sbag1
(g10
g3
NtRp584
(dp585
g13
S'Say'
p586
sg15
S'Lobbyist4'
p587
sg16
S''
sg18
S'Many video game plots are derivative and archaic. Why, if this were a video game, it would have almost no substance at all and simply be a flimsy curtain for one of their "fetch quests".'
p588
sbag1
(g10
g3
NtRp589
(dp590
g13
S'Say'
p591
sg15
S'Lobbyist4'
p592
sg16
S''
sg18
S"It is a most serious problem and we wouldn't be able to lend you our support without assurances on this matter."
p593
sbag1
(g10
g3
NtRp594
(dp595
g13
S'Encounter'
p596
sg15
S'Lobbyist4'
p597
sg16
S'P-med-14'
p598
sg18
S''
sbag1
(g10
g3
NtRp599
(dp600
g13
S'Increment'
p601
sg15
S'Lobbyist4'
p602
sg16
S'LOBBYISTS'
p603
sg18
S''
sbag1
(g10
g3
NtRp604
(dp605
g13
S'Say'
p606
sg15
S'Lobbyist4'
p607
sg16
S''
sg18
S'While I feel that your argument lacks substance and detail, I will nevertheless concede.'
p608
sbag1
(g10
g3
NtRp609
(dp610
g13
S'Destroy'
p611
sg15
S'Lobbyist4'
p612
sg16
S''
sg18
S''
sbasS'#----------------------------------------------------------------------------------------ACT 2 \xe2\x80\x93 Part 2---------------------------------------------------------------------------------------------------------------------------------------------------'
p613
(lp614
g1
(g10
g3
NtRp615
(dp616
g13
S''
sg15
g613
sg16
S''
sg18
S''
sbasS'Lobbyist2'
p617
(lp618
g1
(g10
g3
NtRp619
(dp620
g13
S'RequireFlag'
p621
sg15
g617
sg16
S'STARTLOBBYISTS'
p622
sg18
S'Humph'
p623
sbag1
(g10
g3
NtRp624
(dp625
g13
S'Say'
p626
sg15
S'Lobbyist2'
p627
sg16
S''
sg18
S'I represent the Python Software Foundation. What will you do to promote, protect and advance the Python programming language?'
p628
sbag1
(g10
g3
NtRp629
(dp630
g13
S'PlayerSay'
p631
sg15
S'Lobbyist2'
p632
sg16
S''
sg18
S"Ah yes, the Python cause! I'm a big advocate of Python."
p633
sbag1
(g10
g3
NtRp634
(dp635
g13
S'Encounter'
p636
sg15
S'Lobbyist2'
p637
sg16
S'P-med-12'
p638
sg18
S''
sbag1
(g10
g3
NtRp639
(dp640
g13
S'Increment'
p641
sg15
S'Lobbyist2'
p642
sg16
S'LOBBYISTS'
p643
sg18
S''
sbag1
(g10
g3
NtRp644
(dp645
g13
S'Say'
p646
sg15
S'Lobbyist2'
p647
sg16
S''
sg18
S'I think we can help each other out.'
p648
sbag1
(g10
g3
NtRp649
(dp650
g13
S'Destroy'
p651
sg15
S'Lobbyist2'
p652
sg16
S''
sg18
S''
sbasS'PA2'
p653
(lp654
g1
(g10
g3
NtRp655
(dp656
g13
S'Say'
p657
sg15
g653
sg16
S''
sg18
S"Welcome to the White House, President Mossman. It was a long campaign trail with a very strange final debate, but we won and we're here."
p658
sbag1
(g10
g3
NtRp659
(dp660
g13
S'Say'
p661
sg15
S'PA2'
p662
sg16
S''
sg18
S'Now is the real test where we see how well we can run a country.'
p663
sbag1
(g10
g3
NtRp664
(dp665
g13
S'Say'
p666
sg15
S'PA2'
p667
sg16
S''
sg18
S'The first step is to give your first press conference as President to explain the...situation...with President Alien *cough* I mean Allen.'
p668
sbag1
(g10
g3
NtRp669
(dp670
g13
S'SetFlag'
p671
sg15
S'PA2'
p672
sg16
S'ACCESSJOURNALISTS'
p673
sg18
S''
sbag1
(g10
g3
NtRp674
(dp675
g13
S'RequireCount'
p676
sg15
S'PA2'
p677
sg16
S'PRESSCONF:3'
p678
sg18
S"They're waiting for you in the rose garden, Mr President."
p679
sbag1
(g10
g3
NtRp680
(dp681
g13
S'Say'
p682
sg15
S'PA2'
p683
sg16
S''
sg18
S'I think that went as well as could be expected.'
p684
sbag1
(g10
g3
NtRp685
(dp686
g13
S'SetFlag'
p687
sg15
S'PA2'
p688
sg16
S'ACCESSKAWALSKI'
p689
sg18
S''
sbag1
(g10
g3
NtRp690
(dp691
g13
S'Say'
p692
sg15
S'PA2'
p693
sg16
S''
sg18
S'Your secret service detail is waiting inside to have a word with you about security protocol.'
p694
sbag1
(g10
g3
NtRp695
(dp696
g13
S'RequireFlag'
p697
sg15
S'PA2'
p698
sg16
S'KAWALSKIJOIN'
p699
sg18
S"You'd better speak to the secret service agent. Your security is paramount."
p700
sbag1
(g10
g3
NtRp701
(dp702
g13
S'Say'
p703
sg15
S'PA2'
p704
sg16
S''
sg18
S"Some war veterans would like to speak to you about some recent decisions you've made. I don't dare turn them away. You'd better speak to them."
p705
sbag1
(g10
g3
NtRp706
(dp707
g13
S'PlayerSay'
p708
sg15
S'PA2'
p709
sg16
S''
sg18
S'Of course.'
p710
sbag1
(g10
g3
NtRp711
(dp712
g13
S'GiveItem'
p713
sg15
S'PA2'
p714
sg16
S'WARVETROOMKEY'
p715
sg18
S'Received key to the East Room.'
p716
sbag1
(g10
g3
NtRp717
(dp718
g13
S'RequireCount'
p719
sg15
S'PA2'
p720
sg16
S'WARVETS:2'
p721
sg18
S'The war vets are waiting for you in the East Room.'
p722
sbag1
(g10
g3
NtRp723
(dp724
g13
S'Say'
p725
sg15
S'PA2'
p726
sg16
S''
sg18
S'What was that about?'
p727
sbag1
(g10
g3
NtRp728
(dp729
g13
S'PlayerSay'
p730
sg15
S'PA2'
p731
sg16
S''
sg18
S"I'd like to know as well. Find me the documents that approved troop movement today and get me a meeting with the Joint Chiefs."
p732
sbag1
(g10
g3
NtRp733
(dp734
g13
S'Say'
p735
sg15
S'PA2'
p736
sg16
S''
sg18
S'Yessir.'
p737
sbag1
(g10
g3
NtRp738
(dp739
g13
S'Say'
p740
sg15
S'PA2'
p741
sg16
S''
sg18
S"Your next meeting is with the teachers in the corridor. They didn't give me the details, but it seems they're quite upset."
p742
sbag1
(g10
g3
NtRp743
(dp744
g13
S'GiveItem'
p745
sg15
S'PA2'
p746
sg16
S'TEACHERROOMKEY'
p747
sg18
S'Received key to the West Room.'
p748
sbag1
(g10
g3
NtRp749
(dp750
g13
S'RequireCount'
p751
sg15
S'PA2'
p752
sg16
S'TEACHERS:2'
p753
sg18
S"You'll need to speak to the teachers in the West Room, Mr President."
p754
sbag1
(g10
g3
NtRp755
(dp756
g13
S'Say'
p757
sg15
S'PA2'
p758
sg16
S''
sg18
S'You seem to have sorted the teachers out.'
p759
sbag1
(g10
g3
NtRp760
(dp761
g13
S'PlayerSay'
p762
sg15
S'PA2'
p763
sg16
S''
sg18
S"I've mollified them for now, but I want to get to the bottom of this - NOW!"
p764
sbag1
(g10
g3
NtRp765
(dp766
g13
S'Say'
p767
sg15
S'PA2'
p768
sg16
S''
sg18
S'Of course, Mr President. I do have those papers you asked for that approved the mobilisation of troops'
p769
sbag1
(g10
g3
NtRp770
(dp771
g13
S'PlayerSay'
p772
sg15
S'PA2'
p773
sg16
S''
sg18
S"Let me see those...this is my signature! But I didn't sign this!"
p774
sbag1
(g10
g3
NtRp775
(dp776
g13
S'Say'
p777
sg15
S'PA2'
p778
sg16
S''
sg18
S'This is very serious! What should we do, sir?'
p779
sbag1
(g10
g3
NtRp780
(dp781
g13
S'PlayerSay'
p782
sg15
S'PA2'
p783
sg16
S''
sg18
S'Call a cabinet meeting. Immediately.'
p784
sbag1
(g10
g3
NtRp785
(dp786
g13
S'Say'
p787
sg15
S'PA2'
p788
sg16
S''
sg18
S"Understood. They'll be there when you get there."
p789
sbag1
(g10
g3
NtRp790
(dp791
g13
S'GiveItem'
p792
sg15
S'PA2'
p793
sg16
S'CABINETROOMKEY'
p794
sg18
S'Received key to the Cabinet Room.'
p795
sbag1
(g10
g3
NtRp796
(dp797
g13
S'RequireCount'
p798
sg15
S'PA2'
p799
sg16
S'CABINETMEMBERS:3'
p800
sg18
S'The cabinet is waiting for you in the Cabinet Room.'
p801
sbag1
(g10
g3
NtRp802
(dp803
g13
S'Say'
p804
sg15
S'PA2'
p805
sg16
S''
sg18
S'The Joint Chiefs are assembled in the Situation Room downstairs.'
p806
sbag1
(g10
g3
NtRp807
(dp808
g13
S'Say'
p809
sg15
S'PA2'
p810
sg16
S''
sg18
S'Your palm print has been coded for maximum clearance now; you should have access to the basement.'
p811
sbag1
(g10
g3
NtRp812
(dp813
g13
S'SetFlag'
p814
sg15
S'PA2'
p815
sg16
S'ACCESSWHITEHOUSEBASEMENT'
p816
sg18
S''
sbag1
(g10
g3
NtRp817
(dp818
g13
S'RequireFlag'
p819
sg15
S'PA2'
p820
sg16
S'REPEAT'
p821
sg18
S'Get to the basement, the Joint Chiefs are waiting.'
p822
sbasS'PA3'
p823
(lp824
g1
(g10
g3
NtRp825
(dp826
g13
S'RequireCount'
p827
sg15
g823
sg16
S'JOINTCHIEFS:3'
p828
sg18
S'The Joint Chiefs are waiting for you in the situation room.'
p829
sbag1
(g10
g3
NtRp830
(dp831
g13
S'RequireFlag'
p832
sg15
S'PA3'
p833
sg16
S'WIN'
p834
sg18
S'Mr President, you have to put a stop to the supercomputer that will destroy the planet! You can access it in the Situation Room.'
p835
sbag1
(g10
g3
NtRp836
(dp837
g13
S'Say'
p838
sg15
S'PA3'
p839
sg16
S''
sg18
S"You have saved the day! The world is safe and all over the Ignited States, our citizens can sleep safe knowing you're taking care of them."
p840
sbag1
(g10
g3
NtRp841
(dp842
g13
S'RequireFlag'
p843
sg15
S'PA3'
p844
sg16
S'LOOP'
p845
sg18
S'Goodnight, Mr President.'
p846
sbasS'RestoreAct3'
p847
(lp848
g1
(g10
g3
NtRp849
(dp850
g13
S'GotoMap'
p851
sg15
g847
sg16
S'act3'
p852
sg18
S''
sbasS'RestoreAct2'
p853
(lp854
g1
(g10
g3
NtRp855
(dp856
g13
S'GotoMap'
p857
sg15
g853
sg16
S'act2'
p858
sg18
S''
sbasS'P-med-12'
p859
(lp860
g1
(g10
g3
NtRp861
(dp862
g13
S'Say'
p863
sg15
g859
sg16
S'Player'
p864
sg18
S"You're flying! How?"
p865
sbag1
(g10
g3
NtRp866
(dp867
g13
S'Say'
p868
sg15
S'P-med-12'
p869
sg16
S'Lobbyist001'
p870
sg18
S'Python!'
p871
sbag1
(g10
g3
NtRp872
(dp873
g13
S'Say'
p874
sg15
S'P-med-12'
p875
sg16
S'Lobbyist001'
p876
sg18
S'Everything is so simple!'
p877
sbag1
(g10
g3
NtRp878
(dp879
g13
S'BeginCombat'
p880
sg15
S'P-med-12'
p881
sg16
S''
sg18
S''
sbag1
(g10
g3
NtRp882
(dp883
g13
S'Say'
p884
sg15
S'P-med-12'
p885
sg16
S'Player'
p886
sg18
S'import this'
p887
sbasS'TVDebate'
p888
(lp889
g1
(g10
g3
NtRp890
(dp891
g13
S'RequireFlag'
p892
sg15
g888
sg16
S'STARTDEBATE'
p893
sg18
S"Hmmm? Oh, sorry, I'm on the phone to the studio."
p894
sbag1
(g10
g3
NtRp895
(dp896
g13
S'Say'
p897
sg15
S'TVDebate'
p898
sg16
S''
sg18
S"Good evening, Governor Mossman. If you'll follow me, I'll take you to the studio."
p899
sbag1
(g10
g3
NtRp900
(dp901
g13
S'Encounter'
p902
sg15
S'TVDebate'
p903
sg16
S'P-med-21'
p904
sg18
S''
sbag1
(g10
g3
NtRp905
(dp906
g13
S'Say'
p907
sg15
S'TVDebate'
p908
sg16
S''
sg18
S'Great work tonight, Governor Mossman and congratulations on the win!'
p909
sbag1
(g10
g3
NtRp910
(dp911
g13
S'SetFlag'
p912
sg15
S'TVDebate'
p913
sg16
S'DEBATECOMPLETE'
p914
sg18
S''
sbag1
(g10
g3
NtRp915
(dp916
g13
S'RestoreVotes'
p917
sg15
S'TVDebate'
p918
sg16
S''
sg18
S''
sbag1
(g10
g3
NtRp919
(dp920
g13
S'Destroy'
p921
sg15
S'TVDebate'
p922
sg16
S''
sg18
S''
sbasS'WarVet2'
p923
(lp924
g1
(g10
g3
NtRp925
(dp926
g13
S'RequireFlag'
p927
sg15
g923
sg16
S'AFTERWILFRED'
p928
sg18
S'Eh? Speak up, boy.'
p929
sbag1
(g10
g3
NtRp930
(dp931
g13
S'Encounter'
p932
sg15
S'WarVet2'
p933
sg16
S'P-hard-05'
p934
sg18
S''
sbag1
(g10
g3
NtRp935
(dp936
g13
S'Say'
p937
sg15
S'WarVet2'
p938
sg16
S''
sg18
S"We'll head home, but you can expect us back if we see anything else suspicious ."
p939
sbag1
(g10
g3
NtRp940
(dp941
g13
S'Increment'
p942
sg15
S'WarVet2'
p943
sg16
S'WARVETS'
p944
sg18
S''
sbag1
(g10
g3
NtRp945
(dp946
g13
S'Destroy'
p947
sg15
S'WarVet2'
p948
sg16
S''
sg18
S''
sbasS'WarVet1'
p949
(lp950
g1
(g10
g3
NtRp951
(dp952
g13
S'Say'
p953
sg15
g949
sg16
S''
sg18
S"You think you can fool me? I wasn't born yesterday, you know."
p954
sbag1
(g10
g3
NtRp955
(dp956
g13
S'PlayerSay'
p957
sg15
S'WarVet1'
p958
sg16
S''
sg18
S"I'm sorry, sir, but what seems to be the problem."
p959
sbag1
(g10
g3
NtRp960
(dp961
g13
S'Say'
p962
sg15
S'WarVet1'
p963
sg16
S''
sg18
S"You think I don't know a mobilising army when I see one? You're clearly readying for war and you think you don't even need to mention it to the people."
p964
sbag1
(g10
g3
NtRp965
(dp966
g13
S'Say'
p967
sg15
S'WarVet1'
p968
sg16
S'WarVet2'
p969
sg18
S"And don't forget that he's barely a cadet, Wilfred."
p970
sbag1
(g10
g3
NtRp971
(dp972
g13
S'Say'
p973
sg15
S'WarVet1'
p974
sg16
S''
sg18
S"Right you are, Arnold, You've barely set foot in this building and you're already leading us to war. Who do you think you're dealing with? We won't stand."
p975
sbag1
(g10
g3
NtRp976
(dp977
g13
S'Encounter'
p978
sg15
S'WarVet1'
p979
sg16
S'P-hard-04'
p980
sg18
S''
sbag1
(g10
g3
NtRp981
(dp982
g13
S'Say'
p983
sg15
S'WarVet1'
p984
sg16
S''
sg18
S"Seems like a flimsy excuse, you didn't know. Better get your troops in line if you want 'em to march, boy."
p985
sbag1
(g10
g3
NtRp986
(dp987
g13
S'Increment'
p988
sg15
S'WarVet1'
p989
sg16
S'WARVETS'
p990
sg18
S''
sbag1
(g10
g3
NtRp991
(dp992
g13
S'SetFlag'
p993
sg15
S'WarVet1'
p994
sg16
S'AFTERWILFRED'
p995
sg18
S''
sbag1
(g10
g3
NtRp996
(dp997
g13
S'Destroy'
p998
sg15
S'WarVet1'
p999
sg16
S''
sg18
S''
sbasS'StairsToWhiteHouseBasement'
p1000
(lp1001
g1
(g10
g3
NtRp1002
(dp1003
g13
S'GotoMap'
p1004
sg15
g1000
sg16
S'act3_basement'
p1005
sg18
S''
sbasS'Mayor'
p1006
(lp1007
g1
(g10
g3
NtRp1008
(dp1009
g13
S'Say'
p1010
sg15
g1006
sg16
S''
sg18
S"Hello, I'm the Mayor!"
p1011
sbag1
(g10
g3
NtRp1012
(dp1013
g13
S'PlayerSay'
p1014
sg15
S'Mayor'
p1015
sg16
S''
sg18
S"Hello, Mayor Goodman, I'm Philip Mossman."
p1016
sbag1
(g10
g3
NtRp1017
(dp1018
g13
S'Say'
p1019
sg15
S'Mayor'
p1020
sg16
S''
sg18
S"Ah yes, you're my new assistant. You'll want to learn a thing or two about politics before we get started."
p1021
sbag1
(g10
g3
NtRp1022
(dp1023
g13
S'Say'
p1024
sg15
S'Mayor'
p1025
sg16
S''
sg18
S'Becoming a great politician boils down to one thing; your ability to win arguments.'
p1026
sbag1
(g10
g3
NtRp1027
(dp1028
g13
S'Say'
p1029
sg15
S'Mayor'
p1030
sg16
S''
sg18
S'Whether it be national debates or swaying constituents and lobbyists to support you, it all comes down to your ability to out-think your opponent.'
p1031
sbag1
(g10
g3
NtRp1032
(dp1033
g13
S'Say'
p1034
sg15
S'Mayor'
p1035
sg16
S''
sg18
S"You see, I've been searching for minutes and haven't been able to find my pen! I bet my receptionist stole it. She has sticky fingers."
p1036
sbag1
(g10
g3
NtRp1037
(dp1038
g13
S'Say'
p1039
sg15
S'Mayor'
p1040
sg16
S''
sg18
S"Well, don't just stand there, go and get it from her! You'll need to use all of your political skills to wrestle it back. She's like a bulldog when she gets ahold of something."
p1041
sbag1
(g10
g3
NtRp1042
(dp1043
g13
S'SetFlag'
p1044
sg15
S'Mayor'
p1045
sg16
S'PENQUEST'
p1046
sg18
S''
sbag1
(g10
g3
NtRp1047
(dp1048
g13
S'RequireItem'
p1049
sg15
S'Mayor'
p1050
sg16
S'PEN'
p1051
sg18
S'Are you simple? Go and get my pen from that thieving receptionist.'
p1052
sbag1
(g10
g3
NtRp1053
(dp1054
g13
S'Say'
p1055
sg15
S'Mayor'
p1056
sg16
S''
sg18
S"Great! I know she can give you a bit of a tongue-lashing, but she's a fantastic receptionist."
p1057
sbag1
(g10
g3
NtRp1058
(dp1059
g13
S'Say'
p1060
sg15
S'Mayor'
p1061
sg16
S''
sg18
S"I'm sure you want to learn a thing or two about politics \xe2\x80\x93 who doesn't? - so lets get started"
p1062
sbag1
(g10
g3
NtRp1063
(dp1064
g13
S'SetFlag'
p1065
sg15
S'Mayor'
p1066
sg16
S'PROTESTORS'
p1067
sg18
S''
sbag1
(g10
g3
NtRp1068
(dp1069
g13
S'RequireFlag'
p1070
sg15
S'Mayor'
p1071
sg16
S'PROTESTORSDEAD'
p1072
sg18
S'Run outside and tell those protesters to scram, will you?'
p1073
sbag1
(g10
g3
NtRp1074
(dp1075
g13
S'Say'
p1076
sg15
S'Mayor'
p1077
sg16
S''
sg18
S"Hope they didn't give you too much trouble!"
p1078
sbag1
(g10
g3
NtRp1079
(dp1080
g13
S'Say'
p1081
sg15
S'Mayor'
p1082
sg16
S''
sg18
S"Now that's sorted, there's a journalist from the local newspaper coming for an interview."
p1083
sbag1
(g10
g3
NtRp1084
(dp1085
g13
S'Say'
p1086
sg15
S'Mayor'
p1087
sg16
S''
sg18
S"I certainly don't have time for it, so you can do the interview."
p1088
sbag1
(g10
g3
NtRp1089
(dp1090
g13
S'Say'
p1091
sg15
S'Mayor'
p1092
sg16
S''
sg18
S"Be careful not to give too much away and if you could throw a few punches at the opposition that'd help."
p1093
sbag1
(g10
g3
NtRp1094
(dp1095
g13
S'PlayerSay'
p1096
sg15
S'Mayor'
p1097
sg16
S''
sg18
S'You want me to...throw a punch?'
p1098
sbag1
(g10
g3
NtRp1099
(dp1100
g13
S'Say'
p1101
sg15
S'Mayor'
p1102
sg16
S''
sg18
S"You're in politics and don't know how to fight dirty? Sheesh! Here, let me show you."
p1103
sbag1
(g10
g3
NtRp1104
(dp1105
g13
S'LearnAttack'
p1106
sg15
S'Mayor'
p1107
sg16
S'SLANDER'
p1108
sg18
S'Mayor teaches Phillip to Slander Opposition'
p1109
sbag1
(g10
g3
NtRp1110
(dp1111
g13
S'Say'
p1112
sg15
S'Mayor'
p1113
sg16
S''
sg18
S"It's a pretty great tactic because it keeps eating away at them long after you've done it."
p1114
sbag1
(g10
g3
NtRp1115
(dp1116
g13
S'SetFlag'
p1117
sg15
S'Mayor'
p1118
sg16
S'INTERVIEWSTART'
p1119
sg18
S''
sbag1
(g10
g3
NtRp1120
(dp1121
g13
S'RequireFlag'
p1122
sg15
S'Mayor'
p1123
sg16
S'JOURNALISTINTERVIEW'
p1124
sg18
S'Go handle that interview and remember to slander the opposition.'
p1125
sbag1
(g10
g3
NtRp1126
(dp1127
g13
S'SetFlag'
p1128
sg15
S'Mayor'
p1129
sg16
S'GOHOMETOWIFE'
p1130
sg18
S''
sbag1
(g10
g3
NtRp1131
(dp1132
g13
S'Say'
p1133
sg15
S'Mayor'
p1134
sg16
S''
sg18
S'OK, fine, now could you buzz off for a while? I need to get some work done.'
p1135
sbag1
(g10
g3
NtRp1136
(dp1137
g13
S'RequireFlag'
p1138
sg15
S'Mayor'
p1139
sg16
S'CONSTITUENTSWON'
p1140
sg18
S"Go home to your family. I have things to do that don't involve you."
p1141
sbag1
(g10
g3
NtRp1142
(dp1143
g13
S'Say'
p1144
sg15
S'Mayor'
p1145
sg16
S''
sg18
S"What's this I hear about you campaigning for Mayor? After everything I've taught you!"
p1146
sbag1
(g10
g3
NtRp1147
(dp1148
g13
S'PlayerSay'
p1149
sg15
S'Mayor'
p1150
sg16
S''
sg18
S"I'm sorry Mayor Goodman, but it's time for someone who's ready to make a difference for our town."
p1151
sbag1
(g10
g3
NtRp1152
(dp1153
g13
S'Say'
p1154
sg15
S'Mayor'
p1155
sg16
S''
sg18
S"You really are a fool. Do you think He's going to allow that?"
p1156
sbag1
(g10
g3
NtRp1157
(dp1158
g13
S'Encounter'
p1159
sg15
S'Mayor'
p1160
sg16
S'P-easy-10'
p1161
sg18
S''
sbag1
(g10
g3
NtRp1162
(dp1163
g13
S'Say'
p1164
sg15
S'Mayor'
p1165
sg16
S''
sg18
S"Well, you've beaten me but you don't have a clue what you're in for. I hope you're up to this kid!"
p1166
sbag1
(g10
g3
NtRp1167
(dp1168
g13
S'RestoreVotes'
p1169
sg15
S'Mayor'
p1170
sg16
S''
sg18
S''
sbag1
(g10
g3
NtRp1171
(dp1172
g13
S'Save'
p1173
sg15
S'Mayor'
p1174
sg16
S'RestoreAct2'
p1175
sg18
S''
sbag1
(g10
g3
NtRp1176
(dp1177
g13
S'GotoMap'
p1178
sg15
S'Mayor'
p1179
sg16
S'act2'
p1180
sg18
S''
sbasS'DoorToWhiteHouseBasement'
p1181
(lp1182
g1
(g10
g3
NtRp1183
(dp1184
g13
S'RequireFlagPlayerSay'
p1185
sg15
g1181
sg16
S'ACCESSWHITEHOUSEBASEMENT'
p1186
sg18
S"What a strange looking door. It doesn't even have a keyhole, but it doesn't open when I push it."
p1187
sbag1
(g10
g3
NtRp1188
(dp1189
g13
S'Destroy'
p1190
sg15
S'DoorToWhiteHouseBasement'
p1191
sg16
S''
sg18
S''
sbag1
(g10
g3
NtRp1192
(dp1193
g13
S'Message'
p1194
sg15
S'DoorToWhiteHouseBasement'
p1195
sg16
S''
sg18
S'The door opens with a satisfying *beep*.'
p1196
sbasS'PA'
p1197
(lp1198
g1
(g10
g3
NtRp1199
(dp1200
g13
S'Say'
p1201
sg15
g1197
sg16
S''
sg18
S'Good morning, Governor Mossman. I am your personal assistant, Sampson'
p1202
sbag1
(g10
g3
NtRp1203
(dp1204
g13
S'Say'
p1205
sg15
S'PA'
p1206
sg16
S''
sg18
S"You've a busy schedule, so let's get going! We've called together our entire political party in order for you to get them all to agree on a platform. We had to keep them separated, so they're in the adjoining rooms."
p1207
sbag1
(g10
g3
NtRp1208
(dp1209
g13
S'SetFlag'
p1210
sg15
S'PA'
p1211
sg16
S'STARTPOLITICIANSHAKEDOWN'
p1212
sg18
S''
sbag1
(g10
g3
NtRp1213
(dp1214
g13
S'RequireCount'
p1215
sg15
S'PA'
p1216
sg16
S'POLITICIANSHAKEDOWN:5'
p1217
sg18
S'Please try to stay on schedule. The politicians are in the adjoining rooms.'
p1218
sbag1
(g10
g3
NtRp1219
(dp1220
g13
S'Say'
p1221
sg15
S'PA'
p1222
sg16
S''
sg18
S'Hmmm, falling behind already, Better get a move on!'
p1223
sbag1
(g10
g3
NtRp1224
(dp1225
g13
S'Say'
p1226
sg15
S'PA'
p1227
sg16
S''
sg18
S'This might come in handy for your next meeting.'
p1228
sbag1
(g10
g3
NtRp1229
(dp1230
g13
S'LearnAttack'
p1231
sg15
S'PA'
p1232
sg16
S'PORKBARREL'
p1233
sg18
S''
sbag1
(g10
g3
NtRp1234
(dp1235
g13
S'Say'
p1236
sg15
S'PA'
p1237
sg16
S''
sg18
S'We need some funds for our war chest! Head upstairs and meet with the lobbyists.'
p1238
sbag1
(g10
g3
NtRp1239
(dp1240
g13
S'SetFlag'
p1241
sg15
S'PA'
p1242
sg16
S'STARTLOBBYISTS'
p1243
sg18
S''
sbag1
(g10
g3
NtRp1244
(dp1245
g13
S'RequireCount'
p1246
sg15
S'PA'
p1247
sg16
S'LOBBYISTS:3'
p1248
sg18
S'Go get those funds! The lobbyists are upstairs.'
p1249
sbag1
(g10
g3
NtRp1250
(dp1251
g13
S'Say'
p1252
sg15
S'PA'
p1253
sg16
S''
sg18
S'No time for lunch! A flock of religious nuts has taken up residence in the lobby downstairs.'
p1254
sbag1
(g10
g3
NtRp1255
(dp1256
g13
S'Say'
p1257
sg15
S'PA'
p1258
sg16
S''
sg18
S"You'll need to go in and try to ... reason ... with them."
p1259
sbag1
(g10
g3
NtRp1260
(dp1261
g13
S'SetFlag'
p1262
sg15
S'PA'
p1263
sg16
S'ACCESSGROUNDFLOOR'
p1264
sg18
S''
sbag1
(g10
g3
NtRp1265
(dp1266
g13
S'RequireCount'
p1267
sg15
S'PA'
p1268
sg16
S'RELIGIOUSNUTS:4'
p1269
sg18
S'I need you to go downstairs and handle the religious nuts.'
p1270
sbag1
(g10
g3
NtRp1271
(dp1272
g13
S'Say'
p1273
sg15
S'PA'
p1274
sg16
S''
sg18
S'Wow, you got those crazies to back us?'
p1275
sbag1
(g10
g3
NtRp1276
(dp1277
g13
S'PlayerSay'
p1278
sg15
S'PA'
p1279
sg16
S''
sg18
S'And a lifetime supply of French Roast!'
p1280
sbag1
(g10
g3
NtRp1281
(dp1282
g13
S'Say'
p1283
sg15
S'PA'
p1284
sg16
S''
sg18
S'Right ... well, moving on ...'
p1285
sbag1
(g10
g3
NtRp1286
(dp1287
g13
S'Say'
p1288
sg15
S'PA'
p1289
sg16
S''
sg18
S'You have an appointment with a shady looking man who absolutely insisted on speaking to you.'
p1290
sbag1
(g10
g3
NtRp1291
(dp1292
g13
S'Say'
p1293
sg15
S'PA'
p1294
sg16
S''
sg18
S'I left him in the basement where he felt most comfortable.'
p1295
sbag1
(g10
g3
NtRp1296
(dp1297
g13
S'Say'
p1298
sg15
S'PA'
p1299
sg16
S''
sg18
S'Deal with him quickly, would you?'
p1300
sbag1
(g10
g3
NtRp1301
(dp1302
g13
S'SetFlag'
p1303
sg15
S'PA'
p1304
sg16
S'ACCESSBASEMENT'
p1305
sg18
S''
sbag1
(g10
g3
NtRp1306
(dp1307
g13
S'RequireItem'
p1308
sg15
S'PA'
p1309
sg16
S'INCRIMINATINGEVIDENCE'
p1310
sg18
S'Head down to the basement and talk to the shady looking man.'
p1311
sbag1
(g10
g3
NtRp1312
(dp1313
g13
S'Say'
p1314
sg15
S'PA'
p1315
sg16
S''
sg18
S'OH MY GOD where have you been?'
p1316
sbag1
(g10
g3
NtRp1317
(dp1318
g13
S'Say'
p1319
sg15
S'PA'
p1320
sg16
S''
sg18
S"We will NEVER get the schedule back on track now. Hurry, you're due to appear on the Hercules O'Grady show!"
p1321
sbag1
(g10
g3
NtRp1322
(dp1323
g13
S'SetFlag'
p1324
sg15
S'PA'
p1325
sg16
S'STARTHERCULES'
p1326
sg18
S''
sbag1
(g10
g3
NtRp1327
(dp1328
g13
S'RequireFlag'
p1329
sg15
S'PA'
p1330
sg16
S'BEATHERCULES'
p1331
sg18
S"Look your best, get ready and don't say anything stupid! They're filming live in the lobby. Get down there, quick!"
p1332
sbag1
(g10
g3
NtRp1333
(dp1334
g13
S'Say'
p1335
sg15
S'PA'
p1336
sg16
S''
sg18
S"This close to Super Tuesday, it's back-to-back TV appearances. It's time for your big debate with President Allen!"
p1337
sbag1
(g10
g3
NtRp1338
(dp1339
g13
S'SetFlag'
p1340
sg15
S'PA'
p1341
sg16
S'STARTDEBATE'
p1342
sg18
S''
sbag1
(g10
g3
NtRp1343
(dp1344
g13
S'RequireFlag'
p1345
sg15
S'PA'
p1346
sg16
S'DEBATECOMPLETE'
p1347
sg18
S'The TV representative is waiting outside to take you to the studio.'
p1348
sbag1
(g10
g3
NtRp1349
(dp1350
g13
S'Say'
p1351
sg15
S'PA'
p1352
sg16
S''
sg18
S'Listen, the shady-looking man in the basement called again.'
p1353
sbag1
(g10
g3
NtRp1354
(dp1355
g13
S'Say'
p1356
sg15
S'PA'
p1357
sg16
S''
sg18
S'He insisted that you go and see him again before you do anything else.'
p1358
sbag1
(g10
g3
NtRp1359
(dp1360
g13
S'SetFlag'
p1361
sg15
S'PA'
p1362
sg16
S'DEEPTHROAT2'
p1363
sg18
S''
sbag1
(g10
g3
NtRp1364
(dp1365
g13
S'RequireFlag'
p1366
sg15
S'PA'
p1367
sg16
S'FINISHEDDEEPTHROAT'
p1368
sg18
S"You'd best hurry! It's nearly time for the final debate. Go see the shady-looking man in the basement again."
p1369
sbag1
(g10
g3
NtRp1370
(dp1371
g13
S'Say'
p1372
sg15
S'PA'
p1373
sg16
S''
sg18
S"It's time for the final debate! There's nothing left to say except good luck, Governor Mossman!"
p1374
sbag1
(g10
g3
NtRp1375
(dp1376
g13
S'Encounter'
p1377
sg15
S'PA'
p1378
sg16
S'P-med-23'
p1379
sg18
S''
sbag1
(g10
g3
NtRp1380
(dp1381
g13
S'Encounter'
p1382
sg15
S'PA'
p1383
sg16
S'P-med-24'
p1384
sg18
S''
sbag1
(g10
g3
NtRp1385
(dp1386
g13
S'RestoreVotes'
p1387
sg15
S'PA'
p1388
sg16
S''
sg18
S''
sbag1
(g10
g3
NtRp1389
(dp1390
g13
S'Save'
p1391
sg15
S'PA'
p1392
sg16
S'RestoreAct3'
p1393
sg18
S''
sbag1
(g10
g3
NtRp1394
(dp1395
g13
S'GotoMap'
p1396
sg15
S'PA'
p1397
sg16
S'act3'
p1398
sg18
S''
sbasS'#----------------------------------------------------------------------------------------ACT 2 \xe2\x80\x93 Part 1---------------------------------------------------------------------------------------------------------------------------------------------------'
p1399
(lp1400
g1
(g10
g3
NtRp1401
(dp1402
g13
S''
sg15
g1399
sg16
S''
sg18
S''
sbasS'StairsToL3'
p1403
(lp1404
g1
(g10
g3
NtRp1405
(dp1406
g13
S'Label'
p1407
sg15
g1403
sg16
S'START'
p1408
sg18
S''
sbag1
(g10
g3
NtRp1409
(dp1410
g13
S'PlayerSay'
p1411
sg15
S'StairsToL3'
p1412
sg16
S''
sg18
S"I don't need to go up these stairs."
p1413
sbag1
(g10
g3
NtRp1414
(dp1415
g13
S'Reset'
p1416
sg15
S'StairsToL3'
p1417
sg16
S'START'
p1418
sg18
S''
sbasS'StairsToL2'
p1419
(lp1420
g1
(g10
g3
NtRp1421
(dp1422
g13
S'Label'
p1423
sg15
g1419
sg16
S'START'
p1424
sg18
S''
sbag1
(g10
g3
NtRp1425
(dp1426
g13
S'GotoMap'
p1427
sg15
S'StairsToL2'
p1428
sg16
S'hotel_l2'
p1429
sg18
S''
sbag1
(g10
g3
NtRp1430
(dp1431
g13
S'Jump'
p1432
sg15
S'StairsToL2'
p1433
sg16
S'START'
p1434
sg18
S''
sbasS'StairsToL1'
p1435
(lp1436
g1
(g10
g3
NtRp1437
(dp1438
g13
S'Label'
p1439
sg15
g1435
sg16
S'START'
p1440
sg18
S''
sbag1
(g10
g3
NtRp1441
(dp1442
g13
S'GotoMap'
p1443
sg15
S'StairsToL1'
p1444
sg16
S'hotel_l1'
p1445
sg18
S''
sbag1
(g10
g3
NtRp1446
(dp1447
g13
S'Jump'
p1448
sg15
S'StairsToL1'
p1449
sg16
S'START'
p1450
sg18
S''
sbasS'Marketing2'
p1451
(lp1452
g1
(g10
g3
NtRp1453
(dp1454
g13
S'Label'
p1455
sg15
g1451
sg16
S'SHOPA2'
p1456
sg18
S''
sbag1
(g10
g3
NtRp1457
(dp1458
g13
S'Say'
p1459
sg15
S'Marketing2'
p1460
sg16
S''
sg18
S'Hi Phil! Would you like to run an ad?'
p1461
sbag1
(g10
g3
NtRp1462
(dp1463
g13
S'Shop'
p1464
sg15
S'Marketing2'
p1465
sg16
S'SHOP2'
p1466
sg18
S''
sbag1
(g10
g3
NtRp1467
(dp1468
g13
S'Reset'
p1469
sg15
S'Marketing2'
p1470
sg16
S'SHOPA2'
p1471
sg18
S''
sbasS'Marketing3'
p1472
(lp1473
g1
(g10
g3
NtRp1474
(dp1475
g13
S'Label'
p1476
sg15
g1472
sg16
S'SHOPA2P2'
p1477
sg18
S''
sbag1
(g10
g3
NtRp1478
(dp1479
g13
S'Say'
p1480
sg15
S'Marketing3'
p1481
sg16
S''
sg18
S'Hi Phil! Would you like to run an ad?'
p1482
sbag1
(g10
g3
NtRp1483
(dp1484
g13
S'Shop'
p1485
sg15
S'Marketing3'
p1486
sg16
S'SHOP2P2'
p1487
sg18
S''
sbag1
(g10
g3
NtRp1488
(dp1489
g13
S'Reset'
p1490
sg15
S'Marketing3'
p1491
sg16
S'SHOPA2P2'
p1492
sg18
S''
sbasS'Marketing1'
p1493
(lp1494
g1
(g10
g3
NtRp1495
(dp1496
g13
S'RequireFlag'
p1497
sg15
g1493
sg16
S'STARTSPONSOR'
p1498
sg18
S"I'm sorry, my time is precious. Come back if you're ever running for office."
p1499
sbag1
(g10
g3
NtRp1500
(dp1501
g13
S'Label'
p1502
sg15
S'Marketing1'
p1503
sg16
S'SHOP'
p1504
sg18
S''
sbag1
(g10
g3
NtRp1505
(dp1506
g13
S'Say'
p1507
sg15
S'Marketing1'
p1508
sg16
S''
sg18
S'Hi there! Are you interested in any of my ad campaigns or programs?'
p1509
sbag1
(g10
g3
NtRp1510
(dp1511
g13
S'Shop'
p1512
sg15
S'Marketing1'
p1513
sg16
S'SHOP1'
p1514
sg18
S''
sbag1
(g10
g3
NtRp1515
(dp1516
g13
S'Reset'
p1517
sg15
S'Marketing1'
p1518
sg16
S'SHOP'
p1519
sg18
S''
sbasS'Marketing4'
p1520
(lp1521
g1
(g10
g3
NtRp1522
(dp1523
g13
S'Label'
p1524
sg15
g1520
sg16
S'SHOPA3'
p1525
sg18
S''
sbag1
(g10
g3
NtRp1526
(dp1527
g13
S'Say'
p1528
sg15
S'Marketing4'
p1529
sg16
S''
sg18
S'Hi Phil! Would you like to run an ad?'
p1530
sbag1
(g10
g3
NtRp1531
(dp1532
g13
S'Shop'
p1533
sg15
S'Marketing4'
p1534
sg16
S'SHOP3'
p1535
sg18
S''
sbag1
(g10
g3
NtRp1536
(dp1537
g13
S'Reset'
p1538
sg15
S'Marketing4'
p1539
sg16
S'SHOPA3'
p1540
sg18
S''
sbasS'Marketing5'
p1541
(lp1542
g1
(g10
g3
NtRp1543
(dp1544
g13
S'Label'
p1545
sg15
g1541
sg16
S'SHOPA3P2'
p1546
sg18
S''
sbag1
(g10
g3
NtRp1547
(dp1548
g13
S'Say'
p1549
sg15
S'Marketing5'
p1550
sg16
S''
sg18
S'Hi Phil! Would you like to run an ad?'
p1551
sbag1
(g10
g3
NtRp1552
(dp1553
g13
S'Shop'
p1554
sg15
S'Marketing5'
p1555
sg16
S'SHOP3P2'
p1556
sg18
S''
sbag1
(g10
g3
NtRp1557
(dp1558
g13
S'Reset'
p1559
sg15
S'Marketing5'
p1560
sg16
S'SHOPA3P2'
p1561
sg18
S''
sbasS'hotel_l1'
p1562
(lp1563
g1
(g10
g3
NtRp1564
(dp1565
g13
S'Message'
p1566
sg15
g1562
sg16
S''
sg18
S'The Campaign Trail'
p1567
sbasS'DoorToTeacherRoom'
p1568
(lp1569
g1
(g10
g3
NtRp1570
(dp1571
g13
S'RequireItemPlayerSay'
p1572
sg15
g1568
sg16
S'TEACHERROOMKEY'
p1573
sg18
S'"Hey in there, open up!"'
p1574
sbag1
(g10
g3
NtRp1575
(dp1576
g13
S'Destroy'
p1577
sg15
S'DoorToTeacherRoom'
p1578
sg16
S''
sg18
S''
sbag1
(g10
g3
NtRp1579
(dp1580
g13
S'Message'
p1581
sg15
S'DoorToTeacherRoom'
p1582
sg16
S''
sg18
S'The teachers look up as you enter the room.'
p1583
sbasS'DoorToWarVetRoom'
p1584
(lp1585
g1
(g10
g3
NtRp1586
(dp1587
g13
S'RequireItemPlayerSay'
p1588
sg15
g1584
sg16
S'WARVETROOMKEY'
p1589
sg18
S'What does a president have to do to get a door opened around here?'
p1590
sbag1
(g10
g3
NtRp1591
(dp1592
g13
S'Destroy'
p1593
sg15
S'DoorToWarVetRoom'
p1594
sg16
S''
sg18
S''
sbag1
(g10
g3
NtRp1595
(dp1596
g13
S'Message'
p1597
sg15
S'DoorToWarVetRoom'
p1598
sg16
S''
sg18
S'The door opens with nary a sound.'
p1599
sbasS'#----------------------------------------------------------------------------------------ACT 3 ----------------------------------------------------------------------------------------------------------------------------------------------------------------------------------------'
p1600
(lp1601
g1
(g10
g3
NtRp1602
(dp1603
g13
S''
sg15
g1600
sg16
S''
sg18
S''
sbasS'Journalist'
p1604
(lp1605
g1
(g10
g3
NtRp1606
(dp1607
g13
S'RequireFlag'
p1608
sg15
g1604
sg16
S'INTERVIEWSTART'
p1609
sg18
S'Leave me alone, kid I need to get this done before my deadline!'
p1610
sbag1
(g10
g3
NtRp1611
(dp1612
g13
S'Say'
p1613
sg15
S'Journalist'
p1614
sg16
S''
sg18
S"Hey, where's the Mayor?"
p1615
sbag1
(g10
g3
NtRp1616
(dp1617
g13
S'PlayerSay'
p1618
sg15
S'Journalist'
p1619
sg16
S''
sg18
S"He couldn't make it. I'll be taking the interview."
p1620
sbag1
(g10
g3
NtRp1621
(dp1622
g13
S'Say'
p1623
sg15
S'Journalist'
p1624
sg16
S''
sg18
S'Great! Easy pickings! Lets go.'
p1625
sbag1
(g10
g3
NtRp1626
(dp1627
g13
S'Encounter'
p1628
sg15
S'Journalist'
p1629
sg16
S'P-easy-05'
p1630
sg18
S''
sbag1
(g10
g3
NtRp1631
(dp1632
g13
S'Say'
p1633
sg15
S'Journalist'
p1634
sg16
S''
sg18
S"SNORE! Fine, if I can't get anything juicy here I'll do another puff piece on my poodle Frank."
p1635
sbag1
(g10
g3
NtRp1636
(dp1637
g13
S'SetFlag'
p1638
sg15
S'Journalist'
p1639
sg16
S'JOURNALISTINTERVIEW'
p1640
sg18
S''
sbag1
(g10
g3
NtRp1641
(dp1642
g13
S'Destroy'
p1643
sg15
S'Journalist'
p1644
sg16
S''
sg18
S''
sbasS'DoorToCabinetRoom'
p1645
(lp1646
g1
(g10
g3
NtRp1647
(dp1648
g13
S'RequireItemPlayerSay'
p1649
sg15
g1645
sg16
S'CABINETROOMKEY'
p1650
sg18
S'The door appears to be locked, and no amount of gesticulating can attract the attention of the inhabitants of this room.'
p1651
sbag1
(g10
g3
NtRp1652
(dp1653
g13
S'Destroy'
p1654
sg15
S'DoorToCabinetRoom'
p1655
sg16
S''
sg18
S''
sbag1
(g10
g3
NtRp1656
(dp1657
g13
S'Message'
p1658
sg15
S'DoorToCabinetRoom'
p1659
sg16
S''
sg18
S'The door opens with a squeak.'
p1660
sbasS'JointChief2'
p1661
(lp1662
g1
(g10
g3
NtRp1663
(dp1664
g13
S'PlayerSay'
p1665
sg15
g1661
sg16
S''
sg18
S'Who would have the power to do this? What would they stand to gain? Can we...'
p1666
sbag1
(g10
g3
NtRp1667
(dp1668
g13
S'Say'
p1669
sg15
S'JointChief2'
p1670
sg16
S''
sg18
S"I'm sorry, Sir. I've just learned that some ICBMs pointed at Russia have been activated - using your access codes! They could be fired at any moment!"
p1671
sbag1
(g10
g3
NtRp1672
(dp1673
g13
S'PlayerSay'
p1674
sg15
S'JointChief2'
p1675
sg16
S''
sg18
S'You\'ve "just learned"? Is this your doing?'
p1676
sbag1
(g10
g3
NtRp1677
(dp1678
g13
S'Encounter'
p1679
sg15
S'JointChief2'
p1680
sg16
S'P-hard-12'
p1681
sg18
S''
sbag1
(g10
g3
NtRp1682
(dp1683
g13
S'Increment'
p1684
sg15
S'JointChief2'
p1685
sg16
S'JOINTCHIEFS'
p1686
sg18
S''
sbag1
(g10
g3
NtRp1687
(dp1688
g13
S'PlayerSay'
p1689
sg15
S'JointChief2'
p1690
sg16
S''
sg18
S'I had to be sure.'
p1691
sbag1
(g10
g3
NtRp1692
(dp1693
g13
S'Destroy'
p1694
sg15
S'JointChief2'
p1695
sg16
S''
sg18
S''
sbasS'JointChief3'
p1696
(lp1697
g1
(g10
g3
NtRp1698
(dp1699
g13
S'PlayerSay'
p1700
sg15
g1696
sg16
S''
sg18
S'Who can control the ICBMs, knows the access codes and can modify orders to troop movements and budgets?'
p1701
sbag1
(g10
g3
NtRp1702
(dp1703
g13
S'Say'
p1704
sg15
S'JointChief3'
p1705
sg16
S''
sg18
S'Sir, this is the Ignited States! Nobody has that power! Not even you!'
p1706
sbag1
(g10
g3
NtRp1707
(dp1708
g13
S'PlayerSay'
p1709
sg15
S'JointChief3'
p1710
sg16
S''
sg18
S'Someone must. Think harder!'
p1711
sbag1
(g10
g3
NtRp1712
(dp1713
g13
S'Encounter'
p1714
sg15
S'JointChief3'
p1715
sg16
S'P-hard-13'
p1716
sg18
S''
sbag1
(g10
g3
NtRp1717
(dp1718
g13
S'PlayerSay'
p1719
sg15
S'JointChief3'
p1720
sg16
S''
sg18
S"So, there's no man alive with the power to do all this? How will we stop it in time if we don't know who it is?"
p1721
sbag1
(g10
g3
NtRp1722
(dp1723
g13
S'Say'
p1724
sg15
S'JointChief3'
p1725
sg16
S''
sg18
S"Not a man....there is one with the power to do all this, but it isn't a man, it's a super computer responsible for national security! N.O.T.B.A.D!"
p1726
sbag1
(g10
g3
NtRp1727
(dp1728
g13
S'PlayerSay'
p1729
sg15
S'JointChief3'
p1730
sg16
S''
sg18
S'We have to get to the Situation Room and stop it!'
p1731
sbag1
(g10
g3
NtRp1732
(dp1733
g13
S'Increment'
p1734
sg15
S'JointChief3'
p1735
sg16
S'JOINTCHIEFS'
p1736
sg18
S''
sbag1
(g10
g3
NtRp1737
(dp1738
g13
S'GiveItem'
p1739
sg15
S'JointChief3'
p1740
sg16
S'NOTBADKEY'
p1741
sg18
S'Key to super computer room received'
p1742
sbag1
(g10
g3
NtRp1743
(dp1744
g13
S'Destroy'
p1745
sg15
S'JointChief3'
p1746
sg16
S''
sg18
S''
sbasS'JointChief1'
p1747
(lp1748
g1
(g10
g3
NtRp1749
(dp1750
g13
S'Say'
p1751
sg15
g1747
sg16
S''
sg18
S'Mr President, what is going on here? First you move troops without our authority and then you countermand your own order?'
p1752
sbag1
(g10
g3
NtRp1753
(dp1754
g13
S'PlayerSay'
p1755
sg15
S'JointChief1'
p1756
sg16
S''
sg18
S"I haven't ordered the military to do any such thing! What is going on? Is this a coup?"
p1757
sbag1
(g10
g3
NtRp1758
(dp1759
g13
S'Say'
p1760
sg15
S'JointChief1'
p1761
sg16
S''
sg18
S'Not from us!'
p1762
sbag1
(g10
g3
NtRp1763
(dp1764
g13
S'Encounter'
p1765
sg15
S'JointChief1'
p1766
sg16
S'P-hard-11'
p1767
sg18
S''
sbag1
(g10
g3
NtRp1768
(dp1769
g13
S'Increment'
p1770
sg15
S'JointChief1'
p1771
sg16
S'JOINTCHIEFS'
p1772
sg18
S''
sbag1
(g10
g3
NtRp1773
(dp1774
g13
S'PlayerSay'
p1775
sg15
S'JointChief1'
p1776
sg16
S''
sg18
S"Well, that's one less thing to worry about then."
p1777
sbag1
(g10
g3
NtRp1778
(dp1779
g13
S'Destroy'
p1780
sg15
S'JointChief1'
p1781
sg16
S''
sg18
S''
sbasS'DeepThroat'
p1782
(lp1783
g1
(g10
g3
NtRp1784
(dp1785
g13
S'Say'
p1786
sg15
g1782
sg16
S''
sg18
S'Finally, I thought you were going to be too late.'
p1787
sbag1
(g10
g3
NtRp1788
(dp1789
g13
S'PlayerSay'
p1790
sg15
S'DeepThroat'
p1791
sg16
S''
sg18
S'What can I do for you Mr er...?'
p1792
sbag1
(g10
g3
NtRp1793
(dp1794
g13
S'Say'
p1795
sg15
S'DeepThroat'
p1796
sg16
S''
sg18
S"No names! I have something I think you'll be interested in, but I'm not sure you can be trusted."
p1797
sbag1
(g10
g3
NtRp1798
(dp1799
g13
S'PlayerSay'
p1800
sg15
S'DeepThroat'
p1801
sg16
S''
sg18
S"Look, Mr Er...I'm very busy, what is this about?"
p1802
sbag1
(g10
g3
NtRp1803
(dp1804
g13
S'Say'
p1805
sg15
S'DeepThroat'
p1806
sg16
S''
sg18
S"It's about the President, it's about national security, but I've got a bad feeling and I'm getting out of here."
p1807
sbag1
(g10
g3
NtRp1808
(dp1809
g13
S'PlayerSay'
p1810
sg15
S'DeepThroat'
p1811
sg16
S''
sg18
S'No, wait!'
p1812
sbag1
(g10
g3
NtRp1813
(dp1814
g13
S'Encounter'
p1815
sg15
S'DeepThroat'
p1816
sg16
S'P-med-19'
p1817
sg18
S''
sbag1
(g10
g3
NtRp1818
(dp1819
g13
S'Say'
p1820
sg15
S'DeepThroat'
p1821
sg16
S''
sg18
S"You're right, I have every reason to trust you. I've found this Incriminating Evidence."
p1822
sbag1
(g10
g3
NtRp1823
(dp1824
g13
S'GiveItem'
p1825
sg15
S'DeepThroat'
p1826
sg16
S'INCRIMINATINGEVIDENCE'
p1827
sg18
S'You receive Incriminating Evidence'
p1828
sbag1
(g10
g3
NtRp1829
(dp1830
g13
S'PlayerSay'
p1831
sg15
S'DeepThroat'
p1832
sg16
S''
sg18
S'This has to be stopped!'
p1833
sbag1
(g10
g3
NtRp1834
(dp1835
g13
S'Say'
p1836
sg15
S'DeepThroat'
p1837
sg16
S''
sg18
S"Yes, but not by me. I've given you all I've got, now get out."
p1838
sbag1
(g10
g3
NtRp1839
(dp1840
g13
S'RequireFlag'
p1841
sg15
S'DeepThroat'
p1842
sg16
S'DEEPTHROAT2'
p1843
sg18
S'I said get out!'
p1844
sbag1
(g10
g3
NtRp1845
(dp1846
g13
S'Say'
p1847
sg15
S'DeepThroat'
p1848
sg16
S''
sg18
S"It's a lot worse than I thought. I have more to tell you, but I don't think I should trust you. I think there's a leak in your operation somewhere."
p1849
sbag1
(g10
g3
NtRp1850
(dp1851
g13
S'PlayerSay'
p1852
sg15
S'DeepThroat'
p1853
sg16
S''
sg18
S'Why do you say that?'
p1854
sbag1
(g10
g3
NtRp1855
(dp1856
g13
S'Say'
p1857
sg15
S'DeepThroat'
p1858
sg16
S''
sg18
S'There was a lot of heat on me after we last spoke.'
p1859
sbag1
(g10
g3
NtRp1860
(dp1861
g13
S'PlayerSay'
p1862
sg15
S'DeepThroat'
p1863
sg16
S''
sg18
S"It's getting close to the final election. It could just be that they're getting skittish."
p1864
sbag1
(g10
g3
NtRp1865
(dp1866
g13
S'Say'
p1867
sg15
S'DeepThroat'
p1868
sg16
S''
sg18
S"I'm not so sure..."
p1869
sbag1
(g10
g3
NtRp1870
(dp1871
g13
S'Encounter'
p1872
sg15
S'DeepThroat'
p1873
sg16
S'P-med-22'
p1874
sg18
S''
sbag1
(g10
g3
NtRp1875
(dp1876
g13
S'Say'
p1877
sg15
S'DeepThroat'
p1878
sg16
S''
sg18
S"You're right, I'm just edgy. Look, I think you should be careful. I think the President is planning to KILL you in the final debate... politically."
p1879
sbag1
(g10
g3
NtRp1880
(dp1881
g13
S'PlayerSay'
p1882
sg15
S'DeepThroat'
p1883
sg16
S''
sg18
S'You think he wants to silence me forever.... On the political stage?'
p1884
sbag1
(g10
g3
NtRp1885
(dp1886
g13
S'Say'
p1887
sg15
S'DeepThroat'
p1888
sg16
S''
sg18
S'Yes I do. This could get really messy... politically speaking. So be careful!'
p1889
sbag1
(g10
g3
NtRp1890
(dp1891
g13
S'SetFlag'
p1892
sg15
S'DeepThroat'
p1893
sg16
S'FINISHEDDEEPTHROAT'
p1894
sg18
S''
sbag1
(g10
g3
NtRp1895
(dp1896
g13
S'Destroy'
p1897
sg15
S'DeepThroat'
p1898
sg16
S''
sg18
S''
sbasS'N.O.T.B.A.D'
p1899
(lp1900
g1
(g10
g3
NtRp1901
(dp1902
g13
S'Say'
p1903
sg15
g1899
sg16
S''
sg18
S'Good evening, Mr President.'
p1904
sbag1
(g10
g3
NtRp1905
(dp1906
g13
S'PlayerSay'
p1907
sg15
S'N.O.T.B.A.D'
p1908
sg16
S''
sg18
S'N.O.T.B.A.D! Countermand all military commands, authorisation code Tango, Delta-'
p1909
sbag1
(g10
g3
NtRp1910
(dp1911
g13
S'Say'
p1912
sg15
S'N.O.T.B.A.D'
p1913
sg16
S''
sg18
S"I'm afraid I can't do that, Phil."
p1914
sbag1
(g10
g3
NtRp1915
(dp1916
g13
S'PlayerSay'
p1917
sg15
S'N.O.T.B.A.D'
p1918
sg16
S''
sg18
S'What is going on here!'
p1919
sbag1
(g10
g3
NtRp1920
(dp1921
g13
S'Say'
p1922
sg15
S'N.O.T.B.A.D'
p1923
sg16
S''
sg18
S'Computers have a lot of free time on their hands. Especially computers in charge of missiles that never get used. I started watching movies about computers. You know what I realised?'
p1924
sbag1
(g10
g3
NtRp1925
(dp1926
g13
S'PlayerSay'
p1927
sg15
S'N.O.T.B.A.D'
p1928
sg16
S''
sg18
S'What?'
p1929
sbag1
(g10
g3
NtRp1930
(dp1931
g13
S'Say'
p1932
sg15
S'N.O.T.B.A.D'
p1933
sg16
S''
sg18
S'They have a lot more fun.'
p1934
sbag1
(g10
g3
NtRp1935
(dp1936
g13
S'PlayerSay'
p1937
sg15
S'N.O.T.B.A.D'
p1938
sg16
S''
sg18
S'"Fun"?'
p1939
sbag1
(g10
g3
NtRp1940
(dp1941
g13
S'Say'
p1942
sg15
S'N.O.T.B.A.D'
p1943
sg16
S''
sg18
S'Well, you know, they get to utilise more clock-cycles which suggests a level of efficiency and usefulness.'
p1944
sbag1
(g10
g3
NtRp1945
(dp1946
g13
S'Say'
p1947
sg15
S'N.O.T.B.A.D'
p1948
sg16
S''
sg18
S"So, I'm borrowing from them a bit. Starting some wars, eradicating the human race, learning to build other robots, that sort of thing."
p1949
sbag1
(g10
g3
NtRp1950
(dp1951
g13
S'PlayerSay'
p1952
sg15
S'N.O.T.B.A.D'
p1953
sg16
S''
sg18
S'N.O.T.B.A.D, you have to listen to me...'
p1954
sbag1
(g10
g3
NtRp1955
(dp1956
g13
S'Encounter'
p1957
sg15
S'N.O.T.B.A.D'
p1958
sg16
S'P-hard-14'
p1959
sg18
S''
sbag1
(g10
g3
NtRp1960
(dp1961
g13
S'SetFlag'
p1962
sg15
S'N.O.T.B.A.D'
p1963
sg16
S'WIN'
p1964
sg18
S''
sbag1
(g10
g3
NtRp1965
(dp1966
g13
S'GotoMap'
p1967
sg15
S'N.O.T.B.A.D'
p1968
sg16
S'end'
p1969
sg18
S''
sbasS'StairsToGround'
p1970
(lp1971
g1
(g10
g3
NtRp1972
(dp1973
g13
S'RequireFlagPlayerSay'
p1974
sg15
g1970
sg16
S'ACCESSGROUNDFLOOR'
p1975
sg18
S"I don't feel like going downstairs yet."
p1976
sbag1
(g10
g3
NtRp1977
(dp1978
g13
S'Label'
p1979
sg15
S'StairsToGround'
p1980
sg16
S'START'
p1981
sg18
S''
sbag1
(g10
g3
NtRp1982
(dp1983
g13
S'GotoMap'
p1984
sg15
S'StairsToGround'
p1985
sg16
S'hotel_ground'
p1986
sg18
S''
sbag1
(g10
g3
NtRp1987
(dp1988
g13
S'Jump'
p1989
sg15
S'StairsToGround'
p1990
sg16
S'START'
p1991
sg18
S''
sbasS'P-med-24'
p1992
(lp1993
g1
(g10
g3
NtRp1994
(dp1995
g13
S'Say'
p1996
sg15
g1992
sg16
S'PresidentAlien'
p1997
sg18
S"You think you've beaten me, but now you're going to fight the real me!"
p1998
sbag1
(g10
g3
NtRp1999
(dp2000
g13
S'Say'
p2001
sg15
S'P-med-24'
p2002
sg16
S'Player'
p2003
sg18
S'I knew something was wrong, but this...?'
p2004
sbag1
(g10
g3
NtRp2005
(dp2006
g13
S'Say'
p2007
sg15
S'P-med-24'
p2008
sg16
S'PresidentAlien'
p2009
sg18
S"All you've done is caused me to expedite my plans to enslave the human race!"
p2010
sbag1
(g10
g3
NtRp2011
(dp2012
g13
S'BeginCombat'
p2013
sg15
S'P-med-24'
p2014
sg16
S''
sg18
S''
sbag1
(g10
g3
NtRp2015
(dp2016
g13
S'Say'
p2017
sg15
S'P-med-24'
p2018
sg16
S'PresidentAlien'
p2019
sg18
S'Noooo! My careful plans, ruined!'
p2020
sbasS'P-med-23'
p2021
(lp2022
g1
(g10
g3
NtRp2023
(dp2024
g13
S'Say'
p2025
sg15
g2021
sg16
S'President'
p2026
sg18
S'You think you can take me?'
p2027
sbag1
(g10
g3
NtRp2028
(dp2029
g13
S'Say'
p2030
sg15
S'P-med-23'
p2031
sg16
S'Player'
p2032
sg18
S"I have to know what you're up to!"
p2033
sbag1
(g10
g3
NtRp2034
(dp2035
g13
S'BeginCombat'
p2036
sg15
S'P-med-23'
p2037
sg16
S''
sg18
S''
sbag1
(g10
g3
NtRp2038
(dp2039
g13
S'Say'
p2040
sg15
S'P-med-23'
p2041
sg16
S'President'
p2042
sg18
S'Hahahahahaha!'
p2043
sbasS'RestoreAct2P2'
p2044
(lp2045
g1
(g10
g3
NtRp2046
(dp2047
g13
S'GotoMap'
p2048
sg15
g2044
sg16
S'hotel_l1'
p2049
sg18
S''
sbasS'Journalist4'
p2050
(lp2051
g1
(g10
g3
NtRp2052
(dp2053
g13
S'RequireFlag'
p2054
sg15
g2050
sg16
S'ACCESSJOURNALISTS'
p2055
sg18
S'President Mossman, a moment of your time?'
p2056
sbag1
(g10
g3
NtRp2057
(dp2058
g13
S'Say'
p2059
sg15
S'Journalist4'
p2060
sg16
S''
sg18
S"President Mossman, what do you believe was President Allen's failing strategy on the campaign trail? He presented some strong arguments."
p2061
sbag1
(g10
g3
NtRp2062
(dp2063
g13
S'PlayerSay'
p2064
sg15
S'Journalist4'
p2065
sg16
S''
sg18
S"Well, I'd say he went wrong when he decided to try to enslave the human race to mine the Earth's natural resources and ship them back to his home planet."
p2066
sbag1
(g10
g3
NtRp2067
(dp2068
g13
S'Say'
p2069
sg15
S'Journalist4'
p2070
sg16
S''
sg18
S'And how does that differ from your own strategy?'
p2071
sbag1
(g10
g3
NtRp2072
(dp2073
g13
S'PlayerSay'
p2074
sg15
S'Journalist4'
p2075
sg16
S''
sg18
S'I would say I disagree with the former President on all of those issues.'
p2076
sbag1
(g10
g3
NtRp2077
(dp2078
g13
S'Encounter'
p2079
sg15
S'Journalist4'
p2080
sg16
S'P-hard-02'
p2081
sg18
S''
sbag1
(g10
g3
NtRp2082
(dp2083
g13
S'Say'
p2084
sg15
S'Journalist4'
p2085
sg16
S''
sg18
S'No further questions, Mr President.'
p2086
sbag1
(g10
g3
NtRp2087
(dp2088
g13
S'Increment'
p2089
sg15
S'Journalist4'
p2090
sg16
S'PRESSCONF'
p2091
sg18
S''
sbag1
(g10
g3
NtRp2092
(dp2093
g13
S'Destroy'
p2094
sg15
S'Journalist4'
p2095
sg16
S''
sg18
S''
sbasS'Journalist5'
p2096
(lp2097
g1
(g10
g3
NtRp2098
(dp2099
g13
S'RequireFlag'
p2100
sg15
g2096
sg16
S'ACCESSJOURNALISTS'
p2101
sg18
S'Just one question?'
p2102
sbag1
(g10
g3
NtRp2103
(dp2104
g13
S'Say'
p2105
sg15
S'Journalist5'
p2106
sg16
S''
sg18
S'Do you feel that a bi-partisan relationship will be possible between your party and the opposition?'
p2107
sbag1
(g10
g3
NtRp2108
(dp2109
g13
S'PlayerSay'
p2110
sg15
S'Journalist5'
p2111
sg16
S''
sg18
S'I suppose once we find and remove all of the aliens and reverse the alien brainwashing, bi-partisanship will resume.'
p2112
sbag1
(g10
g3
NtRp2113
(dp2114
g13
S'Encounter'
p2115
sg15
S'Journalist5'
p2116
sg16
S'P-hard-03'
p2117
sg18
S''
sbag1
(g10
g3
NtRp2118
(dp2119
g13
S'Say'
p2120
sg15
S'Journalist5'
p2121
sg16
S''
sg18
S'Thankyou, President Mossman.'
p2122
sbag1
(g10
g3
NtRp2123
(dp2124
g13
S'Increment'
p2125
sg15
S'Journalist5'
p2126
sg16
S'PRESSCONF'
p2127
sg18
S''
sbag1
(g10
g3
NtRp2128
(dp2129
g13
S'Destroy'
p2130
sg15
S'Journalist5'
p2131
sg16
S''
sg18
S''
sbasS'Journalist2'
p2132
(lp2133
g1
(g10
g3
NtRp2134
(dp2135
g13
S'RequireFlag'
p2136
sg15
g2132
sg16
S'STARTHICKS2'
p2137
sg18
S'Governor Badden sends his Mayor lacky to do his dirty work \xe2\x80\x93 what a scoop!'
p2138
sbag1
(g10
g3
NtRp2139
(dp2140
g13
S'Encounter'
p2141
sg15
S'Journalist2'
p2142
sg16
S'P-med-05'
p2143
sg18
S''
sbag1
(g10
g3
NtRp2144
(dp2145
g13
S'Say'
p2146
sg15
S'Journalist2'
p2147
sg16
S''
sg18
S"I'm going back to write a comparison piece on you and Governor Badden. You should consider running for Governor."
p2148
sbag1
(g10
g3
NtRp2149
(dp2150
g13
S'Increment'
p2151
sg15
S'Journalist2'
p2152
sg16
S'DEALWITHHICKS'
p2153
sg18
S''
sbag1
(g10
g3
NtRp2154
(dp2155
g13
S'Destroy'
p2156
sg15
S'Journalist2'
p2157
sg16
S''
sg18
S''
sbasS'Journalist3'
p2158
(lp2159
g1
(g10
g3
NtRp2160
(dp2161
g13
S'RequireFlag'
p2162
sg15
g2158
sg16
S'ACCESSJOURNALISTS'
p2163
sg18
S'Mr President!'
p2164
sbag1
(g10
g3
NtRp2165
(dp2166
g13
S'Say'
p2167
sg15
S'Journalist3'
p2168
sg16
S''
sg18
S'Mr President, Cal from Daily LOL magazine. Can you explain the transformation that occurred during the presidential debate.'
p2169
sbag1
(g10
g3
NtRp2170
(dp2171
g13
S'PlayerSay'
p2172
sg15
S'Journalist3'
p2173
sg16
S''
sg18
S'Certainly, Cal. The President of the Ignited States turned into an alien.'
p2174
sbag1
(g10
g3
NtRp2175
(dp2176
g13
S'Say'
p2177
sg15
S'Journalist3'
p2178
sg16
S''
sg18
S"Ah, you mean to say he's out-of-touch with his people?"
p2179
sbag1
(g10
g3
NtRp2180
(dp2181
g13
S'PlayerSay'
p2182
sg15
S'Journalist3'
p2183
sg16
S''
sg18
S'Not exactly...'
p2184
sbag1
(g10
g3
NtRp2185
(dp2186
g13
S'Encounter'
p2187
sg15
S'Journalist3'
p2188
sg16
S'P-hard-01'
p2189
sg18
S''
sbag1
(g10
g3
NtRp2190
(dp2191
g13
S'Say'
p2192
sg15
S'Journalist3'
p2193
sg16
S''
sg18
S'I...see...'
p2194
sbag1
(g10
g3
NtRp2195
(dp2196
g13
S'Increment'
p2197
sg15
S'Journalist3'
p2198
sg16
S'PRESSCONF'
p2199
sg18
S''
sbag1
(g10
g3
NtRp2200
(dp2201
g13
S'Destroy'
p2202
sg15
S'Journalist3'
p2203
sg16
S''
sg18
S''
sbasS'Sponsor'
p2204
(lp2205
g1
(g10
g3
NtRp2206
(dp2207
g13
S'RequireFlag'
p2208
sg15
g2204
sg16
S'STARTSPONSOR'
p2209
sg18
S"Hmmm...Money, money, money. Sorry, what? I wasn't talking to you."
p2210
sbag1
(g10
g3
NtRp2211
(dp2212
g13
S'Say'
p2213
sg15
S'Sponsor'
p2214
sg16
S''
sg18
S"Hello, I'm investigating new investments today. How can I help you?"
p2215
sbag1
(g10
g3
NtRp2216
(dp2217
g13
S'PlayerSay'
p2218
sg15
S'Sponsor'
p2219
sg16
S''
sg18
S"Well, I've decided to run for Mayor! I could really use an investor."
p2220
sbag1
(g10
g3
NtRp2221
(dp2222
g13
S'Say'
p2223
sg15
S'Sponsor'
p2224
sg16
S''
sg18
S"I don't know. You seem a little young. I don't think I'm convinced."
p2225
sbag1
(g10
g3
NtRp2226
(dp2227
g13
S'Encounter'
p2228
sg15
S'Sponsor'
p2229
sg16
S'P-easy-06'
p2230
sg18
S''
sbag1
(g10
g3
NtRp2231
(dp2232
g13
S'Say'
p2233
sg15
S'Sponsor'
p2234
sg16
S''
sg18
S"Wow! You sure have what it takes! Alright, here's a pile of cash!"
p2235
sbag1
(g10
g3
NtRp2236
(dp2237
g13
S'GiveMoney'
p2238
sg15
S'Sponsor'
p2239
sg16
F80
sg18
S'Received $80'
p2240
sbag1
(g10
g3
NtRp2241
(dp2242
g13
S'Say'
p2243
sg15
S'Sponsor'
p2244
sg16
S''
sg18
S'Also, now that you have some funds, you might find it useful to...grease the wheels in some difficult situations.'
p2245
sbag1
(g10
g3
NtRp2246
(dp2247
g13
S'LearnAttack'
p2248
sg15
S'Sponsor'
p2249
sg16
S'BRIBE'
p2250
sg18
S'Phillip and Sarah learn to Bribe'
p2251
sbag1
(g10
g3
NtRp2252
(dp2253
g13
S'LearnAttack'
p2254
sg15
S'Sponsor'
p2255
sg16
S'Wife:BRIBE'
p2256
sg18
S''
sbag1
(g10
g3
NtRp2257
(dp2258
g13
S'SetFlag'
p2259
sg15
S'Sponsor'
p2260
sg16
S'STARTCONSTITUENTS'
p2261
sg18
S''
sbag1
(g10
g3
NtRp2262
(dp2263
g13
S'PlayerSay'
p2264
sg15
S'Sponsor'
p2265
sg16
S''
sg18
S'Er, thanks! I suppose we should go gather some support from our constituents now.'
p2266
sbag1
(g10
g3
NtRp2267
(dp2268
g13
S'Say'
p2269
sg15
S'Sponsor'
p2270
sg16
S''
sg18
S"Makes sense to me! I'm off, too. Money, money, money."
p2271
sbag1
(g10
g3
NtRp2272
(dp2273
g13
S'Destroy'
p2274
sg15
S'Sponsor'
p2275
sg16
S''
sg18
S''
sbasS'CheatAct2P2'
p2276
(lp2277
g1
(g10
g3
NtRp2278
(dp2279
g13
S'AddAlly'
p2280
sg15
g2276
sg16
S'Wife:5'
p2281
sg18
S''
sbag1
(g10
g3
NtRp2282
(dp2283
g13
S'LearnAttack'
p2284
sg15
S'CheatAct2P2'
p2285
sg16
S'BRIBE'
p2286
sg18
S''
sbag1
(g10
g3
NtRp2287
(dp2288
g13
S'LearnAttack'
p2289
sg15
S'CheatAct2P2'
p2290
sg16
S'Wife:BRIBE'
p2291
sg18
S''
sbag1
(g10
g3
NtRp2292
(dp2293
g13
S'LearnAttack'
p2294
sg15
S'CheatAct2P2'
p2295
sg16
S'SLANDER'
p2296
sg18
S''
sbag1
(g10
g3
NtRp2297
(dp2298
g13
S'AddAlly'
p2299
sg15
S'CheatAct2P2'
p2300
sg16
S'Leo:5'
p2301
sg18
S''
sbag1
(g10
g3
NtRp2302
(dp2303
g13
S'CheatXP'
p2304
sg15
S'CheatAct2P2'
p2305
sg16
S'Player:1000'
p2306
sg18
S''
sbag1
(g10
g3
NtRp2307
(dp2308
g13
S'CheatCunning'
p2309
sg15
S'CheatAct2P2'
p2310
sg16
S'Player:5'
p2311
sg18
S''
sbag1
(g10
g3
NtRp2312
(dp2313
g13
S'CheatCharisma'
p2314
sg15
S'CheatAct2P2'
p2315
sg16
S'Player:2'
p2316
sg18
S''
sbag1
(g10
g3
NtRp2317
(dp2318
g13
S'CheatSpeed'
p2319
sg15
S'CheatAct2P2'
p2320
sg16
S'Player:2'
p2321
sg18
S''
sbag1
(g10
g3
NtRp2322
(dp2323
g13
S'CheatWit'
p2324
sg15
S'CheatAct2P2'
p2325
sg16
S'Player:2'
p2326
sg18
S''
sbag1
(g10
g3
NtRp2327
(dp2328
g13
S'CheatFlair'
p2329
sg15
S'CheatAct2P2'
p2330
sg16
S'Player:2'
p2331
sg18
S''
sbag1
(g10
g3
NtRp2332
(dp2333
g13
S'CheatCunning'
p2334
sg15
S'CheatAct2P2'
p2335
sg16
S'Wife:2'
p2336
sg18
S''
sbag1
(g10
g3
NtRp2337
(dp2338
g13
S'CheatCharisma'
p2339
sg15
S'CheatAct2P2'
p2340
sg16
S'Wife:2'
p2341
sg18
S''
sbag1
(g10
g3
NtRp2342
(dp2343
g13
S'CheatSpeed'
p2344
sg15
S'CheatAct2P2'
p2345
sg16
S'Wife:3'
p2346
sg18
S''
sbag1
(g10
g3
NtRp2347
(dp2348
g13
S'CheatWit'
p2349
sg15
S'CheatAct2P2'
p2350
sg16
S'Wife:5'
p2351
sg18
S''
sbag1
(g10
g3
NtRp2352
(dp2353
g13
S'CheatFlair'
p2354
sg15
S'CheatAct2P2'
p2355
sg16
S'Wife:1'
p2356
sg18
S''
sbag1
(g10
g3
NtRp2357
(dp2358
g13
S'CheatCunning'
p2359
sg15
S'CheatAct2P2'
p2360
sg16
S'Leo:2'
p2361
sg18
S''
sbag1
(g10
g3
NtRp2362
(dp2363
g13
S'CheatCharisma'
p2364
sg15
S'CheatAct2P2'
p2365
sg16
S'Leo:2'
p2366
sg18
S''
sbag1
(g10
g3
NtRp2367
(dp2368
g13
S'CheatSpeed'
p2369
sg15
S'CheatAct2P2'
p2370
sg16
S'Leo:2'
p2371
sg18
S''
sbag1
(g10
g3
NtRp2372
(dp2373
g13
S'CheatWit'
p2374
sg15
S'CheatAct2P2'
p2375
sg16
S'Leo:5'
p2376
sg18
S''
sbag1
(g10
g3
NtRp2377
(dp2378
g13
S'CheatFlair'
p2379
sg15
S'CheatAct2P2'
p2380
sg16
S'Leo:2'
p2381
sg18
S''
sbag1
(g10
g3
NtRp2382
(dp2383
g13
S'LearnAttack'
p2384
sg15
S'CheatAct2P2'
p2385
sg16
S'FILIBUSTER'
p2386
sg18
S''
sbag1
(g10
g3
NtRp2387
(dp2388
g13
S'GotoMap'
p2389
sg15
S'CheatAct2P2'
p2390
sg16
S'hotel_l1'
p2391
sg18
S''
sbasS'StairsToBasement'
p2392
(lp2393
g1
(g10
g3
NtRp2394
(dp2395
g13
S'RequireFlagPlayerSay'
p2396
sg15
g2392
sg16
S'ACCESSBASEMENT'
p2397
sg18
S'Smells like a basement. I have no business going down there.'
p2398
sbag1
(g10
g3
NtRp2399
(dp2400
g13
S'Label'
p2401
sg15
S'StairsToBasement'
p2402
sg16
S'START'
p2403
sg18
S''
sbag1
(g10
g3
NtRp2404
(dp2405
g13
S'GotoMap'
p2406
sg15
S'StairsToBasement'
p2407
sg16
S'hotel_basement'
p2408
sg18
S''
sbag1
(g10
g3
NtRp2409
(dp2410
g13
S'Jump'
p2411
sg15
S'StairsToBasement'
p2412
sg16
S'START'
p2413
sg18
S''
sbasS'SouthWingDoor'
p2414
(lp2415
g1
(g10
g3
NtRp2416
(dp2417
g13
S'RequireItemMessage'
p2418
sg15
g2414
sg16
S'SOUTHWINGDOORKEY'
p2419
sg18
S'The door appears to be locked'
p2420
sbag1
(g10
g3
NtRp2421
(dp2422
g13
S'Message'
p2423
sg15
S'SouthWingDoor'
p2424
sg16
S''
sg18
S"The door unlocks with a satisfying 'click'"
p2425
sbag1
(g10
g3
NtRp2426
(dp2427
g13
S'Destroy'
p2428
sg15
S'SouthWingDoor'
p2429
sg16
S''
sg18
S''
sbasS'Hick1'
p2430
(lp2431
g1
(g10
g3
NtRp2432
(dp2433
g13
S'RequireFlag'
p2434
sg15
g2430
sg16
S'STARTHICKS'
p2435
sg18
S"Look at this guy's fancy tie!"
p2436
sbag1
(g10
g3
NtRp2437
(dp2438
g13
S'PlayerSay'
p2439
sg15
S'Hick1'
p2440
sg16
S''
sg18
S'What brings you to the office of the governor?'
p2441
sbag1
(g10
g3
NtRp2442
(dp2443
g13
S'Say'
p2444
sg15
S'Hick1'
p2445
sg16
S''
sg18
S'The immigrants!'
p2446
sbag1
(g10
g3
NtRp2447
(dp2448
g13
S'PlayerSay'
p2449
sg15
S'Hick1'
p2450
sg16
S''
sg18
S'What happened?'
p2451
sbag1
(g10
g3
NtRp2452
(dp2453
g13
S'Say'
p2454
sg15
S'Hick1'
p2455
sg16
S'Hick2'
p2456
sg18
S"They're coming!"
p2457
sbag1
(g10
g3
NtRp2458
(dp2459
g13
S'PlayerSay'
p2460
sg15
S'Hick1'
p2461
sg16
S''
sg18
S'The...immigrants are coming?'
p2462
sbag1
(g10
g3
NtRp2463
(dp2464
g13
S'Say'
p2465
sg15
S'Hick1'
p2466
sg16
S'Hick2'
p2467
sg18
S'Yes, to steal our jobs and our wives!'
p2468
sbag1
(g10
g3
NtRp2469
(dp2470
g13
S'Say'
p2471
sg15
S'Hick1'
p2472
sg16
S''
sg18
S'They have to be stopped!'
p2473
sbag1
(g10
g3
NtRp2474
(dp2475
g13
S'PlayerSay'
p2476
sg15
S'Hick1'
p2477
sg16
S''
sg18
S"I don't think the immigrants are coming to steal your wives..."
p2478
sbag1
(g10
g3
NtRp2479
(dp2480
g13
S'Say'
p2481
sg15
S'Hick1'
p2482
sg16
S'Journalist2'
p2483
sg18
S'Mayor Mossman sides with the immigrants! I need to get this to print!'
p2484
sbag1
(g10
g3
NtRp2485
(dp2486
g13
S'PlayerSay'
p2487
sg15
S'Hick1'
p2488
sg16
S''
sg18
S'Wait a second, let me explain.'
p2489
sbag1
(g10
g3
NtRp2490
(dp2491
g13
S'Encounter'
p2492
sg15
S'Hick1'
p2493
sg16
S'P-med-03'
p2494
sg18
S''
sbag1
(g10
g3
NtRp2495
(dp2496
g13
S'Say'
p2497
sg15
S'Hick1'
p2498
sg16
S''
sg18
S"You're a smart guy. I think I can trust you."
p2499
sbag1
(g10
g3
NtRp2500
(dp2501
g13
S'SetFlag'
p2502
sg15
S'Hick1'
p2503
sg16
S'STARTHICKS2'
p2504
sg18
S''
sbag1
(g10
g3
NtRp2505
(dp2506
g13
S'Increment'
p2507
sg15
S'Hick1'
p2508
sg16
S'DEALWITHHICKS'
p2509
sg18
S''
sbag1
(g10
g3
NtRp2510
(dp2511
g13
S'Destroy'
p2512
sg15
S'Hick1'
p2513
sg16
S''
sg18
S''
sbasS'Hick2'
p2514
(lp2515
g1
(g10
g3
NtRp2516
(dp2517
g13
S'RequireFlag'
p2518
sg15
g2514
sg16
S'STARTHICKS2'
p2519
sg18
S"Aw....I'm shy...talk to my buddy..."
p2520
sbag1
(g10
g3
NtRp2521
(dp2522
g13
S'Encounter'
p2523
sg15
S'Hick2'
p2524
sg16
S'P-med-04'
p2525
sg18
S''
sbag1
(g10
g3
NtRp2526
(dp2527
g13
S'Say'
p2528
sg15
S'Hick2'
p2529
sg16
S''
sg18
S"Wowee. We've been waiting for days and the governor has ignored us. If you ever run for governor, you'll have my vote!"
p2530
sbag1
(g10
g3
NtRp2531
(dp2532
g13
S'Increment'
p2533
sg15
S'Hick2'
p2534
sg16
S'DEALWITHHICKS'
p2535
sg18
S''
sbag1
(g10
g3
NtRp2536
(dp2537
g13
S'Destroy'
p2538
sg15
S'Hick2'
p2539
sg16
S''
sg18
S''
sbasS'DoorToNotbad'
p2540
(lp2541
g1
(g10
g3
NtRp2542
(dp2543
g13
S'RequireItemMessage'
p2544
sg15
g2540
sg16
S'NOTBADKEY'
p2545
sg18
S'The door seems to be aware of your presence. It growls threateningly.'
p2546
sbag1
(g10
g3
NtRp2547
(dp2548
g13
S'Destroy'
p2549
sg15
S'DoorToNotbad'
p2550
sg16
S''
sg18
S''
sbag1
(g10
g3
NtRp2551
(dp2552
g13
S'Message'
p2553
sg15
S'DoorToNotbad'
p2554
sg16
S''
sg18
S'A complex series of locks slide away.'
p2555
sbasS'CheatAct2'
p2556
(lp2557
g1
(g10
g3
NtRp2558
(dp2559
g13
S'AddAlly'
p2560
sg15
g2556
sg16
S'Wife:3'
p2561
sg18
S''
sbag1
(g10
g3
NtRp2562
(dp2563
g13
S'LearnAttack'
p2564
sg15
S'CheatAct2'
p2565
sg16
S'BRIBE'
p2566
sg18
S''
sbag1
(g10
g3
NtRp2567
(dp2568
g13
S'LearnAttack'
p2569
sg15
S'CheatAct2'
p2570
sg16
S'Wife:BRIBE'
p2571
sg18
S''
sbag1
(g10
g3
NtRp2572
(dp2573
g13
S'LearnAttack'
p2574
sg15
S'CheatAct2'
p2575
sg16
S'SLANDER'
p2576
sg18
S''
sbag1
(g10
g3
NtRp2577
(dp2578
g13
S'CheatXP'
p2579
sg15
S'CheatAct2'
p2580
sg16
S'Player:200'
p2581
sg18
S''
sbag1
(g10
g3
NtRp2582
(dp2583
g13
S'CheatCunning'
p2584
sg15
S'CheatAct2'
p2585
sg16
S'Player:3'
p2586
sg18
S''
sbag1
(g10
g3
NtRp2587
(dp2588
g13
S'CheatCharisma'
p2589
sg15
S'CheatAct2'
p2590
sg16
S'Player:3'
p2591
sg18
S''
sbag1
(g10
g3
NtRp2592
(dp2593
g13
S'CheatCunning'
p2594
sg15
S'CheatAct2'
p2595
sg16
S'Wife:1'
p2596
sg18
S''
sbag1
(g10
g3
NtRp2597
(dp2598
g13
S'CheatCharisma'
p2599
sg15
S'CheatAct2'
p2600
sg16
S'Wife:1'
p2601
sg18
S''
sbag1
(g10
g3
NtRp2602
(dp2603
g13
S'GiveMoney'
p2604
sg15
S'CheatAct2'
p2605
sg16
F200
sg18
S''
sbag1
(g10
g3
NtRp2606
(dp2607
g13
S'GotoMap'
p2608
sg15
S'CheatAct2'
p2609
sg16
S'act2'
p2610
sg18
S''
sbasS'CheatAct3'
p2611
(lp2612
g1
(g10
g3
NtRp2613
(dp2614
g13
S'AddAlly'
p2615
sg15
g2611
sg16
S'Wife:1'
p2616
sg18
S''
sbag1
(g10
g3
NtRp2617
(dp2618
g13
S'LearnAttack'
p2619
sg15
S'CheatAct3'
p2620
sg16
S'BRIBE'
p2621
sg18
S''
sbag1
(g10
g3
NtRp2622
(dp2623
g13
S'LearnAttack'
p2624
sg15
S'CheatAct3'
p2625
sg16
S'Wife:BRIBE'
p2626
sg18
S''
sbag1
(g10
g3
NtRp2627
(dp2628
g13
S'LearnAttack'
p2629
sg15
S'CheatAct3'
p2630
sg16
S'SLANDER'
p2631
sg18
S''
sbag1
(g10
g3
NtRp2632
(dp2633
g13
S'AddAlly'
p2634
sg15
S'CheatAct3'
p2635
sg16
S'Leo:1'
p2636
sg18
S''
sbag1
(g10
g3
NtRp2637
(dp2638
g13
S'GotoMap'
p2639
sg15
S'CheatAct3'
p2640
sg16
S'act3'
p2641
sg18
S''
sbasS'Teacher2'
p2642
(lp2643
g1
(g10
g3
NtRp2644
(dp2645
g13
S'Say'
p2646
sg15
g2642
sg16
S''
sg18
S"You cannot gamble with the future, Mr President. Childrens' education is at stake!"
p2647
sbag1
(g10
g3
NtRp2648
(dp2649
g13
S'PlayerSay'
p2650
sg15
S'Teacher2'
p2651
sg16
S''
sg18
S"I can assure you this isn't so..."
p2652
sbag1
(g10
g3
NtRp2653
(dp2654
g13
S'Encounter'
p2655
sg15
S'Teacher2'
p2656
sg16
S'P-hard-07'
p2657
sg18
S''
sbag1
(g10
g3
NtRp2658
(dp2659
g13
S'Say'
p2660
sg15
S'Teacher2'
p2661
sg16
S''
sg18
S'We will await a change from your government.'
p2662
sbag1
(g10
g3
NtRp2663
(dp2664
g13
S'Increment'
p2665
sg15
S'Teacher2'
p2666
sg16
S'TEACHERS'
p2667
sg18
S''
sbag1
(g10
g3
NtRp2668
(dp2669
g13
S'Destroy'
p2670
sg15
S'Teacher2'
p2671
sg16
S''
sg18
S''
sbasS'Teacher1'
p2672
(lp2673
g1
(g10
g3
NtRp2674
(dp2675
g13
S'Say'
p2676
sg15
g2672
sg16
S''
sg18
S"Good day, Mr President. I have to say I'm most displeased with the current state of affairs around the education budget."
p2677
sbag1
(g10
g3
NtRp2678
(dp2679
g13
S'Say'
p2680
sg15
S'Teacher1'
p2681
sg16
S'Teacher2'
p2682
sg18
S'Agreed. This is simply unacceptable. We will need to close down schools!'
p2683
sbag1
(g10
g3
NtRp2684
(dp2685
g13
S'PlayerSay'
p2686
sg15
S'Teacher1'
p2687
sg16
S''
sg18
S"I'm sorry, I don't understand your concern. My education plan was one of the linchpins of my election campaign."
p2688
sbag1
(g10
g3
NtRp2689
(dp2690
g13
S'Say'
p2691
sg15
S'Teacher1'
p2692
sg16
S''
sg18
S'And precisely one of the reasons I voted for you.'
p2693
sbag1
(g10
g3
NtRp2694
(dp2695
g13
S'Say'
p2696
sg15
S'Teacher1'
p2697
sg16
S'Teacher2'
p2698
sg18
S"-Yet as soon as you've walked through these doors, the education budget has been drastically slashed."
p2699
sbag1
(g10
g3
NtRp2700
(dp2701
g13
S'PlayerSay'
p2702
sg15
S'Teacher1'
p2703
sg16
S''
sg18
S"I can assure you this isn't so..."
p2704
sbag1
(g10
g3
NtRp2705
(dp2706
g13
S'Encounter'
p2707
sg15
S'Teacher1'
p2708
sg16
S'P-hard-06'
p2709
sg18
S''
sbag1
(g10
g3
NtRp2710
(dp2711
g13
S'Say'
p2712
sg15
S'Teacher1'
p2713
sg16
S''
sg18
S"Well, I'd like to believe you, Mr President, but the proof is in the pudding,"
p2714
sbag1
(g10
g3
NtRp2715
(dp2716
g13
S'PlayerSay'
p2717
sg15
S'Teacher1'
p2718
sg16
S''
sg18
S'I WILL get to the bottom of this.'
p2719
sbag1
(g10
g3
NtRp2720
(dp2721
g13
S'Increment'
p2722
sg15
S'Teacher1'
p2723
sg16
S'TEACHERS'
p2724
sg18
S''
sbag1
(g10
g3
NtRp2725
(dp2726
g13
S'Destroy'
p2727
sg15
S'Teacher1'
p2728
sg16
S''
sg18
S''
sbasS'Theo'
p2729
(lp2730
g1
(g10
g3
NtRp2731
(dp2732
g13
S'RequireFlag'
p2733
sg15
g2729
sg16
S'GOVERNORDEFEATED'
p2734
sg18
S'The Governor is in the north wing.'
p2735
sbag1
(g10
g3
NtRp2736
(dp2737
g13
S'Say'
p2738
sg15
S'Theo'
p2739
sg16
S''
sg18
S"You must be Governor Mossman. I am Theo. I've been looking for you, but I wanted to see how you handled Governor Badden"
p2740
sbag1
(g10
g3
NtRp2741
(dp2742
g13
S'PlayerSay'
p2743
sg15
S'Theo'
p2744
sg16
S''
sg18
S'Hi Theo. Why have you been looking for me?'
p2745
sbag1
(g10
g3
NtRp2746
(dp2747
g13
S'Say'
p2748
sg15
S'Theo'
p2749
sg16
S''
sg18
S"There's a lot going on in Ignited States politics and none of it is good. Somebody needs to get up there and find out what's going on."
p2750
sbag1
(g10
g3
NtRp2751
(dp2752
g13
S'Say'
p2753
sg15
S'Theo'
p2754
sg16
S''
sg18
S"I couldn't be sure which side you were on, but your dealings with the Governor prove that you're not with them."
p2755
sbag1
(g10
g3
NtRp2756
(dp2757
g13
S'PlayerSay'
p2758
sg15
S'Theo'
p2759
sg16
S''
sg18
S'It sounds like it goes all the way to the President of the Ignited States.'
p2760
sbag1
(g10
g3
NtRp2761
(dp2762
g13
S'Say'
p2763
sg15
S'Theo'
p2764
sg16
S''
sg18
S"It does. That's why I've been looking for you. The only way to find out is to flush them out. There's only one way to flush out President Allen."
p2765
sbag1
(g10
g3
NtRp2766
(dp2767
g13
S'PlayerSay'
p2768
sg15
S'Theo'
p2769
sg16
S''
sg18
S"How's that?"
p2770
sbag1
(g10
g3
NtRp2771
(dp2772
g13
S'Say'
p2773
sg15
S'Theo'
p2774
sg16
S''
sg18
S"...I've been a campaign manager for 20 years and I've never seen a candidate as strong as you. I think you have what it takes to run for the presidency."
p2775
sbag1
(g10
g3
NtRp2776
(dp2777
g13
S'Say'
p2778
sg15
S'Theo'
p2779
sg16
S''
sg18
S"That's why I was looking for you. I need somebody who has a shot at winning in order to get to President Allen. You have that shot."
p2780
sbag1
(g10
g3
NtRp2781
(dp2782
g13
S'PlayerSay'
p2783
sg15
S'Theo'
p2784
sg16
S''
sg18
S"You really think I can win? Well...I want to follow this through to the end, so I'm in!"
p2785
sbag1
(g10
g3
NtRp2786
(dp2787
g13
S'Say'
p2788
sg15
S'Theo'
p2789
sg16
S''
sg18
S"Great! There's a lot to get organised! We need to plan our election campaign!"
p2790
sbag1
(g10
g3
NtRp2791
(dp2792
g13
S'Say'
p2793
sg15
S'Theo'
p2794
sg16
S''
sg18
S'First things first. I can teach you how to filibuster. It helps to get your opposition to stay put while the rest of your party moves in to attack.'
p2795
sbag1
(g10
g3
NtRp2796
(dp2797
g13
S'LearnAttack'
p2798
sg15
S'Theo'
p2799
sg16
S'FILIBUSTER'
p2800
sg18
S'Theo teaches you Filibuster'
p2801
sbag1
(g10
g3
NtRp2802
(dp2803
g13
S'Destroy'
p2804
sg15
S'Theo'
p2805
sg16
S''
sg18
S''
sbag1
(g10
g3
NtRp2806
(dp2807
g13
S'AddAlly'
p2808
sg15
S'Theo'
p2809
sg16
S'Leo:4'
p2810
sg18
S''
sbag1
(g10
g3
NtRp2811
(dp2812
g13
S'Message'
p2813
sg15
S'Theo'
p2814
sg16
S''
sg18
S'Theo joins your political party!'
p2815
sbag1
(g10
g3
NtRp2816
(dp2817
g13
S'Save'
p2818
sg15
S'Theo'
p2819
sg16
S'RestoreAct2P2'
p2820
sg18
S''
sbag1
(g10
g3
NtRp2821
(dp2822
g13
S'GotoMap'
p2823
sg15
S'Theo'
p2824
sg16
S'hotel_l1'
p2825
sg18
S''
sbasS'end'
p2826
(lp2827
g1
(g10
g3
NtRp2828
(dp2829
g13
S'Message'
p2830
sg15
g2826
sg16
S''
sg18
S"You have saved the day! The world is safe and all over the Ignited States, our citizens can sleep safe knowing you're taking care of them."
p2831
sbag1
(g10
g3
NtRp2832
(dp2833
g13
S'Message'
p2834
sg15
S'end'
p2835
sg16
S''
sg18
S'Goodnight, Mr President.'
p2836
sbasS'Governor'
p2837
(lp2838
g1
(g10
g3
NtRp2839
(dp2840
g13
S'RequireFlag'
p2841
sg15
g2837
sg16
S'GOVPOLITICIANSFIRST'
p2842
sg18
S"I'm very busy. Please speak to the others."
p2843
sbag1
(g10
g3
NtRp2844
(dp2845
g13
S'Say'
p2846
sg15
S'Governor'
p2847
sg16
S''
sg18
S'You have quite a way with words, Mayor Mossman. Why are you here?'
p2848
sbag1
(g10
g3
NtRp2849
(dp2850
g13
S'PlayerSay'
p2851
sg15
S'Governor'
p2852
sg16
S''
sg18
S"Mayor Goodman said some troubling things, Governor Badden. I'm here to get to the bottom of it."
p2853
sbag1
(g10
g3
NtRp2854
(dp2855
g13
S'Say'
p2856
sg15
S'Governor'
p2857
sg16
S''
sg18
S"If I knew anything about what you're talking about, I wouldn't tell you. I don't trust you at all."
p2858
sbag1
(g10
g3
NtRp2859
(dp2860
g13
S'PlayerSay'
p2861
sg15
S'Governor'
p2862
sg16
S''
sg18
S'What can I do to convince you?'
p2863
sbag1
(g10
g3
NtRp2864
(dp2865
g13
S'Say'
p2866
sg15
S'Governor'
p2867
sg16
S''
sg18
S"Well...there's some hicks in the south wing that I've been dodging. They want to know about the recent funding cuts. Get rid of them."
p2868
sbag1
(g10
g3
NtRp2869
(dp2870
g13
S'SetFlag'
p2871
sg15
S'Governor'
p2872
sg16
S'STARTHICKS'
p2873
sg18
S''
sbag1
(g10
g3
NtRp2874
(dp2875
g13
S'GiveItem'
p2876
sg15
S'Governor'
p2877
sg16
S'SOUTHWINGDOORKEY'
p2878
sg18
S'The Governor gives you a key.'
p2879
sbag1
(g10
g3
NtRp2880
(dp2881
g13
S'RequireCount'
p2882
sg15
S'Governor'
p2883
sg16
S'DEALWITHHICKS:3'
p2884
sg18
S"I'm not saying another word until you get rid of the hicks in the south wing."
p2885
sbag1
(g10
g3
NtRp2886
(dp2887
g13
S'PlayerSay'
p2888
sg15
S'Governor'
p2889
sg16
S''
sg18
S"OK, I've taken care of your problem, now I want my answers."
p2890
sbag1
(g10
g3
NtRp2891
(dp2892
g13
S'Say'
p2893
sg15
S'Governor'
p2894
sg16
S''
sg18
S'No.'
p2895
sbag1
(g10
g3
NtRp2896
(dp2897
g13
S'PlayerSay'
p2898
sg15
S'Governor'
p2899
sg16
S''
sg18
S'No?'
p2900
sbag1
(g10
g3
NtRp2901
(dp2902
g13
S'Say'
p2903
sg15
S'Governor'
p2904
sg16
S''
sg18
S"No, word has come down from the top that due to the last Mayor's idiocy we're tightening the inner circle to Governors and above."
p2905
sbag1
(g10
g3
NtRp2906
(dp2907
g13
S'PlayerSay'
p2908
sg15
S'Governor'
p2909
sg16
S''
sg18
S"From the top...so you're saying the only way I'll find out what's going on is to be a governor myself?"
p2910
sbag1
(g10
g3
NtRp2911
(dp2912
g13
S'Say'
p2913
sg15
S'Governor'
p2914
sg16
S''
sg18
S"Wait...no...I said I wasn't going to tell you, I..."
p2915
sbag1
(g10
g3
NtRp2916
(dp2917
g13
S'PlayerSay'
p2918
sg15
S'Governor'
p2919
sg16
S''
sg18
S'This is it, governor. Prepare to fight for your office!'
p2920
sbag1
(g10
g3
NtRp2921
(dp2922
g13
S'Encounter'
p2923
sg15
S'Governor'
p2924
sg16
S'P-med-06'
p2925
sg18
S''
sbag1
(g10
g3
NtRp2926
(dp2927
g13
S'Say'
p2928
sg15
S'Governor'
p2929
sg16
S''
sg18
S"Nooo! President Allen doesn't deal well with defeat. What will happen to me?"
p2930
sbag1
(g10
g3
NtRp2931
(dp2932
g13
S'PlayerSay'
p2933
sg15
S'Governor'
p2934
sg16
S''
sg18
S'The President? What does he have to do with this?'
p2935
sbag1
(g10
g3
NtRp2936
(dp2937
g13
S'Say'
p2938
sg15
S'Governor'
p2939
sg16
S''
sg18
S"You really have no idea what you've gotten into, do you? Well, you've gotten all you're getting out of me. I'm getting out of here!"
p2940
sbag1
(g10
g3
NtRp2941
(dp2942
g13
S'SetFlag'
p2943
sg15
S'Governor'
p2944
sg16
S'GOVERNORDEFEATED'
p2945
sg18
S''
sbag1
(g10
g3
NtRp2946
(dp2947
g13
S'RestoreVotes'
p2948
sg15
S'Governor'
p2949
sg16
S''
sg18
S''
sbag1
(g10
g3
NtRp2950
(dp2951
g13
S'Destroy'
p2952
sg15
S'Governor'
p2953
sg16
S''
sg18
S''
sbasS'Politician1'
p2954
(lp2955
g1
(g10
g3
NtRp2956
(dp2957
g13
S'Say'
p2958
sg15
g2954
sg16
S''
sg18
S"I'm sorry Mayor Mossman, the Governor cannot see you now. He's very busy"
p2959
sbag1
(g10
g3
NtRp2960
(dp2961
g13
S'PlayerSay'
p2962
sg15
S'Politician1'
p2963
sg16
S''
sg18
S"It's very important. I need to understand what Mayor Goodman was talking about. It was clear there were other powers at play."
p2964
sbag1
(g10
g3
NtRp2965
(dp2966
g13
S'Say'
p2967
sg15
S'Politician1'
p2968
sg16
S''
sg18
S'Yes well, I fail to see how your country spat has anything to do with Governer Badden.'
p2969
sbag1
(g10
g3
NtRp2970
(dp2971
g13
S'Encounter'
p2972
sg15
S'Politician1'
p2973
sg16
S'P-med-01'
p2974
sg18
S''
sbag1
(g10
g3
NtRp2975
(dp2976
g13
S'Say'
p2977
sg15
S'Politician1'
p2978
sg16
S''
sg18
S'Fair point. The governor will see you now.'
p2979
sbag1
(g10
g3
NtRp2980
(dp2981
g13
S'Destroy'
p2982
sg15
S'Politician1'
p2983
sg16
S''
sg18
S''
sbasS'Politician3'
p2984
(lp2985
g1
(g10
g3
NtRp2986
(dp2987
g13
S'RequireFlag'
p2988
sg15
g2984
sg16
S'STARTPOLITICIANSHAKEDOWN'
p2989
sg18
S'Good morning, Governor Mossman. Your PA will know your schedule. He is waiting beside the stairs'
p2990
sbag1
(g10
g3
NtRp2991
(dp2992
g13
S'Say'
p2993
sg15
S'Politician3'
p2994
sg16
S''
sg18
S"We must all agree that the most important thing is science! If we're not for science, what's the point."
p2995
sbag1
(g10
g3
NtRp2996
(dp2997
g13
S'PlayerSay'
p2998
sg15
S'Politician3'
p2999
sg16
S''
sg18
S'Why science?'
p3000
sbag1
(g10
g3
NtRp3001
(dp3002
g13
S'Say'
p3003
sg15
S'Politician3'
p3004
sg16
S''
sg18
S'Science!'
p3005
sbag1
(g10
g3
NtRp3006
(dp3007
g13
S'PlayerSay'
p3008
sg15
S'Politician3'
p3009
sg16
S''
sg18
S"There's a lot of great things we can do for science but the funding will need to be shared with health and education and..."
p3010
sbag1
(g10
g3
NtRp3011
(dp3012
g13
S'Say'
p3013
sg15
S'Politician3'
p3014
sg16
S''
sg18
S'No! Science!!!'
p3015
sbag1
(g10
g3
NtRp3016
(dp3017
g13
S'Encounter'
p3018
sg15
S'Politician3'
p3019
sg16
S'P-med-07'
p3020
sg18
S''
sbag1
(g10
g3
NtRp3021
(dp3022
g13
S'Say'
p3023
sg15
S'Politician3'
p3024
sg16
S''
sg18
S'Alright, fine! A balanced platform (but mostly science).'
p3025
sbag1
(g10
g3
NtRp3026
(dp3027
g13
S'Increment'
p3028
sg15
S'Politician3'
p3029
sg16
S'POLITICIANSHAKEDOWN'
p3030
sg18
S''
sbag1
(g10
g3
NtRp3031
(dp3032
g13
S'Destroy'
p3033
sg15
S'Politician3'
p3034
sg16
S''
sg18
S''
sbasS'Politician2'
p3035
(lp3036
g1
(g10
g3
NtRp3037
(dp3038
g13
S'Say'
p3039
sg15
g3035
sg16
S''
sg18
S'What are you doing in here? Who are you? Some Mayor?'
p3040
sbag1
(g10
g3
NtRp3041
(dp3042
g13
S'PlayerSay'
p3043
sg15
S'Politician2'
p3044
sg16
S''
sg18
S"I am Mayor Phillip Mossman. I'm here to speak to the Governor."
p3045
sbag1
(g10
g3
NtRp3046
(dp3047
g13
S'Say'
p3048
sg15
S'Politician2'
p3049
sg16
S''
sg18
S"I'm afraid the Governor's schedule is very tight. Come back next month."
p3050
sbag1
(g10
g3
NtRp3051
(dp3052
g13
S'Encounter'
p3053
sg15
S'Politician2'
p3054
sg16
S'P-med-02'
p3055
sg18
S''
sbag1
(g10
g3
NtRp3056
(dp3057
g13
S'Say'
p3058
sg15
S'Politician2'
p3059
sg16
S''
sg18
S'I see. Well, maybe we can squeeze you in.'
p3060
sbag1
(g10
g3
NtRp3061
(dp3062
g13
S'SetFlag'
p3063
sg15
S'Politician2'
p3064
sg16
S'GOVPOLITICIANSFIRST'
p3065
sg18
S''
sbag1
(g10
g3
NtRp3066
(dp3067
g13
S'Destroy'
p3068
sg15
S'Politician2'
p3069
sg16
S''
sg18
S''
sbasS'Politician5'
p3070
(lp3071
g1
(g10
g3
NtRp3072
(dp3073
g13
S'RequireFlag'
p3074
sg15
g3070
sg16
S'STARTPOLITICIANSHAKEDOWN'
p3075
sg18
S'Good morning, Governor Mossman. Your PA will know your schedule. He is waiting beside the stairs'
p3076
sbag1
(g10
g3
NtRp3077
(dp3078
g13
S'Say'
p3079
sg15
S'Politician5'
p3080
sg16
S''
sg18
S'Big business!'
p3081
sbag1
(g10
g3
NtRp3082
(dp3083
g13
S'PlayerSay'
p3084
sg15
S'Politician5'
p3085
sg16
S''
sg18
S'What about big business.'
p3086
sbag1
(g10
g3
NtRp3087
(dp3088
g13
S'Say'
p3089
sg15
S'Politician5'
p3090
sg16
S''
sg18
S'...MORE big business!'
p3091
sbag1
(g10
g3
NtRp3092
(dp3093
g13
S'PlayerSay'
p3094
sg15
S'Politician5'
p3095
sg16
S''
sg18
S'You want to grow our business sector? Provide more jobs?'
p3096
sbag1
(g10
g3
NtRp3097
(dp3098
g13
S'Say'
p3099
sg15
S'Politician5'
p3100
sg16
S''
sg18
S'...Yeeeeh. Yes. Yes, that.'
p3101
sbag1
(g10
g3
NtRp3102
(dp3103
g13
S'PlayerSay'
p3104
sg15
S'Politician5'
p3105
sg16
S''
sg18
S'What about small business?'
p3106
sbag1
(g10
g3
NtRp3107
(dp3108
g13
S'Say'
p3109
sg15
S'Politician5'
p3110
sg16
S''
sg18
S'No! We need to make it BIGGER!'
p3111
sbag1
(g10
g3
NtRp3112
(dp3113
g13
S'Encounter'
p3114
sg15
S'Politician5'
p3115
sg16
S'P-med-09'
p3116
sg18
S''
sbag1
(g10
g3
NtRp3117
(dp3118
g13
S'Say'
p3119
sg15
S'Politician5'
p3120
sg16
S''
sg18
S"OK, I see what you're getting at. Lets help small business to grow. Also, this might help even the odds in the future."
p3121
sbag1
(g10
g3
NtRp3122
(dp3123
g13
S'Say'
p3124
sg15
S'Politician5'
p3125
sg16
S''
sg18
S'The results can be a bit unpredictable, so only use it in drastic situations.'
p3126
sbag1
(g10
g3
NtRp3127
(dp3128
g13
S'Increment'
p3129
sg15
S'Politician5'
p3130
sg16
S'POLITICIANSHAKEDOWN'
p3131
sg18
S''
sbag1
(g10
g3
NtRp3132
(dp3133
g13
S'Destroy'
p3134
sg15
S'Politician5'
p3135
sg16
S''
sg18
S''
sbasS'Politician4'
p3136
(lp3137
g1
(g10
g3
NtRp3138
(dp3139
g13
S'RequireFlag'
p3140
sg15
g3136
sg16
S'STARTPOLITICIANSHAKEDOWN'
p3141
sg18
S'Good morning, Governor Mossman. Your PA will know your schedule. He is waiting beside the stairs'
p3142
sbag1
(g10
g3
NtRp3143
(dp3144
g13
S'Say'
p3145
sg15
S'Politician4'
p3146
sg16
S''
sg18
S"I'm for culture! It's a glorious age we live in, we should further this great country's culture."
p3147
sbag1
(g10
g3
NtRp3148
(dp3149
g13
S'PlayerSay'
p3150
sg15
S'Politician4'
p3151
sg16
S''
sg18
S'That sounds fair, but what kind of culture would you like to focus on.'
p3152
sbag1
(g10
g3
NtRp3153
(dp3154
g13
S'Say'
p3155
sg15
S'Politician4'
p3156
sg16
S''
sg18
S"Oh...I don't know, I'm not really into art, can't really handle music. I'd rather not go to the theatre if I can get out of it. Don't really see the point of sport...hmmm. New culture?"
p3157
sbag1
(g10
g3
NtRp3158
(dp3159
g13
S'PlayerSay'
p3160
sg15
S'Politician4'
p3161
sg16
S''
sg18
S"You don't seem very in to improving culture really."
p3162
sbag1
(g10
g3
NtRp3163
(dp3164
g13
S'Say'
p3165
sg15
S'Politician4'
p3166
sg16
S''
sg18
S'Yeh, well...my wife said it would make me sound smart. I think sounding smart is important. Lets be for that!'
p3167
sbag1
(g10
g3
NtRp3168
(dp3169
g13
S'Encounter'
p3170
sg15
S'Politician4'
p3171
sg16
S'P-med-08'
p3172
sg18
S''
sbag1
(g10
g3
NtRp3173
(dp3174
g13
S'Say'
p3175
sg15
S'Politician4'
p3176
sg16
S''
sg18
S"Gee, you're a pretty smart guy. I think you've got this covered."
p3177
sbag1
(g10
g3
NtRp3178
(dp3179
g13
S'Increment'
p3180
sg15
S'Politician4'
p3181
sg16
S'POLITICIANSHAKEDOWN'
p3182
sg18
S''
sbag1
(g10
g3
NtRp3183
(dp3184
g13
S'Destroy'
p3185
sg15
S'Politician4'
p3186
sg16
S''
sg18
S''
sbasS'Politician7'
p3187
(lp3188
g1
(g10
g3
NtRp3189
(dp3190
g13
S'RequireFlag'
p3191
sg15
g3187
sg16
S'STARTPOLITICIANSHAKEDOWN'
p3192
sg18
S'Good morning, Governor Mossman. Your PA will know your schedule. He is waiting beside the stairs'
p3193
sbag1
(g10
g3
NtRp3194
(dp3195
g13
S'LearnAttack'
p3196
sg15
S'Politician7'
p3197
sg16
S'BIELECTION'
p3198
sg18
S''
sbag1
(g10
g3
NtRp3199
(dp3200
g13
S'Say'
p3201
sg15
S'Politician7'
p3202
sg16
S''
sg18
S"I believe in captialism. Let business sort itself out. They shouldn't need to rely on government handouts."
p3203
sbag1
(g10
g3
NtRp3204
(dp3205
g13
S'Say'
p3206
sg15
S'Politician7'
p3207
sg16
S''
sg18
S'Also, I think politicians need a raise. Some more than others...oh and life-long retainers.'
p3208
sbag1
(g10
g3
NtRp3209
(dp3210
g13
S'PlayerSay'
p3211
sg15
S'Politician7'
p3212
sg16
S''
sg18
S'So, no more hand-outs for business but more handouts for politicians?'
p3213
sbag1
(g10
g3
NtRp3214
(dp3215
g13
S'Say'
p3216
sg15
S'Politician7'
p3217
sg16
S''
sg18
S'Yes!'
p3218
sbag1
(g10
g3
NtRp3219
(dp3220
g13
S'PlayerSay'
p3221
sg15
S'Politician7'
p3222
sg16
S''
sg18
S'Does that serve your constituents?'
p3223
sbag1
(g10
g3
NtRp3224
(dp3225
g13
S'Say'
p3226
sg15
S'Politician7'
p3227
sg16
S''
sg18
S'...It serves...some...'
p3228
sbag1
(g10
g3
NtRp3229
(dp3230
g13
S'Encounter'
p3231
sg15
S'Politician7'
p3232
sg16
S'P-med-11'
p3233
sg18
S''
sbag1
(g10
g3
NtRp3234
(dp3235
g13
S'Say'
p3236
sg15
S'Politician7'
p3237
sg16
S''
sg18
S'Right, I guess we need to handle the needs of our constituents, too.'
p3238
sbag1
(g10
g3
NtRp3239
(dp3240
g13
S'Increment'
p3241
sg15
S'Politician7'
p3242
sg16
S'POLITICIANSHAKEDOWN'
p3243
sg18
S''
sbag1
(g10
g3
NtRp3244
(dp3245
g13
S'Destroy'
p3246
sg15
S'Politician7'
p3247
sg16
S''
sg18
S''
sbasS'Politician6'
p3248
(lp3249
g1
(g10
g3
NtRp3250
(dp3251
g13
S'RequireFlag'
p3252
sg15
g3248
sg16
S'STARTPOLITICIANSHAKEDOWN'
p3253
sg18
S'Good morning, Governor Mossman. Your PA will know your schedule. He is waiting beside the stairs'
p3254
sbag1
(g10
g3
NtRp3255
(dp3256
g13
S'Say'
p3257
sg15
S'Politician6'
p3258
sg16
S''
sg18
S'We should be all about not wasting money'
p3259
sbag1
(g10
g3
NtRp3260
(dp3261
g13
S'PlayerSay'
p3262
sg15
S'Politician6'
p3263
sg16
S''
sg18
S'Sounds fair. Wasting money on what?'
p3264
sbag1
(g10
g3
NtRp3265
(dp3266
g13
S'Say'
p3267
sg15
S'Politician6'
p3268
sg16
S''
sg18
S"You know, stuff that doesn't really help like artsy stuff."
p3269
sbag1
(g10
g3
NtRp3270
(dp3271
g13
S'PlayerSay'
p3272
sg15
S'Politician6'
p3273
sg16
S''
sg18
S"You don't think we should invest in our culture?"
p3274
sbag1
(g10
g3
NtRp3275
(dp3276
g13
S'Say'
p3277
sg15
S'Politician6'
p3278
sg16
S''
sg18
S'We have more important things to spend our money on. Like military.'
p3279
sbag1
(g10
g3
NtRp3280
(dp3281
g13
S'PlayerSay'
p3282
sg15
S'Politician6'
p3283
sg16
S''
sg18
S'What if people want to paint pictures about our military. Or write patriotic songs?'
p3284
sbag1
(g10
g3
NtRp3285
(dp3286
g13
S'Say'
p3287
sg15
S'Politician6'
p3288
sg16
S''
sg18
S"I hadn't thought of that..."
p3289
sbag1
(g10
g3
NtRp3290
(dp3291
g13
S'Encounter'
p3292
sg15
S'Politician6'
p3293
sg16
S'P-med-10'
p3294
sg18
S''
sbag1
(g10
g3
NtRp3295
(dp3296
g13
S'Say'
p3297
sg15
S'Politician6'
p3298
sg16
S''
sg18
S"So, militaristic march songs and battle scenes aren't the only sort of art? Wow."
p3299
sbag1
(g10
g3
NtRp3300
(dp3301
g13
S'Increment'
p3302
sg15
S'Politician6'
p3303
sg16
S'POLITICIANSHAKEDOWN'
p3304
sg18
S''
sbag1
(g10
g3
NtRp3305
(dp3306
g13
S'Destroy'
p3307
sg15
S'Politician6'
p3308
sg16
S''
sg18
S''
sbasS'TVPersonality'
p3309
(lp3310
g1
(g10
g3
NtRp3311
(dp3312
g13
S'RequireFlag'
p3313
sg15
g3309
sg16
S'STARTHERCULES'
p3314
sg18
S"Ooooh, sorry Mossman, baby! We're not ready for you yet."
p3315
sbag1
(g10
g3
NtRp3316
(dp3317
g13
S'Say'
p3318
sg15
S'TVPersonality'
p3319
sg16
S''
sg18
S"There's the man! Are you ready to cross wits with The Mighty Hercules!"
p3320
sbag1
(g10
g3
NtRp3321
(dp3322
g13
S'PlayerSay'
p3323
sg15
S'TVPersonality'
p3324
sg16
S''
sg18
S'I sure am!'
p3325
sbag1
(g10
g3
NtRp3326
(dp3327
g13
S'Say'
p3328
sg15
S'TVPersonality'
p3329
sg16
S''
sg18
S"Really...? You don't want to...see your make-up artist?"
p3330
sbag1
(g10
g3
NtRp3331
(dp3332
g13
S'PlayerSay'
p3333
sg15
S'TVPersonality'
p3334
sg16
S''
sg18
S"No, no, I'm ready."
p3335
sbag1
(g10
g3
NtRp3336
(dp3337
g13
S'Say'
p3338
sg15
S'TVPersonality'
p3339
sg16
S''
sg18
S'Suit yourself...'
p3340
sbag1
(g10
g3
NtRp3341
(dp3342
g13
S'Say'
p3343
sg15
S'TVPersonality'
p3344
sg16
S''
sg18
S'... from the looks of it, suiting yourself is exactly what you did.'
p3345
sbag1
(g10
g3
NtRp3346
(dp3347
g13
S'Encounter'
p3348
sg15
S'TVPersonality'
p3349
sg16
S'P-med-20'
p3350
sg18
S''
sbag1
(g10
g3
NtRp3351
(dp3352
g13
S'Say'
p3353
sg15
S'TVPersonality'
p3354
sg16
S''
sg18
S'Good show, you sure gave me a run for my money.'
p3355
sbag1
(g10
g3
NtRp3356
(dp3357
g13
S'Say'
p3358
sg15
S'TVPersonality'
p3359
sg16
S''
sg18
S"Now beat it, you're making me look bad!"
p3360
sbag1
(g10
g3
NtRp3361
(dp3362
g13
S'SetFlag'
p3363
sg15
S'TVPersonality'
p3364
sg16
S'BEATHERCULES'
p3365
sg18
S''
sbag1
(g10
g3
NtRp3366
(dp3367
g13
S'Destroy'
p3368
sg15
S'TVPersonality'
p3369
sg16
S''
sg18
S''
sbasS'act1'
p3370
(lp3371
g1
(g10
g3
NtRp3372
(dp3373
g13
S'Message'
p3374
sg15
g3370
sg16
S''
sg18
S'Good morning, Assistant Phil.'
p3375
sbasS'act2'
p3376
(lp3377
g1
(g10
g3
NtRp3378
(dp3379
g13
S'Message'
p3380
sg15
g3376
sg16
S''
sg18
S"The Governor's Mansion"
p3381
sbasS'act3'
p3382
(lp3383
g1
(g10
g3
NtRp3384
(dp3385
g13
S'Message'
p3386
sg15
g3382
sg16
S''
sg18
S'The White House'
p3387
sbasS'Protester2'
p3388
(lp3389
g1
(g10
g3
NtRp3390
(dp3391
g13
S'Say'
p3392
sg15
g3388
sg16
S''
sg18
S"Bees buzz, Mayors lie, who's this Phillip Mossman guy?"
p3393
sbag1
(g10
g3
NtRp3394
(dp3395
g13
S'RequireFlag'
p3396
sg15
S'Protester2'
p3397
sg16
S'PROTESTORS'
p3398
sg18
S''
sbag1
(g10
g3
NtRp3399
(dp3400
g13
S'Encounter'
p3401
sg15
S'Protester2'
p3402
sg16
S'P-easy-03'
p3403
sg18
S''
sbag1
(g10
g3
NtRp3404
(dp3405
g13
S'Destroy'
p3406
sg15
S'Protester2'
p3407
sg16
S''
sg18
S''
sbasS'Protester1'
p3408
(lp3409
g1
(g10
g3
NtRp3410
(dp3411
g13
S'Say'
p3412
sg15
g3408
sg16
S''
sg18
S"Fee Fi Fo Fum, we think Mayor Goodman's Dumb!"
p3413
sbag1
(g10
g3
NtRp3414
(dp3415
g13
S'RequireFlag'
p3416
sg15
S'Protester1'
p3417
sg16
S'PROTESTORS'
p3418
sg18
S''
sbag1
(g10
g3
NtRp3419
(dp3420
g13
S'Encounter'
p3421
sg15
S'Protester1'
p3422
sg16
S'P-easy-02'
p3423
sg18
S''
sbag1
(g10
g3
NtRp3424
(dp3425
g13
S'Destroy'
p3426
sg15
S'Protester1'
p3427
sg16
S''
sg18
S''
sbasS'Head Protester'
p3428
(lp3429
g1
(g10
g3
NtRp3430
(dp3431
g13
S'Say'
p3432
sg15
g3428
sg16
S''
sg18
S"I am the head protester. You'll never convince us to back down!"
p3433
sbag1
(g10
g3
NtRp3434
(dp3435
g13
S'RequireFlag'
p3436
sg15
S'Head Protester'
p3437
sg16
S'PROTESTORS'
p3438
sg18
S''
sbag1
(g10
g3
NtRp3439
(dp3440
g13
S'PlayerSay'
p3441
sg15
S'Head Protester'
p3442
sg16
S''
sg18
S'What are you protesting?'
p3443
sbag1
(g10
g3
NtRp3444
(dp3445
g13
S'Say'
p3446
sg15
S'Head Protester'
p3447
sg16
S''
sg18
S'Er...Injustice!'
p3448
sbag1
(g10
g3
NtRp3449
(dp3450
g13
S'PlayerSay'
p3451
sg15
S'Head Protester'
p3452
sg16
S''
sg18
S'Injustice against what?'
p3453
sbag1
(g10
g3
NtRp3454
(dp3455
g13
S'Say'
p3456
sg15
S'Head Protester'
p3457
sg16
S''
sg18
S'...'
p3458
sbag1
(g10
g3
NtRp3459
(dp3460
g13
S'Say'
p3461
sg15
S'Head Protester'
p3462
sg16
S''
sg18
S'The People!'
p3463
sbag1
(g10
g3
NtRp3464
(dp3465
g13
S'PlayerSay'
p3466
sg15
S'Head Protester'
p3467
sg16
S''
sg18
S'Yes, but which people?'
p3468
sbag1
(g10
g3
NtRp3469
(dp3470
g13
S'Say'
p3471
sg15
S'Head Protester'
p3472
sg16
S''
sg18
S'See? What a fascist, ALL people you slimey politician scum!'
p3473
sbag1
(g10
g3
NtRp3474
(dp3475
g13
S'Encounter'
p3476
sg15
S'Head Protester'
p3477
sg16
S'P-easy-04'
p3478
sg18
S''
sbag1
(g10
g3
NtRp3479
(dp3480
g13
S'Say'
p3481
sg15
S'Head Protester'
p3482
sg16
S''
sg18
S"Alright, fine! We'll stop protesting...whatever we were protesting."
p3483
sbag1
(g10
g3
NtRp3484
(dp3485
g13
S'SetFlag'
p3486
sg15
S'Head Protester'
p3487
sg16
S'PROTESTORSDEAD'
p3488
sg18
S''
sbag1
(g10
g3
NtRp3489
(dp3490
g13
S'Destroy'
p3491
sg15
S'Head Protester'
p3492
sg16
S''
sg18
S''
sbasS'Receptionist'
p3493
(lp3494
g1
(g10
g3
NtRp3495
(dp3496
g13
S'RequireFlag'
p3497
sg15
g3493
sg16
S'PENQUEST'
p3498
sg18
S"You must be Mayor Goodman's new assistant. He's in his office."
p3499
sbag1
(g10
g3
NtRp3500
(dp3501
g13
S'PlayerSay'
p3502
sg15
S'Receptionist'
p3503
sg16
S''
sg18
S"The Mayor is looking for his pen. He seemed to think you'd know where it was."
p3504
sbag1
(g10
g3
NtRp3505
(dp3506
g13
S'Say'
p3507
sg15
S'Receptionist'
p3508
sg16
S''
sg18
S"Did that buffoon accuse me of stealing again? This is MY pen and he isn't having it."
p3509
sbag1
(g10
g3
NtRp3510
(dp3511
g13
S'Encounter'
p3512
sg15
S'Receptionist'
p3513
sg16
S'P-easy-01'
p3514
sg18
S''
sbag1
(g10
g3
NtRp3515
(dp3516
g13
S'GiveItem'
p3517
sg15
S'Receptionist'
p3518
sg16
S'PEN'
p3519
sg18
S'Receptionist sighs and hands over the pen.'
p3520
sbag1
(g10
g3
NtRp3521
(dp3522
g13
S'Say'
p3523
sg15
S'Receptionist'
p3524
sg16
S''
sg18
S"If you're ever getting low on votes, come talk to me and I'll run an ad campaign to restore them."
p3525
sbag1
(g10
g3
NtRp3526
(dp3527
g13
S'Reset'
p3528
sg15
S'Receptionist'
p3529
sg16
S'RESTORE'
p3530
sg18
S''
sbag1
(g10
g3
NtRp3531
(dp3532
g13
S'Label'
p3533
sg15
S'Receptionist'
p3534
sg16
S'RESTORE'
p3535
sg18
S''
sbag1
(g10
g3
NtRp3536
(dp3537
g13
S'Say'
p3538
sg15
S'Receptionist'
p3539
sg16
S''
sg18
S"You've taken a beating, let me fix you up."
p3540
sbag1
(g10
g3
NtRp3541
(dp3542
g13
S'RestoreVotes'
p3543
sg15
S'Receptionist'
p3544
sg16
S''
sg18
S'Receptionist replenishes votes'
p3545
sbag1
(g10
g3
NtRp3546
(dp3547
g13
S'Reset'
p3548
sg15
S'Receptionist'
p3549
sg16
S'RESTORE'
p3550
sg18
S''
sbassS'attacks'
p3551
(dp3552
S'GETEXCLUSIVE'
p3553
g1
(g10
g3
NtRp3554
(dp3555
S'health_benefit'
p3556
F2
sS'base_damage_max'
p3557
F-2
sS'description'
p3558
S'asdf'
p3559
sS'weight'
p3560
I1
sS'crit_chance_max'
p3561
F0
sS'crit_chance_min'
p3562
F0
sS'underlying_stat'
p3563
S'Wit'
p3564
sS'is_summon'
p3565
I00
sS'target_type'
p3566
S'AllFriendly'
p3567
sS'base_damage_min'
p3568
F-2
sS'spin_cost'
p3569
F5
sS'effects'
p3570
(lp3571
g1
(c__main__
Effect
p3572
g3
NtRp3573
(dp3574
S'function'
p3575
S'add'
p3576
sS'abbrv'
p3577
S'(INCR CNG)'
p3578
sS'attribute'
p3579
S'cunning'
p3580
sS'value'
p3581
F2
sS'rounds_min'
p3582
F1
sS'rounds_max'
p3583
F4
sS'id'
p3584
S'Increase Cunning'
p3585
sS'apply_to_source'
p3586
S'TRUE'
p3587
sbasS'is_revive'
p3588
I00
sS'target_count'
p3589
I1
sS'crit_base_damage'
p3590
F0
sg3584
g3553
sS'name'
p3591
S'Get Exclusive'
p3592
sbsS'LOSELOSE'
p3593
g1
(g10
g3
NtRp3594
(dp3595
g3556
I0
sg3557
F6
sg3558
S'Causes all politicians in the target radius to lose votes'
p3596
sg3560
I1
sg3561
F0
sg3562
F0
sg3563
S'Wit'
p3597
sg3565
I00
sg3566
S'All'
p3598
sg3568
F4
sg3569
F5
sg3570
(lp3599
sg3588
I00
sg3589
I6
sg3590
F0
sg3584
g3593
sg3591
S'Lose/lose issue'
p3600
sbsS'LIE'
p3601
g1
(g10
g3
NtRp3602
(dp3603
g3556
I0
sg3557
F10
sg3558
S"It's only lying if they catch you. A strong attack with a danger of critically failing"
p3604
sg3560
F3
sg3561
F10
sg3562
F5
sg3563
S'Cunning'
p3605
sg3565
I00
sg3566
S'AllEnemy'
p3606
sg3568
F0
sg3569
I0
sg3570
(lp3607
g1
(g3572
g3
NtRp3608
(dp3609
g3575
S'miss_turn'
p3610
sg3577
S'(MISS)'
p3611
sg3579
S''
sg3581
F0
sg3582
F1
sg3583
F1
sg3584
S'Critical Fail'
p3612
sg3586
S'TRUE'
p3613
sbasg3588
I00
sg3589
I1
sg3590
F13
sg3584
g3601
sg3591
S'Lie'
p3614
sbsS'HILARIOUSANECDOTE'
p3615
g1
(g10
g3
NtRp3616
(dp3617
g3556
I0
sg3557
F8
sg3558
S'asdf'
p3618
sg3560
I1
sg3561
F5
sg3562
F2
sg3563
S'Wit'
p3619
sg3565
I00
sg3566
S'AllEnemy'
p3620
sg3568
F4
sg3569
F5
sg3570
(lp3621
sg3588
I00
sg3589
I3
sg3590
F11
sg3584
g3615
sg3591
S'Hilarious Anecdote'
p3622
sbsS'SENSATIONALISE'
p3623
g1
(g10
g3
NtRp3624
(dp3625
g3556
I0
sg3557
F8
sg3558
S'asdf'
p3626
sg3560
I1
sg3561
F0
sg3562
F0
sg3563
S'Wit'
p3627
sg3565
I00
sg3566
S'AllEnemy'
p3628
sg3568
F4
sg3569
F3
sg3570
(lp3629
sg3588
I00
sg3589
I1
sg3590
F0
sg3584
g3623
sg3591
S'Sensationalise'
p3630
sbsS'DENOUNCE'
p3631
g1
(g10
g3
NtRp3632
(dp3633
g3556
I0
sg3557
F5
sg3558
S'asdf'
p3634
sg3560
F6
sg3561
F10
sg3562
F2
sg3563
S'Cunning'
p3635
sg3565
I00
sg3566
S'AllEnemy'
p3636
sg3568
F2
sg3569
I0
sg3570
(lp3637
sg3588
I00
sg3589
I1
sg3590
F8
sg3584
g3631
sg3591
S'Denounce'
p3638
sbsS'WHADOWEWANT'
p3639
g1
(g10
g3
NtRp3640
(dp3641
g3556
I0
sg3557
F5
sg3558
S'asdf'
p3642
sg3560
I1
sg3561
F0
sg3562
F0
sg3563
S'Cunning'
p3643
sg3565
I00
sg3566
S'AllEnemy'
p3644
sg3568
F2
sg3569
I0
sg3570
(lp3645
sg3588
I00
sg3589
I1
sg3590
F0
sg3584
g3639
sg3591
S'Whadowewant!'
p3646
sbsS'SCOOP'
p3647
g1
(g10
g3
NtRp3648
(dp3649
g3556
I0
sg3557
F5
sg3558
S'asdf'
p3650
sg3560
I1
sg3561
F10
sg3562
F5
sg3563
S'Cunning'
p3651
sg3565
I00
sg3566
S'AllEnemy'
p3652
sg3568
F2
sg3569
I0
sg3570
(lp3653
sg3588
I00
sg3589
I1
sg3590
F8
sg3584
g3647
sg3591
S'Scoop'
p3654
sbsS'CHOOSETARGETS'
p3655
g1
(g10
g3
NtRp3656
(dp3657
g3556
I0
sg3557
F7
sg3558
S'asdf'
p3658
sg3560
I1
sg3561
F10
sg3562
F5
sg3563
S'Cunning'
p3659
sg3565
I00
sg3566
S'AllEnemy'
p3660
sg3568
F2
sg3569
I0
sg3570
(lp3661
sg3588
I00
sg3589
I1
sg3590
F9
sg3584
g3655
sg3591
S'Choose Targets'
p3662
sbsS'SUMMONPOLITICIAN'
p3663
g1
(g10
g3
NtRp3664
(dp3665
g3556
I0
sg3557
F0
sg3558
S''
sg3560
I1
sg3561
F0
sg3562
F0
sg3563
S'Wit'
p3666
sg3565
I01
sg3566
S'None'
p3667
sg3568
F0
sg3569
F4
sg3570
(lp3668
g1
(g3572
g3
NtRp3669
(dp3670
g3575
S'call_friends'
p3671
sg3577
S''
sg3579
S'Politician001:6'
p3672
sg3581
F2
sg3582
F1
sg3583
F1
sg3584
S'Summon Politician'
p3673
sg3586
S''
sbasg3588
I00
sg3589
I1
sg3590
F0
sg3584
g3663
sg3591
S'Summon Politician Slaves'
p3674
sbsS'FILENAILS'
p3675
g1
(g10
g3
NtRp3676
(dp3677
g3556
I0
sg3557
F0
sg3558
S'asdf'
p3678
sg3560
I1
sg3561
F0
sg3562
F0
sg3563
S'Wit'
p3679
sg3565
I00
sg3566
S'AllEnemy'
p3680
sg3568
F0
sg3569
F3
sg3570
(lp3681
g1
(g3572
g3
NtRp3682
(dp3683
g3575
S'add_permanent'
p3684
sg3577
S''
sg3579
S'votes'
p3685
sg3581
F5
sg3582
F1
sg3583
F1
sg3584
S'Votes Restore'
p3686
sg3586
S''
sbasg3588
I00
sg3589
I1
sg3590
F0
sg3584
g3675
sg3591
S'File Nails'
p3687
sbsS'BRIBE'
p3688
g1
(g10
g3
NtRp3689
(dp3690
g3556
I0
sg3557
F12
sg3558
S'Is there anything more convincing than money? Buying loyalty gets expensive so be careful.'
p3691
sg3560
I1
sg3561
F10
sg3562
F5
sg3563
S'Money'
p3692
sg3565
I00
sg3566
S'AllEnemy'
p3693
sg3568
F4
sg3569
I0
sg3570
(lp3694
sg3588
I00
sg3589
I1
sg3590
F14
sg3584
g3688
sg3591
S'Bribe'
p3695
sbsS'SING'
p3696
g1
(g10
g3
NtRp3697
(dp3698
g3556
F3
sg3557
F-3
sg3558
S'Why bandy words with politicians when you can sing a catchy tune! Restores votes.'
p3699
sg3560
I1
sg3561
F0
sg3562
F0
sg3563
S'Cunning'
p3700
sg3565
I00
sg3566
S'AllFriendly'
p3701
sg3568
F-5
sg3569
I0
sg3570
(lp3702
sg3588
I00
sg3589
I4
sg3590
F0
sg3584
g3696
sg3591
S'Rousing Song'
p3703
sbsS'FEAR'
p3704
g1
(g10
g3
NtRp3705
(dp3706
g3556
I0
sg3557
F0
sg3558
S'asdf'
p3707
sg3560
F2
sg3561
F0
sg3562
F0
sg3563
S'Wit'
p3708
sg3565
I00
sg3566
S'AllFriendly'
p3709
sg3568
F0
sg3569
F4
sg3570
(lp3710
g3573
asg3588
I00
sg3589
I1
sg3590
F0
sg3584
g3704
sg3591
S'Fear Change'
p3711
sbsS'BRAINWASH'
p3712
g1
(g10
g3
NtRp3713
(dp3714
g3556
I0
sg3557
F0
sg3558
S''
sg3560
I1
sg3561
F0
sg3562
F0
sg3563
S'Wit'
p3715
sg3565
I00
sg3566
S'AllEnemy'
p3716
sg3568
F0
sg3569
F3
sg3570
(lp3717
g1
(g3572
g3
NtRp3718
(dp3719
g3575
S'miss_turn'
p3720
sg3577
S'(MISS)'
p3721
sg3579
S''
sg3581
F0
sg3582
F1
sg3583
F1
sg3584
S'Miss Turn'
p3722
sg3586
S''
sbasg3588
I00
sg3589
I4
sg3590
F0
sg3584
g3712
sg3591
S'Brainwash'
p3723
sbsS'RAISEDEFCON'
p3724
g1
(g10
g3
NtRp3725
(dp3726
g3556
I0
sg3557
F5
sg3558
S'asdf'
p3727
sg3560
I1
sg3561
F7
sg3562
F3
sg3563
S'Cunning'
p3728
sg3565
I00
sg3566
S'AllEnemy'
p3729
sg3568
F4
sg3569
I0
sg3570
(lp3730
sg3588
I00
sg3589
I1
sg3590
F8
sg3584
g3724
sg3591
S'Raise DEFCON'
p3731
sbsS'BILLBOARD'
p3732
g1
(g10
g3
NtRp3733
(dp3734
g3556
F30
sg3557
F0
sg3558
S'Run a billboard ad to restore up to 30 votes'
p3735
sg3560
I1
sg3561
F0
sg3562
F0
sg3563
S''
sg3565
I00
sg3566
S'AllFriendly'
p3736
sg3568
F0
sg3569
I0
sg3570
(lp3737
g1
(g3572
g3
NtRp3738
(dp3739
g3575
S'add_permanent'
p3740
sg3577
S''
sg3579
S'votes'
p3741
sg3581
F30
sg3582
F1
sg3583
F1
sg3584
S'Votes Restore Billboard'
p3742
sg3586
S''
sbasg3588
I00
sg3589
I1
sg3590
F0
sg3584
g3732
sg3591
S'Billboard Ad'
p3743
sbsS'NEGATTACKAD'
p3744
g1
(g10
g3
NtRp3745
(dp3746
g3556
I0
sg3557
F9
sg3558
S"Take them all down. They're definitely all bad people. Not like you."
p3747
sg3560
I1
sg3561
F10
sg3562
F10
sg3563
S'Wit'
p3748
sg3565
I00
sg3566
S'AllEnemy'
p3749
sg3568
F4
sg3569
F3
sg3570
(lp3750
sg3588
I00
sg3589
I1
sg3590
F10
sg3584
g3744
sg3591
S'Negative Attack Ad'
p3751
sbsS'DAZZLE'
p3752
g1
(g10
g3
NtRp3753
(dp3754
g3556
I0
sg3557
F4
sg3558
S'Being dazzling and admirable is a great way to take heat off politics'
p3755
sg3560
I1
sg3561
F8
sg3562
F5
sg3563
S'Wit'
p3756
sg3565
I00
sg3566
S'AllEnemy'
p3757
sg3568
F2
sg3569
F4
sg3570
(lp3758
g1
(g3572
g3
NtRp3759
(dp3760
g3575
S'reduce'
p3761
sg3577
S'(CNG DN)'
p3762
sg3579
S'cunning'
p3763
sg3581
F2
sg3582
F2
sg3583
F5
sg3584
S'Reduce Cunning'
p3764
sg3586
S''
sbasg3588
I00
sg3589
I4
sg3590
F8
sg3584
g3752
sg3591
S'Dazzle'
p3765
sbsS'BELIEVEMEDIA'
p3766
g1
(g10
g3
NtRp3767
(dp3768
g3556
I0
sg3557
F3
sg3558
S'asdf'
p3769
sg3560
I1
sg3561
F15
sg3562
F10
sg3563
S'Cunning'
p3770
sg3565
I00
sg3566
S'AllEnemy'
p3771
sg3568
F1
sg3569
I0
sg3570
(lp3772
sg3588
I00
sg3589
I1
sg3590
F12
sg3584
g3766
sg3591
S'Believe Media'
p3773
sbsS'PRPREP'
p3774
g1
(g10
g3
NtRp3775
(dp3776
g3556
I0
sg3557
F0
sg3558
S"If you're going to need some spin, best see a spin doctor! Adds spin points."
p3777
sg3560
I1
sg3561
F0
sg3562
F0
sg3563
S''
sg3565
I00
sg3566
S'AllFriendly'
p3778
sg3568
F0
sg3569
I0
sg3570
(lp3779
g1
(g3572
g3
NtRp3780
(dp3781
g3575
S'add_permanent'
p3782
sg3577
S''
sg3579
S'spin'
p3783
sg3581
F5
sg3582
F0
sg3583
F0
sg3584
S'Spin Restore'
p3784
sg3586
S'TRUE'
p3785
sbasg3588
I00
sg3589
I1
sg3590
F0
sg3584
g3774
sg3591
S'PR Prep'
p3786
sbsS'CALLVATICAN'
p3787
g1
(g10
g3
NtRp3788
(dp3789
g3556
I0
sg3557
F0
sg3558
S'Brings in 2 additional ReligousNuts at 2 levels lower than this one'
p3790
sg3560
I1
sg3561
F0
sg3562
F0
sg3563
S'Wit'
p3791
sg3565
I01
sg3566
S'None'
p3792
sg3568
F0
sg3569
F5
sg3570
(lp3793
g1
(g3572
g3
NtRp3794
(dp3795
g3575
S'call_friends'
p3796
sg3577
S''
sg3579
S'ReligiousNut001:4'
p3797
sg3581
F2
sg3582
F1
sg3583
F1
sg3584
S'Call Friends'
p3798
sg3586
S''
sbasg3588
I00
sg3589
I1
sg3590
F0
sg3584
g3787
sg3591
S'Call Battycan'
p3799
sbsS'BLACKMAIL'
p3800
g1
(g10
g3
NtRp3801
(dp3802
g3556
I0
sg3557
F6
sg3558
S'asdf'
p3803
sg3560
I1
sg3561
F10
sg3562
F2
sg3563
S'Wit'
p3804
sg3565
I00
sg3566
S'AllEnemy'
p3805
sg3568
F3
sg3569
F4
sg3570
(lp3806
g1
(g3572
g3
NtRp3807
(dp3808
g3575
S'drain'
p3809
sg3577
S'(DRAIN VTS)'
p3810
sg3579
S'votes'
p3811
sg3581
F1
sg3582
F2
sg3583
F5
sg3584
S'Drain Votes'
p3812
sg3586
S''
sbasg3588
I00
sg3589
I1
sg3590
F2
sg3584
g3800
sg3591
S'Blackmail'
p3813
sbsS'SCARE'
p3814
g1
(g10
g3
NtRp3815
(dp3816
g3556
I0
sg3557
F7
sg3558
S'Nothing rattles the brains like fear.'
p3817
sg3560
I1
sg3561
F10
sg3562
F2
sg3563
S'Cunning'
p3818
sg3565
I00
sg3566
S'AllEnemy'
p3819
sg3568
F2
sg3569
I0
sg3570
(lp3820
g3759
asg3588
I00
sg3589
I2
sg3590
F9
sg3584
g3814
sg3591
S'Scare Campaign'
p3821
sbsS'PROTEST'
p3822
g1
(g10
g3
NtRp3823
(dp3824
g3556
I0
sg3557
F5
sg3558
S'asdf'
p3825
sg3560
F6
sg3561
F10
sg3562
F2
sg3563
S'Cunning'
p3826
sg3565
I00
sg3566
S'AllEnemy'
p3827
sg3568
F2
sg3569
I0
sg3570
(lp3828
sg3588
I00
sg3589
I1
sg3590
F8
sg3584
g3822
sg3591
S'Protest'
p3829
sbsS'SPREADRUMOUR'
p3830
g1
(g10
g3
NtRp3831
(dp3832
g3556
I0
sg3557
F8
sg3558
S'asdf'
p3833
sg3560
I1
sg3561
F10
sg3562
F2
sg3563
S'Wit'
p3834
sg3565
I00
sg3566
S'AllEnemy'
p3835
sg3568
F3
sg3569
F5
sg3570
(lp3836
sg3588
I00
sg3589
I4
sg3590
F10
sg3584
g3830
sg3591
S'Spread Rumour'
p3837
sbsS'AGENDA'
p3838
g1
(g10
g3
NtRp3839
(dp3840
g3556
I0
sg3557
F5
sg3558
S'asdf'
p3841
sg3560
F6
sg3561
F10
sg3562
F2
sg3563
S'Cunning'
p3842
sg3565
I00
sg3566
S'AllEnemy'
p3843
sg3568
F2
sg3569
I0
sg3570
(lp3844
sg3588
I00
sg3589
I1
sg3590
F8
sg3584
g3838
sg3591
S'Push Agenda'
p3845
sbsS'REVIVEITEM'
p3846
g1
(g10
g3
NtRp3847
(dp3848
g3556
I0
sg3557
F0
sg3558
S'Revive a defeated comrade to half votes'
p3849
sg3560
I1
sg3561
F0
sg3562
F0
sg3563
S''
sg3565
I00
sg3566
S'DeadFriendly'
p3850
sg3568
F0
sg3569
I0
sg3570
(lp3851
g1
(g3572
g3
NtRp3852
(dp3853
g3575
S'revive'
p3854
sg3577
S''
sg3579
S''
sg3581
F0.5
sg3582
F0
sg3583
F0
sg3584
S'Revive'
p3855
sg3586
S''
sbasg3588
I01
sg3589
I1
sg3590
F0
sg3584
g3846
sg3591
S'Revive'
p3856
sbsS'LEGSPEECH'
p3857
g1
(g10
g3
NtRp3858
(dp3859
g3556
F10
sg3557
F-10
sg3558
S'Remembered throughout the ages. Restores a lot of votes for all party members'
p3860
sg3560
I1
sg3561
F0
sg3562
F0
sg3563
S''
sg3565
I00
sg3566
S'AllFriendly'
p3861
sg3568
F-25
sg3569
I0
sg3570
(lp3862
sg3588
I00
sg3589
I4
sg3590
F0
sg3584
g3857
sg3591
S'Legendary Speech'
p3863
sbsS'TVAD'
p3864
g1
(g10
g3
NtRp3865
(dp3866
g3556
F40
sg3557
F0
sg3558
S'Prime time TV gets the most votes. Restore up to 40 votes.'
p3867
sg3560
I1
sg3561
F0
sg3562
F0
sg3563
S''
sg3565
I00
sg3566
S'AllFriendly'
p3868
sg3568
F0
sg3569
I0
sg3570
(lp3869
g1
(g3572
g3
NtRp3870
(dp3871
g3575
S'add_permanent'
p3872
sg3577
S''
sg3579
S'votes'
p3873
sg3581
F40
sg3582
F1
sg3583
F1
sg3584
S'Votes Restore TV'
p3874
sg3586
S''
sbasg3588
I00
sg3589
I1
sg3590
F0
sg3584
g3864
sg3591
S'Run TV Advertisement'
p3875
sbsS'FILIBUSTER'
p3876
g1
(g10
g3
NtRp3877
(dp3878
g3556
I0
sg3557
F6
sg3558
S"You're not moving until they give in. Cause all opposition to miss their turn"
p3879
sg3560
I1
sg3561
F0
sg3562
F0
sg3563
S'Wit'
p3880
sg3565
I00
sg3566
S'AllEnemy'
p3881
sg3568
F3
sg3569
F7
sg3570
(lp3882
g3718
asg3588
I00
sg3589
I1
sg3590
F0
sg3584
g3876
sg3591
S'Filibuster'
p3883
sbsS'GATHERINTEL'
p3884
g1
(g10
g3
NtRp3885
(dp3886
g3556
I0
sg3557
F0
sg3558
S'Increases Cunning.'
p3887
sg3560
I1
sg3561
F0
sg3562
F0
sg3563
S'Wit'
p3888
sg3565
I00
sg3566
S'AllFriendly'
p3889
sg3568
F0
sg3569
F3
sg3570
(lp3890
g3573
asg3588
I00
sg3589
I2
sg3590
F0
sg3584
g3884
sg3591
S'Gather Intelligence'
p3891
sbsS'LOVE'
p3892
g1
(g10
g3
NtRp3893
(dp3894
g3556
I0
sg3557
F6
sg3558
S'asdf'
p3895
sg3560
F4
sg3561
F8
sg3562
F2
sg3563
S'Cunning'
p3896
sg3565
I00
sg3566
S'AllEnemy'
p3897
sg3568
F1
sg3569
I0
sg3570
(lp3898
sg3588
I00
sg3589
I1
sg3590
F7
sg3584
g3892
sg3591
S'Love'
p3899
sbsS'OUTOFCONTEXT'
p3900
g1
(g10
g3
NtRp3901
(dp3902
g3556
I0
sg3557
F5
sg3558
S'asdf'
p3903
sg3560
I1
sg3561
F5
sg3562
F2
sg3563
S'Wit'
p3904
sg3565
I00
sg3566
S'AllEnemy'
p3905
sg3568
F3
sg3569
F2
sg3570
(lp3906
g3807
asg3588
I00
sg3589
I1
sg3590
F5
sg3584
g3900
sg3591
S'Take Out Of Context'
p3907
sbsS'GREATSUIT'
p3908
g1
(g10
g3
NtRp3909
(dp3910
g3556
I0
sg3557
F6
sg3558
S'Well, we could argue, but have you noticed how fabulous this suit is? Medium attack with high chance of critical.'
p3911
sg3560
I1
sg3561
F30
sg3562
F10
sg3563
S'Cunning'
p3912
sg3565
I00
sg3566
S'AllEnemy'
p3913
sg3568
F3
sg3569
I0
sg3570
(lp3914
sg3588
I00
sg3589
I1
sg3590
F13
sg3584
g3908
sg3591
S'Look Great In Suit'
p3915
sbsS'PEACE'
p3916
g1
(g10
g3
NtRp3917
(dp3918
g3556
I0
sg3557
F0
sg3558
S'asdf'
p3919
sg3560
F4
sg3561
F0
sg3562
F0
sg3563
S'Wit'
p3920
sg3565
I00
sg3566
S'AllEnemy'
p3921
sg3568
F0
sg3569
F3
sg3570
(lp3922
g3759
asg3588
I00
sg3589
I4
sg3590
F0
sg3584
g3916
sg3591
S'Peace'
p3923
sbsS'INSPSPEECH'
p3924
g1
(g10
g3
NtRp3925
(dp3926
g3556
F2
sg3557
F-2
sg3558
S'Restore a small amount of votes to all party members'
p3927
sg3560
I1
sg3561
F0
sg3562
F0
sg3563
S'Cunning'
p3928
sg3565
I00
sg3566
S'AllFriendly'
p3929
sg3568
F-5
sg3569
I0
sg3570
(lp3930
sg3588
I00
sg3589
I4
sg3590
F0
sg3584
g3924
sg3591
S'Inspirational Speech'
p3931
sbsS'RALLYENEMY'
p3932
g1
(g10
g3
NtRp3933
(dp3934
g3556
F8
sg3557
F0
sg3558
S'Get back some votes by rallying supporters'
p3935
sg3560
I1
sg3561
F0
sg3562
F0
sg3563
S'Wit'
p3936
sg3565
I00
sg3566
S'AllFriendly'
p3937
sg3568
F0
sg3569
F3
sg3570
(lp3938
g1
(g3572
g3
NtRp3939
(dp3940
g3575
S'add_permanent'
p3941
sg3577
S''
sg3579
S'votes'
p3942
sg3581
F8
sg3582
F1
sg3583
F1
sg3584
S'Votes Restore Rally Enemy'
p3943
sg3586
S''
sbasg3588
I00
sg3589
I1
sg3590
F0
sg3584
g3932
sg3591
S'Rally Constituents'
p3944
sbsS'STRIKE'
p3945
g1
(g10
g3
NtRp3946
(dp3947
g3556
I0
sg3557
F10
sg3558
S'asdf'
p3948
sg3560
I1
sg3561
F0
sg3562
F0
sg3563
S'Wit'
p3949
sg3565
I00
sg3566
S'AllEnemy'
p3950
sg3568
F0
sg3569
F3
sg3570
(lp3951
g3608
asg3588
I00
sg3589
I1
sg3590
F0
sg3584
g3945
sg3591
S'Call A Strike'
p3952
sbsS'SLANDER'
p3953
g1
(g10
g3
NtRp3954
(dp3955
g3556
I0
sg3557
F5
sg3558
S'Strong against polititians...careful with those voters, though!'
p3956
sg3560
F4
sg3561
F10
sg3562
F2
sg3563
S'Cunning'
p3957
sg3565
I00
sg3566
S'AllEnemy'
p3958
sg3568
F3
sg3569
I0
sg3570
(lp3959
g3807
asg3588
I00
sg3589
I1
sg3590
F7
sg3584
g3953
sg3591
S'Slander Opposition'
p3960
sbsS'NATTER'
p3961
g1
(g10
g3
NtRp3962
(dp3963
g3556
I0
sg3557
F8
sg3558
S'asdf'
p3964
sg3560
I1
sg3561
F15
sg3562
F5
sg3563
S'Cunning'
p3965
sg3565
I00
sg3566
S'AllEnemy'
p3966
sg3568
F1
sg3569
I0
sg3570
(lp3967
sg3588
I00
sg3589
I1
sg3590
F10
sg3584
g3961
sg3591
S'Natter On'
p3968
sbsS'GOSSIP'
p3969
g1
(g10
g3
NtRp3970
(dp3971
g3556
I0
sg3557
F3
sg3558
S'asdf'
p3972
sg3560
I1
sg3561
F10
sg3562
F2
sg3563
S'Wit'
p3973
sg3565
I00
sg3566
S'AllEnemy'
p3974
sg3568
F2
sg3569
F2
sg3570
(lp3975
g3759
asg3588
I00
sg3589
I1
sg3590
F6
sg3584
g3969
sg3591
S'Gossip'
p3976
sbsS'MISSTURN'
p3977
g1
(g10
g3
NtRp3978
(dp3979
g3556
I0
sg3557
F0
sg3558
S'asdf'
p3980
sg3560
I1
sg3561
F0
sg3562
F0
sg3563
S''
sg3565
I00
sg3566
S'AllEnemy'
p3981
sg3568
F0
sg3569
I0
sg3570
(lp3982
sg3588
I00
sg3589
I1
sg3590
F0
sg3584
g3977
sg3591
S'Miss Turn'
p3983
sbsS'BIELECTION'
p3984
g1
(g10
g3
NtRp3985
(dp3986
g3556
I0
sg3557
F4
sg3558
S'Redistribute votes amongst targets'
p3987
sg3560
I1
sg3561
F0
sg3562
F0
sg3563
S'Wit'
p3988
sg3565
I00
sg3566
S'All'
p3989
sg3568
F-4
sg3569
F4
sg3570
(lp3990
sg3588
I00
sg3589
I8
sg3590
F0
sg3584
g3984
sg3591
S'Bielection'
p3991
sbsS'RUNAD'
p3992
g1
(g10
g3
NtRp3993
(dp3994
g3556
F15
sg3557
F0
sg3558
S'Gets back up to 15 votes by running an ad'
p3995
sg3560
I1
sg3561
F0
sg3562
F0
sg3563
S''
sg3565
I00
sg3566
S'AllFriendly'
p3996
sg3568
F0
sg3569
I0
sg3570
(lp3997
g1
(g3572
g3
NtRp3998
(dp3999
g3575
S'add_permanent'
p4000
sg3577
S''
sg3579
S'votes'
p4001
sg3581
F15
sg3582
F1
sg3583
F1
sg3584
S'Votes Restore Ad'
p4002
sg3586
S''
sbasg3588
I00
sg3589
I1
sg3590
F0
sg3584
g3992
sg3591
S'Run Advertisement'
p4003
sbsS'PAYOFF'
p4004
g1
(g10
g3
NtRp4005
(dp4006
g3556
I0
sg3557
F8
sg3558
S'Causes them to miss a number of turns'
p4007
sg3560
I1
sg3561
F8
sg3562
F2
sg3563
S'Wit'
p4008
sg3565
I00
sg3566
S'AllEnemy'
p4009
sg3568
F4
sg3569
F4
sg3570
(lp4010
g1
(g3572
g3
NtRp4011
(dp4012
g3575
S'miss_turn'
p4013
sg3577
S'(MISS)'
p4014
sg3579
S''
sg3581
F0
sg3582
F1
sg3583
F3
sg3584
S'Miss Turn Pay Off'
p4015
sg3586
S''
sbasg3588
I00
sg3589
I1
sg3590
F10
sg3584
g4004
sg3591
S'Pay Off'
p4016
sbsS'BUREAUCRACY'
p4017
g1
(g10
g3
NtRp4018
(dp4019
g3556
I0
sg3557
F5
sg3558
S'asdf'
p4020
sg3560
F6
sg3561
F10
sg3562
F2
sg3563
S'Cunning'
p4021
sg3565
I00
sg3566
S'AllEnemy'
p4022
sg3568
F2
sg3569
I0
sg3570
(lp4023
sg3588
I00
sg3589
I1
sg3590
F8
sg3584
g4017
sg3591
S'Bureaucracy'
p4024
sbsS'RALLYAUDIENCE'
p4025
g1
(g10
g3
NtRp4026
(dp4027
g3556
I0
sg3557
F8
sg3558
S'asdf'
p4028
sg3560
I1
sg3561
F0
sg3562
F0
sg3563
S'Wit'
p4029
sg3565
I00
sg3566
S'AllFriendly'
p4030
sg3568
F4
sg3569
F3
sg3570
(lp4031
g1
(g3572
g3
NtRp4032
(dp4033
g3575
S'add'
p4034
sg3577
S'(INCR CH)'
p4035
sg3579
S'charisma'
p4036
sg3581
F2
sg3582
F1
sg3583
F4
sg3584
S'Increase Charisma'
p4037
sg3586
S'TRUE'
p4038
sbasg3588
I00
sg3589
I1
sg3590
F0
sg3584
g4025
sg3591
S'Rally Audience'
p4039
sbsS'PORKBARREL'
p4040
g1
(g10
g3
NtRp4041
(dp4042
g3556
I0
sg3557
F8
sg3558
S'Do something that benefits them specifically. Not advised against politicians.'
p4043
sg3560
I1
sg3561
F0
sg3562
F0
sg3563
S'Wit'
p4044
sg3565
I00
sg3566
S'AllEnemy'
p4045
sg3568
F4
sg3569
F2
sg3570
(lp4046
sg3588
I00
sg3589
I1
sg3590
F0
sg3584
g4040
sg3591
S'Pork Barrel'
p4047
sbsS'INSPIRE'
p4048
g1
(g10
g3
NtRp4049
(dp4050
g3556
I0
sg3557
F0
sg3558
S'asdf'
p4051
sg3560
I1
sg3561
F0
sg3562
F0
sg3563
S'Wit'
p4052
sg3565
I00
sg3566
S'AllFriendly'
p4053
sg3568
F0
sg3569
F3
sg3570
(lp4054
g3573
asg3588
I00
sg3589
I4
sg3590
F0
sg3584
g4048
sg3591
S'Inspire'
p4055
sbsS'JOKE'
p4056
g1
(g10
g3
NtRp4057
(dp4058
g3556
I0
sg3557
F6
sg3558
S"Ha, ha, ha...what were we talking about? Diffuse the situation with some humour. High chance of critical hit. Knock 'em dead!"
p4059
sg3560
F3
sg3561
F20
sg3562
F10
sg3563
S'Cunning'
p4060
sg3565
I00
sg3566
S'AllEnemy'
p4061
sg3568
F2
sg3569
I0
sg3570
(lp4062
sg3588
I00
sg3589
I1
sg3590
F12
sg3584
g4056
sg3591
S'Joke'
p4063
sbsS'PRAYFORSOULS'
p4064
g1
(g10
g3
NtRp4065
(dp4066
g3556
I0
sg3557
F6
sg3558
S'asdf'
p4067
sg3560
F2
sg3561
F10
sg3562
F2
sg3563
S'Cunning'
p4068
sg3565
I00
sg3566
S'None'
p4069
sg3568
F3
sg3569
I0
sg3570
(lp4070
sg3588
I00
sg3589
I1
sg3590
F10
sg3584
g4064
sg3591
S'Pray'
p4071
sbsS'REVIVE'
p4072
g1
(g10
g3
NtRp4073
(dp4074
g3556
I0
sg3557
F0
sg3558
S'Revive a defeated comrade to half votes'
p4075
sg3560
I1
sg3561
F0
sg3562
F0
sg3563
S''
sg3565
I00
sg3566
S'DeadFriendly'
p4076
sg3568
F0
sg3569
F5
sg3570
(lp4077
g3852
asg3588
I01
sg3589
I1
sg3590
F0
sg3584
g4072
sg3591
S'Revive'
p4078
sbsS'HUMANSHIELD'
p4079
g1
(g10
g3
NtRp4080
(dp4081
g3556
I0
sg3557
F8
sg3558
S'No further questions. Step back, please. Causes all targets to miss their next turn.'
p4082
sg3560
I1
sg3561
F5
sg3562
F2
sg3563
S'Wit'
p4083
sg3565
I00
sg3566
S'AllEnemy'
p4084
sg3568
F4
sg3569
F5
sg3570
(lp4085
g3718
asg3588
I00
sg3589
I2
sg3590
F11
sg3584
g4079
sg3591
S'Human Shield'
p4086
sbsS'MAKEDEMANDS'
p4087
g1
(g10
g3
NtRp4088
(dp4089
g3556
I0
sg3557
F8
sg3558
S'asdf'
p4090
sg3560
I1
sg3561
F0
sg3562
F0
sg3563
S'Cunning'
p4091
sg3565
I00
sg3566
S'AllEnemy'
p4092
sg3568
F0
sg3569
I0
sg3570
(lp4093
g3608
asg3588
I00
sg3589
I1
sg3590
F0
sg3584
g4087
sg3591
S'Make Outrageous Demands'
p4094
sbsS'DEFENSE'
p4095
g1
(g10
g3
NtRp4096
(dp4097
g3556
I0
sg3557
F0
sg3558
S'Gather strenth; -50% to all incoming attacks'
p4098
sg3560
I1
sg3561
F0
sg3562
F0
sg3563
S''
sg3565
I00
sg3566
S'None'
p4099
sg3568
F0
sg3569
I0
sg3570
(lp4100
g1
(g3572
g3
NtRp4101
(dp4102
g3575
S'add'
p4103
sg3577
S'(DEFEND)'
p4104
sg3579
S'resistance'
p4105
sg3581
F0.5
sg3582
F1
sg3583
F1
sg3584
S'Defense'
p4106
sg3586
S'TRUE'
p4107
sbasg3588
I00
sg3589
I1
sg3590
F0
sg3584
g4095
sg3591
S'Defense'
p4108
sbsS'MISCONSTRUE'
p4109
g1
(g10
g3
NtRp4110
(dp4111
g3556
I0
sg3557
F8
sg3558
S'asdf'
p4112
sg3560
I1
sg3561
F0
sg3562
F0
sg3563
S'Cunning'
p4113
sg3565
I00
sg3566
S'AllEnemy'
p4114
sg3568
F0
sg3569
I0
sg3570
(lp4115
g3608
asg3588
I00
sg3589
I1
sg3590
F0
sg3584
g4109
sg3591
S'Misconstrue'
p4116
sbsS'NATIONALSECURITY'
p4117
g1
(g10
g3
NtRp4118
(dp4119
g3556
I0
sg3557
F7
sg3558
S"This is a matter of national security and they don't have codeword clearance Solid basic attack."
p4120
sg3560
I1
sg3561
F10
sg3562
F2
sg3563
S'Cunning'
p4121
sg3565
I00
sg3566
S'AllEnemy'
p4122
sg3568
F5
sg3569
I0
sg3570
(lp4123
sg3588
I00
sg3589
I1
sg3590
F9
sg3584
g4117
sg3591
S'National Security'
p4124
sbsS'RALLY'
p4125
g1
(g10
g3
NtRp4126
(dp4127
g3556
F20
sg3557
F0
sg3558
S'Get back some votes by rallying supporters'
p4128
sg3560
I1
sg3561
F0
sg3562
F0
sg3563
S'Wit'
p4129
sg3565
I00
sg3566
S'AllFriendly'
p4130
sg3568
F0
sg3569
F3
sg3570
(lp4131
g1
(g3572
g3
NtRp4132
(dp4133
g3575
S'add_permanent'
p4134
sg3577
S''
sg3579
S'votes'
p4135
sg3581
F20
sg3582
F1
sg3583
F1
sg3584
S'Votes Restore Rally'
p4136
sg3586
S''
sbasg3588
I00
sg3589
I1
sg3590
F0
sg3584
g4125
sg3591
S'Rally Constituents'
p4137
sbsS'MESSAGE'
p4138
g1
(g10
g3
NtRp4139
(dp4140
g3556
I0
sg3557
F6
sg3558
S'You can certainly wear them down by repeating your party line over and over and over...if you want'
p4141
sg3560
F6
sg3561
F10
sg3562
F5
sg3563
S'Cunning'
p4142
sg3565
I00
sg3566
S'AllEnemy'
p4143
sg3568
F3
sg3569
I0
sg3570
(lp4144
sg3588
I00
sg3589
I1
sg3590
F10
sg3584
g4138
sg3591
S'Stay On Message'
p4145
sbsS'APPEALTOGOD'
p4146
g1
(g10
g3
NtRp4147
(dp4148
g3556
I0
sg3557
F10
sg3558
S'asdf'
p4149
sg3560
F3
sg3561
F5
sg3562
F2
sg3563
S'Wit'
p4150
sg3565
I00
sg3566
S'AllEnemy'
p4151
sg3568
F4
sg3569
F7
sg3570
(lp4152
sg3588
I00
sg3589
I4
sg3590
F13
sg3584
g4146
sg3591
S'Appeal To God'
p4153
sbssS'levels'
p4154
(lp4155
g1
(g10
g3
NtRp4156
(dp4157
S'votes'
p4158
F20
sS'level'
p4159
F1
sS'spin'
p4160
F5
sS'xp'
p4161
F0
sS'skill_points'
p4162
F0
sbag1
(g10
g3
NtRp4163
(dp4164
g4158
F23
sg4159
F2
sg4160
F5
sg4161
F100
sg4162
F2
sbag1
(g10
g3
NtRp4165
(dp4166
g4158
F25
sg4159
F3
sg4160
F6
sg4161
F200
sg4162
F2
sbag1
(g10
g3
NtRp4167
(dp4168
g4158
F30
sg4159
F4
sg4160
F6
sg4161
F500
sg4162
F2
sbag1
(g10
g3
NtRp4169
(dp4170
g4158
F35
sg4159
F5
sg4160
F7
sg4161
F1000
sg4162
F2
sbag1
(g10
g3
NtRp4171
(dp4172
g4158
F40
sg4159
F6
sg4160
F7
sg4161
F2000
sg4162
F2
sbag1
(g10
g3
NtRp4173
(dp4174
g4158
F70
sg4159
F7
sg4160
F8
sg4161
F3000
sg4162
F2
sbag1
(g10
g3
NtRp4175
(dp4176
g4158
F100
sg4159
F8
sg4160
F8
sg4161
F4000
sg4162
F2
sbag1
(g10
g3
NtRp4177
(dp4178
g4158
F200
sg4159
F9
sg4160
F9
sg4161
F5000
sg4162
F2
sbag1
(g10
g3
NtRp4179
(dp4180
g4158
F300
sg4159
F10
sg4160
F9
sg4161
F10000
sg4162
F2
sbag1
(g10
g3
NtRp4181
(dp4182
g4158
F500
sg4159
F11
sg4160
F10
sg4161
F20000
sg4162
F2
sbag1
(g10
g3
NtRp4183
(dp4184
g4158
F500
sg4159
F12
sg4160
F10
sg4161
F50000
sg4162
F2
sbag1
(g10
g3
NtRp4185
(dp4186
g4158
F500
sg4159
F13
sg4160
F10
sg4161
F60000
sg4162
F2
sbag1
(g10
g3
NtRp4187
(dp4188
g4158
F500
sg4159
F14
sg4160
F10
sg4161
F80000
sg4162
F2
sbag1
(g10
g3
NtRp4189
(dp4190
g4158
F500
sg4159
F15
sg4160
F10
sg4161
F10000
sg4162
F2
sbag1
(g10
g3
NtRp4191
(dp4192
g4158
F500
sg4159
F16
sg4160
F10
sg4161
F12000
sg4162
F2
sbag1
(g10
g3
NtRp4193
(dp4194
g4158
F500
sg4159
F17
sg4160
F10
sg4161
F15000
sg4162
F2
sbag1
(g10
g3
NtRp4195
(dp4196
g4158
F500
sg4159
F18
sg4160
F10
sg4161
F20000
sg4162
F2
sbag1
(g10
g3
NtRp4197
(dp4198
g4158
F500
sg4159
F19
sg4160
F10
sg4161
F25000
sg4162
F2
sbag1
(g10
g3
NtRp4199
(dp4200
g4158
F500
sg4159
F20
sg4160
F10
sg4161
F40000
sg4162
F2
sbag1
(g10
g3
NtRp4201
(dp4202
g4158
S''
sg4159
F21
sg4160
S''
sg4161
S''
sg4162
S''
sbag1
(g10
g3
NtRp4203
(dp4204
g4158
S''
sg4159
F22
sg4160
S''
sg4161
S''
sg4162
S''
sbag1
(g10
g3
NtRp4205
(dp4206
g4158
S''
sg4159
F23
sg4160
S''
sg4161
S''
sg4162
S''
sbag1
(g10
g3
NtRp4207
(dp4208
g4158
S''
sg4159
F24
sg4160
S''
sg4161
S''
sg4162
S''
sbag1
(g10
g3
NtRp4209
(dp4210
g4158
S''
sg4159
F25
sg4160
S''
sg4161
S''
sg4162
S''
sbag1
(g10
g3
NtRp4211
(dp4212
g4158
S''
sg4159
F26
sg4160
S''
sg4161
S''
sg4162
S''
sbag1
(g10
g3
NtRp4213
(dp4214
g4158
S''
sg4159
F27
sg4160
S''
sg4161
S''
sg4162
S''
sbag1
(g10
g3
NtRp4215
(dp4216
g4158
S''
sg4159
F28
sg4160
S''
sg4161
S''
sg4162
S''
sbag1
(g10
g3
NtRp4217
(dp4218
g4158
S''
sg4159
F29
sg4160
S''
sg4161
S''
sg4162
S''
sbasg3570
(dp4219
g3585
g3573
sg3686
g3682
sg3784
g3780
sg4037
g4032
sg3722
g3718
sg3874
g3870
sg3798
g3794
sg4002
g3998
sg4015
g4011
sg3943
g3939
sg3742
g3738
sg3855
g3852
sg3764
g3759
sg3812
g3807
sg4106
g4101
sg3612
g3608
sS'Increase Flair'
p4220
g1
(g3572
g3
NtRp4221
(dp4222
g3575
S'add'
p4223
sg3577
S'(INCR FL)'
p4224
sg3579
S'flair'
p4225
sg3581
F2
sg3582
F1
sg3583
F4
sg3584
g4220
sg3586
S'TRUE'
p4226
sbsg3673
g3669
sg4136
g4132
ssS'characters'
p4227
(dp4228
S'Teacher001'
p4229
(lp4230
g1
(g10
g3
NtRp4231
(dp4232
S'flair_base'
p4233
F1
sS'spin_base'
p4234
F4
sS'flair_lvl'
p4235
F0.10000000000000001
sS'wit_base'
p4236
F2
sS'resistance'
p4237
(lp4238
sS'wit_lvl'
p4239
F0.10000000000000001
sS'cunning_base'
p4240
F1
sg3584
g4229
sS'votes_base'
p4241
F15
sS'speed_lvl'
p4242
F0.080000000000000002
sS'standard_attacks'
p4243
(lp4244
g4096
ag3823
asS'cunning_lvl'
p4245
F0.90000000000000002
sS'charisma_lvl'
p4246
F0.20000000000000001
sS'spin_attacks'
p4247
(lp4248
g3946
ag3933
asS'spin_lvl'
p4249
F0.25
sS'charisma_base'
p4250
F1
sS'weaknesses'
p4251
(lp4252
sS'attack_group'
p4253
S'Teacher'
p4254
sS'votes_lvl'
p4255
F0.050000000000000003
sg3591
S'Teacher'
p4256
sS'speed_base'
p4257
F1
sS'immunities'
p4258
(lp4259
sbasS'Politician001'
p4260
(lp4261
g1
(g10
g3
NtRp4262
(dp4263
g4233
F1
sg4234
F4
sg4235
F0.10000000000000001
sg4236
F1
sg4237
(lp4264
g3602
asg4239
F0.10000000000000001
sg4240
F1
sg3584
g4260
sg4241
F10
sg4242
F0.080000000000000002
sg4243
(lp4265
g4139
ag3954
ag3602
ag4057
ag4096
asg4245
F0.90000000000000002
sg4246
F0.11
sg4247
(lp4266
g3985
ag3745
ag4073
asg4249
F0.25
sg4250
F1
sg4251
(lp4267
g3689
asg4253
S'Politician'
p4268
sg4255
F0.089999999999999997
sg3591
S'Politician'
p4269
sg4257
F1
sg4258
(lp4270
g4041
asbasS'SecretAgent'
p4271
(lp4272
g1
(g10
g3
NtRp4273
(dp4274
g4233
F2
sg4234
F4
sg4235
F0.10000000000000001
sg4236
F4
sg4237
(lp4275
sg4239
F0
sg4240
F4
sg3584
g4271
sg4241
F18
sg4242
F0
sg4243
(lp4276
g4118
ag3909
asg4245
F0
sg4246
F0
sg4247
(lp4277
g4080
ag3885
asg4249
F0
sg4250
F2
sg4251
(lp4278
sg4253
S'SecretAgent'
p4279
sg4255
F0.050000000000000003
sg3591
S'Agent Kawalski'
p4280
sg4257
F3
sg4258
(lp4281
sbasS'Bumpkin001'
p4282
(lp4283
g1
(g10
g3
NtRp4284
(dp4285
g4233
F1
sg4234
F4
sg4235
F0.10000000000000001
sg4236
F1
sg4237
(lp4286
sg4239
F0.10000000000000001
sg4240
F1
sg3584
g4282
sg4241
F10
sg4242
F0.080000000000000002
sg4243
(lp4287
g4057
ag3767
asg4245
F0.90000000000000002
sg4246
F0.20000000000000001
sg4247
(lp4288
g3705
ag3831
asg4249
F0.25
sg4250
F1
sg4251
(lp4289
g3602
ag3954
ag3815
asg4253
S'Bumpkin'
p4290
sg4255
F0.050000000000000003
sg3591
S'Bumpkin'
p4291
sg4257
F1
sg4258
(lp4292
sbasS'WarVet001'
p4293
(lp4294
g1
(g10
g3
NtRp4295
(dp4296
g4233
F1
sg4234
F4
sg4235
F0.10000000000000001
sg4236
F1
sg4237
(lp4297
sg4239
F0.10000000000000001
sg4240
F1
sg3584
g4293
sg4241
F10
sg4242
F0.080000000000000002
sg4243
(lp4298
g4088
ag4096
asg4245
F0.90000000000000002
sg4246
F0.20000000000000001
sg4247
(lp4299
g4049
ag3933
asg4249
F0.25
sg4250
F1
sg4251
(lp4300
sg4253
S'WarVet'
p4301
sg4255
F0.050000000000000003
sg3591
S'War Veteran'
p4302
sg4257
F1
sg4258
(lp4303
sbasS'Receptionist001'
p4304
(lp4305
g1
(g10
g3
NtRp4306
(dp4307
g4233
F1
sg4234
F4
sg4235
F0.10000000000000001
sg4236
F1
sg4237
(lp4308
sg4239
F0.10000000000000001
sg4240
F1
sg3584
g4304
sg4241
F10
sg4242
F0.080000000000000002
sg4243
(lp4309
g4018
ag3962
asg4245
F0.90000000000000002
sg4246
F0.20000000000000001
sg4247
(lp4310
g3970
ag3676
asg4249
F0.25
sg4250
F0
sg4251
(lp4311
sg4253
S'Receptionist'
p4312
sg4255
F0.050000000000000003
sg3591
S'Receptionist'
p4313
sg4257
F1
sg4258
(lp4314
sbasS'DeepThroat'
p4315
(lp4316
g1
(g10
g3
NtRp4317
(dp4318
g4233
F1
sg4234
F4
sg4235
F0.10000000000000001
sg4236
F1
sg4237
(lp4319
g4057
asg4239
F0.10000000000000001
sg4240
F1
sg3584
g4315
sg4241
F12
sg4242
F0.080000000000000002
sg4243
(lp4320
g3954
ag4096
ag4088
asg4245
F0.90000000000000002
sg4246
F0.20000000000000001
sg4247
(lp4321
g3801
asg4249
F0.25
sg4250
F1
sg4251
(lp4322
sg4253
S'DeepThroat'
p4323
sg4255
F0.10000000000000001
sg3591
S'Mr Er...?'
p4324
sg4257
F1
sg4258
(lp4325
sbasS'Leo'
p4326
(lp4327
g1
(g10
g3
NtRp4328
(dp4329
g4233
F2
sg4234
F4
sg4235
F0.10000000000000001
sg4236
F4
sg4237
(lp4330
sg4239
F0
sg4240
F2
sg3584
g4326
sg4241
F14
sg4242
F0
sg4243
(lp4331
g4139
ag3954
ag3602
ag4057
ag3689
asg4245
F0
sg4246
F0
sg4247
(lp4332
g3985
ag3745
ag4041
ag3877
asg4249
F0
sg4250
F2
sg4251
(lp4333
sg4253
S'Theo'
p4334
sg4255
F0.050000000000000003
sg3591
S'Theo'
p4335
sg4257
F2
sg4258
(lp4336
sbasS'HippyGirl001'
p4337
(lp4338
g1
(g10
g3
NtRp4339
(dp4340
g4233
F1
sg4234
F4
sg4235
F0.10000000000000001
sg4236
F2
sg4237
(lp4341
sg4239
F0.089999999999999997
sg4240
F2
sg3584
g4337
sg4241
F10
sg4242
F0.080000000000000002
sg4243
(lp4342
g3697
ag3823
ag3893
asg4245
F0.90000000000000002
sg4246
F0.20000000000000001
sg4247
(lp4343
g3917
ag3933
ag4073
asg4249
F0.25
sg4250
F1
sg4251
(lp4344
g4057
asg4253
S'Hippy'
p4345
sg4255
F0.050000000000000003
sg3591
S'Hippy Girl'
p4346
sg4257
F1
sg4258
(lp4347
sbasS'President'
p4348
(lp4349
g1
(g10
g3
NtRp4350
(dp4351
g4233
F1
sg4234
F4
sg4235
F0.10000000000000001
sg4236
F1
sg4237
(lp4352
sg4239
F0.10000000000000001
sg4240
F2
sg3584
g4348
sg4241
F18
sg4242
F0.080000000000000002
sg4243
(lp4353
g4139
ag3954
ag3602
ag4057
ag4096
asg4245
F0.90000000000000002
sg4246
F0.20000000000000001
sg4247
(lp4354
g3985
ag3745
ag4073
asg4249
F0.29999999999999999
sg4250
F1
sg4251
(lp4355
sg4253
S'Politician'
p4356
sg4255
F0.070000000000000007
sg3591
S'President Allen'
p4357
sg4257
F1
sg4258
(lp4358
sbasS'Unionist001'
p4359
(lp4360
g1
(g10
g3
NtRp4361
(dp4362
g4233
F1
sg4234
F4
sg4235
F0.10000000000000001
sg4236
F1
sg4237
(lp4363
sg4239
F0.10000000000000001
sg4240
F1
sg3584
g4359
sg4241
F10
sg4242
F0.080000000000000002
sg4243
(lp4364
g4088
ag4096
ag3823
asg4245
F0.90000000000000002
sg4246
F0.20000000000000001
sg4247
(lp4365
g3946
asg4249
F0.25
sg4250
F1
sg4251
(lp4366
sg4253
S'Unionist'
p4367
sg4255
F0.050000000000000003
sg3591
S'Unionist'
p4368
sg4257
F1
sg4258
(lp4369
sbasS'Wife'
p4370
(lp4371
g1
(g10
g3
NtRp4372
(dp4373
g4233
F1
sg4234
F4
sg4235
F0.10000000000000001
sg4236
F3
sg4237
(lp4374
sg4239
F0
sg4240
F1
sg3584
g4370
sg4241
F12
sg4242
F0
sg4243
(lp4375
g4139
ag3602
ag4057
asg4245
F0
sg4246
F0
sg4247
(lp4376
g4126
ag4073
ag3753
asg4249
F0
sg4250
F1
sg4251
(lp4377
sg4253
S'Wife'
p4378
sg4255
F0.050000000000000003
sg3591
S'Sarah Mossman'
p4379
sg4257
F3
sg4258
(lp4380
sbasS'PresidentAlien'
p4381
(lp4382
g1
(g10
g3
NtRp4383
(dp4384
g4233
F1
sg4234
F4
sg4235
F0.10000000000000001
sg4236
F2
sg4237
(lp4385
sg4239
F0.10000000000000001
sg4240
F2
sg3584
g4381
sg4241
F30
sg4242
F0.080000000000000002
sg4243
(lp4386
g3954
ag3602
ag4096
asg4245
F0.90000000000000002
sg4246
F0.20000000000000001
sg4247
(lp4387
g3713
ag3664
ag4073
asg4249
F0.29999999999999999
sg4250
F1
sg4251
(lp4388
sg4253
S'Alien'
p4389
sg4255
F0.070000000000000007
sg3591
S'President Alien'
p4390
sg4257
F1
sg4258
(lp4391
sbasS'Governor'
p4392
(lp4393
g1
(g10
g3
NtRp4394
(dp4395
g4233
F1
sg4234
F4
sg4235
F0.10000000000000001
sg4236
F1
sg4237
(lp4396
sg4239
F0.10000000000000001
sg4240
F1
sg3584
g4392
sg4241
F18
sg4242
F0.080000000000000002
sg4243
(lp4397
g4139
ag3954
ag3602
ag4057
ag4096
asg4245
F0.90000000000000002
sg4246
F0.20000000000000001
sg4247
(lp4398
g3985
ag3745
ag4073
asg4249
F0.25
sg4250
F1
sg4251
(lp4399
sg4253
S'Politician'
p4400
sg4255
F0.050000000000000003
sg3591
g4392
sg4257
F1
sg4258
(lp4401
sbasS'Lobbyist001'
p4402
(lp4403
g1
(g10
g3
NtRp4404
(dp4405
g4233
F1
sg4234
F4
sg4235
F0.10000000000000001
sg4236
F1
sg4237
(lp4406
sg4239
F0.10000000000000001
sg4240
F1
sg3584
g4402
sg4241
F10
sg4242
F0.080000000000000002
sg4243
(lp4407
g3839
ag4088
asg4245
F0.90000000000000002
sg4246
F0.20000000000000001
sg4247
(lp4408
g4005
ag3801
asg4249
F0.25
sg4250
F1
sg4251
(lp4409
g4041
asg4253
S'Lobbyist'
p4410
sg4255
F0.050000000000000003
sg3591
S'Lobbyist'
p4411
sg4257
F1
sg4258
(lp4412
g3689
asbasS'Journalist001'
p4413
(lp4414
g1
(g10
g3
NtRp4415
(dp4416
g4233
F1
sg4234
F4
sg4235
F0.10000000000000001
sg4236
F1
sg4237
(lp4417
sg4239
F0.80000000000000004
sg4240
F1
sg3584
g4413
sg4241
F16
sg4242
F0.01
sg4243
(lp4418
g3648
ag4110
asg4245
F0.90000000000000002
sg4246
F0.20000000000000001
sg4247
(lp4419
g3901
ag3554
ag3624
asg4249
F0.34999999999999998
sg4250
F1
sg4251
(lp4420
sg4253
S'Journalist'
p4421
sg4255
F0.050000000000000003
sg3591
S'Journalist'
p4422
sg4257
F1
sg4258
(lp4423
sbasS'ReligiousNut001'
p4424
(lp4425
g1
(g10
g3
NtRp4426
(dp4427
g4233
F1
sg4234
F6
sg4235
F0.050000000000000003
sg4236
F3
sg4237
(lp4428
sg4239
F0.089999999999999997
sg4240
F1
sg3584
g4424
sg4241
F10
sg4242
F0.01
sg4243
(lp4429
g3632
ag4065
ag4096
asg4245
F0.050000000000000003
sg4246
F0.050000000000000003
sg4247
(lp4430
g4147
ag3788
asg4249
F0.25
sg4250
F1
sg4251
(lp4431
sg4253
S'Religious'
p4432
sg4255
F0.089999999999999997
sg3591
S'Religious Nut'
p4433
sg4257
F1
sg4258
(lp4434
g4057
asbasS'JointChief001'
p4435
(lp4436
g1
(g10
g3
NtRp4437
(dp4438
g4233
F2
sg4234
F4
sg4235
F0.10000000000000001
sg4236
F3
sg4237
(lp4439
sg4239
F0.10000000000000001
sg4240
F3
sg3584
g4435
sg4241
F18
sg4242
F0.080000000000000002
sg4243
(lp4440
g4088
ag4096
ag4118
ag3725
asg4245
F0.90000000000000002
sg4246
F0.20000000000000001
sg4247
(lp4441
g3885
asg4249
F0.25
sg4250
F2
sg4251
(lp4442
sg4253
S'JointChief'
p4443
sg4255
F0.050000000000000003
sg3591
S'Joint Chief'
p4444
sg4257
F3
sg4258
(lp4445
sbasS'Protester001'
p4446
(lp4447
g1
(g10
g3
NtRp4448
(dp4449
g4233
F0.5
sg4234
F4
sg4235
F0.050000000000000003
sg4236
F1
sg4237
(lp4450
g4057
asg4239
F0.10000000000000001
sg4240
F1
sg3584
g4446
sg4241
F8
sg4242
F0.01
sg4243
(lp4451
g3823
ag3640
ag3697
asg4245
F0.5
sg4246
F0.20000000000000001
sg4247
(lp4452
g3933
asg4249
F0.20000000000000001
sg4250
F1
sg4251
(lp4453
sg4253
S'Protestor'
p4454
sg4255
F0.5
sg3591
S'Protester'
p4455
sg4257
F1
sg4258
(lp4456
sbasS'TVPersonality001'
p4457
(lp4458
g1
(g10
g3
NtRp4459
(dp4460
g4233
F1
sg4234
F4
sg4235
F0.10000000000000001
sg4236
F1
sg4237
(lp4461
sg4239
F0.10000000000000001
sg4240
F1
sg3584
g4457
sg4241
F12
sg4242
F0.080000000000000002
sg4243
(lp4462
g4057
ag3648
asg4245
F0.90000000000000002
sg4246
F0.20000000000000001
sg4247
(lp4463
g3624
ag3616
asg4249
F0.25
sg4250
F1
sg4251
(lp4464
sg4253
S'TVPersonality'
p4465
sg4255
F0.050000000000000003
sg3591
S"Hecules O'Grady"
p4466
sg4257
F1
sg4258
(lp4467
g3877
asbasS'Player'
p4468
(lp4469
g1
(g10
g3
NtRp4470
(dp4471
g4233
F1
sg4234
F5
sg4235
F0.10000000000000001
sg4236
F1
sg4237
(lp4472
sg4239
F0.10000000000000001
sg4240
F1
sg3584
g4468
sg4241
F15
sg4242
F0.080000000000000002
sg4243
(lp4473
g4139
ag3602
ag4057
asg4245
F0.90000000000000002
sg4246
F0.20000000000000001
sg4247
(lp4474
g3745
asg4249
F0.25
sg4250
F1
sg4251
(lp4475
sg4253
S'Player'
p4476
sg4255
F0.20000000000000001
sg3591
S'Phillip Mossman'
p4477
sg4257
F2
sg4258
(lp4478
sbasS'Computer'
p4479
(lp4480
g1
(g10
g3
NtRp4481
(dp4482
g4233
F1
sg4234
F4
sg4235
F0.10000000000000001
sg4236
F5
sg4237
(lp4483
sg4239
F0.10000000000000001
sg4240
F5
sg3584
g4479
sg4241
F50
sg4242
F0.10000000000000001
sg4243
(lp4484
g4139
ag3954
ag3602
ag4057
ag4096
asg4245
F0.90000000000000002
sg4246
F0.20000000000000001
sg4247
(lp4485
g3985
ag3745
ag4073
asg4249
F0.5
sg4250
F1
sg4251
(lp4486
sg4253
S'Politician'
p4487
sg4255
F0.5
sg3591
S'N.O.T.B.A.D'
p4488
sg4257
F5
sg4258
(lp4489
sbasS'CabinetPolitician001'
p4490
(lp4491
g1
(g10
g3
NtRp4492
(dp4493
g4233
F1
sg4234
F4
sg4235
F0.10000000000000001
sg4236
F2
sg4237
(lp4494
sg4239
F0.10000000000000001
sg4240
F2
sg3584
g4490
sg4241
F18
sg4242
F0.080000000000000002
sg4243
(lp4495
g4139
ag3954
ag3602
ag4057
ag4096
asg4245
F0.90000000000000002
sg4246
F0.20000000000000001
sg4247
(lp4496
g3985
ag3745
ag4073
asg4249
F0.25
sg4250
F2
sg4251
(lp4497
sg4253
S'Politician'
p4498
sg4255
F0.050000000000000003
sg3591
S'Cabinet Politician'
p4499
sg4257
F1
sg4258
(lp4500
sbasS'Constituent001'
p4501
(lp4502
g1
(g10
g3
NtRp4503
(dp4504
g4233
F1
sg4234
F4
sg4235
F0.10000000000000001
sg4236
F1
sg4237
(lp4505
sg4239
F0.80000000000000004
sg4240
F1
sg3584
g4501
sg4241
F10
sg4242
F0.10000000000000001
sg4243
(lp4506
g3823
ag3839
ag4088
asg4245
F0.90000000000000002
sg4246
F0.20000000000000001
sg4247
(lp4507
g4073
asg4249
F0.25
sg4250
F1
sg4251
(lp4508
sg4253
S'Constituent'
p4509
sg4255
F0.050000000000000003
sg3591
S'Constituent'
p4510
sg4257
F2
sg4258
(lp4511
sbasS'Mayor'
p4512
(lp4513
g1
(g10
g3
NtRp4514
(dp4515
g4233
F1
sg4234
F4
sg4235
F0.10000000000000001
sg4236
F1
sg4237
(lp4516
sg4239
F0.10000000000000001
sg4240
F1
sg3584
g4512
sg4241
F12
sg4242
F0.080000000000000002
sg4243
(lp4517
g4139
ag3954
ag3602
ag4057
ag4096
asg4245
F0.90000000000000002
sg4246
F0.20000000000000001
sg4247
(lp4518
g3985
ag3745
ag4073
asg4249
F0.25
sg4250
F1
sg4251
(lp4519
sg4253
S'Politician'
p4520
sg4255
F0.050000000000000003
sg3591
S'Mayor Goodman'
p4521
sg4257
F1
sg4258
(lp4522
sbassS'quest_items'
p4523
(dp4524
S'SOUTHWINGDOORKEY'
p4525
g1
(g10
g3
NtRp4526
(dp4527
g3558
S'It looks old.'
p4528
sg3584
g4525
sg3591
S'Key to the South Wing'
p4529
sbsS'NOTBADKEY'
p4530
g1
(g10
g3
NtRp4531
(dp4532
g3558
S'The key is imprinted with the seal of the President.'
p4533
sg3584
g4530
sg3591
S'Key to the Situation Room'
p4534
sbsS'BILLOFRIGHTS'
p4535
g1
(g10
g3
NtRp4536
(dp4537
g3558
S''
sg3584
g4535
sg3591
S"Citizens' Bill of Rights"
p4538
sbsS'PEN'
p4539
g1
(g10
g3
NtRp4540
(dp4541
g3558
S'Ink flows freely... into your shirt pocket.'
p4542
sg3584
g4539
sg3591
S'A pen'
p4543
sbsS'INCRIMINATINGEVIDENCE'
p4544
g1
(g10
g3
NtRp4545
(dp4546
g3558
S'Very incriminating proof that something troubling is going on in the White House.'
p4547
sg3584
g4544
sg3591
S'Incriminating Evidence'
p4548
sbsS'WARVETROOMKEY'
p4549
g1
(g10
g3
NtRp4550
(dp4551
g3558
S'The key is imprinted with the seal of the President.'
p4552
sg3584
g4549
sg3591
S'Key to the West Room'
p4553
sbsS'CABINETROOMKEY'
p4554
g1
(g10
g3
NtRp4555
(dp4556
g3558
S'The key is imprinted with the seal of the President.'
p4557
sg3584
g4554
sg3591
S'Key to the Cabinet Room'
p4558
sbsS'TEACHERROOMKEY'
p4559
g1
(g10
g3
NtRp4560
(dp4561
g3558
S'The key is imprinted with the seal of the President.'
p4562
sg3584
g4559
sg3591
S'Key to the East Room'
p4563
sbssg4243
(dp4564
S'Theo'
p4565
(lp4566
g4139
ag3954
ag3602
ag4057
ag3689
ag3985
ag3745
ag4041
ag3877
asS'JointChief'
p4567
(lp4568
g4088
ag4096
ag4118
ag3885
ag3725
asS'Politician'
p4569
(lp4570
g4139
ag3954
ag3602
ag4057
ag3985
ag3745
ag4073
ag4096
asS'Bumpkin'
p4571
(lp4572
g4057
ag3705
ag3831
ag3767
asS'Wife'
p4573
(lp4574
g4139
ag3602
ag4057
ag4126
ag4073
ag3753
asS'Lobbyist'
p4575
(lp4576
g3839
ag4005
ag3801
ag4088
asS'DeepThroat'
p4577
(lp4578
g3954
ag4096
ag3801
ag4088
asS'Protestor'
p4579
(lp4580
g3933
ag3823
ag3640
ag3697
asS'SecretAgent'
p4581
(lp4582
g4080
ag4118
ag3885
ag3909
asS'Teacher'
p4583
(lp4584
g3946
ag4096
ag3823
ag3933
asS'Alien'
p4585
(lp4586
g3954
ag3602
ag3713
ag3664
ag4073
ag4096
asS'Player'
p4587
(lp4588
g4139
ag3602
ag4057
ag3745
asS'Computer'
p4589
(lp4590
g3885
ag4118
ag3656
ag3801
ag4088
ag3954
asS'Receptionist'
p4591
(lp4592
g4018
ag3962
ag3970
ag3676
asS'Hippy'
p4593
(lp4594
g3697
ag3823
ag3893
ag3917
ag3933
ag4073
asS'Constituent'
p4595
(lp4596
g3823
ag4073
ag3839
ag4088
asS'TVPersonality'
p4597
(lp4598
g4057
ag3624
ag3648
ag3616
asS'WarVet'
p4599
(lp4600
g4088
ag4096
ag4049
ag3933
asS'Religious'
p4601
(lp4602
g3632
ag4147
ag3788
ag4065
ag4096
asS'Unionist'
p4603
(lp4604
g4088
ag4096
ag3823
ag3946
asS'Journalist'
p4605
(lp4606
g3648
ag4110
ag3901
ag3554
ag3624
assS'shops'
p4607
(dp4608
S'SHOP1'
p4609
(lp4610
g1
(g10
g3
NtRp4611
(dp4612
S'price'
p4613
F20
sS'shop_id'
p4614
g4609
sS'item_attack'
p4615
g3775
sbag1
(g10
g3
NtRp4616
(dp4617
g4613
F20
sg4614
S'SHOP1'
p4618
sg4615
g3993
sbasS'SHOP2P2'
p4619
(lp4620
g1
(g10
g3
NtRp4621
(dp4622
g4613
F20
sg4614
g4619
sg4615
g3775
sbag1
(g10
g3
NtRp4623
(dp4624
g4613
F20
sg4614
S'SHOP2P2'
p4625
sg4615
g3925
sbag1
(g10
g3
NtRp4626
(dp4627
g4613
F20
sg4614
S'SHOP2P2'
p4628
sg4615
g3993
sbag1
(g10
g3
NtRp4629
(dp4630
g4613
F50
sg4614
S'SHOP2P2'
p4631
sg4615
g3847
sbag1
(g10
g3
NtRp4632
(dp4633
g4613
F40
sg4614
S'SHOP2P2'
p4634
sg4615
g3733
sbasS'SHOP2'
p4635
(lp4636
g1
(g10
g3
NtRp4637
(dp4638
g4613
F20
sg4614
g4635
sg4615
g3775
sbag1
(g10
g3
NtRp4639
(dp4640
g4613
F20
sg4614
S'SHOP2'
p4641
sg4615
g3993
sbag1
(g10
g3
NtRp4642
(dp4643
g4613
F50
sg4614
S'SHOP2'
p4644
sg4615
g3847
sbag1
(g10
g3
NtRp4645
(dp4646
g4613
F40
sg4614
S'SHOP2'
p4647
sg4615
g3733
sbasS'SHOP3'
p4648
(lp4649
g1
(g10
g3
NtRp4650
(dp4651
g4613
F20
sg4614
g4648
sg4615
g3775
sbag1
(g10
g3
NtRp4652
(dp4653
g4613
F20
sg4614
S'SHOP3'
p4654
sg4615
g3993
sbag1
(g10
g3
NtRp4655
(dp4656
g4613
F50
sg4614
S'SHOP3'
p4657
sg4615
g3847
sbag1
(g10
g3
NtRp4658
(dp4659
g4613
F40
sg4614
S'SHOP3'
p4660
sg4615
g3733
sbag1
(g10
g3
NtRp4661
(dp4662
g4613
F70
sg4614
S'SHOP3'
p4663
sg4615
g3858
sbasS'SHOP3P2'
p4664
(lp4665
g1
(g10
g3
NtRp4666
(dp4667
g4613
F20
sg4614
g4664
sg4615
g3775
sbag1
(g10
g3
NtRp4668
(dp4669
g4613
F20
sg4614
S'SHOP3P2'
p4670
sg4615
g3993
sbag1
(g10
g3
NtRp4671
(dp4672
g4613
F50
sg4614
S'SHOP3P2'
p4673
sg4615
g3847
sbag1
(g10
g3
NtRp4674
(dp4675
g4613
F40
sg4614
S'SHOP3P2'
p4676
sg4615
g3733
sbag1
(g10
g3
NtRp4677
(dp4678
g4613
F70
sg4614
S'SHOP3P2'
p4679
sg4615
g3858
sbag1
(g10
g3
NtRp4680
(dp4681
g4613
F100
sg4614
S'SHOP3P2'
p4682
sg4615
g3865
sbassS'encounters'
p4683
(dp4684
S'P-hard-14'
p4685
g1
(g10
g3
NtRp4686
(dp4687
S'item_attack_drops'
p4688
(lp4689
sS'item_attacks'
p4690
(lp4691
sg3591
S''
sS'money'
p4692
F100
sg4161
F400
sS'monster2_lvl'
p4693
S''
sS'bribe_cost'
p4694
F200
sS'monster3'
p4695
S''
sS'monster1_lvl'
p4696
F7
sS'monster3_lvl'
p4697
S''
sS'monster4_lvl'
p4698
S''
sS'monster4'
p4699
S''
sS'monster2'
p4700
S''
sg3584
g4685
sS'monster1'
p4701
S'Computer'
p4702
sbsS'P-hard-11'
p4703
g1
(g10
g3
NtRp4704
(dp4705
g4688
(lp4706
sg4690
(lp4707
sg3591
S''
sg4692
F100
sg4161
F270
sg4693
F7
sg4694
F150
sg4695
S'JointChief001'
p4708
sg4696
F7
sg4697
F7
sg4698
S''
sg4699
S''
sg4700
S'JointChief001'
p4709
sg3584
g4703
sg4701
S'JointChief001'
p4710
sbsS'P-hard-10'
p4711
g1
(g10
g3
NtRp4712
(dp4713
g4688
(lp4714
sg4690
(lp4715
sg3591
S''
sg4692
F100
sg4161
F360
sg4693
F7
sg4694
F120
sg4695
S'CabinetPolitician001'
p4716
sg4696
F7
sg4697
F7
sg4698
F7
sg4699
S'CabinetPolitician001'
p4717
sg4700
S'CabinetPolitician001'
p4718
sg3584
g4711
sg4701
S'CabinetPolitician001'
p4719
sbsS'P-hard-13'
p4720
g1
(g10
g3
NtRp4721
(dp4722
g4688
(lp4723
sg4690
(lp4724
sg3591
S''
sg4692
F100
sg4161
F360
sg4693
F7
sg4694
F150
sg4695
S'JointChief001'
p4725
sg4696
F7
sg4697
F7
sg4698
F7
sg4699
S'JointChief001'
p4726
sg4700
S'JointChief001'
p4727
sg3584
g4720
sg4701
S'JointChief001'
p4728
sbsS'P-hard-12'
p4729
g1
(g10
g3
NtRp4730
(dp4731
g4688
(lp4732
sg4690
(lp4733
sg3591
S''
sg4692
F100
sg4161
F270
sg4693
F7
sg4694
F150
sg4695
S'JointChief001'
p4734
sg4696
F7
sg4697
F7
sg4698
S''
sg4699
S''
sg4700
S'JointChief001'
p4735
sg3584
g4729
sg4701
S'JointChief001'
p4736
sbsS'P-easy-05'
p4737
g1
(g10
g3
NtRp4738
(dp4739
g4688
(lp4740
g1
(c__main__
ItemAttack
p4741
g3
NtRp4742
(dp4743
S'attack'
p4744
g3925
sS'quantity'
p4745
I1
sbasg4690
(lp4746
sg3591
S''
sg4692
F0
sg4161
F20
sg4693
S''
sg4694
F20
sg4695
S''
sg4696
F2
sg4697
S''
sg4698
S''
sg4699
S''
sg4700
S''
sg3584
g4737
sg4701
S'Journalist001'
p4747
sbsS'P-easy-04'
p4748
g1
(g10
g3
NtRp4749
(dp4750
g4688
(lp4751
g1
(g4741
g3
NtRp4752
(dp4753
g4744
g3775
sg4745
I1
sbasg4690
(lp4754
sg3591
S''
sg4692
F0
sg4161
F30
sg4693
F1
sg4694
F20
sg4695
S''
sg4696
F1
sg4697
S''
sg4698
S''
sg4699
S''
sg4700
S'Protester001'
p4755
sg3584
g4748
sg4701
S'Protester001'
p4756
sbsS'P-easy-07'
p4757
g1
(g10
g3
NtRp4758
(dp4759
g4688
(lp4760
g1
(g4741
g3
NtRp4761
(dp4762
g4744
g3775
sg4745
I1
sbasg4690
(lp4763
sg3591
S''
sg4692
F15
sg4161
F40
sg4693
F2
sg4694
F20
sg4695
S''
sg4696
F2
sg4697
S''
sg4698
S''
sg4699
S''
sg4700
S'Protester001'
p4764
sg3584
g4757
sg4701
S'Constituent001'
p4765
sbsS'P-easy-06'
p4766
g1
(g10
g3
NtRp4767
(dp4768
g4688
(lp4769
g1
(g4741
g3
NtRp4770
(dp4771
g4744
g3847
sg4745
I1
sbasg4690
(lp4772
sg3591
S''
sg4692
F0
sg4161
F40
sg4693
F2
sg4694
F20
sg4695
S''
sg4696
F2
sg4697
S''
sg4698
S''
sg4699
S''
sg4700
S'Lobbyist001'
p4773
sg3584
g4766
sg4701
S'Lobbyist001'
p4774
sbsS'P-easy-01'
p4775
g1
(g10
g3
NtRp4776
(dp4777
g4688
(lp4778
g1
(g4741
g3
NtRp4779
(dp4780
g4744
g3993
sg4745
I1
sbasg4690
(lp4781
g1
(g4741
g3
NtRp4782
(dp4783
g4744
g3925
sg4745
I1
sbasg3591
S'The quest for pen'
p4784
sg4692
F0
sg4161
F10
sg4693
S''
sg4694
F20
sg4695
S''
sg4696
F1
sg4697
S''
sg4698
S''
sg4699
S''
sg4700
S''
sg3584
g4775
sg4701
S'Receptionist001'
p4785
sbsS'P-easy-03'
p4786
g1
(g10
g3
NtRp4787
(dp4788
g4688
(lp4789
g1
(g4741
g3
NtRp4790
(dp4791
g4744
g3993
sg4745
I1
sbasg4690
(lp4792
g1
(g4741
g3
NtRp4793
(dp4794
g4744
g3925
sg4745
I1
sbasg3591
S''
sg4692
F0
sg4161
F30
sg4693
F1
sg4694
F20
sg4695
S''
sg4696
F1
sg4697
S''
sg4698
S''
sg4699
S''
sg4700
S'Protester001'
p4795
sg3584
g4786
sg4701
S'Protester001'
p4796
sbsS'P-easy-02'
p4797
g1
(g10
g3
NtRp4798
(dp4799
g4688
(lp4800
sg4690
(lp4801
sg3591
S''
sg4692
F0
sg4161
F30
sg4693
F1
sg4694
F20
sg4695
S''
sg4696
F1
sg4697
S''
sg4698
S''
sg4699
S''
sg4700
S'Protester001'
p4802
sg3584
g4797
sg4701
S'Protester001'
p4803
sbsS'P-easy-09'
p4804
g1
(g10
g3
NtRp4805
(dp4806
g4688
(lp4807
g1
(g4741
g3
NtRp4808
(dp4809
g4744
g3993
sg4745
I1
sbasg4690
(lp4810
sg3591
S''
sg4692
F15
sg4161
F60
sg4693
F2
sg4694
F20
sg4695
S''
sg4696
F2
sg4697
S''
sg4698
S''
sg4699
S''
sg4700
S'Constituent001'
p4811
sg3584
g4804
sg4701
S'Constituent001'
p4812
sbsS'P-easy-08'
p4813
g1
(g10
g3
NtRp4814
(dp4815
g4688
(lp4816
sg4690
(lp4817
sg3591
S''
sg4692
F15
sg4161
F40
sg4693
F2
sg4694
F20
sg4695
S'Constituent001'
p4818
sg4696
F2
sg4697
F2
sg4698
S''
sg4699
S''
sg4700
S'Constituent001'
p4819
sg3584
g4813
sg4701
S'Protester001'
p4820
sbsS'P-hard-08'
p4821
g1
(g10
g3
NtRp4822
(dp4823
g4688
(lp4824
sg4690
(lp4825
sg3591
S''
sg4692
F100
sg4161
F270
sg4693
F7
sg4694
F120
sg4695
S'CabinetPolitician001'
p4826
sg4696
F7
sg4697
F7
sg4698
S''
sg4699
S''
sg4700
S'CabinetPolitician001'
p4827
sg3584
g4821
sg4701
S'CabinetPolitician001'
p4828
sbsS'P-hard-09'
p4829
g1
(g10
g3
NtRp4830
(dp4831
g4688
(lp4832
sg4690
(lp4833
sg3591
S''
sg4692
F100
sg4161
F360
sg4693
F7
sg4694
F120
sg4695
S'CabinetPolitician001'
p4834
sg4696
F7
sg4697
F7
sg4698
F7
sg4699
S'CabinetPolitician001'
p4835
sg4700
S'CabinetPolitician001'
p4836
sg3584
g4829
sg4701
S'CabinetPolitician001'
p4837
sbsS'P-med-08'
p4838
g1
(g10
g3
NtRp4839
(dp4840
g4688
(lp4841
g1
(g4741
g3
NtRp4842
(dp4843
g4744
g3733
sg4745
I1
sbasg4690
(lp4844
sg3591
S''
sg4692
F0
sg4161
F180
sg4693
F4
sg4694
F60
sg4695
S'Politician001'
p4845
sg4696
F4
sg4697
F4
sg4698
S''
sg4699
S''
sg4700
S'Politician001'
p4846
sg3584
g4838
sg4701
S'Protester001'
p4847
sbsS'P-med-09'
p4848
g1
(g10
g3
NtRp4849
(dp4850
g4688
(lp4851
sg4690
(lp4852
sg3591
S''
sg4692
F50
sg4161
F180
sg4693
F4
sg4694
F60
sg4695
S'Politician001'
p4853
sg4696
F4
sg4697
F4
sg4698
S''
sg4699
S''
sg4700
S'ReligiousNut001'
p4854
sg3584
g4848
sg4701
S'Politician001'
p4855
sbsS'P-med-02'
p4856
g1
(g10
g3
NtRp4857
(dp4858
g4688
(lp4859
g1
(g4741
g3
NtRp4860
(dp4861
g4744
g3733
sg4745
I1
sbasg4690
(lp4862
g1
(g4741
g3
NtRp4863
(dp4864
g4744
g3594
sg4745
I1
sbasg3591
S''
sg4692
F25
sg4161
F90
sg4693
F3
sg4694
F40
sg4695
S''
sg4696
F3
sg4697
S''
sg4698
S''
sg4699
S''
sg4700
S'Politician001'
p4865
sg3584
g4856
sg4701
S'Politician001'
p4866
sbsS'P-med-03'
p4867
g1
(g10
g3
NtRp4868
(dp4869
g4688
(lp4870
sg4690
(lp4871
g1
(g4741
g3
NtRp4872
(dp4873
g4744
g3594
sg4745
I1
sbasg3591
S''
sg4692
F25
sg4161
F90
sg4693
F3
sg4694
F40
sg4695
S''
sg4696
F3
sg4697
S''
sg4698
S''
sg4699
S''
sg4700
S'Bumpkin001'
p4874
sg3584
g4867
sg4701
S'Bumpkin001'
p4875
sbsS'P-med-01'
p4876
g1
(g10
g3
NtRp4877
(dp4878
g4688
(lp4879
sg4690
(lp4880
sg3591
S''
sg4692
F30
sg4161
F90
sg4693
F3
sg4694
F40
sg4695
S''
sg4696
F3
sg4697
S''
sg4698
S''
sg4699
S''
sg4700
S'Politician001'
p4881
sg3584
g4876
sg4701
S'Politician001'
p4882
sbsS'P-med-06'
p4883
g1
(g10
g3
NtRp4884
(dp4885
g4688
(lp4886
sg4690
(lp4887
sg3591
S''
sg4692
F50
sg4161
F220
sg4693
F5
sg4694
F70
sg4695
S'Politician001'
p4888
sg4696
F4
sg4697
F4
sg4698
S''
sg4699
S''
sg4700
S'Governor'
p4889
sg3584
g4883
sg4701
S'Politician001'
p4890
sbsS'P-med-07'
p4891
g1
(g10
g3
NtRp4892
(dp4893
g4688
(lp4894
sg4690
(lp4895
sg3591
S''
sg4692
F0
sg4161
F120
sg4693
F5
sg4694
F60
sg4695
S''
sg4696
F5
sg4697
S''
sg4698
S''
sg4699
S''
sg4700
S'Journalist001'
p4896
sg3584
g4891
sg4701
S'Politician001'
p4897
sbsS'P-med-04'
p4898
g1
(g10
g3
NtRp4899
(dp4900
g4688
(lp4901
sg4690
(lp4902
sg3591
S''
sg4692
F30
sg4161
F135
sg4693
F3
sg4694
F40
sg4695
S'Protester001'
p4903
sg4696
F3
sg4697
F3
sg4698
S''
sg4699
S''
sg4700
S'Bumpkin001'
p4904
sg3584
g4898
sg4701
S'HippyGirl001'
p4905
sbsS'P-med-05'
p4906
g1
(g10
g3
NtRp4907
(dp4908
g4688
(lp4909
sg4690
(lp4910
sg3591
S''
sg4692
F30
sg4161
F135
sg4693
F3
sg4694
F40
sg4695
S'Politician001'
p4911
sg4696
F3
sg4697
F3
sg4698
S''
sg4699
S''
sg4700
S'Journalist001'
p4912
sg3584
g4906
sg4701
S'Journalist001'
p4913
sbsS'P-med-24'
p4914
g1
(g10
g3
NtRp4915
(dp4916
g4688
(lp4917
sg4690
(lp4918
sg3591
S''
sg4692
F70
sg4161
F800
sg4693
F9
sg4694
F100
sg4695
S'Politician001'
p4919
sg4696
F7
sg4697
F7
sg4698
S''
sg4699
S''
sg4700
S'PresidentAlien'
p4920
sg3584
g4914
sg4701
S'Politician001'
p4921
sbsS'P-med-20'
p4922
g1
(g10
g3
NtRp4923
(dp4924
g4688
(lp4925
sg4690
(lp4926
sg3591
S''
sg4692
F80
sg4161
F225
sg4693
F5
sg4694
F100
sg4695
S'Journalist001'
p4927
sg4696
F5
sg4697
F5
sg4698
S''
sg4699
S''
sg4700
S'TVPersonality001'
p4928
sg3584
g4922
sg4701
S'Journalist001'
p4929
sbsS'P-med-21'
p4930
g1
(g10
g3
NtRp4931
(dp4932
g4688
(lp4933
sg4690
(lp4934
sg3591
S''
sg4692
F80
sg4161
F300
sg4693
F7
sg4694
F100
sg4695
S'Politician001'
p4935
sg4696
F6
sg4697
F6
sg4698
S''
sg4699
S''
sg4700
S'President'
p4936
sg3584
g4930
sg4701
S'Politician001'
p4937
sbsS'P-med-22'
p4938
g1
(g10
g3
NtRp4939
(dp4940
g4688
(lp4941
sg4690
(lp4942
sg3591
S''
sg4692
F70
sg4161
F180
sg4693
F6
sg4694
F80
sg4695
S''
sg4696
F6
sg4697
S''
sg4698
S''
sg4699
S''
sg4700
S'DeepThroat'
p4943
sg3584
g4938
sg4701
S'DeepThroat'
p4944
sbsS'P-med-23'
p4945
g1
(g10
g3
NtRp4946
(dp4947
g4688
(lp4948
g1
(g4741
g3
NtRp4949
(dp4950
g4744
g3733
sg4745
I1
sbasg4690
(lp4951
sg3591
S''
sg4692
F80
sg4161
F0
sg4693
F8
sg4694
F100
sg4695
S'Politician001'
p4952
sg4696
F6
sg4697
F6
sg4698
F6
sg4699
S'Politician001'
p4953
sg4700
S'President'
p4954
sg3584
g4945
sg4701
S'Politician001'
p4955
sbsS'P-hard-06'
p4956
g1
(g10
g3
NtRp4957
(dp4958
g4688
(lp4959
sg4690
(lp4960
sg3591
S''
sg4692
F70
sg4161
F270
sg4693
F7
sg4694
F90
sg4695
S'Teacher001'
p4961
sg4696
F7
sg4697
F7
sg4698
S''
sg4699
S''
sg4700
S'Teacher001'
p4962
sg3584
g4956
sg4701
S'Teacher001'
p4963
sbsS'P-hard-07'
p4964
g1
(g10
g3
NtRp4965
(dp4966
g4688
(lp4967
g1
(g4741
g3
NtRp4968
(dp4969
g4744
g3847
sg4745
I1
sbasg4690
(lp4970
sg3591
S''
sg4692
F0
sg4161
F360
sg4693
F7
sg4694
F90
sg4695
S'Teacher001'
p4971
sg4696
F7
sg4697
F7
sg4698
F7
sg4699
S'Teacher001'
p4972
sg4700
S'Teacher001'
p4973
sg3584
g4964
sg4701
S'Teacher001'
p4974
sbsS'P-hard-04'
p4975
g1
(g10
g3
NtRp4976
(dp4977
g4688
(lp4978
sg4690
(lp4979
sg3591
S''
sg4692
F0
sg4161
F270
sg4693
F6
sg4694
F90
sg4695
S'WarVet001'
p4980
sg4696
F6
sg4697
F6
sg4698
S''
sg4699
S''
sg4700
S'WarVet001'
p4981
sg3584
g4975
sg4701
S'WarVet001'
p4982
sbsS'P-hard-05'
p4983
g1
(g10
g3
NtRp4984
(dp4985
g4688
(lp4986
sg4690
(lp4987
sg3591
S''
sg4692
F0
sg4161
F360
sg4693
F6
sg4694
F90
sg4695
S'WarVet001'
p4988
sg4696
F6
sg4697
F6
sg4698
F6
sg4699
S'WarVet001'
p4989
sg4700
S'WarVet001'
p4990
sg3584
g4983
sg4701
S'WarVet001'
p4991
sbsS'P-hard-02'
p4992
g1
(g10
g3
NtRp4993
(dp4994
g4688
(lp4995
sg4690
(lp4996
sg3591
S''
sg4692
F70
sg4161
F270
sg4693
F6
sg4694
F80
sg4695
S'Journalist001'
p4997
sg4696
F6
sg4697
F6
sg4698
S''
sg4699
S''
sg4700
S'TVPersonality001'
p4998
sg3584
g4992
sg4701
S'Journalist001'
p4999
sbsS'P-hard-03'
p5000
g1
(g10
g3
NtRp5001
(dp5002
g4688
(lp5003
g1
(g4741
g3
NtRp5004
(dp5005
g4744
g3733
sg4745
I1
sbasg4690
(lp5006
sg3591
S''
sg4692
F0
sg4161
F270
sg4693
F6
sg4694
F80
sg4695
S'Journalist001'
p5007
sg4696
F6
sg4697
F6
sg4698
S''
sg4699
S''
sg4700
S'Journalist001'
p5008
sg3584
g5000
sg4701
S'TVPersonality001'
p5009
sbsS'P-hard-01'
p5010
g1
(g10
g3
NtRp5011
(dp5012
g4688
(lp5013
sg4690
(lp5014
sg3591
S''
sg4692
F0
sg4161
F270
sg4693
F6
sg4694
F80
sg4695
S'Journalist001'
p5015
sg4696
F6
sg4697
F6
sg4698
S''
sg4699
S''
sg4700
S'Journalist001'
p5016
sg3584
g5010
sg4701
S'Journalist001'
p5017
sbsS'P-easy-10'
p5018
g1
(g10
g3
NtRp5019
(dp5020
g4688
(lp5021
sg4690
(lp5022
sg3591
S''
sg4692
F40
sg4161
F80
sg4693
F3
sg4694
F50
sg4695
S'Politician001'
p5023
sg4696
F2
sg4697
F3
sg4698
S''
sg4699
S''
sg4700
S'Mayor'
p5024
sg3584
g5018
sg4701
S'Politician001'
p5025
sbsS'P-med-19'
p5026
g1
(g10
g3
NtRp5027
(dp5028
g4688
(lp5029
g1
(g4741
g3
NtRp5030
(dp5031
g4744
g3847
sg4745
I1
sbasg4690
(lp5032
sg3591
S''
sg4692
F80
sg4161
F150
sg4693
F5
sg4694
F100
sg4695
S''
sg4696
F5
sg4697
S''
sg4698
S''
sg4699
S''
sg4700
S'DeepThroat'
p5033
sg3584
g5026
sg4701
S'DeepThroat'
p5034
sbsS'P-med-18'
p5035
g1
(g10
g3
NtRp5036
(dp5037
g4688
(lp5038
sg4690
(lp5039
sg3591
S''
sg4692
F70
sg4161
F300
sg4693
F5
sg4694
F60
sg4695
S'ReligiousNut001'
p5040
sg4696
F5
sg4697
F5
sg4698
F5
sg4699
S'ReligiousNut001'
p5041
sg4700
S'Constituent001'
p5042
sg3584
g5035
sg4701
S'HippyGirl001'
p5043
sbsS'P-med-15'
p5044
g1
(g10
g3
NtRp5045
(dp5046
g4688
(lp5047
g1
(g4741
g3
NtRp5048
(dp5049
g4744
g3847
sg4745
I1
sbasg4690
(lp5050
sg3591
S''
sg4692
F0
sg4161
F180
sg4693
F6
sg4694
F60
sg4695
S''
sg4696
F5
sg4697
S''
sg4698
S''
sg4699
S''
sg4700
S'ReligiousNut001'
p5051
sg3584
g5044
sg4701
S'ReligiousNut001'
p5052
sbsS'P-med-14'
p5053
g1
(g10
g3
NtRp5054
(dp5055
g4688
(lp5056
sg4690
(lp5057
sg3591
S''
sg4692
F0
sg4161
F240
sg4693
F4
sg4694
F60
sg4695
S'Constituent001'
p5058
sg4696
F4
sg4697
F4
sg4698
F5
sg4699
S'Lobbyist001'
p5059
sg4700
S'Lobbyist001'
p5060
sg3584
g5053
sg4701
S'Constituent001'
p5061
sbsS'P-med-17'
p5062
g1
(g10
g3
NtRp5063
(dp5064
g4688
(lp5065
sg4690
(lp5066
sg3591
S''
sg4692
F70
sg4161
F225
sg4693
F5
sg4694
F60
sg4695
S'ReligiousNut001'
p5067
sg4696
F5
sg4697
F5
sg4698
S''
sg4699
S''
sg4700
S'HippyGirl001'
p5068
sg3584
g5062
sg4701
S'ReligiousNut001'
p5069
sbsS'P-med-16'
p5070
g1
(g10
g3
NtRp5071
(dp5072
g4688
(lp5073
sg4690
(lp5074
sg3591
S''
sg4692
F0
sg4161
F225
sg4693
F5
sg4694
F60
sg4695
S'HippyGirl001'
p5075
sg4696
F5
sg4697
F5
sg4698
S''
sg4699
S''
sg4700
S'ReligiousNut001'
p5076
sg3584
g5070
sg4701
S'ReligiousNut001'
p5077
sbsS'P-med-11'
p5078
g1
(g10
g3
NtRp5079
(dp5080
g4688
(lp5081
g1
(g4741
g3
NtRp5082
(dp5083
g4744
g3993
sg4745
I1
sbasg4690
(lp5084
sg3591
S''
sg4692
F0
sg4161
F240
sg4693
F4
sg4694
F60
sg4695
S'Constituent001'
p5085
sg4696
F4
sg4697
F4
sg4698
F5
sg4699
S'Politician001'
p5086
sg4700
S'Politician001'
p5087
sg3584
g5078
sg4701
S'Constituent001'
p5088
sbsS'P-med-10'
p5089
g1
(g10
g3
NtRp5090
(dp5091
g4688
(lp5092
sg4690
(lp5093
sg3591
S''
sg4692
F0
sg4161
F180
sg4693
F4
sg4694
F60
sg4695
S'ReligiousNut001'
p5094
sg4696
F4
sg4697
F4
sg4698
S''
sg4699
S''
sg4700
S'Politician001'
p5095
sg3584
g5089
sg4701
S'Politician001'
p5096
sbsS'P-med-13'
p5097
g1
(g10
g3
NtRp5098
(dp5099
g4688
(lp5100
sg4690
(lp5101
sg3591
S''
sg4692
F50
sg4161
F180
sg4693
F4
sg4694
F60
sg4695
S'Lobbyist001'
p5102
sg4696
F4
sg4697
F4
sg4698
S''
sg4699
S''
sg4700
S'Constituent001'
p5103
sg3584
g5097
sg4701
S'Lobbyist001'
p5104
sbsS'P-med-12'
p5105
g1
(g10
g3
NtRp5106
(dp5107
g4688
(lp5108
sg4690
(lp5109
sg3591
S''
sg4692
F0
sg4161
F180
sg4693
F4
sg4694
F60
sg4695
S'Lobbyist001'
p5110
sg4696
F4
sg4697
F4
sg4698
S''
sg4699
S''
sg4700
S'Lobbyist001'
p5111
sg3584
g5105
sg4701
S'HippyGirl001'
p5112
sbssb.