ccopy_reg
_reconstructor
p1
(c__main__
GameData
p2
c__builtin__
object
p3
NtRp4
(dp5
S'script'
p6
(dp7
S'Theo'
p8
(lp9
g1
(c__main__
TableRow
p10
g3
NtRp11
(dp12
S'action'
p13
S'RequireFlag'
p14
sS'trigger'
p15
g8
sS'param'
p16
S'GOVERNORDEFEATED'
p17
sS'dialog'
p18
S'The Governor is in the north wing.'
p19
sbasS'Wife'
p20
(lp21
g1
(g10
g3
NtRp22
(dp23
g13
S'RequireFlag'
p24
sg15
g20
sg16
S'GOHOMETOWIFE'
p25
sg18
S'What are you doing here, Phillip? You should be at work!'
p26
sbag1
(g10
g3
NtRp27
(dp28
g13
S'Say'
p29
sg15
S'Wife'
p30
sg16
S''
sg18
S'Welcome home, Phillip! How was your workday?'
p31
sbag1
(g10
g3
NtRp32
(dp33
g13
S'PlayerSay'
p34
sg15
S'Wife'
p35
sg16
S''
sg18
S'...'
p36
sbag1
(g10
g3
NtRp37
(dp38
g13
S'Say'
p39
sg15
S'Wife'
p40
sg16
S''
sg18
S"That good, huh? You know this isn't what you want. Why don't you strike out on your own?"
p41
sbag1
(g10
g3
NtRp42
(dp43
g13
S'PlayerSay'
p44
sg15
S'Wife'
p45
sg16
S''
sg18
S"I didn't think I knew where to start to be a Mayor, but Mayor Goodman makes it look easy."
p46
sbag1
(g10
g3
NtRp47
(dp48
g13
S'Say'
p49
sg15
S'Wife'
p50
sg16
S''
sg18
S"That's the spirit! You can do it! All you need is some money and support."
p51
sbag1
(g10
g3
NtRp52
(dp53
g13
S'PlayerSay'
p54
sg15
S'Wife'
p55
sg16
S''
sg18
S'Well...OK! Lets start with money. We need a sponsor.'
p56
sbag1
(g10
g3
NtRp57
(dp58
g13
S'Say'
p59
sg15
S'Wife'
p60
sg16
S''
sg18
S'OK, lets go get one!'
p61
sbag1
(g10
g3
NtRp62
(dp63
g13
S'AddAlly'
p64
sg15
S'Wife'
p65
sg16
S'Wife:1'
p66
sg18
S'Sarah Mossman Joins Your Political Party!'
p67
sbag1
(g10
g3
NtRp68
(dp69
g13
S'SetFlag'
p70
sg15
S'Wife'
p71
sg16
S'STARTSPONSOR'
p72
sg18
S''
sbag1
(g10
g3
NtRp73
(dp74
g13
S'Destroy'
p75
sg15
S'Wife'
p76
sg16
S''
sg18
S''
sbasS'Constituent2'
p77
(lp78
g1
(g10
g3
NtRp79
(dp80
g13
S'RequireFlag'
p81
sg15
g77
sg16
S'STARTCONSTITUENTS'
p82
sg18
S'What?'
p83
sbag1
(g10
g3
NtRp84
(dp85
g13
S'PlayerSay'
p86
sg15
S'Constituent2'
p87
sg16
S''
sg18
S'Vote Phillip Mossman for Mayor!'
p88
sbag1
(g10
g3
NtRp89
(dp90
g13
S'Say'
p91
sg15
S'Constituent2'
p92
sg16
S''
sg18
S'But Mayor Goodman has always taken care of me.'
p93
sbag1
(g10
g3
NtRp94
(dp95
g13
S'Encounter'
p96
sg15
S'Constituent2'
p97
sg16
S'P-easy-08'
p98
sg18
S''
sbag1
(g10
g3
NtRp99
(dp100
g13
S'Say'
p101
sg15
S'Constituent2'
p102
sg16
S''
sg18
S"I think it's time for a change!"
p103
sbag1
(g10
g3
NtRp104
(dp105
g13
S'Destroy'
p106
sg15
S'Constituent2'
p107
sg16
S''
sg18
S''
sbasS'Constituent3'
p108
(lp109
g1
(g10
g3
NtRp110
(dp111
g13
S'RequireFlag'
p112
sg15
g108
sg16
S'STARTCONSTITUENTS'
p113
sg18
S'What?'
p114
sbag1
(g10
g3
NtRp115
(dp116
g13
S'PlayerSay'
p117
sg15
S'Constituent3'
p118
sg16
S''
sg18
S'Vote Phillip Mossman for Mayor!'
p119
sbag1
(g10
g3
NtRp120
(dp121
g13
S'Say'
p122
sg15
S'Constituent3'
p123
sg16
S''
sg18
S'But Mayor Goodman has always taken care of me.'
p124
sbag1
(g10
g3
NtRp125
(dp126
g13
S'Encounter'
p127
sg15
S'Constituent3'
p128
sg16
S'P-easy-09'
p129
sg18
S''
sbag1
(g10
g3
NtRp130
(dp131
g13
S'Say'
p132
sg15
S'Constituent3'
p133
sg16
S''
sg18
S"I think it's time for a change!"
p134
sbag1
(g10
g3
NtRp135
(dp136
g13
S'PlayerSay'
p137
sg15
S'Constituent3'
p138
sg16
S''
sg18
S"I think I'm ready to take on Mayor Goodman now!"
p139
sbag1
(g10
g3
NtRp140
(dp141
g13
S'SetFlag'
p142
sg15
S'Constituent3'
p143
sg16
S'CONSTITUENTSWON'
p144
sg18
S''
sbag1
(g10
g3
NtRp145
(dp146
g13
S'Destroy'
p147
sg15
S'Constituent3'
p148
sg16
S''
sg18
S''
sbasS'Constituent1'
p149
(lp150
g1
(g10
g3
NtRp151
(dp152
g13
S'RequireFlag'
p153
sg15
g149
sg16
S'STARTCONSTITUENTS'
p154
sg18
S'Yes?'
p155
sbag1
(g10
g3
NtRp156
(dp157
g13
S'PlayerSay'
p158
sg15
S'Constituent1'
p159
sg16
S''
sg18
S'Vote Phillip Mossman for Mayor!'
p160
sbag1
(g10
g3
NtRp161
(dp162
g13
S'Say'
p163
sg15
S'Constituent1'
p164
sg16
S''
sg18
S'Who?'
p165
sbag1
(g10
g3
NtRp166
(dp167
g13
S'PlayerSay'
p168
sg15
S'Constituent1'
p169
sg16
S''
sg18
S'Er, me!'
p170
sbag1
(g10
g3
NtRp171
(dp172
g13
S'Say'
p173
sg15
S'Constituent1'
p174
sg16
S''
sg18
S'Why? How will you help local business?'
p175
sbag1
(g10
g3
NtRp176
(dp177
g13
S'Encounter'
p178
sg15
S'Constituent1'
p179
sg16
S'P-easy-07'
p180
sg18
S''
sbag1
(g10
g3
NtRp181
(dp182
g13
S'Say'
p183
sg15
S'Constituent1'
p184
sg16
S''
sg18
S'You make a good case!'
p185
sbag1
(g10
g3
NtRp186
(dp187
g13
S'Destroy'
p188
sg15
S'Constituent1'
p189
sg16
S''
sg18
S''
sbasS'Protester2'
p190
(lp191
g1
(g10
g3
NtRp192
(dp193
g13
S'Say'
p194
sg15
g190
sg16
S''
sg18
S"Bees buzz, Mayors lie, who's this Phillip Mossman guy?"
p195
sbag1
(g10
g3
NtRp196
(dp197
g13
S'RequireFlag'
p198
sg15
S'Protester2'
p199
sg16
S'PROTESTORS'
p200
sg18
S''
sbag1
(g10
g3
NtRp201
(dp202
g13
S'Encounter'
p203
sg15
S'Protester2'
p204
sg16
S'P-easy-03'
p205
sg18
S''
sbag1
(g10
g3
NtRp206
(dp207
g13
S'Destroy'
p208
sg15
S'Protester2'
p209
sg16
S''
sg18
S''
sbasS'CheatAct2'
p210
(lp211
g1
(g10
g3
NtRp212
(dp213
g13
S'AddAlly'
p214
sg15
g210
sg16
S'Wife:1'
p215
sg18
S''
sbag1
(g10
g3
NtRp216
(dp217
g13
S'LearnAttack'
p218
sg15
S'CheatAct2'
p219
sg16
S'BRIBE'
p220
sg18
S''
sbag1
(g10
g3
NtRp221
(dp222
g13
S'LearnAttack'
p223
sg15
S'CheatAct2'
p224
sg16
S'Wife:BRIBE'
p225
sg18
S''
sbag1
(g10
g3
NtRp226
(dp227
g13
S'LearnAttack'
p228
sg15
S'CheatAct2'
p229
sg16
S'SLANDER'
p230
sg18
S''
sbag1
(g10
g3
NtRp231
(dp232
g13
S'GotoMap'
p233
sg15
S'CheatAct2'
p234
sg16
S'act2'
p235
sg18
S''
sbasS'Protester1'
p236
(lp237
g1
(g10
g3
NtRp238
(dp239
g13
S'LearnAttack'
p240
sg15
g236
sg16
S'RUNAD'
p241
sg18
S''
sbag1
(g10
g3
NtRp242
(dp243
g13
S'Say'
p244
sg15
S'Protester1'
p245
sg16
S''
sg18
S"Fee Fi Fo Fum, we think Mayor Goodman's Dumb!"
p246
sbag1
(g10
g3
NtRp247
(dp248
g13
S'Say'
p249
sg15
S'Protester1'
p250
sg16
S'Protester2'
p251
sg18
S"Bees buzz, Mayors lie, who's this Phillip Mossman guy?"
p252
sbag1
(g10
g3
NtRp253
(dp254
g13
S'Encounter'
p255
sg15
S'Protester1'
p256
sg16
S'P-easy-02'
p257
sg18
S''
sbag1
(g10
g3
NtRp258
(dp259
g13
S'Destroy'
p260
sg15
S'Protester1'
p261
sg16
S''
sg18
S''
sbasS'Politician1'
p262
(lp263
g1
(g10
g3
NtRp264
(dp265
g13
S'Say'
p266
sg15
g262
sg16
S''
sg18
S"I'm sorry Mayor Mossman, the Governor cannot see you now. He's very busy"
p267
sbag1
(g10
g3
NtRp268
(dp269
g13
S'PlayerSay'
p270
sg15
S'Politician1'
p271
sg16
S''
sg18
S"It's very important. I need to understand what Mayor Goodman was talking about. It was clear there were other powers at play."
p272
sbag1
(g10
g3
NtRp273
(dp274
g13
S'Say'
p275
sg15
S'Politician1'
p276
sg16
S''
sg18
S'Yes well, I fail to see how your country spat has anything to do with Governer Badden.'
p277
sbag1
(g10
g3
NtRp278
(dp279
g13
S'Encounter'
p280
sg15
S'Politician1'
p281
sg16
S'P-med-01'
p282
sg18
S''
sbag1
(g10
g3
NtRp283
(dp284
g13
S'Say'
p285
sg15
S'Politician1'
p286
sg16
S''
sg18
S'Fair point. The governor will see you now.'
p287
sbag1
(g10
g3
NtRp288
(dp289
g13
S'Destroy'
p290
sg15
S'Politician1'
p291
sg16
S''
sg18
S''
sbasS'Politician2'
p292
(lp293
g1
(g10
g3
NtRp294
(dp295
g13
S'Say'
p296
sg15
g292
sg16
S''
sg18
S'What are you doing in here? Who are you? Some Mayor?'
p297
sbag1
(g10
g3
NtRp298
(dp299
g13
S'PlayerSay'
p300
sg15
S'Politician2'
p301
sg16
S''
sg18
S"I am Mayor Phillip Mossman. I'm here to speak to the Governor."
p302
sbag1
(g10
g3
NtRp303
(dp304
g13
S'Say'
p305
sg15
S'Politician2'
p306
sg16
S''
sg18
S"I'm afraid the Governor's schedule is very tight. Come back next month."
p307
sbag1
(g10
g3
NtRp308
(dp309
g13
S'Encounter'
p310
sg15
S'Politician2'
p311
sg16
S'P-med-02'
p312
sg18
S''
sbag1
(g10
g3
NtRp313
(dp314
g13
S'Say'
p315
sg15
S'Politician2'
p316
sg16
S''
sg18
S'I see. Well, maybe we can squeeze you in.'
p317
sbag1
(g10
g3
NtRp318
(dp319
g13
S'SetFlag'
p320
sg15
S'Politician2'
p321
sg16
S'GOVPOLITICIANSFIRST'
p322
sg18
S''
sbag1
(g10
g3
NtRp323
(dp324
g13
S'Destroy'
p325
sg15
S'Politician2'
p326
sg16
S''
sg18
S''
sbasS'Head Protester'
p327
(lp328
g1
(g10
g3
NtRp329
(dp330
g13
S'Say'
p331
sg15
g327
sg16
S''
sg18
S"I am the head protester. You'll never convince us to back down!"
p332
sbag1
(g10
g3
NtRp333
(dp334
g13
S'RequireFlag'
p335
sg15
S'Head Protester'
p336
sg16
S'PROTESTORS'
p337
sg18
S''
sbag1
(g10
g3
NtRp338
(dp339
g13
S'PlayerSay'
p340
sg15
S'Head Protester'
p341
sg16
S''
sg18
S'What are you protesting?'
p342
sbag1
(g10
g3
NtRp343
(dp344
g13
S'Say'
p345
sg15
S'Head Protester'
p346
sg16
S''
sg18
S'Er...Injustice!'
p347
sbag1
(g10
g3
NtRp348
(dp349
g13
S'PlayerSay'
p350
sg15
S'Head Protester'
p351
sg16
S''
sg18
S'Injustice against what?'
p352
sbag1
(g10
g3
NtRp353
(dp354
g13
S'Say'
p355
sg15
S'Head Protester'
p356
sg16
S''
sg18
S'...'
p357
sbag1
(g10
g3
NtRp358
(dp359
g13
S'Say'
p360
sg15
S'Head Protester'
p361
sg16
S''
sg18
S'The People!'
p362
sbag1
(g10
g3
NtRp363
(dp364
g13
S'PlayerSay'
p365
sg15
S'Head Protester'
p366
sg16
S''
sg18
S'Yes, but which people?'
p367
sbag1
(g10
g3
NtRp368
(dp369
g13
S'Say'
p370
sg15
S'Head Protester'
p371
sg16
S''
sg18
S'See? What a fascist, ALL people you slimey politician scum!'
p372
sbag1
(g10
g3
NtRp373
(dp374
g13
S'Encounter'
p375
sg15
S'Head Protester'
p376
sg16
S'P-easy-04'
p377
sg18
S''
sbag1
(g10
g3
NtRp378
(dp379
g13
S'Say'
p380
sg15
S'Head Protester'
p381
sg16
S''
sg18
S"Alright, fine! We'll stop protesting...whatever we were protesting."
p382
sbag1
(g10
g3
NtRp383
(dp384
g13
S'SetFlag'
p385
sg15
S'Head Protester'
p386
sg16
S'PROTESTORSDEAD'
p387
sg18
S''
sbag1
(g10
g3
NtRp388
(dp389
g13
S'Destroy'
p390
sg15
S'Head Protester'
p391
sg16
S''
sg18
S''
sbasS'Journalist'
p392
(lp393
g1
(g10
g3
NtRp394
(dp395
g13
S'RequireFlag'
p396
sg15
g392
sg16
S'INTERVIEWSTART'
p397
sg18
S'Leave me alone, kid I need to get this done before my deadline!'
p398
sbag1
(g10
g3
NtRp399
(dp400
g13
S'Say'
p401
sg15
S'Journalist'
p402
sg16
S''
sg18
S"Hey, where's the Mayor?"
p403
sbag1
(g10
g3
NtRp404
(dp405
g13
S'PlayerSay'
p406
sg15
S'Journalist'
p407
sg16
S''
sg18
S"He couldn't make it. I'll be taking the interview."
p408
sbag1
(g10
g3
NtRp409
(dp410
g13
S'Say'
p411
sg15
S'Journalist'
p412
sg16
S''
sg18
S'Great! Easy pickings! Lets go.'
p413
sbag1
(g10
g3
NtRp414
(dp415
g13
S'Encounter'
p416
sg15
S'Journalist'
p417
sg16
S'P-easy-05'
p418
sg18
S''
sbag1
(g10
g3
NtRp419
(dp420
g13
S'Say'
p421
sg15
S'Journalist'
p422
sg16
S''
sg18
S"SNORE! Fine, if I can't get anything juicy here I'll do another puff piece on my poodle Frank."
p423
sbag1
(g10
g3
NtRp424
(dp425
g13
S'SetFlag'
p426
sg15
S'Journalist'
p427
sg16
S'JOURNALISTINTERVIEW'
p428
sg18
S''
sbag1
(g10
g3
NtRp429
(dp430
g13
S'Destroy'
p431
sg15
S'Journalist'
p432
sg16
S''
sg18
S''
sbasS'Sponsor'
p433
(lp434
g1
(g10
g3
NtRp435
(dp436
g13
S'RequireFlag'
p437
sg15
g433
sg16
S'STARTSPONSOR'
p438
sg18
S"Hmmm...Money, money, money. Sorry, what? I wasn't talking to you."
p439
sbag1
(g10
g3
NtRp440
(dp441
g13
S'Say'
p442
sg15
S'Sponsor'
p443
sg16
S''
sg18
S"Hello, I'm investigating new investments today. How can I help you?"
p444
sbag1
(g10
g3
NtRp445
(dp446
g13
S'PlayerSay'
p447
sg15
S'Sponsor'
p448
sg16
S''
sg18
S"Well, I've decided to run for Mayor! I could really use an investor."
p449
sbag1
(g10
g3
NtRp450
(dp451
g13
S'Say'
p452
sg15
S'Sponsor'
p453
sg16
S''
sg18
S"I don't know. You seem a little young. I don't think I'm convinced."
p454
sbag1
(g10
g3
NtRp455
(dp456
g13
S'Encounter'
p457
sg15
S'Sponsor'
p458
sg16
S'P-easy-06'
p459
sg18
S''
sbag1
(g10
g3
NtRp460
(dp461
g13
S'Say'
p462
sg15
S'Sponsor'
p463
sg16
S''
sg18
S"Wow! You sure have what it takes! Alright, he's a pile of cash!"
p464
sbag1
(g10
g3
NtRp465
(dp466
g13
S'Say'
p467
sg15
S'Sponsor'
p468
sg16
S''
sg18
S'Also, now that you have some funds, you might find it useful to...grease the wheels in some difficult situations.'
p469
sbag1
(g10
g3
NtRp470
(dp471
g13
S'LearnAttack'
p472
sg15
S'Sponsor'
p473
sg16
S'BRIBE'
p474
sg18
S'Phillip and Sarah learn to Bribe'
p475
sbag1
(g10
g3
NtRp476
(dp477
g13
S'LearnAttack'
p478
sg15
S'Sponsor'
p479
sg16
S'Wife:BRIBE'
p480
sg18
S''
sbag1
(g10
g3
NtRp481
(dp482
g13
S'SetFlag'
p483
sg15
S'Sponsor'
p484
sg16
S'STARTCONSTITUENTS'
p485
sg18
S''
sbag1
(g10
g3
NtRp486
(dp487
g13
S'PlayerSay'
p488
sg15
S'Sponsor'
p489
sg16
S''
sg18
S'Er, thanks! I suppose we should go gather some support from our constituents now.'
p490
sbag1
(g10
g3
NtRp491
(dp492
g13
S'Say'
p493
sg15
S'Sponsor'
p494
sg16
S''
sg18
S"Makes sense to me! I'm off, too. Money, money, money."
p495
sbag1
(g10
g3
NtRp496
(dp497
g13
S'Destroy'
p498
sg15
S'Sponsor'
p499
sg16
S''
sg18
S''
sbasS'Hick'
p500
(lp501
g1
(g10
g3
NtRp502
(dp503
g13
S'Say'
p504
sg15
g500
sg16
S''
sg18
S''
sbasS'Mayor'
p505
(lp506
g1
(g10
g3
NtRp507
(dp508
g13
S'Say'
p509
sg15
g505
sg16
S''
sg18
S"Hello, I'm the Mayor!"
p510
sbag1
(g10
g3
NtRp511
(dp512
g13
S'PlayerSay'
p513
sg15
S'Mayor'
p514
sg16
S''
sg18
S"Hello, Mayor Goodman, I'm Philip Mossman."
p515
sbag1
(g10
g3
NtRp516
(dp517
g13
S'Say'
p518
sg15
S'Mayor'
p519
sg16
S''
sg18
S"Ah yes, you're my new assistant. A good thing, too."
p520
sbag1
(g10
g3
NtRp521
(dp522
g13
S'Say'
p523
sg15
S'Mayor'
p524
sg16
S''
sg18
S"I've been searching for minutes and haven't been able to find my pen! I bet my receptionist stole it. She has sticky fingers."
p525
sbag1
(g10
g3
NtRp526
(dp527
g13
S'Say'
p528
sg15
S'Mayor'
p529
sg16
S''
sg18
S"Well, don't just stand there, go and get it!"
p530
sbag1
(g10
g3
NtRp531
(dp532
g13
S'SetFlag'
p533
sg15
S'Mayor'
p534
sg16
S'PENQUEST'
p535
sg18
S''
sbag1
(g10
g3
NtRp536
(dp537
g13
S'RequireItem'
p538
sg15
S'Mayor'
p539
sg16
S'PEN'
p540
sg18
S'Are you simple? Go and get my pen from that thieving receptionist.'
p541
sbag1
(g10
g3
NtRp542
(dp543
g13
S'Say'
p544
sg15
S'Mayor'
p545
sg16
S''
sg18
S"Great! I know she can give you a bit of a tongue-lashing, but she's a fantastic receptionist."
p546
sbag1
(g10
g3
NtRp547
(dp548
g13
S'Say'
p549
sg15
S'Mayor'
p550
sg16
S''
sg18
S"I'm sure you want to learn a thing or two about politics \xe2\x80\x93 who doesn't? - so lets get started"
p551
sbag1
(g10
g3
NtRp552
(dp553
g13
S'SetFlag'
p554
sg15
S'Mayor'
p555
sg16
S'PROTESTORS'
p556
sg18
S''
sbag1
(g10
g3
NtRp557
(dp558
g13
S'RequireFlag'
p559
sg15
S'Mayor'
p560
sg16
S'PROTESTORSDEAD'
p561
sg18
S'Run outside and tell those protesters to scram, will you?'
p562
sbag1
(g10
g3
NtRp563
(dp564
g13
S'Say'
p565
sg15
S'Mayor'
p566
sg16
S''
sg18
S"Hope they didn't give you too much trouble!"
p567
sbag1
(g10
g3
NtRp568
(dp569
g13
S'Say'
p570
sg15
S'Mayor'
p571
sg16
S''
sg18
S"Now that's sorted, there's a journalist from the local newspaper coming for an interview."
p572
sbag1
(g10
g3
NtRp573
(dp574
g13
S'Say'
p575
sg15
S'Mayor'
p576
sg16
S''
sg18
S"I certainly don't have time for it, so you can do the interview."
p577
sbag1
(g10
g3
NtRp578
(dp579
g13
S'Say'
p580
sg15
S'Mayor'
p581
sg16
S''
sg18
S"Be careful not to give too much away and if you could throw a few punches at the opposition that'd help."
p582
sbag1
(g10
g3
NtRp583
(dp584
g13
S'PlayerSay'
p585
sg15
S'Mayor'
p586
sg16
S''
sg18
S'You want me to...throw a punch?'
p587
sbag1
(g10
g3
NtRp588
(dp589
g13
S'Say'
p590
sg15
S'Mayor'
p591
sg16
S''
sg18
S"You're in politics and don't know how to fight dirty? Sheesh! Here, let me show you."
p592
sbag1
(g10
g3
NtRp593
(dp594
g13
S'LearnAttack'
p595
sg15
S'Mayor'
p596
sg16
S'SLANDER'
p597
sg18
S'Mayor teaches Phillip to Slander Opposition'
p598
sbag1
(g10
g3
NtRp599
(dp600
g13
S'Say'
p601
sg15
S'Mayor'
p602
sg16
S''
sg18
S"It's a pretty great tactic because it keeps eating away at them long after you've done it."
p603
sbag1
(g10
g3
NtRp604
(dp605
g13
S'SetFlag'
p606
sg15
S'Mayor'
p607
sg16
S'INTERVIEWSTART'
p608
sg18
S''
sbag1
(g10
g3
NtRp609
(dp610
g13
S'RequireFlag'
p611
sg15
S'Mayor'
p612
sg16
S'JOURNALISTINTERVIEW'
p613
sg18
S'Go handle that interview and remember to slander the opposition.'
p614
sbag1
(g10
g3
NtRp615
(dp616
g13
S'SetFlag'
p617
sg15
S'Mayor'
p618
sg16
S'GOHOMETOWIFE'
p619
sg18
S''
sbag1
(g10
g3
NtRp620
(dp621
g13
S'Say'
p622
sg15
S'Mayor'
p623
sg16
S''
sg18
S'OK, fine, now could you buzz off for a while? I need to get some work done.'
p624
sbag1
(g10
g3
NtRp625
(dp626
g13
S'RequireFlag'
p627
sg15
S'Mayor'
p628
sg16
S'CONSTITUENTSWON'
p629
sg18
S"Go home to your family. I have things to do that don't involve you."
p630
sbag1
(g10
g3
NtRp631
(dp632
g13
S'Say'
p633
sg15
S'Mayor'
p634
sg16
S''
sg18
S"What's this I hear about you campaigning for Mayor? After everything I've taught you!"
p635
sbag1
(g10
g3
NtRp636
(dp637
g13
S'PlayerSay'
p638
sg15
S'Mayor'
p639
sg16
S''
sg18
S"I'm sorry Mayor Goodman, but it's time for someone who's ready to make a difference for our town."
p640
sbag1
(g10
g3
NtRp641
(dp642
g13
S'Say'
p643
sg15
S'Mayor'
p644
sg16
S''
sg18
S"You really are a fool. Do you think He's going to allow that?"
p645
sbag1
(g10
g3
NtRp646
(dp647
g13
S'Encounter'
p648
sg15
S'Mayor'
p649
sg16
S'P-easy-10'
p650
sg18
S''
sbag1
(g10
g3
NtRp651
(dp652
g13
S'Say'
p653
sg15
S'Mayor'
p654
sg16
S''
sg18
S"Well, you've beaten me but you don't have a clue what you're in for. I hope you're up to this kid!"
p655
sbag1
(g10
g3
NtRp656
(dp657
g13
S'Destroy'
p658
sg15
S'Mayor'
p659
sg16
S''
sg18
S''
sbasS'Governor'
p660
(lp661
g1
(g10
g3
NtRp662
(dp663
g13
S'RequireFlag'
p664
sg15
g660
sg16
S'GOVPOLITICIANSFIRST'
p665
sg18
S"I'm very busy. Please speak to the others."
p666
sbag1
(g10
g3
NtRp667
(dp668
g13
S'Say'
p669
sg15
S'Governor'
p670
sg16
S''
sg18
S'You have quite a way with words, Mayor Mossman. Why are you here?'
p671
sbag1
(g10
g3
NtRp672
(dp673
g13
S'PlayerSay'
p674
sg15
S'Governor'
p675
sg16
S''
sg18
S"Mayor Goodman said some troubling things, Governor Badden. I'm here to get to the bottom of it."
p676
sbag1
(g10
g3
NtRp677
(dp678
g13
S'Say'
p679
sg15
S'Governor'
p680
sg16
S''
sg18
S"If I knew anything about what you're talking about, I wouldn't tell you. I don't trust you at all."
p681
sbag1
(g10
g3
NtRp682
(dp683
g13
S'PlayerSay'
p684
sg15
S'Governor'
p685
sg16
S''
sg18
S'What can I do to convince you?'
p686
sbag1
(g10
g3
NtRp687
(dp688
g13
S'Say'
p689
sg15
S'Governor'
p690
sg16
S''
sg18
S"Well...there's some hicks in the south wing that I've been dodging. They want to know about the recent funding cuts. Get rid of them."
p691
sbag1
(g10
g3
NtRp692
(dp693
g13
S'RequireFlag'
p694
sg15
S'Governor'
p695
sg16
S'DEALWITHHICKS'
p696
sg18
S"I'm not saying another word until you get rid of the hicks in the south wing."
p697
sbasS'Receptionist'
p698
(lp699
g1
(g10
g3
NtRp700
(dp701
g13
S'RequireFlag'
p702
sg15
g698
sg16
S'PENQUEST'
p703
sg18
S"You must be Mayor Goodman's new assistant. He's in his office."
p704
sbag1
(g10
g3
NtRp705
(dp706
g13
S'PlayerSay'
p707
sg15
S'Receptionist'
p708
sg16
S''
sg18
S"The Mayor is looking for his pen. He seemed to think you'd know where it was."
p709
sbag1
(g10
g3
NtRp710
(dp711
g13
S'Say'
p712
sg15
S'Receptionist'
p713
sg16
S''
sg18
S"Did that buffoon accuse me of stealing again? This is MY pen and he isn't having it."
p714
sbag1
(g10
g3
NtRp715
(dp716
g13
S'Encounter'
p717
sg15
S'Receptionist'
p718
sg16
S'P-easy-01'
p719
sg18
S''
sbag1
(g10
g3
NtRp720
(dp721
g13
S'GiveItem'
p722
sg15
S'Receptionist'
p723
sg16
S'PEN'
p724
sg18
S'Receptionist sighs and hands over the pen.'
p725
sbag1
(g10
g3
NtRp726
(dp727
g13
S'Destroy'
p728
sg15
S'Receptionist'
p729
sg16
S''
sg18
S''
sbassS'attacks'
p730
(dp731
S'GETEXCLUSIVE'
p732
g1
(g10
g3
NtRp733
(dp734
S'base_damage_max'
p735
F4
sS'description'
p736
S'asdf'
p737
sS'weight'
p738
I1
sS'crit_chance_max'
p739
F5
sS'crit_chance_min'
p740
F2
sS'underlying_stat'
p741
S'Wit'
p742
sS'target_type'
p743
S'AllFriendly'
p744
sS'base_damage_min'
p745
F2
sS'spin_cost'
p746
F5
sS'effects'
p747
(lp748
g1
(c__main__
Effect
p749
g3
NtRp750
(dp751
S'function'
p752
S'add'
p753
sS'abbrv'
p754
S'(INCREASE)'
p755
sS'attribute'
p756
S'cunning'
p757
sS'value'
p758
F2
sS'rounds_min'
p759
F1
sS'rounds_max'
p760
F4
sS'id'
p761
S'Increase Cunning'
p762
sS'apply_to_source'
p763
S'TRUE'
p764
sbasS'target_count'
p765
I1
sS'crit_base_damage'
p766
F8
sg761
g732
sS'name'
p767
S'Get Exclusive'
p768
sbsS'LOSELOSE'
p769
g1
(g10
g3
NtRp770
(dp771
g735
F4
sg736
S'Causes all politicians in the target radius to lose votes'
p772
sg738
I1
sg739
F0
sg740
F0
sg741
S'Cunning'
p773
sg743
S'All'
p774
sg745
F4
sg746
I0
sg747
(lp775
sg765
I6
sg766
F0
sg761
g769
sg767
S'Lose/lose issue'
p776
sbsS'LIE'
p777
g1
(g10
g3
NtRp778
(dp779
g735
F6
sg736
S"It's only lying if they catch you. A strong attack with a danger of failing entirely and leaving you high and dry."
p780
sg738
F3
sg739
F10
sg740
F2
sg741
S'Wit'
p781
sg743
S'AllEnemy'
p782
sg745
F0
sg746
I0
sg747
(lp783
g1
(g749
g3
NtRp784
(dp785
g752
S'miss_turn'
p786
sg754
S'(MISS)'
p787
sg756
S''
sg758
F0
sg759
F1
sg760
F1
sg761
S'Critical Fail'
p788
sg763
S'TRUE'
p789
sbasg765
I1
sg766
F10
sg761
g777
sg767
S'Lie'
p790
sbsS'HILARIOUSANECDOTE'
p791
g1
(g10
g3
NtRp792
(dp793
g735
F8
sg736
S'asdf'
p794
sg738
I1
sg739
F0
sg740
F0
sg741
S'Wit'
p795
sg743
S'AllFriendly'
p796
sg745
F4
sg746
F5
sg747
(lp797
g1
(g749
g3
NtRp798
(dp799
g752
S'add'
p800
sg754
S'(INCREASE)'
p801
sg756
S'flair'
p802
sg758
F2
sg759
F1
sg760
F4
sg761
S'Increase Flair'
p803
sg763
S'TRUE'
p804
sbasg765
I1
sg766
F0
sg761
g791
sg767
S'Hilarious Anecdote'
p805
sbsS'SENSATIONALISE'
p806
g1
(g10
g3
NtRp807
(dp808
g735
F8
sg736
S'asdf'
p809
sg738
I1
sg739
F0
sg740
F0
sg741
S'Wit'
p810
sg743
S'AllEnemy'
p811
sg745
F4
sg746
F3
sg747
(lp812
sg765
I1
sg766
F0
sg761
g806
sg767
S'Sensationalise'
p813
sbsS'DENOUNCE'
p814
g1
(g10
g3
NtRp815
(dp816
g735
F5
sg736
S'asdf'
p817
sg738
F6
sg739
F10
sg740
F2
sg741
S'Cunning'
p818
sg743
S'AllEnemy'
p819
sg745
F2
sg746
I0
sg747
(lp820
sg765
I1
sg766
F8
sg761
g814
sg767
S'Denounce'
p821
sbsS'WHADOWEWANT'
p822
g1
(g10
g3
NtRp823
(dp824
g735
F6
sg736
S'asdf'
p825
sg738
I1
sg739
F0
sg740
F0
sg741
S'Cunning'
p826
sg743
S'AllEnemy'
p827
sg745
F3
sg746
I0
sg747
(lp828
sg765
I1
sg766
F0
sg761
g822
sg767
S'Whadowewant!'
p829
sbsS'SCOOP'
p830
g1
(g10
g3
NtRp831
(dp832
g735
F5
sg736
S'asdf'
p833
sg738
I1
sg739
F10
sg740
F5
sg741
S'Cunning'
p834
sg743
S'AllEnemy'
p835
sg745
F2
sg746
I0
sg747
(lp836
sg765
I1
sg766
F8
sg761
g830
sg767
S'Scoop'
p837
sbsS'CHOOSETARGETS'
p838
g1
(g10
g3
NtRp839
(dp840
g735
F7
sg736
S'asdf'
p841
sg738
I1
sg739
F10
sg740
F5
sg741
S'Cunning'
p842
sg743
S'AllEnemy'
p843
sg745
F2
sg746
I0
sg747
(lp844
sg765
I1
sg766
F9
sg761
g838
sg767
S'Choose Targets'
p845
sbsS'FILENAILS'
p846
g1
(g10
g3
NtRp847
(dp848
g735
F0
sg736
S'asdf'
p849
sg738
I1
sg739
F0
sg740
F0
sg741
S'Wit'
p850
sg743
S'AllEnemy'
p851
sg745
F0
sg746
F3
sg747
(lp852
g1
(g749
g3
NtRp853
(dp854
g752
S'add_permanent'
p855
sg754
S''
sg756
S'votes'
p856
sg758
F5
sg759
F1
sg760
F1
sg761
S'Votes Restore'
p857
sg763
S'TRUE'
p858
sbasg765
I1
sg766
F0
sg761
g846
sg767
S'File Nails'
p859
sbsS'BRIBE'
p860
g1
(g10
g3
NtRp861
(dp862
g735
F3
sg736
S'Is there anything more convincing than money? Buying loyalty gets expensive so be careful.'
p863
sg738
I1
sg739
F1
sg740
F1
sg741
S'Money'
p864
sg743
S'AllEnemy'
p865
sg745
F2
sg746
I0
sg747
(lp866
sg765
I1
sg766
F1
sg761
g860
sg767
S'Bribe'
p867
sbsS'SING'
p868
g1
(g10
g3
NtRp869
(dp870
g735
F-3
sg736
S'Why bandy words with politicians when you can sing a catchy tune! Restores votes.'
p871
sg738
I1
sg739
F0
sg740
F0
sg741
S'Wit'
p872
sg743
S'AllFriendly'
p873
sg745
F-5
sg746
I0
sg747
(lp874
sg765
I4
sg766
F0
sg761
g868
sg767
S'Rousing Song'
p875
sbsS'FEAR'
p876
g1
(g10
g3
NtRp877
(dp878
g735
F0
sg736
S'asdf'
p879
sg738
F2
sg739
F0
sg740
F0
sg741
S'Wit'
p880
sg743
S'AllFriendly'
p881
sg745
F0
sg746
F4
sg747
(lp882
g750
asg765
I1
sg766
F0
sg761
g876
sg767
S'Fear Change'
p883
sbsS'RAISEDEFCON'
p884
g1
(g10
g3
NtRp885
(dp886
g735
F5
sg736
S'asdf'
p887
sg738
I1
sg739
F7
sg740
F3
sg741
S'Cunning'
p888
sg743
S'AllEnemy'
p889
sg745
F4
sg746
I0
sg747
(lp890
sg765
I1
sg766
F8
sg761
g884
sg767
S'Raise DEFCON'
p891
sbsS'NEGATTACKAD'
p892
g1
(g10
g3
NtRp893
(dp894
g735
F8
sg736
S"Take them all down. They're definitely all bad people. Not like you."
p895
sg738
I1
sg739
F10
sg740
F10
sg741
S'Cunning'
p896
sg743
S'AllEnemy'
p897
sg745
F3
sg746
F5
sg747
(lp898
sg765
I1
sg766
F10
sg761
g892
sg767
S'Negative Attack Ad'
p899
sbsS'DAZZLE'
p900
g1
(g10
g3
NtRp901
(dp902
g735
F3
sg736
S'Being dazzling and admirable is a great way to take heat off politics'
p903
sg738
I1
sg739
F8
sg740
F5
sg741
S'Wit'
p904
sg743
S'AllEnemy'
p905
sg745
F2
sg746
F3
sg747
(lp906
g1
(g749
g3
NtRp907
(dp908
g752
S'reduce'
p909
sg754
S'(REDUCE)'
p910
sg756
S'cunning'
p911
sg758
F2
sg759
F2
sg760
F5
sg761
S'Reduce Cunning'
p912
sg763
S''
sbasg765
I4
sg766
F8
sg761
g900
sg767
S'Dazzle'
p913
sbsS'BELIEVEMEDIA'
p914
g1
(g10
g3
NtRp915
(dp916
g735
F3
sg736
S'asdf'
p917
sg738
I1
sg739
F15
sg740
F5
sg741
S'Cunning'
p918
sg743
S'AllEnemy'
p919
sg745
F1
sg746
I0
sg747
(lp920
sg765
I1
sg766
F12
sg761
g914
sg767
S'Believe Media'
p921
sbsS'PRPREP'
p922
g1
(g10
g3
NtRp923
(dp924
g735
F0
sg736
S"If you're going to need some spin, best see a spin doctor! Adds spin points."
p925
sg738
I1
sg739
F0
sg740
F0
sg741
S''
sg743
S'AllFriendly'
p926
sg745
F0
sg746
I0
sg747
(lp927
g1
(g749
g3
NtRp928
(dp929
g752
S'add_permanent'
p930
sg754
S''
sg756
S'spin'
p931
sg758
F5
sg759
F0
sg760
F0
sg761
S'Spin Restore'
p932
sg763
S'TRUE'
p933
sbasg765
I1
sg766
F0
sg761
g922
sg767
S'PR Prep'
p934
sbsS'CALLVATICAN'
p935
g1
(g10
g3
NtRp936
(dp937
g735
F0
sg736
S'Brings in 2 additional ReligousNuts at 2 levels lower than this one'
p938
sg738
I1
sg739
F0
sg740
F0
sg741
S'Wit'
p939
sg743
S'None'
p940
sg745
F0
sg746
F5
sg747
(lp941
g1
(g749
g3
NtRp942
(dp943
g752
S'call_friends'
p944
sg754
S''
sg756
S''
sg758
F2
sg759
F1
sg760
F1
sg761
S'Call Friends'
p945
sg763
S''
sbasg765
I1
sg766
F0
sg761
g935
sg767
S'Call Vatican'
p946
sbsS'BLACKMAIL'
p947
g1
(g10
g3
NtRp948
(dp949
g735
F6
sg736
S'asdf'
p950
sg738
I1
sg739
F10
sg740
F2
sg741
S'Wit'
p951
sg743
S'AllEnemy'
p952
sg745
F3
sg746
F4
sg747
(lp953
g1
(g749
g3
NtRp954
(dp955
g752
S'drain'
p956
sg754
S'(DRAIN)'
p957
sg756
S'votes'
p958
sg758
F1
sg759
F2
sg760
F5
sg761
S'Drain Votes'
p959
sg763
S''
sbasg765
I1
sg766
F2
sg761
g947
sg767
S'Blackmail'
p960
sbsS'RUNAD'
p961
g1
(g10
g3
NtRp962
(dp963
g735
F0
sg736
S'Gets back some votes by running an ad'
p964
sg738
I1
sg739
F0
sg740
F0
sg741
S''
sg743
S'AllFriendly'
p965
sg745
F0
sg746
I0
sg747
(lp966
g1
(g749
g3
NtRp967
(dp968
g752
S'add_permanent'
p969
sg754
S''
sg756
S'votes'
p970
sg758
F10
sg759
F1
sg760
F1
sg761
S'Votes Restore Ad'
p971
sg763
S'TRUE'
p972
sbasg765
I1
sg766
F0
sg761
g961
sg767
S'Run Advertisement'
p973
sbsS'PROTEST'
p974
g1
(g10
g3
NtRp975
(dp976
g735
F5
sg736
S'asdf'
p977
sg738
F6
sg739
F10
sg740
F2
sg741
S'Cunning'
p978
sg743
S'AllEnemy'
p979
sg745
F2
sg746
I0
sg747
(lp980
sg765
I1
sg766
F8
sg761
g974
sg767
S'Protest'
p981
sbsS'SPREADRUMOUR'
p982
g1
(g10
g3
NtRp983
(dp984
g735
F6
sg736
S'asdf'
p985
sg738
I1
sg739
F10
sg740
F2
sg741
S'Wit'
p986
sg743
S'AllEnemy'
p987
sg745
F2
sg746
F3
sg747
(lp988
sg765
I4
sg766
F8
sg761
g982
sg767
S'Spread Rumour'
p989
sbsS'AGENDA'
p990
g1
(g10
g3
NtRp991
(dp992
g735
F5
sg736
S'asdf'
p993
sg738
F6
sg739
F10
sg740
F2
sg741
S'Cunning'
p994
sg743
S'AllEnemy'
p995
sg745
F2
sg746
I0
sg747
(lp996
sg765
I1
sg766
F8
sg761
g990
sg767
S'Push Agenda'
p997
sbsS'FILIBUSTER'
p998
g1
(g10
g3
NtRp999
(dp1000
g735
F0
sg736
S"You're not moving until they give in. Cause all opposition to miss their turn"
p1001
sg738
I1
sg739
F0
sg740
F0
sg741
S'Wit'
p1002
sg743
S'AllEnemy'
p1003
sg745
F0
sg746
F8
sg747
(lp1004
g1
(g749
g3
NtRp1005
(dp1006
g752
S'miss_turn'
p1007
sg754
S'(MISS)'
p1008
sg756
S''
sg758
F0
sg759
F1
sg760
F1
sg761
S'Miss Turn'
p1009
sg763
S''
sbasg765
I1
sg766
F0
sg761
g998
sg767
S'Filibuster'
p1010
sbsS'GATHERINTEL'
p1011
g1
(g10
g3
NtRp1012
(dp1013
g735
F0
sg736
S'Increases Cunning.'
p1014
sg738
I1
sg739
F0
sg740
F0
sg741
S'Wit'
p1015
sg743
S'AllFriendly'
p1016
sg745
F0
sg746
F3
sg747
(lp1017
g750
asg765
I2
sg766
F0
sg761
g1011
sg767
S'Gather Intelligence'
p1018
sbsS'LOVE'
p1019
g1
(g10
g3
NtRp1020
(dp1021
g735
F6
sg736
S'asdf'
p1022
sg738
F2
sg739
F8
sg740
F2
sg741
S'Cunning'
p1023
sg743
S'AllEnemy'
p1024
sg745
F1
sg746
I0
sg747
(lp1025
sg765
I1
sg766
F7
sg761
g1019
sg767
S'Love'
p1026
sbsS'OUTOFCONTEXT'
p1027
g1
(g10
g3
NtRp1028
(dp1029
g735
F3
sg736
S'asdf'
p1030
sg738
I1
sg739
F5
sg740
F2
sg741
S'Wit'
p1031
sg743
S'AllEnemy'
p1032
sg745
F2
sg746
F2
sg747
(lp1033
g954
asg765
I1
sg766
F5
sg761
g1027
sg767
S'Take Out Of Context'
p1034
sbsS'GREATSUIT'
p1035
g1
(g10
g3
NtRp1036
(dp1037
g735
F6
sg736
S'Well, we could argue, but have you noticed how fabulous this suit is?'
p1038
sg738
I1
sg739
F11
sg740
F6
sg741
S'Cunning'
p1039
sg743
S'AllEnemy'
p1040
sg745
F3
sg746
I0
sg747
(lp1041
sg765
I1
sg766
F12
sg761
g1035
sg767
S'Look Great In Suit'
p1042
sbsS'PEACE'
p1043
g1
(g10
g3
NtRp1044
(dp1045
g735
F0
sg736
S'asdf'
p1046
sg738
I1
sg739
F0
sg740
F0
sg741
S'Wit'
p1047
sg743
S'AllEnemy'
p1048
sg745
F0
sg746
F3
sg747
(lp1049
g907
asg765
I4
sg766
F0
sg761
g1043
sg767
S'Peace'
p1050
sbsS'INSPSPEECH'
p1051
g1
(g10
g3
NtRp1052
(dp1053
g735
F-2
sg736
S'Restore votes to all party members'
p1054
sg738
I1
sg739
F0
sg740
F0
sg741
S'Cunning'
p1055
sg743
S'AllFriendly'
p1056
sg745
F-2
sg746
I0
sg747
(lp1057
sg765
I4
sg766
F0
sg761
g1051
sg767
S'Inspirational Speech'
p1058
sbsS'STRIKE'
p1059
g1
(g10
g3
NtRp1060
(dp1061
g735
F8
sg736
S'asdf'
p1062
sg738
I1
sg739
F0
sg740
F0
sg741
S'Wit'
p1063
sg743
S'AllEnemy'
p1064
sg745
F0
sg746
F3
sg747
(lp1065
g784
asg765
I1
sg766
F0
sg761
g1059
sg767
S'Call A Strike'
p1066
sbsS'SLANDER'
p1067
g1
(g10
g3
NtRp1068
(dp1069
g735
F3
sg736
S'Strong against polititians...careful with those voters, though!'
p1070
sg738
F4
sg739
F10
sg740
F2
sg741
S'Wit'
p1071
sg743
S'AllEnemy'
p1072
sg745
F2
sg746
I0
sg747
(lp1073
g954
asg765
I1
sg766
F5
sg761
g1067
sg767
S'Slander Opposition'
p1074
sbsS'NATTER'
p1075
g1
(g10
g3
NtRp1076
(dp1077
g735
F8
sg736
S'asdf'
p1078
sg738
I1
sg739
F15
sg740
F5
sg741
S'Cunning'
p1079
sg743
S'AllEnemy'
p1080
sg745
F1
sg746
I0
sg747
(lp1081
sg765
I1
sg766
F10
sg761
g1075
sg767
S'Natter On'
p1082
sbsS'GOSSIP'
p1083
g1
(g10
g3
NtRp1084
(dp1085
g735
F3
sg736
S'asdf'
p1086
sg738
I1
sg739
F10
sg740
F2
sg741
S'Wit'
p1087
sg743
S'AllEnemy'
p1088
sg745
F1
sg746
F2
sg747
(lp1089
g907
asg765
I1
sg766
F6
sg761
g1083
sg767
S'Gossip'
p1090
sbsS'MISSTURN'
p1091
g1
(g10
g3
NtRp1092
(dp1093
g735
F0
sg736
S'asdf'
p1094
sg738
I1
sg739
F0
sg740
F0
sg741
S''
sg743
S'AllEnemy'
p1095
sg745
F0
sg746
I0
sg747
(lp1096
sg765
I1
sg766
F0
sg761
g1091
sg767
S'Miss Turn'
p1097
sbsS'BIELECTION'
p1098
g1
(g10
g3
NtRp1099
(dp1100
g735
F4
sg736
S'Redistribute votes amongst targets'
p1101
sg738
I1
sg739
F0
sg740
F0
sg741
S'Cunning'
p1102
sg743
S'All'
p1103
sg745
F-4
sg746
F4
sg747
(lp1104
sg765
I8
sg766
F0
sg761
g1098
sg767
S'Bielection'
p1105
sbsS'SCARE'
p1106
g1
(g10
g3
NtRp1107
(dp1108
g735
F7
sg736
S'Nothing rattles the brains like fear.'
p1109
sg738
I1
sg739
F10
sg740
F2
sg741
S'Wit'
p1110
sg743
S'AllEnemy'
p1111
sg745
F2
sg746
I0
sg747
(lp1112
g907
asg765
I2
sg766
F9
sg761
g1106
sg767
S'Scare Campaign'
p1113
sbsS'PAYOFF'
p1114
g1
(g10
g3
NtRp1115
(dp1116
g735
F7
sg736
S'causes them to miss a number of turns'
p1117
sg738
I1
sg739
F8
sg740
F2
sg741
S'Wit'
p1118
sg743
S'AllEnemy'
p1119
sg745
F2
sg746
F4
sg747
(lp1120
g1
(g749
g3
NtRp1121
(dp1122
g752
S'miss_turn'
p1123
sg754
S'(MISS)'
p1124
sg756
S''
sg758
F0
sg759
F1
sg760
F3
sg761
S'Miss Turn Pay Off'
p1125
sg763
S''
sbasg765
I1
sg766
F9
sg761
g1114
sg767
S'Pay Off'
p1126
sbsS'BUREAUCRACY'
p1127
g1
(g10
g3
NtRp1128
(dp1129
g735
F5
sg736
S'asdf'
p1130
sg738
F6
sg739
F10
sg740
F2
sg741
S'Cunning'
p1131
sg743
S'AllEnemy'
p1132
sg745
F2
sg746
I0
sg747
(lp1133
sg765
I1
sg766
F8
sg761
g1127
sg767
S'Bureaucracy'
p1134
sbsS'RALLYAUDIENCE'
p1135
g1
(g10
g3
NtRp1136
(dp1137
g735
F8
sg736
S'asdf'
p1138
sg738
I1
sg739
F0
sg740
F0
sg741
S'Wit'
p1139
sg743
S'AllFriendly'
p1140
sg745
F4
sg746
F3
sg747
(lp1141
g1
(g749
g3
NtRp1142
(dp1143
g752
S'add'
p1144
sg754
S'(INCREASE)'
p1145
sg756
S'charisma'
p1146
sg758
F2
sg759
F1
sg760
F4
sg761
S'Increase Charisma'
p1147
sg763
S'TRUE'
p1148
sbasg765
I1
sg766
F0
sg761
g1135
sg767
S'Rally Audience'
p1149
sbsS'PORKBARREL'
p1150
g1
(g10
g3
NtRp1151
(dp1152
g735
F6
sg736
S'Do something that benefits them specifically. Not advised against politicians.'
p1153
sg738
I1
sg739
F0
sg740
F0
sg741
S'Wit'
p1154
sg743
S'AllEnemy'
p1155
sg745
F2
sg746
F2
sg747
(lp1156
sg765
I1
sg766
F0
sg761
g1150
sg767
S'Pork Barrel'
p1157
sbsS'INSPIRE'
p1158
g1
(g10
g3
NtRp1159
(dp1160
g735
F0
sg736
S'asdf'
p1161
sg738
I1
sg739
F0
sg740
F0
sg741
S'Wit'
p1162
sg743
S'AllFriendly'
p1163
sg745
F0
sg746
F3
sg747
(lp1164
g750
asg765
I4
sg766
F0
sg761
g1158
sg767
S'Inspire'
p1165
sbsS'JOKE'
p1166
g1
(g10
g3
NtRp1167
(dp1168
g735
F3
sg736
S"Ha, ha, ha...what were we talking about? Diffuse the situation with some humour. Not good if it falls flat, but if they get it, it'll knock 'em dead."
p1169
sg738
F3
sg739
F30
sg740
F10
sg741
S'Wit'
p1170
sg743
S'AllEnemy'
p1171
sg745
F2
sg746
I0
sg747
(lp1172
sg765
I1
sg766
F10
sg761
g1166
sg767
S'Joke'
p1173
sbsS'PRAYFORSOULS'
p1174
g1
(g10
g3
NtRp1175
(dp1176
g735
F6
sg736
S'asdf'
p1177
sg738
F2
sg739
F10
sg740
F2
sg741
S'Cunning'
p1178
sg743
S'None'
p1179
sg745
F3
sg746
I0
sg747
(lp1180
sg765
I1
sg766
F10
sg761
g1174
sg767
S'Pray'
p1181
sbsS'REVIVE'
p1182
g1
(g10
g3
NtRp1183
(dp1184
g735
F0
sg736
S'Revive a defeated comrade to half votes'
p1185
sg738
I1
sg739
F0
sg740
F0
sg741
S''
sg743
S'DeadFriendly'
p1186
sg745
F0
sg746
F3
sg747
(lp1187
g1
(g749
g3
NtRp1188
(dp1189
g752
S'revive'
p1190
sg754
S''
sg756
S''
sg758
F0.5
sg759
F0
sg760
F0
sg761
S'Revive'
p1191
sg763
S''
sbasg765
I1
sg766
F0
sg761
g1182
sg767
S'Revive'
p1192
sbsS'HUMANSHIELD'
p1193
g1
(g10
g3
NtRp1194
(dp1195
g735
F5
sg736
S'No further questions. Step back, please.'
p1196
sg738
I1
sg739
F5
sg740
F2
sg741
S'Wit'
p1197
sg743
S'AllEnemy'
p1198
sg745
F2
sg746
F4
sg747
(lp1199
g1005
asg765
I2
sg766
F12
sg761
g1193
sg767
S'Human Shield'
p1200
sbsS'MAKEDEMANDS'
p1201
g1
(g10
g3
NtRp1202
(dp1203
g735
F8
sg736
S'asdf'
p1204
sg738
I1
sg739
F0
sg740
F0
sg741
S'Cunning'
p1205
sg743
S'AllEnemy'
p1206
sg745
F0
sg746
I0
sg747
(lp1207
g784
asg765
I1
sg766
F0
sg761
g1201
sg767
S'Make Outrageous Demands'
p1208
sbsS'DEFENSE'
p1209
g1
(g10
g3
NtRp1210
(dp1211
g735
F0
sg736
S'Gather strenth; -50% to all incoming attacks'
p1212
sg738
I1
sg739
F0
sg740
F0
sg741
S''
sg743
S'None'
p1213
sg745
F0
sg746
I0
sg747
(lp1214
g1
(g749
g3
NtRp1215
(dp1216
g752
S'add'
p1217
sg754
S'(DFND)'
p1218
sg756
S'resistance'
p1219
sg758
F0.5
sg759
F1
sg760
F1
sg761
S'Defense'
p1220
sg763
S'TRUE'
p1221
sbasg765
I1
sg766
F0
sg761
g1209
sg767
S'Defense'
p1222
sbsS'MISCONSTRUE'
p1223
g1
(g10
g3
NtRp1224
(dp1225
g735
F8
sg736
S'asdf'
p1226
sg738
I1
sg739
F0
sg740
F0
sg741
S'Cunning'
p1227
sg743
S'AllEnemy'
p1228
sg745
F0
sg746
I0
sg747
(lp1229
g784
asg765
I1
sg766
F0
sg761
g1223
sg767
S'Misconstrue'
p1230
sbsS'NATIONALSECURITY'
p1231
g1
(g10
g3
NtRp1232
(dp1233
g735
F7
sg736
S"This is a matter of national security and they don't have codeword clearance"
p1234
sg738
I1
sg739
F10
sg740
F2
sg741
S'Cunning'
p1235
sg743
S'AllEnemy'
p1236
sg745
F2
sg746
I0
sg747
(lp1237
sg765
I1
sg766
F9
sg761
g1231
sg767
S'National Security'
p1238
sbsS'RALLY'
p1239
g1
(g10
g3
NtRp1240
(dp1241
g735
F-2
sg736
S'Get back some votes by rallying supporters'
p1242
sg738
I1
sg739
F0
sg740
F0
sg741
S'Wit'
p1243
sg743
S'AllFriendly'
p1244
sg745
F-4
sg746
F2
sg747
(lp1245
sg765
I1
sg766
F0
sg761
g1239
sg767
S'Rally Constituents'
p1246
sbsS'MESSAGE'
p1247
g1
(g10
g3
NtRp1248
(dp1249
g735
F5
sg736
S'You can certainly wear them down by repeating your party line over and over and over...if you want'
p1250
sg738
F6
sg739
F10
sg740
F2
sg741
S'Wit'
p1251
sg743
S'AllEnemy'
p1252
sg745
F2
sg746
I0
sg747
(lp1253
sg765
I1
sg766
F8
sg761
g1247
sg767
S'Stay On Message'
p1254
sbsS'APPEALTOGOD'
p1255
g1
(g10
g3
NtRp1256
(dp1257
g735
F6
sg736
S'asdf'
p1258
sg738
F3
sg739
F0
sg740
F0
sg741
S'Wit'
p1259
sg743
S'AllEnemy'
p1260
sg745
F4
sg746
F7
sg747
(lp1261
sg765
I4
sg766
F0
sg761
g1255
sg767
S'Appeal To God'
p1262
sbssS'levels'
p1263
(lp1264
g1
(g10
g3
NtRp1265
(dp1266
S'votes'
p1267
F10
sS'level'
p1268
F1
sS'spin'
p1269
F5
sS'xp'
p1270
F0
sS'skill_points'
p1271
F0
sbag1
(g10
g3
NtRp1272
(dp1273
g1267
F12
sg1268
F2
sg1269
F5
sg1270
F100
sg1271
F2
sbag1
(g10
g3
NtRp1274
(dp1275
g1267
F15
sg1268
F3
sg1269
F6
sg1270
F200
sg1271
F2
sbag1
(g10
g3
NtRp1276
(dp1277
g1267
F20
sg1268
F4
sg1269
F6
sg1270
F500
sg1271
F2
sbag1
(g10
g3
NtRp1278
(dp1279
g1267
F25
sg1268
F5
sg1269
F7
sg1270
F1000
sg1271
F2
sbag1
(g10
g3
NtRp1280
(dp1281
g1267
F30
sg1268
F6
sg1269
F7
sg1270
F2000
sg1271
F2
sbag1
(g10
g3
NtRp1282
(dp1283
g1267
F35
sg1268
F7
sg1269
F8
sg1270
F5000
sg1271
F2
sbag1
(g10
g3
NtRp1284
(dp1285
g1267
F40
sg1268
F8
sg1269
F8
sg1270
F10000
sg1271
F2
sbag1
(g10
g3
NtRp1286
(dp1287
g1267
F45
sg1268
F9
sg1269
F9
sg1270
F15000
sg1271
F2
sbag1
(g10
g3
NtRp1288
(dp1289
g1267
F50
sg1268
F10
sg1269
F9
sg1270
F20000
sg1271
F2
sbag1
(g10
g3
NtRp1290
(dp1291
g1267
F55
sg1268
F11
sg1269
F10
sg1270
F40000
sg1271
F2
sbag1
(g10
g3
NtRp1292
(dp1293
g1267
S''
sg1268
F12
sg1269
S''
sg1270
S''
sg1271
S''
sbag1
(g10
g3
NtRp1294
(dp1295
g1267
S''
sg1268
F13
sg1269
S''
sg1270
S''
sg1271
S''
sbag1
(g10
g3
NtRp1296
(dp1297
g1267
S''
sg1268
F14
sg1269
S''
sg1270
S''
sg1271
S''
sbag1
(g10
g3
NtRp1298
(dp1299
g1267
S''
sg1268
F15
sg1269
S''
sg1270
S''
sg1271
S''
sbag1
(g10
g3
NtRp1300
(dp1301
g1267
S''
sg1268
F16
sg1269
S''
sg1270
S''
sg1271
S''
sbag1
(g10
g3
NtRp1302
(dp1303
g1267
S''
sg1268
F17
sg1269
S''
sg1270
S''
sg1271
S''
sbag1
(g10
g3
NtRp1304
(dp1305
g1267
S''
sg1268
F18
sg1269
S''
sg1270
S''
sg1271
S''
sbag1
(g10
g3
NtRp1306
(dp1307
g1267
S''
sg1268
F19
sg1269
S''
sg1270
S''
sg1271
S''
sbag1
(g10
g3
NtRp1308
(dp1309
g1267
S''
sg1268
F20
sg1269
S''
sg1270
S''
sg1271
S''
sbag1
(g10
g3
NtRp1310
(dp1311
g1267
S''
sg1268
F21
sg1269
S''
sg1270
S''
sg1271
S''
sbag1
(g10
g3
NtRp1312
(dp1313
g1267
S''
sg1268
F22
sg1269
S''
sg1270
S''
sg1271
S''
sbag1
(g10
g3
NtRp1314
(dp1315
g1267
S''
sg1268
F23
sg1269
S''
sg1270
S''
sg1271
S''
sbag1
(g10
g3
NtRp1316
(dp1317
g1267
S''
sg1268
F24
sg1269
S''
sg1270
S''
sg1271
S''
sbag1
(g10
g3
NtRp1318
(dp1319
g1267
S''
sg1268
F25
sg1269
S''
sg1270
S''
sg1271
S''
sbag1
(g10
g3
NtRp1320
(dp1321
g1267
S''
sg1268
F26
sg1269
S''
sg1270
S''
sg1271
S''
sbag1
(g10
g3
NtRp1322
(dp1323
g1267
S''
sg1268
F27
sg1269
S''
sg1270
S''
sg1271
S''
sbag1
(g10
g3
NtRp1324
(dp1325
g1267
S''
sg1268
F28
sg1269
S''
sg1270
S''
sg1271
S''
sbag1
(g10
g3
NtRp1326
(dp1327
g1267
S''
sg1268
F29
sg1269
S''
sg1270
S''
sg1271
S''
sbasg747
(dp1328
g762
g750
sg857
g853
sg932
g928
sg1147
g1142
sg1009
g1005
sg945
g942
sg971
g967
sg1125
g1121
sg1191
g1188
sg912
g907
sg959
g954
sg1220
g1215
sg788
g784
sg803
g798
ssS'characters'
p1329
(dp1330
S'Teacher001'
p1331
(lp1332
g1
(g10
g3
NtRp1333
(dp1334
S'flair_base'
p1335
F1
sS'spin_base'
p1336
F4
sS'flair_lvl'
p1337
F1.1499999999999999
sS'wit_base'
p1338
F1
sS'resistance'
p1339
(lp1340
sS'wit_lvl'
p1341
F1.0900000000000001
sS'cunning_base'
p1342
F1
sg761
g1331
sS'votes_base'
p1343
F10
sS'speed_lvl'
p1344
F1.0800000000000001
sS'standard_attacks'
p1345
(lp1346
g1210
ag975
asS'cunning_lvl'
p1347
F1.1000000000000001
sS'charisma_lvl'
p1348
F1.1499999999999999
sS'spin_attacks'
p1349
(lp1350
g1060
ag1240
asS'spin_lvl'
p1351
F1.0800000000000001
sS'charisma_base'
p1352
F1
sS'weaknesses'
p1353
(lp1354
sS'attack_group'
p1355
S'Teacher'
p1356
sS'votes_lvl'
p1357
F1.2
sg767
S'Teacher'
p1358
sS'speed_base'
p1359
F1
sS'immunities'
p1360
(lp1361
sbasS'Politician001'
p1362
(lp1363
g1
(g10
g3
NtRp1364
(dp1365
g1335
F1
sg1336
F4
sg1337
F1.1499999999999999
sg1338
F1
sg1339
(lp1366
g778
asg1341
F1.0900000000000001
sg1342
F1
sg761
g1362
sg1343
F10
sg1344
F1.0800000000000001
sg1345
(lp1367
g1248
ag1068
ag778
ag1167
ag1210
asg1347
F1.1000000000000001
sg1348
F1.1499999999999999
sg1349
(lp1368
g1099
ag893
ag1183
asg1351
F1.0800000000000001
sg1352
F1
sg1353
(lp1369
g861
asg1355
S'Politician'
p1370
sg1357
F1.2
sg767
S'Politician'
p1371
sg1359
F1
sg1360
(lp1372
g1151
asbasS'SecretAgent'
p1373
(lp1374
g1
(g10
g3
NtRp1375
(dp1376
g1335
F1
sg1336
F4
sg1337
F1.1499999999999999
sg1338
F1
sg1339
(lp1377
sg1341
F1.0900000000000001
sg1342
F1
sg761
g1373
sg1343
F18
sg1344
F1.0800000000000001
sg1345
(lp1378
g1210
ag1232
ag1036
asg1347
F1.1000000000000001
sg1348
F1.1499999999999999
sg1349
(lp1379
g1194
ag1012
asg1351
F1.0800000000000001
sg1352
F1
sg1353
(lp1380
sg1355
S'SecretAgent'
p1381
sg1357
F1.2
sg767
S'Agent Kawalski'
p1382
sg1359
F1
sg1360
(lp1383
sbasS'Bumpkin001'
p1384
(lp1385
g1
(g10
g3
NtRp1386
(dp1387
g1335
F1
sg1336
F4
sg1337
F1.1499999999999999
sg1338
F1
sg1339
(lp1388
sg1341
F1.0900000000000001
sg1342
F1
sg761
g1384
sg1343
F10
sg1344
F1.0800000000000001
sg1345
(lp1389
g1167
ag915
asg1347
F1.1000000000000001
sg1348
F1.1499999999999999
sg1349
(lp1390
g877
ag983
asg1351
F1.0800000000000001
sg1352
F1
sg1353
(lp1391
g778
ag1068
ag1107
asg1355
S'Bumpkin'
p1392
sg1357
F1.2
sg767
S'Bumpkin'
p1393
sg1359
F1
sg1360
(lp1394
sbasS'WarVet001'
p1395
(lp1396
g1
(g10
g3
NtRp1397
(dp1398
g1335
F1
sg1336
F4
sg1337
F1.1499999999999999
sg1338
F1
sg1339
(lp1399
sg1341
F1.0900000000000001
sg1342
F1
sg761
g1395
sg1343
F10
sg1344
F1.0800000000000001
sg1345
(lp1400
g1202
ag1210
asg1347
F1.1000000000000001
sg1348
F1.1499999999999999
sg1349
(lp1401
g1159
ag1240
asg1351
F1.0800000000000001
sg1352
F1
sg1353
(lp1402
sg1355
S'WarVet'
p1403
sg1357
F1.2
sg767
S'War Veteran'
p1404
sg1359
F1
sg1360
(lp1405
sbasS'Receptionist001'
p1406
(lp1407
g1
(g10
g3
NtRp1408
(dp1409
g1335
F1
sg1336
F4
sg1337
F1.1499999999999999
sg1338
F1
sg1339
(lp1410
sg1341
F1.0900000000000001
sg1342
F1
sg761
g1406
sg1343
F10
sg1344
F1.0800000000000001
sg1345
(lp1411
g1128
ag1076
asg1347
F1.1000000000000001
sg1348
F1.1499999999999999
sg1349
(lp1412
g1084
ag847
asg1351
F1.0800000000000001
sg1352
F1
sg1353
(lp1413
sg1355
S'Receptionist'
p1414
sg1357
F1.2
sg767
S'Receptionist'
p1415
sg1359
F1
sg1360
(lp1416
sbasS'DeepThroat'
p1417
(lp1418
g1
(g10
g3
NtRp1419
(dp1420
g1335
F1
sg1336
F4
sg1337
F1.1499999999999999
sg1338
F1
sg1339
(lp1421
sg1341
F1.0900000000000001
sg1342
F1
sg761
g1417
sg1343
F10
sg1344
F1.0800000000000001
sg1345
(lp1422
g1068
ag1210
ag1202
asg1347
F1.1000000000000001
sg1348
F1.1499999999999999
sg1349
(lp1423
g948
asg1351
F1.0800000000000001
sg1352
F1
sg1353
(lp1424
sg1355
S'DeepThroat'
p1425
sg1357
F1.2
sg767
S'Deep Throat'
p1426
sg1359
F1
sg1360
(lp1427
sbasS'Leo'
p1428
(lp1429
g1
(g10
g3
NtRp1430
(dp1431
g1335
F1
sg1336
F4
sg1337
F1.1499999999999999
sg1338
F1
sg1339
(lp1432
sg1341
F1.0900000000000001
sg1342
F1
sg761
g1428
sg1343
F14
sg1344
F1.0800000000000001
sg1345
(lp1433
g1248
ag1068
ag778
ag1167
ag861
asg1347
F1.1000000000000001
sg1348
F1.1499999999999999
sg1349
(lp1434
g1099
ag893
ag1151
ag999
asg1351
F1.0800000000000001
sg1352
F1
sg1353
(lp1435
sg1355
S'Theo'
p1436
sg1357
F1.2
sg767
S'Theo'
p1437
sg1359
F1
sg1360
(lp1438
sbasS'HippyGirl001'
p1439
(lp1440
g1
(g10
g3
NtRp1441
(dp1442
g1335
F1
sg1336
F4
sg1337
F1.1499999999999999
sg1338
F1
sg1339
(lp1443
sg1341
F1.0900000000000001
sg1342
F1
sg761
g1439
sg1343
F10
sg1344
F1.0800000000000001
sg1345
(lp1444
g869
ag975
ag1020
asg1347
F1.1000000000000001
sg1348
F1.1499999999999999
sg1349
(lp1445
g1044
ag1240
ag1183
asg1351
F1.0800000000000001
sg1352
F1
sg1353
(lp1446
g1167
asg1355
S'Hippy'
p1447
sg1357
F1.2
sg767
S'Hippy Girl'
p1448
sg1359
F1
sg1360
(lp1449
sbasS'President'
p1450
(lp1451
g1
(g10
g3
NtRp1452
(dp1453
g1335
F1
sg1336
F4
sg1337
F1.1499999999999999
sg1338
F1
sg1339
(lp1454
sg1341
F1.0900000000000001
sg1342
F1
sg761
g1450
sg1343
F10
sg1344
F1.0800000000000001
sg1345
(lp1455
g1248
ag1068
ag778
ag1167
ag1210
asg1347
F1.1000000000000001
sg1348
F1.1499999999999999
sg1349
(lp1456
g1099
ag893
ag1183
asg1351
F1.0800000000000001
sg1352
F1
sg1353
(lp1457
sg1355
S'Politician'
p1458
sg1357
F1.2
sg767
S'President Allen'
p1459
sg1359
F1
sg1360
(lp1460
sbasS'Unionist001'
p1461
(lp1462
g1
(g10
g3
NtRp1463
(dp1464
g1335
F1
sg1336
F4
sg1337
F1.1499999999999999
sg1338
F1
sg1339
(lp1465
sg1341
F1.0900000000000001
sg1342
F1
sg761
g1461
sg1343
F10
sg1344
F1.0800000000000001
sg1345
(lp1466
g1202
ag1210
ag975
asg1347
F1.1000000000000001
sg1348
F1.1499999999999999
sg1349
(lp1467
g1060
asg1351
F1.0800000000000001
sg1352
F1
sg1353
(lp1468
sg1355
S'Unionist'
p1469
sg1357
F1.2
sg767
S'Unionist'
p1470
sg1359
F1
sg1360
(lp1471
sbasS'Wife'
p1472
(lp1473
g1
(g10
g3
NtRp1474
(dp1475
g1335
F1
sg1336
F4
sg1337
F1.1499999999999999
sg1338
F1
sg1339
(lp1476
sg1341
F1.0900000000000001
sg1342
F1
sg761
g1472
sg1343
F12
sg1344
F1.0800000000000001
sg1345
(lp1477
g1210
ag1248
asg1347
F1.1000000000000001
sg1348
F1.1499999999999999
sg1349
(lp1478
g1240
ag1183
ag901
asg1351
F1.0800000000000001
sg1352
F1
sg1353
(lp1479
sg1355
S'Wife'
p1480
sg1357
F1.2
sg767
S'Sarah Mossman'
p1481
sg1359
F1
sg1360
(lp1482
sbasS'PresidentAlien'
p1483
(lp1484
g1
(g10
g3
NtRp1485
(dp1486
g1335
F1
sg1336
F4
sg1337
F1.1499999999999999
sg1338
F1
sg1339
(lp1487
sg1341
F1.0900000000000001
sg1342
F1
sg761
g1483
sg1343
F10
sg1344
F1.0800000000000001
sg1345
(lp1488
g1248
ag1068
ag778
ag1167
ag1210
asg1347
F1.1000000000000001
sg1348
F1.1499999999999999
sg1349
(lp1489
g1099
ag893
ag1183
asg1351
F1.0800000000000001
sg1352
F1
sg1353
(lp1490
sg1355
S'Politician'
p1491
sg1357
F1.2
sg767
S'President Alien'
p1492
sg1359
F1
sg1360
(lp1493
sbasS'Governor'
p1494
(lp1495
g1
(g10
g3
NtRp1496
(dp1497
g1335
F1
sg1336
F4
sg1337
F1.1499999999999999
sg1338
F1
sg1339
(lp1498
sg1341
F1.0900000000000001
sg1342
F1
sg761
g1494
sg1343
F10
sg1344
F1.0800000000000001
sg1345
(lp1499
g1248
ag1068
ag778
ag1167
ag1210
asg1347
F1.1000000000000001
sg1348
F1.1499999999999999
sg1349
(lp1500
g1099
ag893
ag1183
asg1351
F1.0800000000000001
sg1352
F1
sg1353
(lp1501
sg1355
S'Politician'
p1502
sg1357
F1.2
sg767
g1494
sg1359
F1
sg1360
(lp1503
sbasS'Lobbyist001'
p1504
(lp1505
g1
(g10
g3
NtRp1506
(dp1507
g1335
F1
sg1336
F4
sg1337
F1.1499999999999999
sg1338
F1
sg1339
(lp1508
sg1341
F1.0900000000000001
sg1342
F1
sg761
g1504
sg1343
F10
sg1344
F1.0800000000000001
sg1345
(lp1509
g991
ag1202
asg1347
F1.1000000000000001
sg1348
F1.1499999999999999
sg1349
(lp1510
g1115
ag948
asg1351
F1.0800000000000001
sg1352
F1
sg1353
(lp1511
g1151
asg1355
S'Lobbyist'
p1512
sg1357
F1.2
sg767
S'Lobbyist'
p1513
sg1359
F1
sg1360
(lp1514
g861
asbasS'Journalist001'
p1515
(lp1516
g1
(g10
g3
NtRp1517
(dp1518
g1335
F1
sg1336
F4
sg1337
F1.1499999999999999
sg1338
F1
sg1339
(lp1519
sg1341
F1.0900000000000001
sg1342
F1
sg761
g1515
sg1343
F10
sg1344
F1.0800000000000001
sg1345
(lp1520
g831
ag1224
asg1347
F1.1000000000000001
sg1348
F1.1499999999999999
sg1349
(lp1521
g1028
ag733
ag807
asg1351
F1.0800000000000001
sg1352
F1
sg1353
(lp1522
sg1355
S'Journalist'
p1523
sg1357
F1.2
sg767
S'Journalist'
p1524
sg1359
F1
sg1360
(lp1525
sbasS'ReligiousNut001'
p1526
(lp1527
g1
(g10
g3
NtRp1528
(dp1529
g1335
F1
sg1336
F4
sg1337
F1.1499999999999999
sg1338
F1
sg1339
(lp1530
sg1341
F1.0900000000000001
sg1342
F1
sg761
g1526
sg1343
F10
sg1344
F1.0800000000000001
sg1345
(lp1531
g815
ag1175
ag1210
asg1347
F1.1000000000000001
sg1348
F1.1499999999999999
sg1349
(lp1532
g1256
ag936
asg1351
F1.0800000000000001
sg1352
F1
sg1353
(lp1533
sg1355
S'Religious'
p1534
sg1357
F1.2
sg767
S'Religious Nut'
p1535
sg1359
F1
sg1360
(lp1536
g1167
asbasS'JointChief001'
p1537
(lp1538
g1
(g10
g3
NtRp1539
(dp1540
g1335
F1
sg1336
F4
sg1337
F1.1499999999999999
sg1338
F1
sg1339
(lp1541
sg1341
F1.0900000000000001
sg1342
F1
sg761
g1537
sg1343
F10
sg1344
F1.0800000000000001
sg1345
(lp1542
g1202
ag1210
ag1232
ag885
asg1347
F1.1000000000000001
sg1348
F1.1499999999999999
sg1349
(lp1543
g1012
asg1351
F1.0800000000000001
sg1352
F1
sg1353
(lp1544
sg1355
S'JointChief'
p1545
sg1357
F1.2
sg767
S'Joint Chief'
p1546
sg1359
F1
sg1360
(lp1547
sbasS'Protester001'
p1548
(lp1549
g1
(g10
g3
NtRp1550
(dp1551
g1335
F1
sg1336
F4
sg1337
F1.1499999999999999
sg1338
F1
sg1339
(lp1552
sg1341
F1.0900000000000001
sg1342
F1
sg761
g1548
sg1343
F10
sg1344
F1.0800000000000001
sg1345
(lp1553
g975
ag823
ag869
asg1347
F1.1000000000000001
sg1348
F1.1499999999999999
sg1349
(lp1554
g1240
asg1351
F1.0800000000000001
sg1352
F1
sg1353
(lp1555
sg1355
S'Protestor'
p1556
sg1357
F1.2
sg767
S'Protester'
p1557
sg1359
F1
sg1360
(lp1558
sbasS'TVPersonality001'
p1559
(lp1560
g1
(g10
g3
NtRp1561
(dp1562
g1335
F1
sg1336
F4
sg1337
F1.1499999999999999
sg1338
F1
sg1339
(lp1563
sg1341
F1.0900000000000001
sg1342
F1
sg761
g1559
sg1343
F10
sg1344
F1.0800000000000001
sg1345
(lp1564
g1167
ag831
asg1347
F1.1000000000000001
sg1348
F1.1499999999999999
sg1349
(lp1565
g807
ag792
asg1351
F1.0800000000000001
sg1352
F1
sg1353
(lp1566
sg1355
S'TVPersonality'
p1567
sg1357
F1.2
sg767
S"Hecules O'Grady"
p1568
sg1359
F1
sg1360
(lp1569
sbasS'Player'
p1570
(lp1571
g1
(g10
g3
NtRp1572
(dp1573
g1335
F1
sg1336
F5
sg1337
F1.1499999999999999
sg1338
F1
sg1339
(lp1574
sg1341
F1.0900000000000001
sg1342
F1
sg761
g1570
sg1343
F15
sg1344
F1.0800000000000001
sg1345
(lp1575
g861
ag1248
ag778
ag1167
asg1347
F1.1000000000000001
sg1348
F1.1499999999999999
sg1349
(lp1576
g1099
ag893
ag1240
asg1351
F1.0800000000000001
sg1352
F1
sg1353
(lp1577
sg1355
S'Player'
p1578
sg1357
F1.2
sg767
S'Phillip Mossman'
p1579
sg1359
F2
sg1360
(lp1580
sbasS'Computer'
p1581
(lp1582
g1
(g10
g3
NtRp1583
(dp1584
g1335
F1
sg1336
F4
sg1337
F1.1499999999999999
sg1338
F1
sg1339
(lp1585
sg1341
F1.0900000000000001
sg1342
F1
sg761
g1581
sg1343
F10
sg1344
F1.0800000000000001
sg1345
(lp1586
g1248
ag1068
ag778
ag1167
ag1210
asg1347
F1.1000000000000001
sg1348
F1.1499999999999999
sg1349
(lp1587
g1099
ag893
ag1183
asg1351
F1.0800000000000001
sg1352
F1
sg1353
(lp1588
sg1355
S'Politician'
p1589
sg1357
F1.2
sg767
S'N.O.T.B.A.D'
p1590
sg1359
F1
sg1360
(lp1591
sbasS'CabinetPolitician001'
p1592
(lp1593
g1
(g10
g3
NtRp1594
(dp1595
g1335
F1
sg1336
F4
sg1337
F1.1499999999999999
sg1338
F1
sg1339
(lp1596
sg1341
F1.0900000000000001
sg1342
F1
sg761
g1592
sg1343
F10
sg1344
F1.0800000000000001
sg1345
(lp1597
g1248
ag1068
ag778
ag1167
ag1210
asg1347
F1.1000000000000001
sg1348
F1.1499999999999999
sg1349
(lp1598
g1099
ag893
ag1183
asg1351
F1.0800000000000001
sg1352
F1
sg1353
(lp1599
sg1355
S'Politician'
p1600
sg1357
F1.2
sg767
S'Cabinet Politician'
p1601
sg1359
F1
sg1360
(lp1602
sbasS'Constituent001'
p1603
(lp1604
g1
(g10
g3
NtRp1605
(dp1606
g1335
F1
sg1336
F4
sg1337
F1.1499999999999999
sg1338
F1
sg1339
(lp1607
sg1341
F1.0900000000000001
sg1342
F1
sg761
g1603
sg1343
F10
sg1344
F1.0800000000000001
sg1345
(lp1608
g975
ag991
ag1202
asg1347
F1.1000000000000001
sg1348
F1.1499999999999999
sg1349
(lp1609
g1183
asg1351
F1.0800000000000001
sg1352
F1
sg1353
(lp1610
sg1355
S'Constituent'
p1611
sg1357
F1.2
sg767
S'Constituent'
p1612
sg1359
F1
sg1360
(lp1613
sbasS'Mayor'
p1614
(lp1615
g1
(g10
g3
NtRp1616
(dp1617
g1335
F1
sg1336
F4
sg1337
F1.1499999999999999
sg1338
F1
sg1339
(lp1618
sg1341
F1.0900000000000001
sg1342
F1
sg761
g1614
sg1343
F10
sg1344
F1.0800000000000001
sg1345
(lp1619
g1248
ag1068
ag778
ag1167
ag1210
asg1347
F1.1000000000000001
sg1348
F1.1499999999999999
sg1349
(lp1620
g1099
ag893
ag1183
asg1351
F1.0800000000000001
sg1352
F1
sg1353
(lp1621
sg1355
S'Politician'
p1622
sg1357
F1.2
sg767
S'Mayor Goodman'
p1623
sg1359
F1
sg1360
(lp1624
sbassS'quest_items'
p1625
(dp1626
S'PEN'
p1627
g1
(g10
g3
NtRp1628
(dp1629
g767
S'A pen'
p1630
sg761
g1627
sbsS'BILLOFRIGHTS'
p1631
g1
(g10
g3
NtRp1632
(dp1633
g767
S"Citizens' Bill of Rights"
p1634
sg761
g1631
sbssg1345
(dp1635
S'Theo'
p1636
(lp1637
g1248
ag1068
ag778
ag1167
ag861
ag1099
ag893
ag1151
ag999
asS'JointChief'
p1638
(lp1639
g1202
ag1210
ag1232
ag1012
ag885
asS'Politician'
p1640
(lp1641
g1248
ag1068
ag778
ag1167
ag1099
ag893
ag1183
ag1210
asS'Bumpkin'
p1642
(lp1643
g1167
ag877
ag983
ag915
asS'TVPersonality'
p1644
(lp1645
g1167
ag807
ag831
ag792
asS'SecretAgent'
p1646
(lp1647
g1210
ag1194
ag1232
ag1012
ag1036
asS'DeepThroat'
p1648
(lp1649
g1068
ag1210
ag948
ag1202
asS'Protestor'
p1650
(lp1651
g1240
ag975
ag823
ag869
asS'Lobbyist'
p1652
(lp1653
g991
ag1115
ag948
ag1202
asS'Teacher'
p1654
(lp1655
g1060
ag1210
ag975
ag1240
asS'Player'
p1656
(lp1657
g861
ag1248
ag778
ag1167
ag1099
ag893
ag1240
asS'Computer'
p1658
(lp1659
g1012
ag1232
ag839
ag948
ag1202
ag1068
asS'Receptionist'
p1660
(lp1661
g1128
ag1076
ag1084
ag847
asS'Hippy'
p1662
(lp1663
g869
ag975
ag1020
ag1044
ag1240
ag1183
asS'Constituent'
p1664
(lp1665
g975
ag1183
ag991
ag1202
asS'Wife'
p1666
(lp1667
g1240
ag1183
ag1210
ag1248
ag901
asS'WarVet'
p1668
(lp1669
g1202
ag1210
ag1159
ag1240
asS'Religious'
p1670
(lp1671
g815
ag1256
ag936
ag1175
ag1210
asS'Unionist'
p1672
(lp1673
g1202
ag1210
ag975
ag1060
asS'Journalist'
p1674
(lp1675
g831
ag1224
ag1028
ag733
ag807
assS'encounters'
p1676
(dp1677
S'P-easy-10'
p1678
g1
(g10
g3
NtRp1679
(dp1680
S'item_attack_drops'
p1681
(lp1682
sS'item_attacks'
p1683
(lp1684
sg767
S''
sg1270
F10
sS'monster2_lvl'
p1685
F1
sS'bribe_cost'
p1686
F109
sS'monster3'
p1687
S'Politician001'
p1688
sS'monster1_lvl'
p1689
F1
sS'monster3_lvl'
p1690
F1
sS'monster4_lvl'
p1691
S''
sS'monster4'
p1692
S''
sS'monster2'
p1693
S'Mayor'
p1694
sg761
g1678
sS'monster1'
p1695
S'Politician001'
p1696
sbsS'P-easy-05'
p1697
g1
(g10
g3
NtRp1698
(dp1699
g1681
(lp1700
g1
(c__main__
ItemAttack
p1701
g3
NtRp1702
(dp1703
S'attack'
p1704
g1052
sS'quantity'
p1705
I1
sbasg1683
(lp1706
sg767
S''
sg1270
F10
sg1685
S''
sg1686
F104
sg1687
S''
sg1689
F1
sg1690
S''
sg1691
S''
sg1692
S''
sg1693
S''
sg761
g1697
sg1695
S'Journalist001'
p1707
sbsS'P-easy-04'
p1708
g1
(g10
g3
NtRp1709
(dp1710
g1681
(lp1711
g1
(g1701
g3
NtRp1712
(dp1713
g1704
g923
sg1705
I1
sbasg1683
(lp1714
sg767
S''
sg1270
F10
sg1685
F1
sg1686
F103
sg1687
S'Protester001'
p1715
sg1689
F1
sg1690
F1
sg1691
S''
sg1692
S''
sg1693
S'Protester001'
p1716
sg761
g1708
sg1695
S'Protester001'
p1717
sbsS'P-easy-07'
p1718
g1
(g10
g3
NtRp1719
(dp1720
g1681
(lp1721
g1
(g1701
g3
NtRp1722
(dp1723
g1704
g923
sg1705
I1
sbasg1683
(lp1724
sg767
S''
sg1270
F10
sg1685
S''
sg1686
F106
sg1687
S''
sg1689
F1
sg1690
S''
sg1691
S''
sg1692
S''
sg1693
S''
sg761
g1718
sg1695
S'Constituent001'
p1725
sbsS'P-easy-06'
p1726
g1
(g10
g3
NtRp1727
(dp1728
g1681
(lp1729
g1
(g1701
g3
NtRp1730
(dp1731
g1704
g1183
sg1705
I1
sbasg1683
(lp1732
sg767
S''
sg1270
F10
sg1685
F1
sg1686
F105
sg1687
S''
sg1689
F1
sg1690
S''
sg1691
S''
sg1692
S''
sg1693
S'Lobbyist001'
p1733
sg761
g1726
sg1695
S'Lobbyist001'
p1734
sbsS'P-easy-01'
p1735
g1
(g10
g3
NtRp1736
(dp1737
g1681
(lp1738
g1
(g1701
g3
NtRp1739
(dp1740
g1704
g962
sg1705
I1
sbasg1683
(lp1741
g1
(g1701
g3
NtRp1742
(dp1743
g1704
g1052
sg1705
I1
sbasg767
S'The quest for pen'
p1744
sg1270
F10
sg1685
S''
sg1686
F100
sg1687
S''
sg1689
F1
sg1690
S''
sg1691
S''
sg1692
S''
sg1693
S''
sg761
g1735
sg1695
S'Receptionist001'
p1745
sbsS'P-easy-03'
p1746
g1
(g10
g3
NtRp1747
(dp1748
g1681
(lp1749
g1
(g1701
g3
NtRp1750
(dp1751
g1704
g962
sg1705
I1
sbasg1683
(lp1752
sg767
S''
sg1270
F10
sg1685
F1
sg1686
F102
sg1687
S''
sg1689
F1
sg1690
S''
sg1691
S''
sg1692
S''
sg1693
S'Protester001'
p1753
sg761
g1746
sg1695
S'Protester001'
p1754
sbsS'P-easy-02'
p1755
g1
(g10
g3
NtRp1756
(dp1757
g1681
(lp1758
sg1683
(lp1759
sg767
S''
sg1270
F10
sg1685
F1
sg1686
F101
sg1687
S''
sg1689
F1
sg1690
S''
sg1691
S''
sg1692
S''
sg1693
S'Protester001'
p1760
sg761
g1755
sg1695
S'Protester001'
p1761
sbsS'P-med-02'
p1762
g1
(g10
g3
NtRp1763
(dp1764
g1681
(lp1765
sg1683
(lp1766
sg767
S''
sg1270
F10
sg1685
F1
sg1686
F111
sg1687
S''
sg1689
F1
sg1690
S''
sg1691
S''
sg1692
S''
sg1693
S'Politician001'
p1767
sg761
g1762
sg1695
S'Politician001'
p1768
sbsS'P-med-01'
p1769
g1
(g10
g3
NtRp1770
(dp1771
g1681
(lp1772
sg1683
(lp1773
sg767
S''
sg1270
F10
sg1685
F1
sg1686
F110
sg1687
S''
sg1689
F1
sg1690
S''
sg1691
S''
sg1692
S''
sg1693
S'Politician001'
p1774
sg761
g1769
sg1695
S'Politician001'
p1775
sbsS'P-easy-09'
p1776
g1
(g10
g3
NtRp1777
(dp1778
g1681
(lp1779
g1
(g1701
g3
NtRp1780
(dp1781
g1704
g962
sg1705
I1
sbasg1683
(lp1782
sg767
S''
sg1270
F10
sg1685
F1
sg1686
F108
sg1687
S'Constituent001'
p1783
sg1689
F1
sg1690
F1
sg1691
S''
sg1692
S''
sg1693
S'Constituent001'
p1784
sg761
g1776
sg1695
S'Constituent001'
p1785
sbsS'P-easy-08'
p1786
g1
(g10
g3
NtRp1787
(dp1788
g1681
(lp1789
sg1683
(lp1790
sg767
S''
sg1270
F10
sg1685
F1
sg1686
F107
sg1687
S''
sg1689
F1
sg1690
S''
sg1691
S''
sg1692
S''
sg1693
S'Constituent001'
p1791
sg761
g1786
sg1695
S'Constituent001'
p1792
sbssb.