ccopy_reg
_reconstructor
p1
(c__main__
GameData
p2
c__builtin__
object
p3
NtRp4
(dp5
S'attacks'
p6
(dp7
S'Lie'
p8
g1
(c__main__
TableRow
p9
g3
NtRp10
(dp11
S'base_damage_max'
p12
F8
sS'description'
p13
S'ghi'
p14
sS'name'
p15
g8
sS'crit_chance_max'
p16
F10
sS'crit_chance_min'
p17
F2
sS'target_type'
p18
S'AllEnemy'
p19
sS'base_damage_min'
p20
F0
sS'spin_cost'
p21
I0
sS'effects'
p22
(lp23
g1
(c__main__
Effect
p24
g3
NtRp25
(dp26
S'function'
p27
S'miss_turn'
p28
sS'abbrv'
p29
S'(MISS)'
p30
sS'attribute'
p31
S''
sS'value'
p32
F0
sS'rounds_min'
p33
F1
sS'rounds_max'
p34
F1
sS'id'
p35
S'Critical Fail'
p36
sS'apply_to_source'
p37
S'TRUE'
p38
sbasS'target_count'
p39
I1
sS'crit_base_damage'
p40
F15
sS'underlying_stat'
p41
S'Cunning'
p42
sbsS'Lose/lose issue'
p43
g1
(g9
g3
NtRp44
(dp45
g12
F4
sg13
S'Causes all politicians in the target radius to lose votes'
p46
sg15
g43
sg16
F0
sg17
F0
sg18
S'All'
p47
sg20
F4
sg21
I0
sg22
(lp48
sg39
I6
sg40
F0
sg41
S'Cunning'
p49
sbsS'Stay On Message'
p50
g1
(g9
g3
NtRp51
(dp52
g12
F5
sg13
S'abc'
p53
sg15
g50
sg16
F10
sg17
F2
sg18
S'AllEnemy'
p54
sg20
F2
sg21
I0
sg22
(lp55
sg39
I1
sg40
F8
sg41
S'Cunning'
p56
sbsS'Joke'
p57
g1
(g9
g3
NtRp58
(dp59
g12
F3
sg13
S'jkl'
p60
sg15
g57
sg16
F10
sg17
F2
sg18
S'AllEnemy'
p61
sg20
F1
sg21
I0
sg22
(lp62
g1
(g24
g3
NtRp63
(dp64
g27
S'reduce'
p65
sg29
S'(REDUCE)'
p66
sg31
S'cunning'
p67
sg32
F2
sg33
F2
sg34
F5
sg35
S'Reduce Cunning'
p68
sg37
S''
sbasg39
I1
sg40
F6
sg41
S'Wit'
p69
sbsS'Negative attack ad'
p70
g1
(g9
g3
NtRp71
(dp72
g12
F10
sg13
S''
sg15
g70
sg16
F10
sg17
F10
sg18
S'AllEnemy'
p73
sg20
F5
sg21
F5
sg22
(lp74
sg39
I1
sg40
F10
sg41
S'Cunning'
p75
sbsS'Revive'
p76
g1
(g9
g3
NtRp77
(dp78
g12
F0
sg13
S'Revive a dead comrade to half votes'
p79
sg15
g76
sg16
F0
sg17
F0
sg18
S'DeadFriendly'
p80
sg20
F0
sg21
F3
sg22
(lp81
g1
(g24
g3
NtRp82
(dp83
g27
S'revive'
p84
sg29
S''
sg31
S''
sg32
F0.5
sg33
F0
sg34
F0
sg35
S'Revive'
p85
sg37
S''
sbasg39
I1
sg40
F0
sg41
S''
sbsS'Slander Opposition'
p86
g1
(g9
g3
NtRp87
(dp88
g12
F3
sg13
S'def'
p89
sg15
g86
sg16
F10
sg17
F2
sg18
S'AllEnemy'
p90
sg20
F1
sg21
I0
sg22
(lp91
g1
(g24
g3
NtRp92
(dp93
g27
S'drain'
p94
sg29
S'(DRAIN)'
p95
sg31
S'votes'
p96
sg32
F1
sg33
F2
sg34
F5
sg35
S'Drain Votes'
p97
sg37
S''
sbasg39
I1
sg40
F5
sg41
S'Cunning'
p98
sbsS'Defense'
p99
g1
(g9
g3
NtRp100
(dp101
g12
F0
sg13
S'Gather strenth; -50% to all incoming attacks'
p102
sg15
g99
sg16
F0
sg17
F0
sg18
S'None'
p103
sg20
F0
sg21
I0
sg22
(lp104
g1
(g24
g3
NtRp105
(dp106
g27
S'add'
p107
sg29
S'(DFND)'
p108
sg31
S'resistance'
p109
sg32
F0.5
sg33
F1
sg34
F1
sg35
S'Defense'
p110
sg37
S'TRUE'
p111
sbasg39
I1
sg40
F0
sg41
S''
sbsS'Bribe'
p112
g1
(g9
g3
NtRp113
(dp114
g12
F1
sg13
S'mno'
p115
sg15
g112
sg16
F1
sg17
F1
sg18
S'AllEnemy'
p116
sg20
F1
sg21
I0
sg22
(lp117
sg39
I1
sg40
F1
sg41
S'Money'
p118
sbsS'Inspirational Speech'
p119
g1
(g9
g3
NtRp120
(dp121
g12
F-2
sg13
S'Restore votes to all party members'
p122
sg15
g119
sg16
F0
sg17
F0
sg18
S'AllFriendly'
p123
sg20
F-2
sg21
I0
sg22
(lp124
sg39
I4
sg40
F0
sg41
S'Cunning'
p125
sbsS'Bielection'
p126
g1
(g9
g3
NtRp127
(dp128
g12
F4
sg13
S'Redistribute votes amongst targets'
p129
sg15
g126
sg16
F0
sg17
F0
sg18
S'All'
p130
sg20
F-4
sg21
F4
sg22
(lp131
sg39
I8
sg40
F0
sg41
S'Cunning'
p132
sbssS'standard_attacks'
p133
(dp134
S'Player'
p135
(lp136
g51
ag87
ag10
ag58
ag113
ag127
ag71
ag77
assS'encounters'
p137
(dp138
S'P-easy-01'
p139
g1
(g9
g3
NtRp140
(dp141
S'xp'
p142
F100
sS'monster2_lvl'
p143
F1
sS'monster3'
p144
S'Politician001'
p145
sS'monster1_lvl'
p146
F1
sS'monster3_lvl'
p147
F1
sS'monster4_lvl'
p148
F1
sS'monster4'
p149
S'Politician001'
p150
sS'drops'
p151
S'Lose/lose issue'
p152
sS'monster2'
p153
S'Politician001'
p154
sg35
g139
sS'monster1'
p155
S'Politician001'
p156
sbssg22
(dp157
g36
g25
sg68
g63
sg97
g92
sg110
g105
sg85
g82
ssS'characters'
p158
(dp159
S'Player'
p160
(lp161
g1
(g9
g3
NtRp162
(dp163
S'flair_base'
p164
F1
sS'spin_base'
p165
F5
sS'flair_lvl'
p166
F1.1499999999999999
sS'wit_base'
p167
F2
sS'resistance'
p168
(lp169
sS'wit_lvl'
p170
F1.0900000000000001
sS'cunning_base'
p171
F2
sg35
g160
sS'item_attacks'
p172
(lp173
g120
ag44
asS'votes_base'
p174
F10
sS'speed_lvl'
p175
F1.0800000000000001
sg133
(lp176
g51
ag87
ag10
ag58
ag113
asS'cunning_lvl'
p177
F1.1000000000000001
sS'charisma_lvl'
p178
F1.1499999999999999
sS'spin_attacks'
p179
(lp180
g127
ag71
ag77
asS'spin_lvl'
p181
F1.0800000000000001
sS'charisma_base'
p182
F2
sS'weaknesses'
p183
(lp184
sS'attack_group'
p185
S'Player'
p186
sS'votes_lvl'
p187
F1.2
sg15
S'Phillip Mossman'
p188
sS'speed_base'
p189
F2
sS'immunities'
p190
(lp191
sbasS'ReligiousNut001'
p192
(lp193
g1
(g9
g3
NtRp194
(dp195
g164
S''
sg165
S''
sg166
S''
sg167
S''
sg168
(lp196
sg170
S''
sg171
S''
sg35
g192
sg172
(lp197
sg174
S''
sg175
S''
sg133
(lp198
g51
ag87
ag10
ag58
ag113
asg177
S''
sg178
S''
sg179
(lp199
g127
ag71
ag77
asg181
S''
sg182
S''
sg183
(lp200
sg185
S'Player'
p201
sg187
S''
sg15
S'Religious Nut'
p202
sg189
S''
sg190
(lp203
g58
asbasS'Lobbyist001'
p204
(lp205
g1
(g9
g3
NtRp206
(dp207
g164
S''
sg165
S''
sg166
S''
sg167
S''
sg168
(lp208
sg170
S''
sg171
S''
sg35
g204
sg172
(lp209
sg174
S''
sg175
S''
sg133
(lp210
g51
ag87
ag10
ag58
ag113
asg177
S''
sg178
S''
sg179
(lp211
g127
ag71
ag77
asg181
S''
sg182
S''
sg183
(lp212
sg185
S'Player'
p213
sg187
S''
sg15
S'Lobbyist'
p214
sg189
S''
sg190
(lp215
g113
asbasS'Politician001'
p216
(lp217
g1
(g9
g3
NtRp218
(dp219
g164
F1
sg165
F4
sg166
F1.1499999999999999
sg167
F1
sg168
(lp220
g10
asg170
F1.0900000000000001
sg171
F1
sg35
g216
sg172
(lp221
g120
asg174
F20
sg175
F1.0800000000000001
sg133
(lp222
g51
ag87
ag10
ag58
ag113
asg177
F1.1000000000000001
sg178
F1.1499999999999999
sg179
(lp223
g127
ag71
ag77
asg181
F1.0800000000000001
sg182
F1
sg183
(lp224
g113
asg185
S'Player'
p225
sg187
F1.2
sg15
S'Politician'
p226
sg189
F1
sg190
(lp227
g51
asbasS'Bumpkin001'
p228
(lp229
g1
(g9
g3
NtRp230
(dp231
g164
S''
sg165
S''
sg166
S''
sg167
S''
sg168
(lp232
sg170
S''
sg171
S''
sg35
g228
sg172
(lp233
sg174
S''
sg175
S''
sg133
(lp234
g51
ag87
ag10
ag58
ag113
asg177
S''
sg178
S''
sg179
(lp235
g127
ag71
ag77
asg181
S''
sg182
S''
sg183
(lp236
g10
asg185
S'Player'
p237
sg187
S''
sg15
S'Bumpkin'
p238
sg189
S''
sg190
(lp239
sbassb.