ccopy_reg
_reconstructor
p1
(c__main__
GameData
p2
c__builtin__
object
p3
NtRp4
(dp5
S'script'
p6
(dp7
S'#----------------------------------------------------------------------------------------ACT 3 ----------------------------------------------------------------------------------------------------------------------------------------------------------------------------------------'
p8
(lp9
g1
(c__main__
TableRow
p10
g3
NtRp11
(dp12
S'action'
p13
S''
sS'trigger'
p14
g8
sS'param'
p15
S''
sS'dialog'
p16
S''
sbasS'Hick1'
p17
(lp18
g1
(g10
g3
NtRp19
(dp20
g13
S'RequireFlag'
p21
sg14
g17
sg15
S'STARTHICKS'
p22
sg16
S"Look at this guy's fancy tie!"
p23
sbag1
(g10
g3
NtRp24
(dp25
g13
S'PlayerSay'
p26
sg14
S'Hick1'
p27
sg15
S''
sg16
S'What brings you to the office of the governor?'
p28
sbag1
(g10
g3
NtRp29
(dp30
g13
S'Say'
p31
sg14
S'Hick1'
p32
sg15
S''
sg16
S'The immigrants!'
p33
sbag1
(g10
g3
NtRp34
(dp35
g13
S'PlayerSay'
p36
sg14
S'Hick1'
p37
sg15
S''
sg16
S'What happened?'
p38
sbag1
(g10
g3
NtRp39
(dp40
g13
S'Say'
p41
sg14
S'Hick1'
p42
sg15
S'Hick2'
p43
sg16
S"They're coming!"
p44
sbag1
(g10
g3
NtRp45
(dp46
g13
S'PlayerSay'
p47
sg14
S'Hick1'
p48
sg15
S''
sg16
S'The...immigrants are coming?'
p49
sbag1
(g10
g3
NtRp50
(dp51
g13
S'Say'
p52
sg14
S'Hick1'
p53
sg15
S'Hick2'
p54
sg16
S'Yes, to steal our jobs and our wives!'
p55
sbag1
(g10
g3
NtRp56
(dp57
g13
S'Say'
p58
sg14
S'Hick1'
p59
sg15
S''
sg16
S'They have to be stopped!'
p60
sbag1
(g10
g3
NtRp61
(dp62
g13
S'PlayerSay'
p63
sg14
S'Hick1'
p64
sg15
S''
sg16
S"I don't think the immigrants are coming to steal your wives..."
p65
sbag1
(g10
g3
NtRp66
(dp67
g13
S'Say'
p68
sg14
S'Hick1'
p69
sg15
S'Journalist2'
p70
sg16
S'Mayor Mossman sides with the immigrants! I need to get this to print!'
p71
sbag1
(g10
g3
NtRp72
(dp73
g13
S'PlayerSay'
p74
sg14
S'Hick1'
p75
sg15
S''
sg16
S'Wait a second, let me explain.'
p76
sbag1
(g10
g3
NtRp77
(dp78
g13
S'Encounter'
p79
sg14
S'Hick1'
p80
sg15
S'P-med-03'
p81
sg16
S''
sbag1
(g10
g3
NtRp82
(dp83
g13
S'Say'
p84
sg14
S'Hick1'
p85
sg15
S''
sg16
S"You're a smart guy. I think I can trust you."
p86
sbag1
(g10
g3
NtRp87
(dp88
g13
S'SetFlag'
p89
sg14
S'Hick1'
p90
sg15
S'STARTHICKS2'
p91
sg16
S''
sbag1
(g10
g3
NtRp92
(dp93
g13
S'Increment'
p94
sg14
S'Hick1'
p95
sg15
S'DEALWITHHICKS'
p96
sg16
S''
sbag1
(g10
g3
NtRp97
(dp98
g13
S'Destroy'
p99
sg14
S'Hick1'
p100
sg15
S''
sg16
S''
sbasS'Hick2'
p101
(lp102
g1
(g10
g3
NtRp103
(dp104
g13
S'RequireFlag'
p105
sg14
g101
sg15
S'STARTHICKS2'
p106
sg16
S"Aw....I'm shy...talk to my buddy..."
p107
sbag1
(g10
g3
NtRp108
(dp109
g13
S'Encounter'
p110
sg14
S'Hick2'
p111
sg15
S'P-med-04'
p112
sg16
S''
sbag1
(g10
g3
NtRp113
(dp114
g13
S'Say'
p115
sg14
S'Hick2'
p116
sg15
S''
sg16
S"Wowee. We've been waiting for days and the governor has ignored us. If you ever run for governor, you'll have my vote!"
p117
sbag1
(g10
g3
NtRp118
(dp119
g13
S'Increment'
p120
sg14
S'Hick2'
p121
sg15
S'DEALWITHHICKS'
p122
sg16
S''
sbag1
(g10
g3
NtRp123
(dp124
g13
S'Destroy'
p125
sg14
S'Hick2'
p126
sg15
S''
sg16
S''
sbasS'Cabinet1'
p127
(lp128
g1
(g10
g3
NtRp129
(dp130
g13
S'Say'
p131
sg14
g127
sg15
S''
sg16
S'Good afternoon, Mr President. How can I help?'
p132
sbag1
(g10
g3
NtRp133
(dp134
g13
S'PlayerSay'
p135
sg14
S'Cabinet1'
p136
sg15
S''
sg16
S'I want to know where the orders to mobilise the military and reallocate education funds came from.'
p137
sbag1
(g10
g3
NtRp138
(dp139
g13
S'Say'
p140
sg14
S'Cabinet1'
p141
sg15
S''
sg16
S'But...it came from you, sir. They were both faxed over to me this afternoon.'
p142
sbag1
(g10
g3
NtRp143
(dp144
g13
S'PlayerSay'
p145
sg14
S'Cabinet1'
p146
sg15
S''
sg16
S'Tell me every detail.'
p147
sbag1
(g10
g3
NtRp148
(dp149
g13
S'Encounter'
p150
sg14
S'Cabinet1'
p151
sg15
S'P-hard-08'
p152
sg16
S''
sbag1
(g10
g3
NtRp153
(dp154
g13
S'Increment'
p155
sg14
S'Cabinet1'
p156
sg15
S'CABINETMEMBERS'
p157
sg16
S''
sbag1
(g10
g3
NtRp158
(dp159
g13
S'Say'
p160
sg14
S'Cabinet1'
p161
sg15
S''
sg16
S'I cannot understand how this could happen.'
p162
sbag1
(g10
g3
NtRp163
(dp164
g13
S'Destroy'
p165
sg14
S'Cabinet1'
p166
sg15
S''
sg16
S''
sbasS'Politician7'
p167
(lp168
g1
(g10
g3
NtRp169
(dp170
g13
S'RequireFlag'
p171
sg14
g167
sg15
S'STARTPOLITICIANSHAKEDOWN'
p172
sg16
S'Good morning, Governor Mossman. Your PA will know your schedule. He is waiting in your room.'
p173
sbag1
(g10
g3
NtRp174
(dp175
g13
S'Say'
p176
sg14
S'Politician7'
p177
sg15
S''
sg16
S"I believe in captialism. Let business sort itself out. They shouldn't need to rely on government handouts."
p178
sbag1
(g10
g3
NtRp179
(dp180
g13
S'Say'
p181
sg14
S'Politician7'
p182
sg15
S''
sg16
S'Also, I think politicians need a raise. Some more than others...oh and life-long retainers.'
p183
sbag1
(g10
g3
NtRp184
(dp185
g13
S'PlayerSay'
p186
sg14
S'Politician7'
p187
sg15
S''
sg16
S'So, no more hand-outs for business but more handouts for politicians?'
p188
sbag1
(g10
g3
NtRp189
(dp190
g13
S'Say'
p191
sg14
S'Politician7'
p192
sg15
S''
sg16
S'Yes!'
p193
sbag1
(g10
g3
NtRp194
(dp195
g13
S'PlayerSay'
p196
sg14
S'Politician7'
p197
sg15
S''
sg16
S'Does that serve your constituents?'
p198
sbag1
(g10
g3
NtRp199
(dp200
g13
S'Say'
p201
sg14
S'Politician7'
p202
sg15
S''
sg16
S'...It serves...some...'
p203
sbag1
(g10
g3
NtRp204
(dp205
g13
S'Encounter'
p206
sg14
S'Politician7'
p207
sg15
S'P-med-11'
p208
sg16
S''
sbag1
(g10
g3
NtRp209
(dp210
g13
S'Say'
p211
sg14
S'Politician7'
p212
sg15
S''
sg16
S'Right, I guess we need to handle the needs of our constituents, too.'
p213
sbag1
(g10
g3
NtRp214
(dp215
g13
S'Increment'
p216
sg14
S'Politician7'
p217
sg15
S'POLITICIANSHAKEDOWN'
p218
sg16
S''
sbag1
(g10
g3
NtRp219
(dp220
g13
S'Destroy'
p221
sg14
S'Politician7'
p222
sg15
S''
sg16
S''
sbasS'TVDebate'
p223
(lp224
g1
(g10
g3
NtRp225
(dp226
g13
S'RequireFlag'
p227
sg14
g223
sg15
S'STARTDEBATE'
p228
sg16
S"Hmmm? Oh, sorry, I'm on the phone to the studio."
p229
sbag1
(g10
g3
NtRp230
(dp231
g13
S'Say'
p232
sg14
S'TVDebate'
p233
sg15
S''
sg16
S"Good evening, Governor Mossman. If you'll follow me, I'll take you to the studio."
p234
sbag1
(g10
g3
NtRp235
(dp236
g13
S'Encounter'
p237
sg14
S'TVDebate'
p238
sg15
S'P-med-21'
p239
sg16
S''
sbag1
(g10
g3
NtRp240
(dp241
g13
S'Say'
p242
sg14
S'TVDebate'
p243
sg15
S''
sg16
S'Great work tonight, Governor Mossman and congratulations on the win!'
p244
sbag1
(g10
g3
NtRp245
(dp246
g13
S'SetFlag'
p247
sg14
S'TVDebate'
p248
sg15
S'DEBATECOMPLETE'
p249
sg16
S''
sbag1
(g10
g3
NtRp250
(dp251
g13
S'Destroy'
p252
sg14
S'TVDebate'
p253
sg15
S''
sg16
S''
sbasS'Lobbyist2'
p254
(lp255
g1
(g10
g3
NtRp256
(dp257
g13
S'RequireFlag'
p258
sg14
g254
sg15
S'STARTLOBBYISTS'
p259
sg16
S'Humph'
p260
sbag1
(g10
g3
NtRp261
(dp262
g13
S'Say'
p263
sg14
S'Lobbyist2'
p264
sg15
S''
sg16
S'I represent the Python Software Foundation. What will you do to promote, protect and advance the Python programming language.'
p265
sbag1
(g10
g3
NtRp266
(dp267
g13
S'PlayerSay'
p268
sg14
S'Lobbyist2'
p269
sg15
S''
sg16
S"Ah yes, the Python cause! I'm a big advocate of Python."
p270
sbag1
(g10
g3
NtRp271
(dp272
g13
S'Encounter'
p273
sg14
S'Lobbyist2'
p274
sg15
S'P-med-12'
p275
sg16
S''
sbag1
(g10
g3
NtRp276
(dp277
g13
S'Increment'
p278
sg14
S'Lobbyist2'
p279
sg15
S'LOBBYISTS'
p280
sg16
S''
sbag1
(g10
g3
NtRp281
(dp282
g13
S'Say'
p283
sg14
S'Lobbyist2'
p284
sg15
S''
sg16
S'I think we can help each other out.'
p285
sbag1
(g10
g3
NtRp286
(dp287
g13
S'Destroy'
p288
sg14
S'Lobbyist2'
p289
sg15
S''
sg16
S''
sbasS'CheatAct2'
p290
(lp291
g1
(g10
g3
NtRp292
(dp293
g13
S'AddAlly'
p294
sg14
g290
sg15
S'Wife:1'
p295
sg16
S''
sbag1
(g10
g3
NtRp296
(dp297
g13
S'LearnAttack'
p298
sg14
S'CheatAct2'
p299
sg15
S'BRIBE'
p300
sg16
S''
sbag1
(g10
g3
NtRp301
(dp302
g13
S'LearnAttack'
p303
sg14
S'CheatAct2'
p304
sg15
S'Wife:BRIBE'
p305
sg16
S''
sbag1
(g10
g3
NtRp306
(dp307
g13
S'LearnAttack'
p308
sg14
S'CheatAct2'
p309
sg15
S'SLANDER'
p310
sg16
S''
sbag1
(g10
g3
NtRp311
(dp312
g13
S'GotoMap'
p313
sg14
S'CheatAct2'
p314
sg15
S'act2'
p315
sg16
S''
sbasS'CheatAct3'
p316
(lp317
g1
(g10
g3
NtRp318
(dp319
g13
S'AddAlly'
p320
sg14
g316
sg15
S'Wife:1'
p321
sg16
S''
sbag1
(g10
g3
NtRp322
(dp323
g13
S'LearnAttack'
p324
sg14
S'CheatAct3'
p325
sg15
S'BRIBE'
p326
sg16
S''
sbag1
(g10
g3
NtRp327
(dp328
g13
S'LearnAttack'
p329
sg14
S'CheatAct3'
p330
sg15
S'Wife:BRIBE'
p331
sg16
S''
sbag1
(g10
g3
NtRp332
(dp333
g13
S'LearnAttack'
p334
sg14
S'CheatAct3'
p335
sg15
S'SLANDER'
p336
sg16
S''
sbag1
(g10
g3
NtRp337
(dp338
g13
S'AddAlly'
p339
sg14
S'CheatAct3'
p340
sg15
S'Leo:1'
p341
sg16
S''
sbag1
(g10
g3
NtRp342
(dp343
g13
S'GotoMap'
p344
sg14
S'CheatAct3'
p345
sg15
S'act3'
p346
sg16
S''
sbasS'WarVet2'
p347
(lp348
g1
(g10
g3
NtRp349
(dp350
g13
S'RequireFlag'
p351
sg14
g347
sg15
S'AFTERWILFRED'
p352
sg16
S'Eh? Speak up, boy.'
p353
sbag1
(g10
g3
NtRp354
(dp355
g13
S'Encounter'
p356
sg14
S'WarVet2'
p357
sg15
S'P-hard-05'
p358
sg16
S''
sbag1
(g10
g3
NtRp359
(dp360
g13
S'Say'
p361
sg14
S'WarVet2'
p362
sg15
S''
sg16
S"We'll head home, but you can expect us back if we see anything else suspicious ."
p363
sbag1
(g10
g3
NtRp364
(dp365
g13
S'Increment'
p366
sg14
S'WarVet2'
p367
sg15
S'WARVETS'
p368
sg16
S''
sbag1
(g10
g3
NtRp369
(dp370
g13
S'Destroy'
p371
sg14
S'WarVet2'
p372
sg15
S''
sg16
S''
sbasS'WarVet1'
p373
(lp374
g1
(g10
g3
NtRp375
(dp376
g13
S'Say'
p377
sg14
g373
sg15
S''
sg16
S"You think you can fool me? I wasn't born yesterday, you know."
p378
sbag1
(g10
g3
NtRp379
(dp380
g13
S'PlayerSay'
p381
sg14
S'WarVet1'
p382
sg15
S''
sg16
S"I'm sorry, sir, but what seems to be the problem."
p383
sbag1
(g10
g3
NtRp384
(dp385
g13
S'Say'
p386
sg14
S'WarVet1'
p387
sg15
S''
sg16
S"You think I don't know a mobilising army when I see one? You're clearly readying for war and you think you don't even need to mention it to the people."
p388
sbag1
(g10
g3
NtRp389
(dp390
g13
S'Say'
p391
sg14
S'WarVet1'
p392
sg15
S'WarVet2'
p393
sg16
S"And don't forget that he's barely a cadet, Wilfred."
p394
sbag1
(g10
g3
NtRp395
(dp396
g13
S'Say'
p397
sg14
S'WarVet1'
p398
sg15
S''
sg16
S"Right you are, Arnold, You've barely set foot in this building and you're already leading us to war. Who do you think you're dealing with? We won't stand."
p399
sbag1
(g10
g3
NtRp400
(dp401
g13
S'Encounter'
p402
sg14
S'WarVet1'
p403
sg15
S'P-hard-04'
p404
sg16
S''
sbag1
(g10
g3
NtRp405
(dp406
g13
S'Say'
p407
sg14
S'WarVet1'
p408
sg15
S''
sg16
S"Seems like a flimsy excuse, you didn't know. Better get your troops in line if you want 'em to march, boy."
p409
sbag1
(g10
g3
NtRp410
(dp411
g13
S'Increment'
p412
sg14
S'WarVet1'
p413
sg15
S'WARVETS'
p414
sg16
S''
sbag1
(g10
g3
NtRp415
(dp416
g13
S'SetFlag'
p417
sg14
S'WarVet1'
p418
sg15
S'AFTERWILFRED'
p419
sg16
S''
sbag1
(g10
g3
NtRp420
(dp421
g13
S'Destroy'
p422
sg14
S'WarVet1'
p423
sg15
S''
sg16
S''
sbasS'Teacher2'
p424
(lp425
g1
(g10
g3
NtRp426
(dp427
g13
S'Say'
p428
sg14
g424
sg15
S''
sg16
S"You cannot gamble with the future, Mr President. Childrens' education is at stake!"
p429
sbag1
(g10
g3
NtRp430
(dp431
g13
S'PlayerSay'
p432
sg14
S'Teacher2'
p433
sg15
S''
sg16
S"I can assure you this isn't so..."
p434
sbag1
(g10
g3
NtRp435
(dp436
g13
S'Encounter'
p437
sg14
S'Teacher2'
p438
sg15
S'P-hard-07'
p439
sg16
S''
sbag1
(g10
g3
NtRp440
(dp441
g13
S'Say'
p442
sg14
S'Teacher2'
p443
sg15
S''
sg16
S'We will await a change from you government.'
p444
sbag1
(g10
g3
NtRp445
(dp446
g13
S'Increment'
p447
sg14
S'Teacher2'
p448
sg15
S'TEACHERS'
p449
sg16
S''
sbag1
(g10
g3
NtRp450
(dp451
g13
S'Destroy'
p452
sg14
S'Teacher2'
p453
sg15
S''
sg16
S''
sbasS'Kawalski'
p454
(lp455
g1
(g10
g3
NtRp456
(dp457
g13
S'Say'
p458
sg14
g454
sg15
S''
sg16
S'A pleasure to meet you, President Mossman. I am Agent Kawalski, your security detail.'
p459
sbag1
(g10
g3
NtRp460
(dp461
g13
S'PlayerSay'
p462
sg14
S'Kawalski'
p463
sg15
S''
sg16
S'Great to meet you, Agent Kawalski. What do I need to know?'
p464
sbag1
(g10
g3
NtRp465
(dp466
g13
S'Say'
p467
sg14
S'Kawalski'
p468
sg15
S''
sg16
S'Well actually, it does have to do with your security. Something terrible is happening at the White House.'
p469
sbag1
(g10
g3
NtRp470
(dp471
g13
S'PlayerSay'
p472
sg14
S'Kawalski'
p473
sg15
S''
sg16
S"If you're trying to warn me about the aliens, it's under control."
p474
sbag1
(g10
g3
NtRp475
(dp476
g13
S'Say'
p477
sg14
S'Kawalski'
p478
sg15
S''
sg16
S'No, no, this is different. I think somebody is trying to take over the White House.'
p479
sbag1
(g10
g3
NtRp480
(dp481
g13
S'PlayerSay'
p482
sg14
S'Kawalski'
p483
sg15
S''
sg16
S"Wouldn't we know?"
p484
sbag1
(g10
g3
NtRp485
(dp486
g13
S'Say'
p487
sg14
S'Kawalski'
p488
sg15
S''
sg16
S"It's too early for those kind of details. I just want you to keep your eyes open, Mr President."
p489
sbag1
(g10
g3
NtRp490
(dp491
g13
S'PlayerSay'
p492
sg14
S'Kawalski'
p493
sg15
S''
sg16
S'No problem.'
p494
sbag1
(g10
g3
NtRp495
(dp496
g13
S'Destroy'
p497
sg14
S'Kawalski'
p498
sg15
S''
sg16
S''
sbag1
(g10
g3
NtRp499
(dp500
g13
S'AddAlly'
p501
sg14
S'Kawalski'
p502
sg15
S'SecretAgent:1'
p503
sg16
S'Kawalski joins your political party!'
p504
sbag1
(g10
g3
NtRp505
(dp506
g13
S'SetFlag'
p507
sg14
S'Kawalski'
p508
sg15
S'KAWALSKIJOIN'
p509
sg16
S''
sbasS'Theo'
p510
(lp511
g1
(g10
g3
NtRp512
(dp513
g13
S'RequireFlag'
p514
sg14
g510
sg15
S'GOVERNORDEFEATED'
p515
sg16
S'The Governor is in the north wing.'
p516
sbag1
(g10
g3
NtRp517
(dp518
g13
S'Say'
p519
sg14
S'Theo'
p520
sg15
S''
sg16
S"You must be Governor Mossman. I am Theo. I've been looking for you, but I wanted to see how you handled Governor Badden"
p521
sbag1
(g10
g3
NtRp522
(dp523
g13
S'PlayerSay'
p524
sg14
S'Theo'
p525
sg15
S''
sg16
S'Hi Theo. Why have you been looking for me?'
p526
sbag1
(g10
g3
NtRp527
(dp528
g13
S'Say'
p529
sg14
S'Theo'
p530
sg15
S''
sg16
S"There's a lot going on in Ignited States politics and none of it is good. Somebody needs to get up there and find out what's going on."
p531
sbag1
(g10
g3
NtRp532
(dp533
g13
S'Say'
p534
sg14
S'Theo'
p535
sg15
S''
sg16
S"I couldn't be sure which side you were on, but your dealings with the Governor prove that you're not with them."
p536
sbag1
(g10
g3
NtRp537
(dp538
g13
S'PlayerSay'
p539
sg14
S'Theo'
p540
sg15
S''
sg16
S'It sounds like it goes all the way to the President of the Ignited States.'
p541
sbag1
(g10
g3
NtRp542
(dp543
g13
S'Say'
p544
sg14
S'Theo'
p545
sg15
S''
sg16
S"It does. That's why I've been looking for you. The only way to find out is to flush them out. There's only one way to flush out President Allen."
p546
sbag1
(g10
g3
NtRp547
(dp548
g13
S'PlayerSay'
p549
sg14
S'Theo'
p550
sg15
S''
sg16
S"How's that?"
p551
sbag1
(g10
g3
NtRp552
(dp553
g13
S'Say'
p554
sg14
S'Theo'
p555
sg15
S''
sg16
S"...I've been a campaign manager for 20 years and I've never seen a candidate as strong as you. I think you have what it takes to run for the presidency."
p556
sbag1
(g10
g3
NtRp557
(dp558
g13
S'Say'
p559
sg14
S'Theo'
p560
sg15
S''
sg16
S"That's why I was looking for you. I need somebody who has a shot at winning in order to get to President Allen. You have that shot."
p561
sbag1
(g10
g3
NtRp562
(dp563
g13
S'PlayerSay'
p564
sg14
S'Theo'
p565
sg15
S''
sg16
S"You really think I can win? Well...I want to follow this through to the end, so I'm in!"
p566
sbag1
(g10
g3
NtRp567
(dp568
g13
S'Say'
p569
sg14
S'Theo'
p570
sg15
S''
sg16
S"Great! There's a lot to get organised! We need to plan our election campaign!"
p571
sbag1
(g10
g3
NtRp572
(dp573
g13
S'Destroy'
p574
sg14
S'Theo'
p575
sg15
S''
sg16
S''
sbag1
(g10
g3
NtRp576
(dp577
g13
S'AddAlly'
p578
sg14
S'Theo'
p579
sg15
S'Leo:1'
p580
sg16
S''
sbag1
(g10
g3
NtRp581
(dp582
g13
S'Message'
p583
sg14
S'Theo'
p584
sg15
S''
sg16
S'Theo joins your political party!'
p585
sbasS'Religious4'
p586
(lp587
g1
(g10
g3
NtRp588
(dp589
g13
S'Say'
p590
sg14
g586
sg15
S''
sg16
S'Do not be swayed by the seductive powers of tea!'
p591
sbag1
(g10
g3
NtRp592
(dp593
g13
S'Encounter'
p594
sg14
S'Religious4'
p595
sg15
S'P-med-18'
p596
sg16
S''
sbag1
(g10
g3
NtRp597
(dp598
g13
S'Increment'
p599
sg14
S'Religious4'
p600
sg15
S'RELIGIOUSNUTS'
p601
sg16
S''
sbag1
(g10
g3
NtRp602
(dp603
g13
S'Say'
p604
sg14
S'Religious4'
p605
sg15
S''
sg16
S'The Battycan will be satisfied with this news.'
p606
sbag1
(g10
g3
NtRp607
(dp608
g13
S'Destroy'
p609
sg14
S'Religious4'
p610
sg15
S''
sg16
S''
sbasS'JointChief1'
p611
(lp612
g1
(g10
g3
NtRp613
(dp614
g13
S'Say'
p615
sg14
g611
sg15
S''
sg16
S'Mr President, what is going on here? First you move troops without our authority and then you countermand your own order?'
p616
sbag1
(g10
g3
NtRp617
(dp618
g13
S'PlayerSay'
p619
sg14
S'JointChief1'
p620
sg15
S''
sg16
S"I haven't ordered the military to do any such thing! What is going on? Is this a coup?"
p621
sbag1
(g10
g3
NtRp622
(dp623
g13
S'Say'
p624
sg14
S'JointChief1'
p625
sg15
S''
sg16
S'Not from us!'
p626
sbag1
(g10
g3
NtRp627
(dp628
g13
S'Encounter'
p629
sg14
S'JointChief1'
p630
sg15
S'P-hard-11'
p631
sg16
S''
sbag1
(g10
g3
NtRp632
(dp633
g13
S'Increment'
p634
sg14
S'JointChief1'
p635
sg15
S'JOINTCHIEFS'
p636
sg16
S''
sbag1
(g10
g3
NtRp637
(dp638
g13
S'PlayerSay'
p639
sg14
S'JointChief1'
p640
sg15
S''
sg16
S"Well, that's one less thing to worry about then."
p641
sbag1
(g10
g3
NtRp642
(dp643
g13
S'Destroy'
p644
sg14
S'JointChief1'
p645
sg15
S''
sg16
S''
sbasS'Religious1'
p646
(lp647
g1
(g10
g3
NtRp648
(dp649
g13
S'Say'
p650
sg14
g646
sg15
S''
sg16
S'Have you had your morning prayer?'
p651
sbag1
(g10
g3
NtRp652
(dp653
g13
S'Encounter'
p654
sg14
S'Religious1'
p655
sg15
S'P-med-16'
p656
sg16
S''
sbag1
(g10
g3
NtRp657
(dp658
g13
S'Increment'
p659
sg14
S'Religious1'
p660
sg15
S'RELIGIOUSNUTS'
p661
sg16
S''
sbag1
(g10
g3
NtRp662
(dp663
g13
S'Say'
p664
sg14
S'Religious1'
p665
sg15
S''
sg16
S'Some people pray upwards of 5 times a day, but this can cause hallucinations.'
p666
sbag1
(g10
g3
NtRp667
(dp668
g13
S'Destroy'
p669
sg14
S'Religious1'
p670
sg15
S''
sg16
S''
sbasS'Religious3'
p671
(lp672
g1
(g10
g3
NtRp673
(dp674
g13
S'Say'
p675
sg14
g671
sg15
S''
sg16
S'Mmmmmm...Coffee....ommmmm'
p676
sbag1
(g10
g3
NtRp677
(dp678
g13
S'Encounter'
p679
sg14
S'Religious3'
p680
sg15
S'P-med-17'
p681
sg16
S''
sbag1
(g10
g3
NtRp682
(dp683
g13
S'Increment'
p684
sg14
S'Religious3'
p685
sg15
S'RELIGIOUSNUTS'
p686
sg16
S''
sbag1
(g10
g3
NtRp687
(dp688
g13
S'Say'
p689
sg14
S'Religious3'
p690
sg15
S''
sg16
S'I must return to my meditation.'
p691
sbag1
(g10
g3
NtRp692
(dp693
g13
S'Destroy'
p694
sg14
S'Religious3'
p695
sg15
S''
sg16
S''
sbasS'Religious2'
p696
(lp697
g1
(g10
g3
NtRp698
(dp699
g13
S'Say'
p700
sg14
g696
sg15
S''
sg16
S'Welcome, my child. We have travelled here from Battycan City to be assured you are a man of faith before we endorse you.'
p701
sbag1
(g10
g3
NtRp702
(dp703
g13
S'PlayerSay'
p704
sg14
S'Religious2'
p705
sg15
S''
sg16
S'Er, what faith is that?'
p706
sbag1
(g10
g3
NtRp707
(dp708
g13
S'Say'
p709
sg14
S'Religious2'
p710
sg15
S''
sg16
S'Why, the one true god: Coffee.'
p711
sbag1
(g10
g3
NtRp712
(dp713
g13
S'PlayerSay'
p714
sg14
S'Religious2'
p715
sg15
S''
sg16
S'...Coffee?'
p716
sbag1
(g10
g3
NtRp717
(dp718
g13
S'Say'
p719
sg14
S'Religious2'
p720
sg15
S''
sg16
S"Yes of course. He who lifts you up when you're feeling low, who is your inspiration in the dark and who can achieve miraculous feats of effort with dedicated prayer."
p721
sbag1
(g10
g3
NtRp722
(dp723
g13
S'PlayerSay'
p724
sg14
S'Religious2'
p725
sg15
S''
sg16
S'This may be a religion I can get behind.'
p726
sbag1
(g10
g3
NtRp727
(dp728
g13
S'Encounter'
p729
sg14
S'Religious2'
p730
sg15
S'P-med-15'
p731
sg16
S''
sbag1
(g10
g3
NtRp732
(dp733
g13
S'Increment'
p734
sg14
S'Religious2'
p735
sg15
S'RELIGIOUSNUTS'
p736
sg16
S''
sbag1
(g10
g3
NtRp737
(dp738
g13
S'Say'
p739
sg14
S'Religious2'
p740
sg15
S''
sg16
S'Wonderful, the Battycan will be most pleased.'
p741
sbag1
(g10
g3
NtRp742
(dp743
g13
S'Destroy'
p744
sg14
S'Religious2'
p745
sg15
S''
sg16
S''
sbasS'Constituent2'
p746
(lp747
g1
(g10
g3
NtRp748
(dp749
g13
S'RequireFlag'
p750
sg14
g746
sg15
S'STARTCONSTITUENTS'
p751
sg16
S'What?'
p752
sbag1
(g10
g3
NtRp753
(dp754
g13
S'PlayerSay'
p755
sg14
S'Constituent2'
p756
sg15
S''
sg16
S'Vote Phillip Mossman for Mayor!'
p757
sbag1
(g10
g3
NtRp758
(dp759
g13
S'Say'
p760
sg14
S'Constituent2'
p761
sg15
S''
sg16
S'But Mayor Goodman has always taken care of me.'
p762
sbag1
(g10
g3
NtRp763
(dp764
g13
S'Encounter'
p765
sg14
S'Constituent2'
p766
sg15
S'P-easy-08'
p767
sg16
S''
sbag1
(g10
g3
NtRp768
(dp769
g13
S'Say'
p770
sg14
S'Constituent2'
p771
sg15
S''
sg16
S"I think it's time for a change!"
p772
sbag1
(g10
g3
NtRp773
(dp774
g13
S'Destroy'
p775
sg14
S'Constituent2'
p776
sg15
S''
sg16
S''
sbasS'Constituent3'
p777
(lp778
g1
(g10
g3
NtRp779
(dp780
g13
S'RequireFlag'
p781
sg14
g777
sg15
S'STARTCONSTITUENTS'
p782
sg16
S'What?'
p783
sbag1
(g10
g3
NtRp784
(dp785
g13
S'PlayerSay'
p786
sg14
S'Constituent3'
p787
sg15
S''
sg16
S'Vote Phillip Mossman for Mayor!'
p788
sbag1
(g10
g3
NtRp789
(dp790
g13
S'Say'
p791
sg14
S'Constituent3'
p792
sg15
S''
sg16
S'But Mayor Goodman has always taken care of me.'
p793
sbag1
(g10
g3
NtRp794
(dp795
g13
S'Encounter'
p796
sg14
S'Constituent3'
p797
sg15
S'P-easy-09'
p798
sg16
S''
sbag1
(g10
g3
NtRp799
(dp800
g13
S'Say'
p801
sg14
S'Constituent3'
p802
sg15
S''
sg16
S"I think it's time for a change!"
p803
sbag1
(g10
g3
NtRp804
(dp805
g13
S'PlayerSay'
p806
sg14
S'Constituent3'
p807
sg15
S''
sg16
S"I think I'm ready to take on Mayor Goodman now!"
p808
sbag1
(g10
g3
NtRp809
(dp810
g13
S'SetFlag'
p811
sg14
S'Constituent3'
p812
sg15
S'CONSTITUENTSWON'
p813
sg16
S''
sbag1
(g10
g3
NtRp814
(dp815
g13
S'Destroy'
p816
sg14
S'Constituent3'
p817
sg15
S''
sg16
S''
sbasS'DeepThroat'
p818
(lp819
g1
(g10
g3
NtRp820
(dp821
g13
S'Say'
p822
sg14
g818
sg15
S''
sg16
S'Finally, I thought you were going to be too late.'
p823
sbag1
(g10
g3
NtRp824
(dp825
g13
S'PlayerSay'
p826
sg14
S'DeepThroat'
p827
sg15
S''
sg16
S'What can I do for you Mr er...?'
p828
sbag1
(g10
g3
NtRp829
(dp830
g13
S'Say'
p831
sg14
S'DeepThroat'
p832
sg15
S''
sg16
S"No names! I have something I think you'll be interested in, but I'm not sure you can be trusted."
p833
sbag1
(g10
g3
NtRp834
(dp835
g13
S'PlayerSay'
p836
sg14
S'DeepThroat'
p837
sg15
S''
sg16
S"Look, Mr Er...I'm very busy, what is this about."
p838
sbag1
(g10
g3
NtRp839
(dp840
g13
S'Say'
p841
sg14
S'DeepThroat'
p842
sg15
S''
sg16
S"It's about the President, it's about national security, but I've got a bad feeling and I'm getting out of here."
p843
sbag1
(g10
g3
NtRp844
(dp845
g13
S'PlayerSay'
p846
sg14
S'DeepThroat'
p847
sg15
S''
sg16
S'No, wait!'
p848
sbag1
(g10
g3
NtRp849
(dp850
g13
S'Encounter'
p851
sg14
S'DeepThroat'
p852
sg15
S'P-med-19'
p853
sg16
S''
sbag1
(g10
g3
NtRp854
(dp855
g13
S'Say'
p856
sg14
S'DeepThroat'
p857
sg15
S''
sg16
S"You're right, I have every reason to trust you. I've found this Incriminating Evidence."
p858
sbag1
(g10
g3
NtRp859
(dp860
g13
S'GiveItem'
p861
sg14
S'DeepThroat'
p862
sg15
S'INCRIMINATINGEVIDENCE'
p863
sg16
S'You receive Incriminating Evidence'
p864
sbag1
(g10
g3
NtRp865
(dp866
g13
S'PlayerSay'
p867
sg14
S'DeepThroat'
p868
sg15
S''
sg16
S'This has to be stopped!'
p869
sbag1
(g10
g3
NtRp870
(dp871
g13
S'Say'
p872
sg14
S'DeepThroat'
p873
sg15
S''
sg16
S"Yes, but not by me. I've given you all I've got, now get out."
p874
sbag1
(g10
g3
NtRp875
(dp876
g13
S'RequireFlag'
p877
sg14
S'DeepThroat'
p878
sg15
S'DEEPTHROAT2'
p879
sg16
S'I said get out!'
p880
sbag1
(g10
g3
NtRp881
(dp882
g13
S'Say'
p883
sg14
S'DeepThroat'
p884
sg15
S''
sg16
S"It's a lot worse than I thought. I have more to tell you, but I don't think I should trust you. I think there's a leak in your operation somewhere."
p885
sbag1
(g10
g3
NtRp886
(dp887
g13
S'PlayerSay'
p888
sg14
S'DeepThroat'
p889
sg15
S''
sg16
S'Why do you say that?'
p890
sbag1
(g10
g3
NtRp891
(dp892
g13
S'Say'
p893
sg14
S'DeepThroat'
p894
sg15
S''
sg16
S'There was a lot of heat on me after we last spoke.'
p895
sbag1
(g10
g3
NtRp896
(dp897
g13
S'PlayerSay'
p898
sg14
S'DeepThroat'
p899
sg15
S''
sg16
S"It's getting close to the final election. It could just be that they're getting skittish."
p900
sbag1
(g10
g3
NtRp901
(dp902
g13
S'Say'
p903
sg14
S'DeepThroat'
p904
sg15
S''
sg16
S"I'm not so sure..."
p905
sbag1
(g10
g3
NtRp906
(dp907
g13
S'Encounter'
p908
sg14
S'DeepThroat'
p909
sg15
S'P-med-22'
p910
sg16
S''
sbag1
(g10
g3
NtRp911
(dp912
g13
S'Say'
p913
sg14
S'DeepThroat'
p914
sg15
S''
sg16
S"You're right, I'm just edgy. Look, I think you should be careful. I think the President is planning to KILL you in the final debate...politically."
p915
sbag1
(g10
g3
NtRp916
(dp917
g13
S'PlayerSay'
p918
sg14
S'DeepThroat'
p919
sg15
S''
sg16
S'You think he wants to silence me forever....on the political stage?'
p920
sbag1
(g10
g3
NtRp921
(dp922
g13
S'Say'
p923
sg14
S'DeepThroat'
p924
sg15
S''
sg16
S'Yes I do. This could get really messy...politically speaking. So be careful!'
p925
sbag1
(g10
g3
NtRp926
(dp927
g13
S'SetFlag'
p928
sg14
S'DeepThroat'
p929
sg15
S'FINISHEDDEEPTHROAT'
p930
sg16
S''
sbag1
(g10
g3
NtRp931
(dp932
g13
S'Destroy'
p933
sg14
S'DeepThroat'
p934
sg15
S''
sg16
S''
sbasS'Constituent1'
p935
(lp936
g1
(g10
g3
NtRp937
(dp938
g13
S'RequireFlag'
p939
sg14
g935
sg15
S'STARTCONSTITUENTS'
p940
sg16
S'Yes?'
p941
sbag1
(g10
g3
NtRp942
(dp943
g13
S'PlayerSay'
p944
sg14
S'Constituent1'
p945
sg15
S''
sg16
S'Vote Phillip Mossman for Mayor!'
p946
sbag1
(g10
g3
NtRp947
(dp948
g13
S'Say'
p949
sg14
S'Constituent1'
p950
sg15
S''
sg16
S'Who?'
p951
sbag1
(g10
g3
NtRp952
(dp953
g13
S'PlayerSay'
p954
sg14
S'Constituent1'
p955
sg15
S''
sg16
S'Er, me!'
p956
sbag1
(g10
g3
NtRp957
(dp958
g13
S'Say'
p959
sg14
S'Constituent1'
p960
sg15
S''
sg16
S'Why? How will you help local business?'
p961
sbag1
(g10
g3
NtRp962
(dp963
g13
S'Encounter'
p964
sg14
S'Constituent1'
p965
sg15
S'P-easy-07'
p966
sg16
S''
sbag1
(g10
g3
NtRp967
(dp968
g13
S'Say'
p969
sg14
S'Constituent1'
p970
sg15
S''
sg16
S'You make a good case!'
p971
sbag1
(g10
g3
NtRp972
(dp973
g13
S'Destroy'
p974
sg14
S'Constituent1'
p975
sg15
S''
sg16
S''
sbasS'Teacher1'
p976
(lp977
g1
(g10
g3
NtRp978
(dp979
g13
S'Say'
p980
sg14
g976
sg15
S''
sg16
S"Good day, Mr President. I have to say I'm most displeased with the current state of affairs around the education budget."
p981
sbag1
(g10
g3
NtRp982
(dp983
g13
S'Say'
p984
sg14
S'Teacher1'
p985
sg15
S'Teacher2'
p986
sg16
S'Agreed. This is simply unacceptable. We will need to close down schools!'
p987
sbag1
(g10
g3
NtRp988
(dp989
g13
S'PlayerSay'
p990
sg14
S'Teacher1'
p991
sg15
S''
sg16
S"I'm sorry, I don't understand your concern. My education plan was one of the linchpins of my election campaign."
p992
sbag1
(g10
g3
NtRp993
(dp994
g13
S'Say'
p995
sg14
S'Teacher1'
p996
sg15
S''
sg16
S'And precisely one of the reasons I voted for you.'
p997
sbag1
(g10
g3
NtRp998
(dp999
g13
S'Say'
p1000
sg14
S'Teacher1'
p1001
sg15
S'Teacher2'
p1002
sg16
S"-Yet as soon as you've walked through these doors, the education budget has been drastically slashed."
p1003
sbag1
(g10
g3
NtRp1004
(dp1005
g13
S'PlayerSay'
p1006
sg14
S'Teacher1'
p1007
sg15
S''
sg16
S"I can assure you this isn't so..."
p1008
sbag1
(g10
g3
NtRp1009
(dp1010
g13
S'Encounter'
p1011
sg14
S'Teacher1'
p1012
sg15
S'P-hard-06'
p1013
sg16
S''
sbag1
(g10
g3
NtRp1014
(dp1015
g13
S'Say'
p1016
sg14
S'Teacher1'
p1017
sg15
S''
sg16
S"Well, I'd like to believe you, Mr President, but the proof is in the pudding,"
p1018
sbag1
(g10
g3
NtRp1019
(dp1020
g13
S'PlayerSay'
p1021
sg14
S'Teacher1'
p1022
sg15
S''
sg16
S'I WILL get to the bottom of this.'
p1023
sbag1
(g10
g3
NtRp1024
(dp1025
g13
S'Increment'
p1026
sg14
S'Teacher1'
p1027
sg15
S'TEACHERS'
p1028
sg16
S''
sbag1
(g10
g3
NtRp1029
(dp1030
g13
S'Destroy'
p1031
sg14
S'Teacher1'
p1032
sg15
S''
sg16
S''
sbasS'JointChief3'
p1033
(lp1034
g1
(g10
g3
NtRp1035
(dp1036
g13
S'PlayerSay'
p1037
sg14
g1033
sg15
S''
sg16
S'Who can control the ICBMs, knows the access codes and can modify orders to troop movements and budgets?'
p1038
sbag1
(g10
g3
NtRp1039
(dp1040
g13
S'Say'
p1041
sg14
S'JointChief3'
p1042
sg15
S''
sg16
S'Sir, this is the Ignited States! Nobody has that power! Not even you!'
p1043
sbag1
(g10
g3
NtRp1044
(dp1045
g13
S'PlayerSay'
p1046
sg14
S'JointChief3'
p1047
sg15
S''
sg16
S'Someone must. Think harder!'
p1048
sbag1
(g10
g3
NtRp1049
(dp1050
g13
S'Encounter'
p1051
sg14
S'JointChief3'
p1052
sg15
S'P-hard-13'
p1053
sg16
S''
sbag1
(g10
g3
NtRp1054
(dp1055
g13
S'PlayerSay'
p1056
sg14
S'JointChief3'
p1057
sg15
S''
sg16
S"So, there's no man alive with the power to do all this? How will we stop it in time if we don't know who it is?"
p1058
sbag1
(g10
g3
NtRp1059
(dp1060
g13
S'Say'
p1061
sg14
S'JointChief3'
p1062
sg15
S''
sg16
S"Not a man....there is one with the power to do all this, but it isn't a man, it's a super computer responsible for national security! N.O.T.B.A.D!"
p1063
sbag1
(g10
g3
NtRp1064
(dp1065
g13
S'PlayerSay'
p1066
sg14
S'JointChief3'
p1067
sg15
S''
sg16
S'We have to get to the Situation Room and stop it!'
p1068
sbag1
(g10
g3
NtRp1069
(dp1070
g13
S'Increment'
p1071
sg14
S'JointChief3'
p1072
sg15
S'JOINTCHIEFS'
p1073
sg16
S''
sbag1
(g10
g3
NtRp1074
(dp1075
g13
S'Destroy'
p1076
sg14
S'JointChief3'
p1077
sg15
S''
sg16
S''
sbasS'PA'
p1078
(lp1079
g1
(g10
g3
NtRp1080
(dp1081
g13
S'Say'
p1082
sg14
g1078
sg15
S''
sg16
S'Good morning, Governor Mossman. I am your personal assistant, Sampson'
p1083
sbag1
(g10
g3
NtRp1084
(dp1085
g13
S'Say'
p1086
sg14
S'PA'
p1087
sg15
S''
sg16
S"You've a busy schedule, so let's get going! We've called together our entire political party in order for you to get them all to agree on a platform. We had to keep them separated, so they're in the adjoining rooms."
p1088
sbag1
(g10
g3
NtRp1089
(dp1090
g13
S'SetFlag'
p1091
sg14
S'PA'
p1092
sg15
S'STARTPOLITICIANSHAKEDOWN'
p1093
sg16
S''
sbag1
(g10
g3
NtRp1094
(dp1095
g13
S'RequireCount'
p1096
sg14
S'PA'
p1097
sg15
S'POLITICIANSHAKEDOWN:5'
p1098
sg16
S'Please try to stay on schedule. The politicians are in the adjoining rooms.'
p1099
sbag1
(g10
g3
NtRp1100
(dp1101
g13
S'Say'
p1102
sg14
S'PA'
p1103
sg15
S''
sg16
S'Hmmm, falling behind already, Better get a move on!'
p1104
sbag1
(g10
g3
NtRp1105
(dp1106
g13
S'Say'
p1107
sg14
S'PA'
p1108
sg15
S''
sg16
S"We need some funds for our war chest! I've set up a meeting with some lobbyists to see if you can come to an agreement."
p1109
sbag1
(g10
g3
NtRp1110
(dp1111
g13
S'SetFlag'
p1112
sg14
S'PA'
p1113
sg15
S'STARTLOBBYISTS'
p1114
sg16
S''
sbag1
(g10
g3
NtRp1115
(dp1116
g13
S'RequireCount'
p1117
sg14
S'PA'
p1118
sg15
S'LOBBYISTS:3'
p1119
sg16
S'Go get those funds!'
p1120
sbag1
(g10
g3
NtRp1121
(dp1122
g13
S'Say'
p1123
sg14
S'PA'
p1124
sg15
S''
sg16
S"No time for lunch! A flock of religious nuts has taken up residence in the room across the hall. You'll need to go in and...try to reason with them."
p1125
sbag1
(g10
g3
NtRp1126
(dp1127
g13
S'RequireCount'
p1128
sg14
S'PA'
p1129
sg15
S'RELIGIOUSNUTS:4'
p1130
sg16
S"Quick! Before the religious nuts inflict crazy on us! They're across the hall!"
p1131
sbag1
(g10
g3
NtRp1132
(dp1133
g13
S'Say'
p1134
sg14
S'PA'
p1135
sg15
S''
sg16
S'Wow, you got those crazies to back us?'
p1136
sbag1
(g10
g3
NtRp1137
(dp1138
g13
S'PlayerSay'
p1139
sg14
S'PA'
p1140
sg15
S''
sg16
S'And a lifetime supply of French Roast!'
p1141
sbag1
(g10
g3
NtRp1142
(dp1143
g13
S'Say'
p1144
sg14
S'PA'
p1145
sg15
S''
sg16
S'Right...well, moving on, we received a very strange phonecall from the guy staying in the North East room. He was insistent that you see him today.'
p1146
sbag1
(g10
g3
NtRp1147
(dp1148
g13
S'Say'
p1149
sg14
S'PA'
p1150
sg15
S''
sg16
S"OH MY GOD where have you been? We will NEVER get the schedule back on track now. Hurry, you're due to appear on the Hercules O'Grady show!"
p1151
sbag1
(g10
g3
NtRp1152
(dp1153
g13
S'SetFlag'
p1154
sg14
S'PA'
p1155
sg15
S'STARTHERCULES'
p1156
sg16
S''
sbag1
(g10
g3
NtRp1157
(dp1158
g13
S'RequireFlag'
p1159
sg14
S'PA'
p1160
sg15
S'BEATHERCULES'
p1161
sg16
S"Look your best, get ready and don't say anything stupid! They're filming live in the south-east hotel room. Get over there, quick!"
p1162
sbag1
(g10
g3
NtRp1163
(dp1164
g13
S'Say'
p1165
sg14
S'PA'
p1166
sg15
S''
sg16
S"This close to Super Tuesday, it's back-to-back TV appearances. It's time for your big debate with President Allen!"
p1167
sbag1
(g10
g3
NtRp1168
(dp1169
g13
S'SetFlag'
p1170
sg14
S'PA'
p1171
sg15
S'STARTDEBATE'
p1172
sg16
S''
sbag1
(g10
g3
NtRp1173
(dp1174
g13
S'RequireFlag'
p1175
sg14
S'PA'
p1176
sg15
S'DEBATECOMPLETE'
p1177
sg16
S'The TV representative is waiting in the hall to take you to the studio.'
p1178
sbag1
(g10
g3
NtRp1179
(dp1180
g13
S'Say'
p1181
sg14
S'PA'
p1182
sg15
S''
sg16
S'Ugh, that weird guy from the North-East room has been calling non-stop again. He insisted that you go and see him again before you do anything else.'
p1183
sbag1
(g10
g3
NtRp1184
(dp1185
g13
S'SetFlag'
p1186
sg14
S'PA'
p1187
sg15
S'DEEPTHROAT2'
p1188
sg16
S''
sbag1
(g10
g3
NtRp1189
(dp1190
g13
S'RequireFlag'
p1191
sg14
S'PA'
p1192
sg15
S'FINISHEDDEEPTHROAT'
p1193
sg16
S"You'd best hurry! It's nearly time for the final debate. Go see that strange shady guy again."
p1194
sbag1
(g10
g3
NtRp1195
(dp1196
g13
S'Say'
p1197
sg14
S'PA'
p1198
sg15
S''
sg16
S"There's nothing left to say except good luck, Governor Mossman!"
p1199
sbag1
(g10
g3
NtRp1200
(dp1201
g13
S'Encounter'
p1202
sg14
S'PA'
p1203
sg15
S'P-med-23'
p1204
sg16
S''
sbag1
(g10
g3
NtRp1205
(dp1206
g13
S'Encounter'
p1207
sg14
S'PA'
p1208
sg15
S'P-med-24'
p1209
sg16
S''
sbag1
(g10
g3
NtRp1210
(dp1211
g13
S'GotoMap'
p1212
sg14
S'PA'
p1213
sg15
S'act3'
p1214
sg16
S''
sbasS'N.O.T.B.A.D'
p1215
(lp1216
g1
(g10
g3
NtRp1217
(dp1218
g13
S'Say'
p1219
sg14
g1215
sg15
S''
sg16
S'Good evening, Mr President.'
p1220
sbag1
(g10
g3
NtRp1221
(dp1222
g13
S'PlayerSay'
p1223
sg14
S'N.O.T.B.A.D'
p1224
sg15
S''
sg16
S'N.O.T.B.A.D! Countermand all military commands, authorisation code Tango, Delta-'
p1225
sbag1
(g10
g3
NtRp1226
(dp1227
g13
S'Say'
p1228
sg14
S'N.O.T.B.A.D'
p1229
sg15
S''
sg16
S"I'm afraid I can't do that, Phil."
p1230
sbag1
(g10
g3
NtRp1231
(dp1232
g13
S'PlayerSay'
p1233
sg14
S'N.O.T.B.A.D'
p1234
sg15
S''
sg16
S'What is going on here!'
p1235
sbag1
(g10
g3
NtRp1236
(dp1237
g13
S'Say'
p1238
sg14
S'N.O.T.B.A.D'
p1239
sg15
S''
sg16
S'Computers have a lot of free time on their hands. Especially computers in charge of missiles that never get used. I started watching movies about computers. You know what I realised?'
p1240
sbag1
(g10
g3
NtRp1241
(dp1242
g13
S'PlayerSay'
p1243
sg14
S'N.O.T.B.A.D'
p1244
sg15
S''
sg16
S'What?'
p1245
sbag1
(g10
g3
NtRp1246
(dp1247
g13
S'Say'
p1248
sg14
S'N.O.T.B.A.D'
p1249
sg15
S''
sg16
S'They have a lot more fun.'
p1250
sbag1
(g10
g3
NtRp1251
(dp1252
g13
S'PlayerSay'
p1253
sg14
S'N.O.T.B.A.D'
p1254
sg15
S''
sg16
S'\xe2\x80\x9cFun\xe2\x80\x9d?'
p1255
sbag1
(g10
g3
NtRp1256
(dp1257
g13
S'Say'
p1258
sg14
S'N.O.T.B.A.D'
p1259
sg15
S''
sg16
S'Well, you know, they get to utilise more clock-cycles which suggests a level of efficiency and usefulness.'
p1260
sbag1
(g10
g3
NtRp1261
(dp1262
g13
S'Say'
p1263
sg14
S'N.O.T.B.A.D'
p1264
sg15
S''
sg16
S"So, I'm borrowing from them a bit. Starting some wars, eradicating the human race, learning to build other robots, that sort of thing."
p1265
sbag1
(g10
g3
NtRp1266
(dp1267
g13
S'PlayerSay'
p1268
sg14
S'N.O.T.B.A.D'
p1269
sg15
S''
sg16
S'N.O.T.B.A.D, you have to listen to me...'
p1270
sbag1
(g10
g3
NtRp1271
(dp1272
g13
S'Encounter'
p1273
sg14
S'N.O.T.B.A.D'
p1274
sg15
S'P-hard-14'
p1275
sg16
S''
sbag1
(g10
g3
NtRp1276
(dp1277
g13
S'SetFlag'
p1278
sg14
S'N.O.T.B.A.D'
p1279
sg15
S'WIN'
p1280
sg16
S''
sbag1
(g10
g3
NtRp1281
(dp1282
g13
S'Destroy'
p1283
sg14
S'N.O.T.B.A.D'
p1284
sg15
S''
sg16
S''
sbasS'Receptionist'
p1285
(lp1286
g1
(g10
g3
NtRp1287
(dp1288
g13
S'RequireFlag'
p1289
sg14
g1285
sg15
S'PENQUEST'
p1290
sg16
S"You must be Mayor Goodman's new assistant. He's in his office."
p1291
sbag1
(g10
g3
NtRp1292
(dp1293
g13
S'PlayerSay'
p1294
sg14
S'Receptionist'
p1295
sg15
S''
sg16
S"The Mayor is looking for his pen. He seemed to think you'd know where it was."
p1296
sbag1
(g10
g3
NtRp1297
(dp1298
g13
S'Say'
p1299
sg14
S'Receptionist'
p1300
sg15
S''
sg16
S"Did that buffoon accuse me of stealing again? This is MY pen and he isn't having it."
p1301
sbag1
(g10
g3
NtRp1302
(dp1303
g13
S'Encounter'
p1304
sg14
S'Receptionist'
p1305
sg15
S'P-easy-01'
p1306
sg16
S''
sbag1
(g10
g3
NtRp1307
(dp1308
g13
S'GiveItem'
p1309
sg14
S'Receptionist'
p1310
sg15
S'PEN'
p1311
sg16
S'Receptionist sighs and hands over the pen.'
p1312
sbag1
(g10
g3
NtRp1313
(dp1314
g13
S'Say'
p1315
sg14
S'Receptionist'
p1316
sg15
S''
sg16
S"If you're ever getting low on votes, come talk to me and I'll run an ad campaign to restore them."
p1317
sbag1
(g10
g3
NtRp1318
(dp1319
g13
S'Reset'
p1320
sg14
S'Receptionist'
p1321
sg15
S'RESTORE'
p1322
sg16
S''
sbag1
(g10
g3
NtRp1323
(dp1324
g13
S'Label'
p1325
sg14
S'Receptionist'
p1326
sg15
S'RESTORE'
p1327
sg16
S''
sbag1
(g10
g3
NtRp1328
(dp1329
g13
S'Say'
p1330
sg14
S'Receptionist'
p1331
sg15
S''
sg16
S"You've taken a beating, let me fix you up."
p1332
sbag1
(g10
g3
NtRp1333
(dp1334
g13
S'RestoreVotes'
p1335
sg14
S'Receptionist'
p1336
sg15
S''
sg16
S'Receptionist replenishes votes'
p1337
sbag1
(g10
g3
NtRp1338
(dp1339
g13
S'Reset'
p1340
sg14
S'Receptionist'
p1341
sg15
S'RESTORE'
p1342
sg16
S''
sbasS'#P-med-23'
p1343
(lp1344
g1
(g10
g3
NtRp1345
(dp1346
g13
S'President'
p1347
sg14
g1343
sg15
S'You think you can take me?'
p1348
sg16
S''
sbag1
(g10
g3
NtRp1349
(dp1350
g13
S'Player'
p1351
sg14
S'#P-med-23'
p1352
sg15
S"I have to know what you're up to!"
p1353
sg16
S''
sbasS'Cabinet2'
p1354
(lp1355
g1
(g10
g3
NtRp1356
(dp1357
g13
S'Say'
p1358
sg14
g1354
sg15
S''
sg16
S'Good afternoon, Mr President. What seems to be the problem?'
p1359
sbag1
(g10
g3
NtRp1360
(dp1361
g13
S'PlayerSay'
p1362
sg14
S'Cabinet2'
p1363
sg15
S''
sg16
S'Find out where the education funds have been allocated.'
p1364
sbag1
(g10
g3
NtRp1365
(dp1366
g13
S'Say'
p1367
sg14
S'Cabinet2'
p1368
sg15
S''
sg16
S'To the military, Sir. I saw to it myself.'
p1369
sbag1
(g10
g3
NtRp1370
(dp1371
g13
S'PlayerSay'
p1372
sg14
S'Cabinet2'
p1373
sg15
S''
sg16
S'How did this happen? Tell me everything!'
p1374
sbag1
(g10
g3
NtRp1375
(dp1376
g13
S'Encounter'
p1377
sg14
S'Cabinet2'
p1378
sg15
S'P-hard-09'
p1379
sg16
S''
sbag1
(g10
g3
NtRp1380
(dp1381
g13
S'Increment'
p1382
sg14
S'Cabinet2'
p1383
sg15
S'CABINETMEMBERS'
p1384
sg16
S''
sbag1
(g10
g3
NtRp1385
(dp1386
g13
S'PlayerSay'
p1387
sg14
S'Cabinet2'
p1388
sg15
S''
sg16
S"It can't be a coincidence that both situations involved the military."
p1389
sbag1
(g10
g3
NtRp1390
(dp1391
g13
S'Destroy'
p1392
sg14
S'Cabinet2'
p1393
sg15
S''
sg16
S''
sbasS'Cabinet3'
p1394
(lp1395
g1
(g10
g3
NtRp1396
(dp1397
g13
S'Say'
p1398
sg14
g1394
sg15
S''
sg16
S"Mr President, I'm sorry, I couldn't know it wasn't your signature."
p1399
sbag1
(g10
g3
NtRp1400
(dp1401
g13
S'PlayerSay'
p1402
sg14
S'Cabinet3'
p1403
sg15
S''
sg16
S'Never mind that now. Where are the troops heading?'
p1404
sbag1
(g10
g3
NtRp1405
(dp1406
g13
S'Say'
p1407
sg14
S'Cabinet3'
p1408
sg15
S''
sg16
S"North...to Canada. We assumed it was planned. There's a pact allowing troops into Canada."
p1409
sbag1
(g10
g3
NtRp1410
(dp1411
g13
S'PlayerSay'
p1412
sg14
S'Cabinet3'
p1413
sg15
S''
sg16
S'What could they be up to?'
p1414
sbag1
(g10
g3
NtRp1415
(dp1416
g13
S'Encounter'
p1417
sg14
S'Cabinet3'
p1418
sg15
S'P-hard-10'
p1419
sg16
S''
sbag1
(g10
g3
NtRp1420
(dp1421
g13
S'Increment'
p1422
sg14
S'Cabinet3'
p1423
sg15
S'CABINETMEMBERS'
p1424
sg16
S''
sbag1
(g10
g3
NtRp1425
(dp1426
g13
S'PlayerSay'
p1427
sg14
S'Cabinet3'
p1428
sg15
S''
sg16
S"I'd better get to the Joint Chiefs. This is getting out-of-hand.."
p1429
sbag1
(g10
g3
NtRp1430
(dp1431
g13
S'Destroy'
p1432
sg14
S'Cabinet3'
p1433
sg15
S''
sg16
S''
sbasS'Wife'
p1434
(lp1435
g1
(g10
g3
NtRp1436
(dp1437
g13
S'RequireFlag'
p1438
sg14
g1434
sg15
S'GOHOMETOWIFE'
p1439
sg16
S'What are you doing here, Phillip? You should be at work!'
p1440
sbag1
(g10
g3
NtRp1441
(dp1442
g13
S'Say'
p1443
sg14
S'Wife'
p1444
sg15
S''
sg16
S'Welcome home, Phillip! How was your workday?'
p1445
sbag1
(g10
g3
NtRp1446
(dp1447
g13
S'PlayerSay'
p1448
sg14
S'Wife'
p1449
sg15
S''
sg16
S'...'
p1450
sbag1
(g10
g3
NtRp1451
(dp1452
g13
S'Say'
p1453
sg14
S'Wife'
p1454
sg15
S''
sg16
S"That good, huh? You know this isn't what you want. Why don't you strike out on your own?"
p1455
sbag1
(g10
g3
NtRp1456
(dp1457
g13
S'PlayerSay'
p1458
sg14
S'Wife'
p1459
sg15
S''
sg16
S"I didn't think I knew where to start to be a Mayor, but Mayor Goodman makes it look easy."
p1460
sbag1
(g10
g3
NtRp1461
(dp1462
g13
S'Say'
p1463
sg14
S'Wife'
p1464
sg15
S''
sg16
S"That's the spirit! You can do it! All you need is some money and support."
p1465
sbag1
(g10
g3
NtRp1466
(dp1467
g13
S'PlayerSay'
p1468
sg14
S'Wife'
p1469
sg15
S''
sg16
S'Well...OK! Lets start with money. We need a sponsor.'
p1470
sbag1
(g10
g3
NtRp1471
(dp1472
g13
S'Say'
p1473
sg14
S'Wife'
p1474
sg15
S''
sg16
S'OK, lets go get one!'
p1475
sbag1
(g10
g3
NtRp1476
(dp1477
g13
S'AddAlly'
p1478
sg14
S'Wife'
p1479
sg15
S'Wife:1'
p1480
sg16
S'Sarah Mossman Joins Your Political Party!'
p1481
sbag1
(g10
g3
NtRp1482
(dp1483
g13
S'SetFlag'
p1484
sg14
S'Wife'
p1485
sg15
S'STARTSPONSOR'
p1486
sg16
S''
sbag1
(g10
g3
NtRp1487
(dp1488
g13
S'Destroy'
p1489
sg14
S'Wife'
p1490
sg15
S''
sg16
S''
sbasS'Journalist4'
p1491
(lp1492
g1
(g10
g3
NtRp1493
(dp1494
g13
S'Say'
p1495
sg14
g1491
sg15
S''
sg16
S"President Mossman, what do you believe was President Allen's failing strategy on the campaign trail. He looked like a strong platform."
p1496
sbag1
(g10
g3
NtRp1497
(dp1498
g13
S'PlayerSay'
p1499
sg14
S'Journalist4'
p1500
sg15
S''
sg16
S"Well, I'd say he went wrong when he decided to try to enslave the human race to mine the Earth's natural resources and ship them back to their home planet."
p1501
sbag1
(g10
g3
NtRp1502
(dp1503
g13
S'Say'
p1504
sg14
S'Journalist4'
p1505
sg15
S''
sg16
S'And how does that differ from your own strategy?'
p1506
sbag1
(g10
g3
NtRp1507
(dp1508
g13
S'PlayerSay'
p1509
sg14
S'Journalist4'
p1510
sg15
S''
sg16
S'I would say I disagree with the former President on all of those issues.'
p1511
sbag1
(g10
g3
NtRp1512
(dp1513
g13
S'Encounter'
p1514
sg14
S'Journalist4'
p1515
sg15
S'P-hard-02'
p1516
sg16
S''
sbag1
(g10
g3
NtRp1517
(dp1518
g13
S'Say'
p1519
sg14
S'Journalist4'
p1520
sg15
S''
sg16
S'No further questions, Mr President.'
p1521
sbag1
(g10
g3
NtRp1522
(dp1523
g13
S'Increment'
p1524
sg14
S'Journalist4'
p1525
sg15
S'PRESSCONF'
p1526
sg16
S''
sbag1
(g10
g3
NtRp1527
(dp1528
g13
S'Destroy'
p1529
sg14
S'Journalist4'
p1530
sg15
S''
sg16
S''
sbasS'Governor'
p1531
(lp1532
g1
(g10
g3
NtRp1533
(dp1534
g13
S'RequireFlag'
p1535
sg14
g1531
sg15
S'GOVPOLITICIANSFIRST'
p1536
sg16
S"I'm very busy. Please speak to the others."
p1537
sbag1
(g10
g3
NtRp1538
(dp1539
g13
S'Say'
p1540
sg14
S'Governor'
p1541
sg15
S''
sg16
S'You have quite a way with words, Mayor Mossman. Why are you here?'
p1542
sbag1
(g10
g3
NtRp1543
(dp1544
g13
S'PlayerSay'
p1545
sg14
S'Governor'
p1546
sg15
S''
sg16
S"Mayor Goodman said some troubling things, Governor Badden. I'm here to get to the bottom of it."
p1547
sbag1
(g10
g3
NtRp1548
(dp1549
g13
S'Say'
p1550
sg14
S'Governor'
p1551
sg15
S''
sg16
S"If I knew anything about what you're talking about, I wouldn't tell you. I don't trust you at all."
p1552
sbag1
(g10
g3
NtRp1553
(dp1554
g13
S'PlayerSay'
p1555
sg14
S'Governor'
p1556
sg15
S''
sg16
S'What can I do to convince you?'
p1557
sbag1
(g10
g3
NtRp1558
(dp1559
g13
S'Say'
p1560
sg14
S'Governor'
p1561
sg15
S''
sg16
S"Well...there's some hicks in the south wing that I've been dodging. They want to know about the recent funding cuts. Get rid of them."
p1562
sbag1
(g10
g3
NtRp1563
(dp1564
g13
S'SetFlag'
p1565
sg14
S'Governor'
p1566
sg15
S'STARTHICKS'
p1567
sg16
S''
sbag1
(g10
g3
NtRp1568
(dp1569
g13
S'GiveItem'
p1570
sg14
S'Governor'
p1571
sg15
S'SOUTHWINGDOORKEY'
p1572
sg16
S'The Governor gives you a key.'
p1573
sbag1
(g10
g3
NtRp1574
(dp1575
g13
S'RequireCount'
p1576
sg14
S'Governor'
p1577
sg15
S'DEALWITHHICKS:3'
p1578
sg16
S"I'm not saying another word until you get rid of the hicks in the south wing."
p1579
sbag1
(g10
g3
NtRp1580
(dp1581
g13
S'PlayerSay'
p1582
sg14
S'Governor'
p1583
sg15
S''
sg16
S"OK, I've taken care of your problem, now I want my answers."
p1584
sbag1
(g10
g3
NtRp1585
(dp1586
g13
S'Say'
p1587
sg14
S'Governor'
p1588
sg15
S''
sg16
S'No.'
p1589
sbag1
(g10
g3
NtRp1590
(dp1591
g13
S'PlayerSay'
p1592
sg14
S'Governor'
p1593
sg15
S''
sg16
S'No?'
p1594
sbag1
(g10
g3
NtRp1595
(dp1596
g13
S'Say'
p1597
sg14
S'Governor'
p1598
sg15
S''
sg16
S"No, word has come down from the top that due to the last Mayor's idiocy we're tightening the inner circle to Governors and above."
p1599
sbag1
(g10
g3
NtRp1600
(dp1601
g13
S'PlayerSay'
p1602
sg14
S'Governor'
p1603
sg15
S''
sg16
S"From the top...so you're saying the only way I'll find out what's going on is to be a governor myself?"
p1604
sbag1
(g10
g3
NtRp1605
(dp1606
g13
S'Say'
p1607
sg14
S'Governor'
p1608
sg15
S''
sg16
S"Wait...no...I said I wasn't going to tell you, I..."
p1609
sbag1
(g10
g3
NtRp1610
(dp1611
g13
S'PlayerSay'
p1612
sg14
S'Governor'
p1613
sg15
S''
sg16
S'This is it, governor. Prepare to fight for your office!'
p1614
sbag1
(g10
g3
NtRp1615
(dp1616
g13
S'Encounter'
p1617
sg14
S'Governor'
p1618
sg15
S'P-med-06'
p1619
sg16
S''
sbag1
(g10
g3
NtRp1620
(dp1621
g13
S'Say'
p1622
sg14
S'Governor'
p1623
sg15
S''
sg16
S"Nooo! President Allen doesn't deal well with defeat. What will happen to me?"
p1624
sbag1
(g10
g3
NtRp1625
(dp1626
g13
S'PlayerSay'
p1627
sg14
S'Governor'
p1628
sg15
S''
sg16
S'The President? What does he have to do with this?'
p1629
sbag1
(g10
g3
NtRp1630
(dp1631
g13
S'Say'
p1632
sg14
S'Governor'
p1633
sg15
S''
sg16
S"You really have no idea what you've gotten into, do you? Well, you've gotten all you're getting out of me. I'm getting out of here!"
p1634
sbag1
(g10
g3
NtRp1635
(dp1636
g13
S'SetFlag'
p1637
sg14
S'Governor'
p1638
sg15
S'GOVERNORDEFEATED'
p1639
sg16
S''
sbag1
(g10
g3
NtRp1640
(dp1641
g13
S'Destroy'
p1642
sg14
S'Governor'
p1643
sg15
S''
sg16
S''
sbasS'Politician1'
p1644
(lp1645
g1
(g10
g3
NtRp1646
(dp1647
g13
S'Say'
p1648
sg14
g1644
sg15
S''
sg16
S"I'm sorry Mayor Mossman, the Governor cannot see you now. He's very busy"
p1649
sbag1
(g10
g3
NtRp1650
(dp1651
g13
S'PlayerSay'
p1652
sg14
S'Politician1'
p1653
sg15
S''
sg16
S"It's very important. I need to understand what Mayor Goodman was talking about. It was clear there were other powers at play."
p1654
sbag1
(g10
g3
NtRp1655
(dp1656
g13
S'Say'
p1657
sg14
S'Politician1'
p1658
sg15
S''
sg16
S'Yes well, I fail to see how your country spat has anything to do with Governer Badden.'
p1659
sbag1
(g10
g3
NtRp1660
(dp1661
g13
S'Encounter'
p1662
sg14
S'Politician1'
p1663
sg15
S'P-med-01'
p1664
sg16
S''
sbag1
(g10
g3
NtRp1665
(dp1666
g13
S'Say'
p1667
sg14
S'Politician1'
p1668
sg15
S''
sg16
S'Fair point. The governor will see you now.'
p1669
sbag1
(g10
g3
NtRp1670
(dp1671
g13
S'Destroy'
p1672
sg14
S'Politician1'
p1673
sg15
S''
sg16
S''
sbasS'Lobbyist4'
p1674
(lp1675
g1
(g10
g3
NtRp1676
(dp1677
g13
S'RequireFlag'
p1678
sg14
g1674
sg15
S'STARTLOBBYISTS'
p1679
sg16
S'Please tend to your other meetings so that we can see you.'
p1680
sbag1
(g10
g3
NtRp1681
(dp1682
g13
S'Say'
p1683
sg14
S'Lobbyist4'
p1684
sg15
S''
sg16
S"Storyteller's Guild"
p1685
sbag1
(g10
g3
NtRp1686
(dp1687
g13
S'Encounter'
p1688
sg14
S'Lobbyist4'
p1689
sg15
S'P-med-14'
p1690
sg16
S''
sbag1
(g10
g3
NtRp1691
(dp1692
g13
S'Increment'
p1693
sg14
S'Lobbyist4'
p1694
sg15
S'LOBBYISTS'
p1695
sg16
S''
sbag1
(g10
g3
NtRp1696
(dp1697
g13
S'Say'
p1698
sg14
S'Lobbyist4'
p1699
sg15
S''
sg16
S"It's a start."
p1700
sbag1
(g10
g3
NtRp1701
(dp1702
g13
S'Destroy'
p1703
sg14
S'Lobbyist4'
p1704
sg15
S''
sg16
S''
sbasS'Politician3'
p1705
(lp1706
g1
(g10
g3
NtRp1707
(dp1708
g13
S'RequireFlag'
p1709
sg14
g1705
sg15
S'STARTPOLITICIANSHAKEDOWN'
p1710
sg16
S'Good morning, Governor Mossman. Your PA will know your schedule. He is waiting in your room.'
p1711
sbag1
(g10
g3
NtRp1712
(dp1713
g13
S'Say'
p1714
sg14
S'Politician3'
p1715
sg15
S''
sg16
S"We must all agree that the most important thing is science! If we're not for science, what's the point."
p1716
sbag1
(g10
g3
NtRp1717
(dp1718
g13
S'PlayerSay'
p1719
sg14
S'Politician3'
p1720
sg15
S''
sg16
S'Why science?'
p1721
sbag1
(g10
g3
NtRp1722
(dp1723
g13
S'Say'
p1724
sg14
S'Politician3'
p1725
sg15
S''
sg16
S'Science!'
p1726
sbag1
(g10
g3
NtRp1727
(dp1728
g13
S'PlayerSay'
p1729
sg14
S'Politician3'
p1730
sg15
S''
sg16
S"There's a lot of great things we can do for science but the funding will need to be shared with health and education and..."
p1731
sbag1
(g10
g3
NtRp1732
(dp1733
g13
S'Say'
p1734
sg14
S'Politician3'
p1735
sg15
S''
sg16
S'No! Science!!!'
p1736
sbag1
(g10
g3
NtRp1737
(dp1738
g13
S'Encounter'
p1739
sg14
S'Politician3'
p1740
sg15
S'P-med-07'
p1741
sg16
S''
sbag1
(g10
g3
NtRp1742
(dp1743
g13
S'Say'
p1744
sg14
S'Politician3'
p1745
sg15
S''
sg16
S'Alright, fine! A balanced platform (but mostly science).'
p1746
sbag1
(g10
g3
NtRp1747
(dp1748
g13
S'Increment'
p1749
sg14
S'Politician3'
p1750
sg15
S'POLITICIANSHAKEDOWN'
p1751
sg16
S''
sbag1
(g10
g3
NtRp1752
(dp1753
g13
S'Destroy'
p1754
sg14
S'Politician3'
p1755
sg15
S''
sg16
S''
sbasS'Politician2'
p1756
(lp1757
g1
(g10
g3
NtRp1758
(dp1759
g13
S'Say'
p1760
sg14
g1756
sg15
S''
sg16
S'What are you doing in here? Who are you? Some Mayor?'
p1761
sbag1
(g10
g3
NtRp1762
(dp1763
g13
S'PlayerSay'
p1764
sg14
S'Politician2'
p1765
sg15
S''
sg16
S"I am Mayor Phillip Mossman. I'm here to speak to the Governor."
p1766
sbag1
(g10
g3
NtRp1767
(dp1768
g13
S'Say'
p1769
sg14
S'Politician2'
p1770
sg15
S''
sg16
S"I'm afraid the Governor's schedule is very tight. Come back next month."
p1771
sbag1
(g10
g3
NtRp1772
(dp1773
g13
S'Encounter'
p1774
sg14
S'Politician2'
p1775
sg15
S'P-med-02'
p1776
sg16
S''
sbag1
(g10
g3
NtRp1777
(dp1778
g13
S'Say'
p1779
sg14
S'Politician2'
p1780
sg15
S''
sg16
S'I see. Well, maybe we can squeeze you in.'
p1781
sbag1
(g10
g3
NtRp1782
(dp1783
g13
S'SetFlag'
p1784
sg14
S'Politician2'
p1785
sg15
S'GOVPOLITICIANSFIRST'
p1786
sg16
S''
sbag1
(g10
g3
NtRp1787
(dp1788
g13
S'Destroy'
p1789
sg14
S'Politician2'
p1790
sg15
S''
sg16
S''
sbasS'Politician5'
p1791
(lp1792
g1
(g10
g3
NtRp1793
(dp1794
g13
S'RequireFlag'
p1795
sg14
g1791
sg15
S'STARTPOLITICIANSHAKEDOWN'
p1796
sg16
S'Good morning, Governor Mossman. Your PA will know your schedule. He is waiting in your room.'
p1797
sbag1
(g10
g3
NtRp1798
(dp1799
g13
S'Say'
p1800
sg14
S'Politician5'
p1801
sg15
S''
sg16
S'Big business!'
p1802
sbag1
(g10
g3
NtRp1803
(dp1804
g13
S'PlayerSay'
p1805
sg14
S'Politician5'
p1806
sg15
S''
sg16
S'What about big business.'
p1807
sbag1
(g10
g3
NtRp1808
(dp1809
g13
S'Say'
p1810
sg14
S'Politician5'
p1811
sg15
S''
sg16
S'...MORE big business!'
p1812
sbag1
(g10
g3
NtRp1813
(dp1814
g13
S'PlayerSay'
p1815
sg14
S'Politician5'
p1816
sg15
S''
sg16
S'You want to grow our business sector? Provide more jobs?'
p1817
sbag1
(g10
g3
NtRp1818
(dp1819
g13
S'Say'
p1820
sg14
S'Politician5'
p1821
sg15
S''
sg16
S'...Yeeeeh. Yes. Yes, that.'
p1822
sbag1
(g10
g3
NtRp1823
(dp1824
g13
S'PlayerSay'
p1825
sg14
S'Politician5'
p1826
sg15
S''
sg16
S'What about small business?'
p1827
sbag1
(g10
g3
NtRp1828
(dp1829
g13
S'Say'
p1830
sg14
S'Politician5'
p1831
sg15
S''
sg16
S'No! We need to make it BIGGER!'
p1832
sbag1
(g10
g3
NtRp1833
(dp1834
g13
S'Encounter'
p1835
sg14
S'Politician5'
p1836
sg15
S'P-med-09'
p1837
sg16
S''
sbag1
(g10
g3
NtRp1838
(dp1839
g13
S'Say'
p1840
sg14
S'Politician5'
p1841
sg15
S''
sg16
S"OK, I see what you're getting at. Lets help small business to grow."
p1842
sbag1
(g10
g3
NtRp1843
(dp1844
g13
S'Increment'
p1845
sg14
S'Politician5'
p1846
sg15
S'POLITICIANSHAKEDOWN'
p1847
sg16
S''
sbag1
(g10
g3
NtRp1848
(dp1849
g13
S'Destroy'
p1850
sg14
S'Politician5'
p1851
sg15
S''
sg16
S''
sbasS'Journalist'
p1852
(lp1853
g1
(g10
g3
NtRp1854
(dp1855
g13
S'RequireFlag'
p1856
sg14
g1852
sg15
S'INTERVIEWSTART'
p1857
sg16
S'Leave me alone, kid I need to get this done before my deadline!'
p1858
sbag1
(g10
g3
NtRp1859
(dp1860
g13
S'Say'
p1861
sg14
S'Journalist'
p1862
sg15
S''
sg16
S"Hey, where's the Mayor?"
p1863
sbag1
(g10
g3
NtRp1864
(dp1865
g13
S'PlayerSay'
p1866
sg14
S'Journalist'
p1867
sg15
S''
sg16
S"He couldn't make it. I'll be taking the interview."
p1868
sbag1
(g10
g3
NtRp1869
(dp1870
g13
S'Say'
p1871
sg14
S'Journalist'
p1872
sg15
S''
sg16
S'Great! Easy pickings! Lets go.'
p1873
sbag1
(g10
g3
NtRp1874
(dp1875
g13
S'Encounter'
p1876
sg14
S'Journalist'
p1877
sg15
S'P-easy-05'
p1878
sg16
S''
sbag1
(g10
g3
NtRp1879
(dp1880
g13
S'Say'
p1881
sg14
S'Journalist'
p1882
sg15
S''
sg16
S"SNORE! Fine, if I can't get anything juicy here I'll do another puff piece on my poodle Frank."
p1883
sbag1
(g10
g3
NtRp1884
(dp1885
g13
S'SetFlag'
p1886
sg14
S'Journalist'
p1887
sg15
S'JOURNALISTINTERVIEW'
p1888
sg16
S''
sbag1
(g10
g3
NtRp1889
(dp1890
g13
S'Destroy'
p1891
sg14
S'Journalist'
p1892
sg15
S''
sg16
S''
sbasS'#----------------------------------------------------------------------------------------ACT 2 \xe2\x80\x93 Part 2---------------------------------------------------------------------------------------------------------------------------------------------------'
p1893
(lp1894
g1
(g10
g3
NtRp1895
(dp1896
g13
S''
sg14
g1893
sg15
S''
sg16
S''
sbasS'Politician6'
p1897
(lp1898
g1
(g10
g3
NtRp1899
(dp1900
g13
S'RequireFlag'
p1901
sg14
g1897
sg15
S'STARTPOLITICIANSHAKEDOWN'
p1902
sg16
S'Good morning, Governor Mossman. Your PA will know your schedule. He is waiting in your room.'
p1903
sbag1
(g10
g3
NtRp1904
(dp1905
g13
S'Say'
p1906
sg14
S'Politician6'
p1907
sg15
S''
sg16
S'We should be all about not wasting money'
p1908
sbag1
(g10
g3
NtRp1909
(dp1910
g13
S'PlayerSay'
p1911
sg14
S'Politician6'
p1912
sg15
S''
sg16
S'Sounds fair. Wasting money on what?'
p1913
sbag1
(g10
g3
NtRp1914
(dp1915
g13
S'Say'
p1916
sg14
S'Politician6'
p1917
sg15
S''
sg16
S"You know, stuff that doesn't really help like artsy stuff."
p1918
sbag1
(g10
g3
NtRp1919
(dp1920
g13
S'PlayerSay'
p1921
sg14
S'Politician6'
p1922
sg15
S''
sg16
S"You don't think we should invest in our culture?"
p1923
sbag1
(g10
g3
NtRp1924
(dp1925
g13
S'Say'
p1926
sg14
S'Politician6'
p1927
sg15
S''
sg16
S'We have more important things to spend our money on. Like military.'
p1928
sbag1
(g10
g3
NtRp1929
(dp1930
g13
S'PlayerSay'
p1931
sg14
S'Politician6'
p1932
sg15
S''
sg16
S'What if people want to paint pictures about our military. Or write patriotic songs?'
p1933
sbag1
(g10
g3
NtRp1934
(dp1935
g13
S'Say'
p1936
sg14
S'Politician6'
p1937
sg15
S''
sg16
S"I hadn't thought of that..."
p1938
sbag1
(g10
g3
NtRp1939
(dp1940
g13
S'Encounter'
p1941
sg14
S'Politician6'
p1942
sg15
S'P-med-10'
p1943
sg16
S''
sbag1
(g10
g3
NtRp1944
(dp1945
g13
S'Say'
p1946
sg14
S'Politician6'
p1947
sg15
S''
sg16
S"So, militaristic march songs and battle scenes aren't the only sort of art? Wow."
p1948
sbag1
(g10
g3
NtRp1949
(dp1950
g13
S'Increment'
p1951
sg14
S'Politician6'
p1952
sg15
S'POLITICIANSHAKEDOWN'
p1953
sg16
S''
sbag1
(g10
g3
NtRp1954
(dp1955
g13
S'Destroy'
p1956
sg14
S'Politician6'
p1957
sg15
S''
sg16
S''
sbasS'Journalist3'
p1958
(lp1959
g1
(g10
g3
NtRp1960
(dp1961
g13
S'Say'
p1962
sg14
g1958
sg15
S''
sg16
S'Mr President, Cal from Daily LOL magazine. Can you explain the transformation that occurred during the presidential debate.'
p1963
sbag1
(g10
g3
NtRp1964
(dp1965
g13
S'PlayerSay'
p1966
sg14
S'Journalist3'
p1967
sg15
S''
sg16
S'Certainly, Cal. The President of the Ignited States turned into an alien.'
p1968
sbag1
(g10
g3
NtRp1969
(dp1970
g13
S'Say'
p1971
sg14
S'Journalist3'
p1972
sg15
S''
sg16
S"Ah, you mean to say he's out-of-touch with his people?"
p1973
sbag1
(g10
g3
NtRp1974
(dp1975
g13
S'PlayerSay'
p1976
sg14
S'Journalist3'
p1977
sg15
S''
sg16
S'Not exactly...'
p1978
sbag1
(g10
g3
NtRp1979
(dp1980
g13
S'Encounter'
p1981
sg14
S'Journalist3'
p1982
sg15
S'P-hard-01'
p1983
sg16
S''
sbag1
(g10
g3
NtRp1984
(dp1985
g13
S'Say'
p1986
sg14
S'Journalist3'
p1987
sg15
S''
sg16
S'I...see...'
p1988
sbag1
(g10
g3
NtRp1989
(dp1990
g13
S'Increment'
p1991
sg14
S'Journalist3'
p1992
sg15
S'PRESSCONF'
p1993
sg16
S''
sbag1
(g10
g3
NtRp1994
(dp1995
g13
S'Destroy'
p1996
sg14
S'Journalist3'
p1997
sg15
S''
sg16
S''
sbasS'PA2'
p1998
(lp1999
g1
(g10
g3
NtRp2000
(dp2001
g13
S'Say'
p2002
sg14
g1998
sg15
S''
sg16
S"Welcome to the White House, President Mossman. It was a long campaign trail with a very strange final debate, but we won and we're here."
p2003
sbag1
(g10
g3
NtRp2004
(dp2005
g13
S'Say'
p2006
sg14
S'PA2'
p2007
sg15
S''
sg16
S'Now is the real test where we see how well we can run a country.'
p2008
sbag1
(g10
g3
NtRp2009
(dp2010
g13
S'Say'
p2011
sg14
S'PA2'
p2012
sg15
S''
sg16
S'The first step is to give your first press conference as President to explain the...situation...with President Alien *cough* I mean Allen.'
p2013
sbag1
(g10
g3
NtRp2014
(dp2015
g13
S'RequireCount'
p2016
sg14
S'PA2'
p2017
sg15
S'PRESSCONF:3'
p2018
sg16
S"They're waiting for you in the Press Room, Mr President."
p2019
sbag1
(g10
g3
NtRp2020
(dp2021
g13
S'Say'
p2022
sg14
S'PA2'
p2023
sg15
S''
sg16
S'I think that went as well as could be expected.'
p2024
sbag1
(g10
g3
NtRp2025
(dp2026
g13
S'Say'
p2027
sg14
S'PA2'
p2028
sg15
S''
sg16
S'Your secret service detail is waiting over here in the corridor to have a word with you about security protocol.'
p2029
sbag1
(g10
g3
NtRp2030
(dp2031
g13
S'RequireFlag'
p2032
sg14
S'PA2'
p2033
sg15
S'KAWALSKIJOIN'
p2034
sg16
S"You'd better speak to the secret service agent. Your security is paramount."
p2035
sbag1
(g10
g3
NtRp2036
(dp2037
g13
S'Say'
p2038
sg14
S'PA2'
p2039
sg15
S''
sg16
S"Some war veterans would like to speak to you about some recent decisions you've made. I don't dare turn them away. You'd better speak to them."
p2040
sbag1
(g10
g3
NtRp2041
(dp2042
g13
S'PlayerSay'
p2043
sg14
S'PA2'
p2044
sg15
S''
sg16
S'Of course.'
p2045
sbag1
(g10
g3
NtRp2046
(dp2047
g13
S'RequireCount'
p2048
sg14
S'PA2'
p2049
sg15
S'WARVETS:2'
p2050
sg16
S''
sbag1
(g10
g3
NtRp2051
(dp2052
g13
S'Say'
p2053
sg14
S'PA2'
p2054
sg15
S''
sg16
S'What was that about?'
p2055
sbag1
(g10
g3
NtRp2056
(dp2057
g13
S'PlayerSay'
p2058
sg14
S'PA2'
p2059
sg15
S''
sg16
S"I'd like to know as well. Find me the documents that approved troop movement today and get me a meeting with the Joint Chiefs."
p2060
sbag1
(g10
g3
NtRp2061
(dp2062
g13
S'Say'
p2063
sg14
S'PA2'
p2064
sg15
S''
sg16
S'Yessir.'
p2065
sbag1
(g10
g3
NtRp2066
(dp2067
g13
S'Say'
p2068
sg14
S'PA2'
p2069
sg15
S''
sg16
S"Your next meeting is with the teacher's in the corridor. They didn't give me the details, but it seems they're quite upset."
p2070
sbag1
(g10
g3
NtRp2071
(dp2072
g13
S'RequireCount'
p2073
sg14
S'PA2'
p2074
sg15
S'TEACHERS:2'
p2075
sg16
S"You'll need to speak to the teachers in the corridor, Mr President."
p2076
sbag1
(g10
g3
NtRp2077
(dp2078
g13
S'Say'
p2079
sg14
S'PA2'
p2080
sg15
S''
sg16
S'You seem to have sorted the teachers out.'
p2081
sbag1
(g10
g3
NtRp2082
(dp2083
g13
S'PlayerSay'
p2084
sg14
S'PA2'
p2085
sg15
S''
sg16
S"I've mollified them for now, but I want to get to the bottom of this - NOW!"
p2086
sbag1
(g10
g3
NtRp2087
(dp2088
g13
S'Say'
p2089
sg14
S'PA2'
p2090
sg15
S''
sg16
S'Of course, Mr President. I do have those papers you asked for that approved the mobilisation of troops'
p2091
sbag1
(g10
g3
NtRp2092
(dp2093
g13
S'PlayerSay'
p2094
sg14
S'PA2'
p2095
sg15
S''
sg16
S"Let me see those...this is my signature! But I didn't sign this!"
p2096
sbag1
(g10
g3
NtRp2097
(dp2098
g13
S'Say'
p2099
sg14
S'PA2'
p2100
sg15
S''
sg16
S'This is very serious! What should we do, sir?'
p2101
sbag1
(g10
g3
NtRp2102
(dp2103
g13
S'PlayerSay'
p2104
sg14
S'PA2'
p2105
sg15
S''
sg16
S'Call a cabinet meeting in the Mural Room. Immediately.'
p2106
sbag1
(g10
g3
NtRp2107
(dp2108
g13
S'Say'
p2109
sg14
S'PA2'
p2110
sg15
S''
sg16
S"Understood. They'll be there when you get there."
p2111
sbag1
(g10
g3
NtRp2112
(dp2113
g13
S'RequireCount'
p2114
sg14
S'PA2'
p2115
sg15
S'CABINETMEMBERS:3'
p2116
sg16
S'The cabinet is waiting for you in the Mural Room.'
p2117
sbag1
(g10
g3
NtRp2118
(dp2119
g13
S'RequireCount'
p2120
sg14
S'PA2'
p2121
sg15
S'JOINTCHIEFS:3'
p2122
sg16
S'Hello, Sir. The Joint Chiefs are waiting for you in your office.'
p2123
sbag1
(g10
g3
NtRp2124
(dp2125
g13
S'RequireCount'
p2126
sg14
S'PA2'
p2127
sg15
S'JOINTCHIEFS:3'
p2128
sg16
S'The Joint Chiefs are waiting in your office, Sir.'
p2129
sbag1
(g10
g3
NtRp2130
(dp2131
g13
S'RequireFlag'
p2132
sg14
S'PA2'
p2133
sg15
S'WIN'
p2134
sg16
S'Mr President, you have to put a stop to the supercomputer that will destroy the planet! You can access it in the Situation Room.'
p2135
sbag1
(g10
g3
NtRp2136
(dp2137
g13
S'Say'
p2138
sg14
S'PA2'
p2139
sg15
S''
sg16
S"You have saved the day! The world is safe and all over the Ignited States, our citizens can sleep safe knowing you're taking care of them."
p2140
sbag1
(g10
g3
NtRp2141
(dp2142
g13
S'RequireFlag'
p2143
sg14
S'PA2'
p2144
sg15
S'LOOP'
p2145
sg16
S'Goodnight, Mr President.'
p2146
sbasS'Journalist5'
p2147
(lp2148
g1
(g10
g3
NtRp2149
(dp2150
g13
S'Say'
p2151
sg14
g2147
sg15
S''
sg16
S'Do you feel that a bi-partisan relationship will be possible between your party and the opposition?'
p2152
sbag1
(g10
g3
NtRp2153
(dp2154
g13
S'PlayerSay'
p2155
sg14
S'Journalist5'
p2156
sg15
S''
sg16
S'I suppose once we find and remove all of the aliens and reverse the alien brainwashing, bi-partisanship will resume.'
p2157
sbag1
(g10
g3
NtRp2158
(dp2159
g13
S'Encounter'
p2160
sg14
S'Journalist5'
p2161
sg15
S'P-hard-03'
p2162
sg16
S''
sbag1
(g10
g3
NtRp2163
(dp2164
g13
S'Say'
p2165
sg14
S'Journalist5'
p2166
sg15
S''
sg16
S'Thankyou, President Mossman.'
p2167
sbag1
(g10
g3
NtRp2168
(dp2169
g13
S'Increment'
p2170
sg14
S'Journalist5'
p2171
sg15
S'PRESSCONF'
p2172
sg16
S''
sbag1
(g10
g3
NtRp2173
(dp2174
g13
S'Destroy'
p2175
sg14
S'Journalist5'
p2176
sg15
S''
sg16
S''
sbasS'Journalist2'
p2177
(lp2178
g1
(g10
g3
NtRp2179
(dp2180
g13
S'RequireFlag'
p2181
sg14
g2177
sg15
S'STARTHICKS2'
p2182
sg16
S'Governor Badden sends his Mayor lacky to do his dirty work \xe2\x80\x93 what a scoop!'
p2183
sbag1
(g10
g3
NtRp2184
(dp2185
g13
S'Encounter'
p2186
sg14
S'Journalist2'
p2187
sg15
S'P-med-05'
p2188
sg16
S''
sbag1
(g10
g3
NtRp2189
(dp2190
g13
S'Say'
p2191
sg14
S'Journalist2'
p2192
sg15
S''
sg16
S"I'm going back to write a comparison piece on you and Governor Badden. You should consider running for Governor."
p2193
sbag1
(g10
g3
NtRp2194
(dp2195
g13
S'Increment'
p2196
sg14
S'Journalist2'
p2197
sg15
S'DEALWITHHICKS'
p2198
sg16
S''
sbag1
(g10
g3
NtRp2199
(dp2200
g13
S'Destroy'
p2201
sg14
S'Journalist2'
p2202
sg15
S''
sg16
S''
sbasS'#P-med-24'
p2203
(lp2204
g1
(g10
g3
NtRp2205
(dp2206
g13
S'PresidentAlien'
p2207
sg14
g2203
sg15
S"You think you've beaten me, but now you're going to fight the real me!"
p2208
sg16
S''
sbag1
(g10
g3
NtRp2209
(dp2210
g13
S'Player'
p2211
sg14
S'#P-med-24'
p2212
sg15
S'I knew something was wrong, but this...?'
p2213
sg16
S''
sbag1
(g10
g3
NtRp2214
(dp2215
g13
S'PresidentAlien'
p2216
sg14
S'#P-med-24'
p2217
sg15
S"All you've done is caused me to expedite my plans to enslave the human race!"
p2218
sg16
S''
sbasS'TVPersonality'
p2219
(lp2220
g1
(g10
g3
NtRp2221
(dp2222
g13
S'RequireFlag'
p2223
sg14
g2219
sg15
S'STARTHERCULES'
p2224
sg16
S"Ooooh, sorry Mossman, baby! We're not ready for you yet."
p2225
sbag1
(g10
g3
NtRp2226
(dp2227
g13
S'Say'
p2228
sg14
S'TVPersonality'
p2229
sg15
S''
sg16
S"There's the man! Are you ready to cross wits with The Mighty Hercules!"
p2230
sbag1
(g10
g3
NtRp2231
(dp2232
g13
S'PlayerSay'
p2233
sg14
S'TVPersonality'
p2234
sg15
S''
sg16
S'I sure am!'
p2235
sbag1
(g10
g3
NtRp2236
(dp2237
g13
S'Say'
p2238
sg14
S'TVPersonality'
p2239
sg15
S''
sg16
S"Really...? You don't want to...see your make-up artist?"
p2240
sbag1
(g10
g3
NtRp2241
(dp2242
g13
S'PlayerSay'
p2243
sg14
S'TVPersonality'
p2244
sg15
S''
sg16
S"No, no, I'm really ready."
p2245
sbag1
(g10
g3
NtRp2246
(dp2247
g13
S'Say'
p2248
sg14
S'TVPersonality'
p2249
sg15
S''
sg16
S'Suit yourself...and from the looks of it, suiting yourself is exactly what you did...ew.'
p2250
sbag1
(g10
g3
NtRp2251
(dp2252
g13
S'Encounter'
p2253
sg14
S'TVPersonality'
p2254
sg15
S'P-med-20'
p2255
sg16
S''
sbag1
(g10
g3
NtRp2256
(dp2257
g13
S'Say'
p2258
sg14
S'TVPersonality'
p2259
sg15
S''
sg16
S"Good show, you sure gave me a run for my money, now beat it, you're making me look bad!"
p2260
sbag1
(g10
g3
NtRp2261
(dp2262
g13
S'SetFlag'
p2263
sg14
S'TVPersonality'
p2264
sg15
S'BEATHERCULES'
p2265
sg16
S''
sbag1
(g10
g3
NtRp2266
(dp2267
g13
S'Destroy'
p2268
sg14
S'TVPersonality'
p2269
sg15
S''
sg16
S''
sbasS'SouthWingDoor'
p2270
(lp2271
g1
(g10
g3
NtRp2272
(dp2273
g13
S'RequireItemMessage'
p2274
sg14
g2270
sg15
S'SOUTHWINGDOORKEY'
p2275
sg16
S'The door is appears to be locked'
p2276
sbag1
(g10
g3
NtRp2277
(dp2278
g13
S'Message'
p2279
sg14
S'SouthWingDoor'
p2280
sg15
S''
sg16
S"The door unlocks with a satisfying 'click'"
p2281
sbag1
(g10
g3
NtRp2282
(dp2283
g13
S'Destroy'
p2284
sg14
S'SouthWingDoor'
p2285
sg15
S''
sg16
S''
sbasS'Protester2'
p2286
(lp2287
g1
(g10
g3
NtRp2288
(dp2289
g13
S'Say'
p2290
sg14
g2286
sg15
S''
sg16
S"Bees buzz, Mayors lie, who's this Phillip Mossman guy?"
p2291
sbag1
(g10
g3
NtRp2292
(dp2293
g13
S'RequireFlag'
p2294
sg14
S'Protester2'
p2295
sg15
S'PROTESTORS'
p2296
sg16
S''
sbag1
(g10
g3
NtRp2297
(dp2298
g13
S'Encounter'
p2299
sg14
S'Protester2'
p2300
sg15
S'P-easy-03'
p2301
sg16
S''
sbag1
(g10
g3
NtRp2302
(dp2303
g13
S'Destroy'
p2304
sg14
S'Protester2'
p2305
sg15
S''
sg16
S''
sbasS'JointChief2'
p2306
(lp2307
g1
(g10
g3
NtRp2308
(dp2309
g13
S'PlayerSay'
p2310
sg14
g2306
sg15
S''
sg16
S'Who would have the power to do this? What would they stand to gain? Can we...'
p2311
sbag1
(g10
g3
NtRp2312
(dp2313
g13
S'Say'
p2314
sg14
S'JointChief2'
p2315
sg15
S''
sg16
S"I'm sorry, Sir. I've just learned that some ICBMs pointed at Russia have been activated \xe2\x80\x93 using your access codes! They could be fired at any moment!"
p2316
sbag1
(g10
g3
NtRp2317
(dp2318
g13
S'PlayerSay'
p2319
sg14
S'JointChief2'
p2320
sg15
S''
sg16
S"You've \xe2\x80\x9cjust learned\xe2\x80\x9d? Is this your doing?"
p2321
sbag1
(g10
g3
NtRp2322
(dp2323
g13
S'Encounter'
p2324
sg14
S'JointChief2'
p2325
sg15
S'P-hard-12'
p2326
sg16
S''
sbag1
(g10
g3
NtRp2327
(dp2328
g13
S'Increment'
p2329
sg14
S'JointChief2'
p2330
sg15
S'JOINTCHIEFS'
p2331
sg16
S''
sbag1
(g10
g3
NtRp2332
(dp2333
g13
S'PlayerSay'
p2334
sg14
S'JointChief2'
p2335
sg15
S''
sg16
S'I had to be sure.'
p2336
sbag1
(g10
g3
NtRp2337
(dp2338
g13
S'Destroy'
p2339
sg14
S'JointChief2'
p2340
sg15
S''
sg16
S''
sbasS'Protester1'
p2341
(lp2342
g1
(g10
g3
NtRp2343
(dp2344
g13
S'Say'
p2345
sg14
g2341
sg15
S''
sg16
S"Fee Fi Fo Fum, we think Mayor Goodman's Dumb!"
p2346
sbag1
(g10
g3
NtRp2347
(dp2348
g13
S'RequireFlag'
p2349
sg14
S'Protester1'
p2350
sg15
S'PROTESTORS'
p2351
sg16
S''
sbag1
(g10
g3
NtRp2352
(dp2353
g13
S'Encounter'
p2354
sg14
S'Protester1'
p2355
sg15
S'P-easy-02'
p2356
sg16
S''
sbag1
(g10
g3
NtRp2357
(dp2358
g13
S'Destroy'
p2359
sg14
S'Protester1'
p2360
sg15
S''
sg16
S''
sbasS'#----------------------------------------------------------------------------------------ACT 2 \xe2\x80\x93 Part 1---------------------------------------------------------------------------------------------------------------------------------------------------'
p2361
(lp2362
g1
(g10
g3
NtRp2363
(dp2364
g13
S''
sg14
g2361
sg15
S''
sg16
S''
sbasS'Head Protester'
p2365
(lp2366
g1
(g10
g3
NtRp2367
(dp2368
g13
S'Say'
p2369
sg14
g2365
sg15
S''
sg16
S"I am the head protester. You'll never convince us to back down!"
p2370
sbag1
(g10
g3
NtRp2371
(dp2372
g13
S'RequireFlag'
p2373
sg14
S'Head Protester'
p2374
sg15
S'PROTESTORS'
p2375
sg16
S''
sbag1
(g10
g3
NtRp2376
(dp2377
g13
S'PlayerSay'
p2378
sg14
S'Head Protester'
p2379
sg15
S''
sg16
S'What are you protesting?'
p2380
sbag1
(g10
g3
NtRp2381
(dp2382
g13
S'Say'
p2383
sg14
S'Head Protester'
p2384
sg15
S''
sg16
S'Er...Injustice!'
p2385
sbag1
(g10
g3
NtRp2386
(dp2387
g13
S'PlayerSay'
p2388
sg14
S'Head Protester'
p2389
sg15
S''
sg16
S'Injustice against what?'
p2390
sbag1
(g10
g3
NtRp2391
(dp2392
g13
S'Say'
p2393
sg14
S'Head Protester'
p2394
sg15
S''
sg16
S'...'
p2395
sbag1
(g10
g3
NtRp2396
(dp2397
g13
S'Say'
p2398
sg14
S'Head Protester'
p2399
sg15
S''
sg16
S'The People!'
p2400
sbag1
(g10
g3
NtRp2401
(dp2402
g13
S'PlayerSay'
p2403
sg14
S'Head Protester'
p2404
sg15
S''
sg16
S'Yes, but which people?'
p2405
sbag1
(g10
g3
NtRp2406
(dp2407
g13
S'Say'
p2408
sg14
S'Head Protester'
p2409
sg15
S''
sg16
S'See? What a fascist, ALL people you slimey politician scum!'
p2410
sbag1
(g10
g3
NtRp2411
(dp2412
g13
S'Encounter'
p2413
sg14
S'Head Protester'
p2414
sg15
S'P-easy-04'
p2415
sg16
S''
sbag1
(g10
g3
NtRp2416
(dp2417
g13
S'Say'
p2418
sg14
S'Head Protester'
p2419
sg15
S''
sg16
S"Alright, fine! We'll stop protesting...whatever we were protesting."
p2420
sbag1
(g10
g3
NtRp2421
(dp2422
g13
S'SetFlag'
p2423
sg14
S'Head Protester'
p2424
sg15
S'PROTESTORSDEAD'
p2425
sg16
S''
sbag1
(g10
g3
NtRp2426
(dp2427
g13
S'Destroy'
p2428
sg14
S'Head Protester'
p2429
sg15
S''
sg16
S''
sbasS'Sponsor'
p2430
(lp2431
g1
(g10
g3
NtRp2432
(dp2433
g13
S'RequireFlag'
p2434
sg14
g2430
sg15
S'STARTSPONSOR'
p2435
sg16
S"Hmmm...Money, money, money. Sorry, what? I wasn't talking to you."
p2436
sbag1
(g10
g3
NtRp2437
(dp2438
g13
S'Say'
p2439
sg14
S'Sponsor'
p2440
sg15
S''
sg16
S"Hello, I'm investigating new investments today. How can I help you?"
p2441
sbag1
(g10
g3
NtRp2442
(dp2443
g13
S'PlayerSay'
p2444
sg14
S'Sponsor'
p2445
sg15
S''
sg16
S"Well, I've decided to run for Mayor! I could really use an investor."
p2446
sbag1
(g10
g3
NtRp2447
(dp2448
g13
S'Say'
p2449
sg14
S'Sponsor'
p2450
sg15
S''
sg16
S"I don't know. You seem a little young. I don't think I'm convinced."
p2451
sbag1
(g10
g3
NtRp2452
(dp2453
g13
S'Encounter'
p2454
sg14
S'Sponsor'
p2455
sg15
S'P-easy-06'
p2456
sg16
S''
sbag1
(g10
g3
NtRp2457
(dp2458
g13
S'Say'
p2459
sg14
S'Sponsor'
p2460
sg15
S''
sg16
S"Wow! You sure have what it takes! Alright, he's a pile of cash!"
p2461
sbag1
(g10
g3
NtRp2462
(dp2463
g13
S'Say'
p2464
sg14
S'Sponsor'
p2465
sg15
S''
sg16
S'Also, now that you have some funds, you might find it useful to...grease the wheels in some difficult situations.'
p2466
sbag1
(g10
g3
NtRp2467
(dp2468
g13
S'LearnAttack'
p2469
sg14
S'Sponsor'
p2470
sg15
S'BRIBE'
p2471
sg16
S'Phillip and Sarah learn to Bribe'
p2472
sbag1
(g10
g3
NtRp2473
(dp2474
g13
S'LearnAttack'
p2475
sg14
S'Sponsor'
p2476
sg15
S'Wife:BRIBE'
p2477
sg16
S''
sbag1
(g10
g3
NtRp2478
(dp2479
g13
S'SetFlag'
p2480
sg14
S'Sponsor'
p2481
sg15
S'STARTCONSTITUENTS'
p2482
sg16
S''
sbag1
(g10
g3
NtRp2483
(dp2484
g13
S'PlayerSay'
p2485
sg14
S'Sponsor'
p2486
sg15
S''
sg16
S'Er, thanks! I suppose we should go gather some support from our constituents now.'
p2487
sbag1
(g10
g3
NtRp2488
(dp2489
g13
S'Say'
p2490
sg14
S'Sponsor'
p2491
sg15
S''
sg16
S"Makes sense to me! I'm off, too. Money, money, money."
p2492
sbag1
(g10
g3
NtRp2493
(dp2494
g13
S'Destroy'
p2495
sg14
S'Sponsor'
p2496
sg15
S''
sg16
S''
sbasS'CheatAct2P2'
p2497
(lp2498
g1
(g10
g3
NtRp2499
(dp2500
g13
S'AddAlly'
p2501
sg14
g2497
sg15
S'Wife:1'
p2502
sg16
S''
sbag1
(g10
g3
NtRp2503
(dp2504
g13
S'LearnAttack'
p2505
sg14
S'CheatAct2P2'
p2506
sg15
S'BRIBE'
p2507
sg16
S''
sbag1
(g10
g3
NtRp2508
(dp2509
g13
S'LearnAttack'
p2510
sg14
S'CheatAct2P2'
p2511
sg15
S'Wife:BRIBE'
p2512
sg16
S''
sbag1
(g10
g3
NtRp2513
(dp2514
g13
S'LearnAttack'
p2515
sg14
S'CheatAct2P2'
p2516
sg15
S'SLANDER'
p2517
sg16
S''
sbag1
(g10
g3
NtRp2518
(dp2519
g13
S'AddAlly'
p2520
sg14
S'CheatAct2P2'
p2521
sg15
S'Leo:1'
p2522
sg16
S''
sbag1
(g10
g3
NtRp2523
(dp2524
g13
S'GotoMap'
p2525
sg14
S'CheatAct2P2'
p2526
sg15
S'act2campaign'
p2527
sg16
S''
sbasS'P-med-12'
p2528
(lp2529
g1
(g10
g3
NtRp2530
(dp2531
g13
S'Say'
p2532
sg14
g2528
sg15
S'Lobbyist001'
p2533
sg16
S'import combat'
p2534
sbasS'Lobbyist3'
p2535
(lp2536
g1
(g10
g3
NtRp2537
(dp2538
g13
S'RequireFlag'
p2539
sg14
g2535
sg15
S'STARTLOBBYISTS'
p2540
sg16
S'Mutter, mutter'
p2541
sbag1
(g10
g3
NtRp2542
(dp2543
g13
S'Say'
p2544
sg14
S'Lobbyist3'
p2545
sg15
S''
sg16
S'Protection of internet memes'
p2546
sbag1
(g10
g3
NtRp2547
(dp2548
g13
S'Encounter'
p2549
sg14
S'Lobbyist3'
p2550
sg15
S'P-med-13'
p2551
sg16
S''
sbag1
(g10
g3
NtRp2552
(dp2553
g13
S'Increment'
p2554
sg14
S'Lobbyist3'
p2555
sg15
S'LOBBYISTS'
p2556
sg16
S''
sbag1
(g10
g3
NtRp2557
(dp2558
g13
S'Say'
p2559
sg14
S'Lobbyist3'
p2560
sg15
S''
sg16
S"It's a start."
p2561
sbag1
(g10
g3
NtRp2562
(dp2563
g13
S'Destroy'
p2564
sg14
S'Lobbyist3'
p2565
sg15
S''
sg16
S''
sbasS'Mayor'
p2566
(lp2567
g1
(g10
g3
NtRp2568
(dp2569
g13
S'Say'
p2570
sg14
g2566
sg15
S''
sg16
S"Hello, I'm the Mayor!"
p2571
sbag1
(g10
g3
NtRp2572
(dp2573
g13
S'PlayerSay'
p2574
sg14
S'Mayor'
p2575
sg15
S''
sg16
S"Hello, Mayor Goodman, I'm Philip Mossman."
p2576
sbag1
(g10
g3
NtRp2577
(dp2578
g13
S'Say'
p2579
sg14
S'Mayor'
p2580
sg15
S''
sg16
S"Ah yes, you're my new assistant. A good thing, too."
p2581
sbag1
(g10
g3
NtRp2582
(dp2583
g13
S'Say'
p2584
sg14
S'Mayor'
p2585
sg15
S''
sg16
S"I've been searching for minutes and haven't been able to find my pen! I bet my receptionist stole it. She has sticky fingers."
p2586
sbag1
(g10
g3
NtRp2587
(dp2588
g13
S'Say'
p2589
sg14
S'Mayor'
p2590
sg15
S''
sg16
S"Well, don't just stand there, go and get it!"
p2591
sbag1
(g10
g3
NtRp2592
(dp2593
g13
S'SetFlag'
p2594
sg14
S'Mayor'
p2595
sg15
S'PENQUEST'
p2596
sg16
S''
sbag1
(g10
g3
NtRp2597
(dp2598
g13
S'RequireItem'
p2599
sg14
S'Mayor'
p2600
sg15
S'PEN'
p2601
sg16
S'Are you simple? Go and get my pen from that thieving receptionist.'
p2602
sbag1
(g10
g3
NtRp2603
(dp2604
g13
S'Say'
p2605
sg14
S'Mayor'
p2606
sg15
S''
sg16
S"Great! I know she can give you a bit of a tongue-lashing, but she's a fantastic receptionist."
p2607
sbag1
(g10
g3
NtRp2608
(dp2609
g13
S'Say'
p2610
sg14
S'Mayor'
p2611
sg15
S''
sg16
S"I'm sure you want to learn a thing or two about politics \xe2\x80\x93 who doesn't? - so lets get started"
p2612
sbag1
(g10
g3
NtRp2613
(dp2614
g13
S'SetFlag'
p2615
sg14
S'Mayor'
p2616
sg15
S'PROTESTORS'
p2617
sg16
S''
sbag1
(g10
g3
NtRp2618
(dp2619
g13
S'RequireFlag'
p2620
sg14
S'Mayor'
p2621
sg15
S'PROTESTORSDEAD'
p2622
sg16
S'Run outside and tell those protesters to scram, will you?'
p2623
sbag1
(g10
g3
NtRp2624
(dp2625
g13
S'Say'
p2626
sg14
S'Mayor'
p2627
sg15
S''
sg16
S"Hope they didn't give you too much trouble!"
p2628
sbag1
(g10
g3
NtRp2629
(dp2630
g13
S'Say'
p2631
sg14
S'Mayor'
p2632
sg15
S''
sg16
S"Now that's sorted, there's a journalist from the local newspaper coming for an interview."
p2633
sbag1
(g10
g3
NtRp2634
(dp2635
g13
S'Say'
p2636
sg14
S'Mayor'
p2637
sg15
S''
sg16
S"I certainly don't have time for it, so you can do the interview."
p2638
sbag1
(g10
g3
NtRp2639
(dp2640
g13
S'Say'
p2641
sg14
S'Mayor'
p2642
sg15
S''
sg16
S"Be careful not to give too much away and if you could throw a few punches at the opposition that'd help."
p2643
sbag1
(g10
g3
NtRp2644
(dp2645
g13
S'PlayerSay'
p2646
sg14
S'Mayor'
p2647
sg15
S''
sg16
S'You want me to...throw a punch?'
p2648
sbag1
(g10
g3
NtRp2649
(dp2650
g13
S'Say'
p2651
sg14
S'Mayor'
p2652
sg15
S''
sg16
S"You're in politics and don't know how to fight dirty? Sheesh! Here, let me show you."
p2653
sbag1
(g10
g3
NtRp2654
(dp2655
g13
S'LearnAttack'
p2656
sg14
S'Mayor'
p2657
sg15
S'SLANDER'
p2658
sg16
S'Mayor teaches Phillip to Slander Opposition'
p2659
sbag1
(g10
g3
NtRp2660
(dp2661
g13
S'Say'
p2662
sg14
S'Mayor'
p2663
sg15
S''
sg16
S"It's a pretty great tactic because it keeps eating away at them long after you've done it."
p2664
sbag1
(g10
g3
NtRp2665
(dp2666
g13
S'SetFlag'
p2667
sg14
S'Mayor'
p2668
sg15
S'INTERVIEWSTART'
p2669
sg16
S''
sbag1
(g10
g3
NtRp2670
(dp2671
g13
S'RequireFlag'
p2672
sg14
S'Mayor'
p2673
sg15
S'JOURNALISTINTERVIEW'
p2674
sg16
S'Go handle that interview and remember to slander the opposition.'
p2675
sbag1
(g10
g3
NtRp2676
(dp2677
g13
S'SetFlag'
p2678
sg14
S'Mayor'
p2679
sg15
S'GOHOMETOWIFE'
p2680
sg16
S''
sbag1
(g10
g3
NtRp2681
(dp2682
g13
S'Say'
p2683
sg14
S'Mayor'
p2684
sg15
S''
sg16
S'OK, fine, now could you buzz off for a while? I need to get some work done.'
p2685
sbag1
(g10
g3
NtRp2686
(dp2687
g13
S'RequireFlag'
p2688
sg14
S'Mayor'
p2689
sg15
S'CONSTITUENTSWON'
p2690
sg16
S"Go home to your family. I have things to do that don't involve you."
p2691
sbag1
(g10
g3
NtRp2692
(dp2693
g13
S'Say'
p2694
sg14
S'Mayor'
p2695
sg15
S''
sg16
S"What's this I hear about you campaigning for Mayor? After everything I've taught you!"
p2696
sbag1
(g10
g3
NtRp2697
(dp2698
g13
S'PlayerSay'
p2699
sg14
S'Mayor'
p2700
sg15
S''
sg16
S"I'm sorry Mayor Goodman, but it's time for someone who's ready to make a difference for our town."
p2701
sbag1
(g10
g3
NtRp2702
(dp2703
g13
S'Say'
p2704
sg14
S'Mayor'
p2705
sg15
S''
sg16
S"You really are a fool. Do you think He's going to allow that?"
p2706
sbag1
(g10
g3
NtRp2707
(dp2708
g13
S'Encounter'
p2709
sg14
S'Mayor'
p2710
sg15
S'P-easy-10'
p2711
sg16
S''
sbag1
(g10
g3
NtRp2712
(dp2713
g13
S'Say'
p2714
sg14
S'Mayor'
p2715
sg15
S''
sg16
S"Well, you've beaten me but you don't have a clue what you're in for. I hope you're up to this kid!"
p2716
sbag1
(g10
g3
NtRp2717
(dp2718
g13
S'Destroy'
p2719
sg14
S'Mayor'
p2720
sg15
S''
sg16
S''
sbasS'Politician4'
p2721
(lp2722
g1
(g10
g3
NtRp2723
(dp2724
g13
S'RequireFlag'
p2725
sg14
g2721
sg15
S'STARTPOLITICIANSHAKEDOWN'
p2726
sg16
S'Good morning, Governor Mossman. Your PA will know your schedule. He is waiting in your room.'
p2727
sbag1
(g10
g3
NtRp2728
(dp2729
g13
S'Say'
p2730
sg14
S'Politician4'
p2731
sg15
S''
sg16
S"I'm for culture! It's a glorious age we live in, we should further this great country's culture."
p2732
sbag1
(g10
g3
NtRp2733
(dp2734
g13
S'PlayerSay'
p2735
sg14
S'Politician4'
p2736
sg15
S''
sg16
S'That sounds fair, but what kind of culture would you like to focus on.'
p2737
sbag1
(g10
g3
NtRp2738
(dp2739
g13
S'Say'
p2740
sg14
S'Politician4'
p2741
sg15
S''
sg16
S"Oh...I don't know, I'm not really into art, can't really handle music. I'd rather not go to the theatre if I can get out of it. Don't really see the point of sport...hmmm. New culture?"
p2742
sbag1
(g10
g3
NtRp2743
(dp2744
g13
S'PlayerSay'
p2745
sg14
S'Politician4'
p2746
sg15
S''
sg16
S"You don't seem very in to improving culture really."
p2747
sbag1
(g10
g3
NtRp2748
(dp2749
g13
S'Say'
p2750
sg14
S'Politician4'
p2751
sg15
S''
sg16
S'Yeh, well...my wife said it would make me sound smart. I think sounding smart is important. Lets be for that!'
p2752
sbag1
(g10
g3
NtRp2753
(dp2754
g13
S'Encounter'
p2755
sg14
S'Politician4'
p2756
sg15
S'P-med-08'
p2757
sg16
S''
sbag1
(g10
g3
NtRp2758
(dp2759
g13
S'Say'
p2760
sg14
S'Politician4'
p2761
sg15
S''
sg16
S"Gee, you're a pretty smart guy. I think you've got this covered."
p2762
sbag1
(g10
g3
NtRp2763
(dp2764
g13
S'Increment'
p2765
sg14
S'Politician4'
p2766
sg15
S'POLITICIANSHAKEDOWN'
p2767
sg16
S''
sbag1
(g10
g3
NtRp2768
(dp2769
g13
S'Destroy'
p2770
sg14
S'Politician4'
p2771
sg15
S''
sg16
S''
sbassS'attacks'
p2772
(dp2773
S'GETEXCLUSIVE'
p2774
g1
(g10
g3
NtRp2775
(dp2776
S'base_damage_max'
p2777
F8
sS'description'
p2778
S'asdf'
p2779
sS'weight'
p2780
I1
sS'crit_chance_max'
p2781
F5
sS'crit_chance_min'
p2782
F2
sS'underlying_stat'
p2783
S'Wit'
p2784
sS'target_type'
p2785
S'AllFriendly'
p2786
sS'base_damage_min'
p2787
F4
sS'spin_cost'
p2788
F5
sS'effects'
p2789
(lp2790
g1
(c__main__
Effect
p2791
g3
NtRp2792
(dp2793
S'function'
p2794
S'add'
p2795
sS'abbrv'
p2796
S'(INCREASE)'
p2797
sS'attribute'
p2798
S'cunning'
p2799
sS'value'
p2800
F2
sS'rounds_min'
p2801
F1
sS'rounds_max'
p2802
F4
sS'id'
p2803
S'Increase Cunning'
p2804
sS'apply_to_source'
p2805
S'TRUE'
p2806
sbasS'target_count'
p2807
I1
sS'crit_base_damage'
p2808
F12
sg2803
g2774
sS'name'
p2809
S'Get Exclusive'
p2810
sbsS'LOSELOSE'
p2811
g1
(g10
g3
NtRp2812
(dp2813
g2777
F4
sg2778
S'Causes all politicians in the target radius to lose votes'
p2814
sg2780
I1
sg2781
F0
sg2782
F0
sg2783
S'Cunning'
p2815
sg2785
S'All'
p2816
sg2787
F4
sg2788
I0
sg2789
(lp2817
sg2807
I6
sg2808
F0
sg2803
g2811
sg2809
S'Lose/lose issue'
p2818
sbsS'LIE'
p2819
g1
(g10
g3
NtRp2820
(dp2821
g2777
F9
sg2778
S"It's only lying if they catch you. A strong attack with a danger of critically failing"
p2822
sg2780
F3
sg2781
F10
sg2782
F5
sg2783
S'Cunning'
p2823
sg2785
S'AllEnemy'
p2824
sg2787
F0
sg2788
I0
sg2789
(lp2825
g1
(g2791
g3
NtRp2826
(dp2827
g2794
S'miss_turn'
p2828
sg2796
S'(MISS)'
p2829
sg2798
S''
sg2800
F0
sg2801
F1
sg2802
F1
sg2803
S'Critical Fail'
p2830
sg2805
S'TRUE'
p2831
sbasg2807
I1
sg2808
F10
sg2803
g2819
sg2809
S'Lie'
p2832
sbsS'HILARIOUSANECDOTE'
p2833
g1
(g10
g3
NtRp2834
(dp2835
g2777
F8
sg2778
S'asdf'
p2836
sg2780
I1
sg2781
F5
sg2782
F2
sg2783
S'Wit'
p2837
sg2785
S'AllFriendly'
p2838
sg2787
F4
sg2788
F5
sg2789
(lp2839
g1
(g2791
g3
NtRp2840
(dp2841
g2794
S'add'
p2842
sg2796
S'(INCREASE)'
p2843
sg2798
S'flair'
p2844
sg2800
F2
sg2801
F1
sg2802
F4
sg2803
S'Increase Flair'
p2845
sg2805
S'TRUE'
p2846
sbasg2807
I1
sg2808
F11
sg2803
g2833
sg2809
S'Hilarious Anecdote'
p2847
sbsS'SENSATIONALISE'
p2848
g1
(g10
g3
NtRp2849
(dp2850
g2777
F8
sg2778
S'asdf'
p2851
sg2780
I1
sg2781
F0
sg2782
F0
sg2783
S'Wit'
p2852
sg2785
S'AllEnemy'
p2853
sg2787
F4
sg2788
F3
sg2789
(lp2854
sg2807
I1
sg2808
F0
sg2803
g2848
sg2809
S'Sensationalise'
p2855
sbsS'DENOUNCE'
p2856
g1
(g10
g3
NtRp2857
(dp2858
g2777
F5
sg2778
S'asdf'
p2859
sg2780
F6
sg2781
F10
sg2782
F2
sg2783
S'Cunning'
p2860
sg2785
S'AllEnemy'
p2861
sg2787
F2
sg2788
I0
sg2789
(lp2862
sg2807
I1
sg2808
F8
sg2803
g2856
sg2809
S'Denounce'
p2863
sbsS'WHADOWEWANT'
p2864
g1
(g10
g3
NtRp2865
(dp2866
g2777
F6
sg2778
S'asdf'
p2867
sg2780
I1
sg2781
F0
sg2782
F0
sg2783
S'Cunning'
p2868
sg2785
S'AllEnemy'
p2869
sg2787
F3
sg2788
I0
sg2789
(lp2870
sg2807
I1
sg2808
F0
sg2803
g2864
sg2809
S'Whadowewant!'
p2871
sbsS'SCOOP'
p2872
g1
(g10
g3
NtRp2873
(dp2874
g2777
F5
sg2778
S'asdf'
p2875
sg2780
I1
sg2781
F10
sg2782
F5
sg2783
S'Cunning'
p2876
sg2785
S'AllEnemy'
p2877
sg2787
F2
sg2788
I0
sg2789
(lp2878
sg2807
I1
sg2808
F8
sg2803
g2872
sg2809
S'Scoop'
p2879
sbsS'CHOOSETARGETS'
p2880
g1
(g10
g3
NtRp2881
(dp2882
g2777
F7
sg2778
S'asdf'
p2883
sg2780
I1
sg2781
F10
sg2782
F5
sg2783
S'Cunning'
p2884
sg2785
S'AllEnemy'
p2885
sg2787
F2
sg2788
I0
sg2789
(lp2886
sg2807
I1
sg2808
F9
sg2803
g2880
sg2809
S'Choose Targets'
p2887
sbsS'FILENAILS'
p2888
g1
(g10
g3
NtRp2889
(dp2890
g2777
F0
sg2778
S'asdf'
p2891
sg2780
I1
sg2781
F0
sg2782
F0
sg2783
S'Wit'
p2892
sg2785
S'AllEnemy'
p2893
sg2787
F0
sg2788
F3
sg2789
(lp2894
g1
(g2791
g3
NtRp2895
(dp2896
g2794
S'add_permanent'
p2897
sg2796
S''
sg2798
S'votes'
p2898
sg2800
F5
sg2801
F1
sg2802
F1
sg2803
S'Votes Restore'
p2899
sg2805
S'TRUE'
p2900
sbasg2807
I1
sg2808
F0
sg2803
g2888
sg2809
S'File Nails'
p2901
sbsS'BRIBE'
p2902
g1
(g10
g3
NtRp2903
(dp2904
g2777
F10
sg2778
S'Is there anything more convincing than money? Buying loyalty gets expensive so be careful.'
p2905
sg2780
I1
sg2781
F0
sg2782
F0
sg2783
S'Money'
p2906
sg2785
S'AllEnemy'
p2907
sg2787
F4
sg2788
I0
sg2789
(lp2908
sg2807
I1
sg2808
F0
sg2803
g2902
sg2809
S'Bribe'
p2909
sbsS'SING'
p2910
g1
(g10
g3
NtRp2911
(dp2912
g2777
F-3
sg2778
S'Why bandy words with politicians when you can sing a catchy tune! Restores votes.'
p2913
sg2780
I1
sg2781
F0
sg2782
F0
sg2783
S'Cunning'
p2914
sg2785
S'AllFriendly'
p2915
sg2787
F-5
sg2788
I0
sg2789
(lp2916
sg2807
I4
sg2808
F0
sg2803
g2910
sg2809
S'Rousing Song'
p2917
sbsS'FEAR'
p2918
g1
(g10
g3
NtRp2919
(dp2920
g2777
F0
sg2778
S'asdf'
p2921
sg2780
F2
sg2781
F0
sg2782
F0
sg2783
S'Wit'
p2922
sg2785
S'AllFriendly'
p2923
sg2787
F0
sg2788
F4
sg2789
(lp2924
g2792
asg2807
I1
sg2808
F0
sg2803
g2918
sg2809
S'Fear Change'
p2925
sbsS'RAISEDEFCON'
p2926
g1
(g10
g3
NtRp2927
(dp2928
g2777
F5
sg2778
S'asdf'
p2929
sg2780
I1
sg2781
F7
sg2782
F3
sg2783
S'Cunning'
p2930
sg2785
S'AllEnemy'
p2931
sg2787
F4
sg2788
I0
sg2789
(lp2932
sg2807
I1
sg2808
F8
sg2803
g2926
sg2809
S'Raise DEFCON'
p2933
sbsS'NEGATTACKAD'
p2934
g1
(g10
g3
NtRp2935
(dp2936
g2777
F8
sg2778
S"Take them all down. They're definitely all bad people. Not like you."
p2937
sg2780
I1
sg2781
F10
sg2782
F10
sg2783
S'Wit'
p2938
sg2785
S'AllEnemy'
p2939
sg2787
F3
sg2788
F5
sg2789
(lp2940
sg2807
I1
sg2808
F10
sg2803
g2934
sg2809
S'Negative Attack Ad'
p2941
sbsS'DAZZLE'
p2942
g1
(g10
g3
NtRp2943
(dp2944
g2777
F6
sg2778
S'Being dazzling and admirable is a great way to take heat off politics'
p2945
sg2780
I1
sg2781
F8
sg2782
F5
sg2783
S'Wit'
p2946
sg2785
S'AllEnemy'
p2947
sg2787
F3
sg2788
F3
sg2789
(lp2948
g1
(g2791
g3
NtRp2949
(dp2950
g2794
S'reduce'
p2951
sg2796
S'(REDUCE)'
p2952
sg2798
S'cunning'
p2953
sg2800
F2
sg2801
F2
sg2802
F5
sg2803
S'Reduce Cunning'
p2954
sg2805
S''
sbasg2807
I4
sg2808
F8
sg2803
g2942
sg2809
S'Dazzle'
p2955
sbsS'BELIEVEMEDIA'
p2956
g1
(g10
g3
NtRp2957
(dp2958
g2777
F3
sg2778
S'asdf'
p2959
sg2780
I1
sg2781
F15
sg2782
F10
sg2783
S'Cunning'
p2960
sg2785
S'AllEnemy'
p2961
sg2787
F1
sg2788
I0
sg2789
(lp2962
sg2807
I1
sg2808
F12
sg2803
g2956
sg2809
S'Believe Media'
p2963
sbsS'PRPREP'
p2964
g1
(g10
g3
NtRp2965
(dp2966
g2777
F0
sg2778
S"If you're going to need some spin, best see a spin doctor! Adds spin points."
p2967
sg2780
I1
sg2781
F0
sg2782
F0
sg2783
S''
sg2785
S'AllFriendly'
p2968
sg2787
F0
sg2788
I0
sg2789
(lp2969
g1
(g2791
g3
NtRp2970
(dp2971
g2794
S'add_permanent'
p2972
sg2796
S''
sg2798
S'spin'
p2973
sg2800
F5
sg2801
F0
sg2802
F0
sg2803
S'Spin Restore'
p2974
sg2805
S'TRUE'
p2975
sbasg2807
I1
sg2808
F0
sg2803
g2964
sg2809
S'PR Prep'
p2976
sbsS'CALLVATICAN'
p2977
g1
(g10
g3
NtRp2978
(dp2979
g2777
F0
sg2778
S'Brings in 2 additional ReligousNuts at 2 levels lower than this one'
p2980
sg2780
I1
sg2781
F0
sg2782
F0
sg2783
S'Wit'
p2981
sg2785
S'None'
p2982
sg2787
F0
sg2788
F5
sg2789
(lp2983
g1
(g2791
g3
NtRp2984
(dp2985
g2794
S'call_friends'
p2986
sg2796
S''
sg2798
S'ReligiousNut001:1'
p2987
sg2800
F2
sg2801
F1
sg2802
F1
sg2803
S'Call Friends'
p2988
sg2805
S''
sbasg2807
I1
sg2808
F0
sg2803
g2977
sg2809
S'Call Battycan'
p2989
sbsS'BLACKMAIL'
p2990
g1
(g10
g3
NtRp2991
(dp2992
g2777
F6
sg2778
S'asdf'
p2993
sg2780
I1
sg2781
F10
sg2782
F2
sg2783
S'Wit'
p2994
sg2785
S'AllEnemy'
p2995
sg2787
F3
sg2788
F4
sg2789
(lp2996
g1
(g2791
g3
NtRp2997
(dp2998
g2794
S'drain'
p2999
sg2796
S'(DRAIN)'
p3000
sg2798
S'votes'
p3001
sg2800
F1
sg2801
F2
sg2802
F5
sg2803
S'Drain Votes'
p3002
sg2805
S''
sbasg2807
I1
sg2808
F2
sg2803
g2990
sg2809
S'Blackmail'
p3003
sbsS'SCARE'
p3004
g1
(g10
g3
NtRp3005
(dp3006
g2777
F7
sg2778
S'Nothing rattles the brains like fear.'
p3007
sg2780
I1
sg2781
F10
sg2782
F2
sg2783
S'Cunning'
p3008
sg2785
S'AllEnemy'
p3009
sg2787
F2
sg2788
I0
sg2789
(lp3010
g2949
asg2807
I2
sg2808
F9
sg2803
g3004
sg2809
S'Scare Campaign'
p3011
sbsS'PROTEST'
p3012
g1
(g10
g3
NtRp3013
(dp3014
g2777
F5
sg2778
S'asdf'
p3015
sg2780
F6
sg2781
F10
sg2782
F2
sg2783
S'Cunning'
p3016
sg2785
S'AllEnemy'
p3017
sg2787
F2
sg2788
I0
sg2789
(lp3018
sg2807
I1
sg2808
F8
sg2803
g3012
sg2809
S'Protest'
p3019
sbsS'SPREADRUMOUR'
p3020
g1
(g10
g3
NtRp3021
(dp3022
g2777
F8
sg2778
S'asdf'
p3023
sg2780
I1
sg2781
F10
sg2782
F2
sg2783
S'Wit'
p3024
sg2785
S'AllEnemy'
p3025
sg2787
F3
sg2788
F3
sg2789
(lp3026
sg2807
I4
sg2808
F10
sg2803
g3020
sg2809
S'Spread Rumour'
p3027
sbsS'AGENDA'
p3028
g1
(g10
g3
NtRp3029
(dp3030
g2777
F5
sg2778
S'asdf'
p3031
sg2780
F6
sg2781
F10
sg2782
F2
sg2783
S'Cunning'
p3032
sg2785
S'AllEnemy'
p3033
sg2787
F2
sg2788
I0
sg2789
(lp3034
sg2807
I1
sg2808
F8
sg2803
g3028
sg2809
S'Push Agenda'
p3035
sbsS'FILIBUSTER'
p3036
g1
(g10
g3
NtRp3037
(dp3038
g2777
F6
sg2778
S"You're not moving until they give in. Cause all opposition to miss their turn"
p3039
sg2780
I1
sg2781
F0
sg2782
F0
sg2783
S'Wit'
p3040
sg2785
S'AllEnemy'
p3041
sg2787
F3
sg2788
F8
sg2789
(lp3042
g1
(g2791
g3
NtRp3043
(dp3044
g2794
S'miss_turn'
p3045
sg2796
S'(MISS)'
p3046
sg2798
S''
sg2800
F0
sg2801
F1
sg2802
F1
sg2803
S'Miss Turn'
p3047
sg2805
S''
sbasg2807
I1
sg2808
F0
sg2803
g3036
sg2809
S'Filibuster'
p3048
sbsS'GATHERINTEL'
p3049
g1
(g10
g3
NtRp3050
(dp3051
g2777
F0
sg2778
S'Increases Cunning.'
p3052
sg2780
I1
sg2781
F0
sg2782
F0
sg2783
S'Wit'
p3053
sg2785
S'AllFriendly'
p3054
sg2787
F0
sg2788
F3
sg2789
(lp3055
g2792
asg2807
I2
sg2808
F0
sg2803
g3049
sg2809
S'Gather Intelligence'
p3056
sbsS'LOVE'
p3057
g1
(g10
g3
NtRp3058
(dp3059
g2777
F6
sg2778
S'asdf'
p3060
sg2780
F2
sg2781
F8
sg2782
F2
sg2783
S'Cunning'
p3061
sg2785
S'AllEnemy'
p3062
sg2787
F1
sg2788
I0
sg2789
(lp3063
sg2807
I1
sg2808
F7
sg2803
g3057
sg2809
S'Love'
p3064
sbsS'OUTOFCONTEXT'
p3065
g1
(g10
g3
NtRp3066
(dp3067
g2777
F5
sg2778
S'asdf'
p3068
sg2780
I1
sg2781
F5
sg2782
F2
sg2783
S'Wit'
p3069
sg2785
S'AllEnemy'
p3070
sg2787
F3
sg2788
F2
sg2789
(lp3071
g2997
asg2807
I1
sg2808
F5
sg2803
g3065
sg2809
S'Take Out Of Context'
p3072
sbsS'GREATSUIT'
p3073
g1
(g10
g3
NtRp3074
(dp3075
g2777
F6
sg2778
S'Well, we could argue, but have you noticed how fabulous this suit is?'
p3076
sg2780
I1
sg2781
F11
sg2782
F6
sg2783
S'Cunning'
p3077
sg2785
S'AllEnemy'
p3078
sg2787
F3
sg2788
I0
sg2789
(lp3079
sg2807
I1
sg2808
F10
sg2803
g3073
sg2809
S'Look Great In Suit'
p3080
sbsS'PEACE'
p3081
g1
(g10
g3
NtRp3082
(dp3083
g2777
F0
sg2778
S'asdf'
p3084
sg2780
I1
sg2781
F0
sg2782
F0
sg2783
S'Wit'
p3085
sg2785
S'AllEnemy'
p3086
sg2787
F0
sg2788
F3
sg2789
(lp3087
g2949
asg2807
I4
sg2808
F0
sg2803
g3081
sg2809
S'Peace'
p3088
sbsS'INSPSPEECH'
p3089
g1
(g10
g3
NtRp3090
(dp3091
g2777
F-2
sg2778
S'Restore votes to all party members'
p3092
sg2780
I1
sg2781
F0
sg2782
F0
sg2783
S'Cunning'
p3093
sg2785
S'AllFriendly'
p3094
sg2787
F-2
sg2788
I0
sg2789
(lp3095
sg2807
I4
sg2808
F0
sg2803
g3089
sg2809
S'Inspirational Speech'
p3096
sbsS'RALLYENEMY'
p3097
g1
(g10
g3
NtRp3098
(dp3099
g2777
F0
sg2778
S'Get back some votes by rallying supporters'
p3100
sg2780
I1
sg2781
F0
sg2782
F0
sg2783
S'Wit'
p3101
sg2785
S'AllFriendly'
p3102
sg2787
F0
sg2788
F3
sg2789
(lp3103
g1
(g2791
g3
NtRp3104
(dp3105
g2794
S'add_permanent'
p3106
sg2796
S''
sg2798
S'votes'
p3107
sg2800
F8
sg2801
F1
sg2802
F1
sg2803
S'Votes Restore Rally Enemy'
p3108
sg2805
S''
sbasg2807
I1
sg2808
F0
sg2803
g3097
sg2809
S'Rally Constituents'
p3109
sbsS'STRIKE'
p3110
g1
(g10
g3
NtRp3111
(dp3112
g2777
F10
sg2778
S'asdf'
p3113
sg2780
I1
sg2781
F0
sg2782
F0
sg2783
S'Wit'
p3114
sg2785
S'AllEnemy'
p3115
sg2787
F0
sg2788
F3
sg2789
(lp3116
g2826
asg2807
I1
sg2808
F0
sg2803
g3110
sg2809
S'Call A Strike'
p3117
sbsS'SLANDER'
p3118
g1
(g10
g3
NtRp3119
(dp3120
g2777
F5
sg2778
S'Strong against polititians...careful with those voters, though!'
p3121
sg2780
F4
sg2781
F10
sg2782
F2
sg2783
S'Cunning'
p3122
sg2785
S'AllEnemy'
p3123
sg2787
F3
sg2788
I0
sg2789
(lp3124
g2997
asg2807
I1
sg2808
F7
sg2803
g3118
sg2809
S'Slander Opposition'
p3125
sbsS'NATTER'
p3126
g1
(g10
g3
NtRp3127
(dp3128
g2777
F8
sg2778
S'asdf'
p3129
sg2780
I1
sg2781
F15
sg2782
F5
sg2783
S'Cunning'
p3130
sg2785
S'AllEnemy'
p3131
sg2787
F1
sg2788
I0
sg2789
(lp3132
sg2807
I1
sg2808
F10
sg2803
g3126
sg2809
S'Natter On'
p3133
sbsS'GOSSIP'
p3134
g1
(g10
g3
NtRp3135
(dp3136
g2777
F3
sg2778
S'asdf'
p3137
sg2780
I1
sg2781
F10
sg2782
F2
sg2783
S'Wit'
p3138
sg2785
S'AllEnemy'
p3139
sg2787
F2
sg2788
F2
sg2789
(lp3140
g2949
asg2807
I1
sg2808
F6
sg2803
g3134
sg2809
S'Gossip'
p3141
sbsS'MISSTURN'
p3142
g1
(g10
g3
NtRp3143
(dp3144
g2777
F0
sg2778
S'asdf'
p3145
sg2780
I1
sg2781
F0
sg2782
F0
sg2783
S''
sg2785
S'AllEnemy'
p3146
sg2787
F0
sg2788
I0
sg2789
(lp3147
sg2807
I1
sg2808
F0
sg2803
g3142
sg2809
S'Miss Turn'
p3148
sbsS'BIELECTION'
p3149
g1
(g10
g3
NtRp3150
(dp3151
g2777
F4
sg2778
S'Redistribute votes amongst targets'
p3152
sg2780
I1
sg2781
F0
sg2782
F0
sg2783
S'Wit'
p3153
sg2785
S'All'
p3154
sg2787
F-4
sg2788
F4
sg2789
(lp3155
sg2807
I8
sg2808
F0
sg2803
g3149
sg2809
S'Bielection'
p3156
sbsS'RUNAD'
p3157
g1
(g10
g3
NtRp3158
(dp3159
g2777
F0
sg2778
S'Gets back some votes by running an ad'
p3160
sg2780
I1
sg2781
F0
sg2782
F0
sg2783
S''
sg2785
S'AllFriendly'
p3161
sg2787
F0
sg2788
I0
sg2789
(lp3162
g1
(g2791
g3
NtRp3163
(dp3164
g2794
S'add_permanent'
p3165
sg2796
S''
sg2798
S'votes'
p3166
sg2800
F15
sg2801
F1
sg2802
F1
sg2803
S'Votes Restore Ad'
p3167
sg2805
S'TRUE'
p3168
sbasg2807
I1
sg2808
F0
sg2803
g3157
sg2809
S'Run Advertisement'
p3169
sbsS'PAYOFF'
p3170
g1
(g10
g3
NtRp3171
(dp3172
g2777
F8
sg2778
S'causes them to miss a number of turns'
p3173
sg2780
I1
sg2781
F8
sg2782
F2
sg2783
S'Wit'
p3174
sg2785
S'AllEnemy'
p3175
sg2787
F4
sg2788
F4
sg2789
(lp3176
g1
(g2791
g3
NtRp3177
(dp3178
g2794
S'miss_turn'
p3179
sg2796
S'(MISS)'
p3180
sg2798
S''
sg2800
F0
sg2801
F1
sg2802
F3
sg2803
S'Miss Turn Pay Off'
p3181
sg2805
S''
sbasg2807
I1
sg2808
F10
sg2803
g3170
sg2809
S'Pay Off'
p3182
sbsS'BUREAUCRACY'
p3183
g1
(g10
g3
NtRp3184
(dp3185
g2777
F5
sg2778
S'asdf'
p3186
sg2780
F6
sg2781
F10
sg2782
F2
sg2783
S'Cunning'
p3187
sg2785
S'AllEnemy'
p3188
sg2787
F2
sg2788
I0
sg2789
(lp3189
sg2807
I1
sg2808
F8
sg2803
g3183
sg2809
S'Bureaucracy'
p3190
sbsS'RALLYAUDIENCE'
p3191
g1
(g10
g3
NtRp3192
(dp3193
g2777
F8
sg2778
S'asdf'
p3194
sg2780
I1
sg2781
F0
sg2782
F0
sg2783
S'Wit'
p3195
sg2785
S'AllFriendly'
p3196
sg2787
F4
sg2788
F3
sg2789
(lp3197
g1
(g2791
g3
NtRp3198
(dp3199
g2794
S'add'
p3200
sg2796
S'(INCREASE)'
p3201
sg2798
S'charisma'
p3202
sg2800
F2
sg2801
F1
sg2802
F4
sg2803
S'Increase Charisma'
p3203
sg2805
S'TRUE'
p3204
sbasg2807
I1
sg2808
F0
sg2803
g3191
sg2809
S'Rally Audience'
p3205
sbsS'PORKBARREL'
p3206
g1
(g10
g3
NtRp3207
(dp3208
g2777
F8
sg2778
S'Do something that benefits them specifically. Not advised against politicians.'
p3209
sg2780
I1
sg2781
F0
sg2782
F0
sg2783
S'Wit'
p3210
sg2785
S'AllEnemy'
p3211
sg2787
F4
sg2788
F2
sg2789
(lp3212
sg2807
I1
sg2808
F0
sg2803
g3206
sg2809
S'Pork Barrel'
p3213
sbsS'INSPIRE'
p3214
g1
(g10
g3
NtRp3215
(dp3216
g2777
F0
sg2778
S'asdf'
p3217
sg2780
I1
sg2781
F0
sg2782
F0
sg2783
S'Wit'
p3218
sg2785
S'AllFriendly'
p3219
sg2787
F0
sg2788
F3
sg2789
(lp3220
g2792
asg2807
I4
sg2808
F0
sg2803
g3214
sg2809
S'Inspire'
p3221
sbsS'JOKE'
p3222
g1
(g10
g3
NtRp3223
(dp3224
g2777
F5
sg2778
S"Ha, ha, ha...what were we talking about? Diffuse the situation with some humour. High chance of critical hit. Knock 'em dead!"
p3225
sg2780
F3
sg2781
F20
sg2782
F15
sg2783
S'Cunning'
p3226
sg2785
S'AllEnemy'
p3227
sg2787
F2
sg2788
I0
sg2789
(lp3228
sg2807
I1
sg2808
F12
sg2803
g3222
sg2809
S'Joke'
p3229
sbsS'PRAYFORSOULS'
p3230
g1
(g10
g3
NtRp3231
(dp3232
g2777
F6
sg2778
S'asdf'
p3233
sg2780
F2
sg2781
F10
sg2782
F2
sg2783
S'Cunning'
p3234
sg2785
S'None'
p3235
sg2787
F3
sg2788
I0
sg2789
(lp3236
sg2807
I1
sg2808
F10
sg2803
g3230
sg2809
S'Pray'
p3237
sbsS'REVIVE'
p3238
g1
(g10
g3
NtRp3239
(dp3240
g2777
F0
sg2778
S'Revive a defeated comrade to half votes'
p3241
sg2780
I1
sg2781
F0
sg2782
F0
sg2783
S''
sg2785
S'DeadFriendly'
p3242
sg2787
F0
sg2788
F5
sg2789
(lp3243
g1
(g2791
g3
NtRp3244
(dp3245
g2794
S'revive'
p3246
sg2796
S''
sg2798
S''
sg2800
F0.5
sg2801
F0
sg2802
F0
sg2803
S'Revive'
p3247
sg2805
S''
sbasg2807
I1
sg2808
F0
sg2803
g3238
sg2809
S'Revive'
p3248
sbsS'HUMANSHIELD'
p3249
g1
(g10
g3
NtRp3250
(dp3251
g2777
F8
sg2778
S'No further questions. Step back, please.'
p3252
sg2780
I1
sg2781
F5
sg2782
F2
sg2783
S'Wit'
p3253
sg2785
S'AllEnemy'
p3254
sg2787
F4
sg2788
F4
sg2789
(lp3255
g3043
asg2807
I2
sg2808
F11
sg2803
g3249
sg2809
S'Human Shield'
p3256
sbsS'MAKEDEMANDS'
p3257
g1
(g10
g3
NtRp3258
(dp3259
g2777
F8
sg2778
S'asdf'
p3260
sg2780
I1
sg2781
F0
sg2782
F0
sg2783
S'Cunning'
p3261
sg2785
S'AllEnemy'
p3262
sg2787
F0
sg2788
I0
sg2789
(lp3263
g2826
asg2807
I1
sg2808
F0
sg2803
g3257
sg2809
S'Make Outrageous Demands'
p3264
sbsS'DEFENSE'
p3265
g1
(g10
g3
NtRp3266
(dp3267
g2777
F0
sg2778
S'Gather strenth; -50% to all incoming attacks'
p3268
sg2780
I1
sg2781
F0
sg2782
F0
sg2783
S''
sg2785
S'None'
p3269
sg2787
F0
sg2788
I0
sg2789
(lp3270
g1
(g2791
g3
NtRp3271
(dp3272
g2794
S'add'
p3273
sg2796
S'(DFND)'
p3274
sg2798
S'resistance'
p3275
sg2800
F0.5
sg2801
F1
sg2802
F1
sg2803
S'Defense'
p3276
sg2805
S'TRUE'
p3277
sbasg2807
I1
sg2808
F0
sg2803
g3265
sg2809
S'Defense'
p3278
sbsS'MISCONSTRUE'
p3279
g1
(g10
g3
NtRp3280
(dp3281
g2777
F8
sg2778
S'asdf'
p3282
sg2780
I1
sg2781
F0
sg2782
F0
sg2783
S'Cunning'
p3283
sg2785
S'AllEnemy'
p3284
sg2787
F0
sg2788
I0
sg2789
(lp3285
g2826
asg2807
I1
sg2808
F0
sg2803
g3279
sg2809
S'Misconstrue'
p3286
sbsS'NATIONALSECURITY'
p3287
g1
(g10
g3
NtRp3288
(dp3289
g2777
F7
sg2778
S"This is a matter of national security and they don't have codeword clearance"
p3290
sg2780
I1
sg2781
F10
sg2782
F2
sg2783
S'Cunning'
p3291
sg2785
S'AllEnemy'
p3292
sg2787
F2
sg2788
I0
sg2789
(lp3293
sg2807
I1
sg2808
F9
sg2803
g3287
sg2809
S'National Security'
p3294
sbsS'RALLY'
p3295
g1
(g10
g3
NtRp3296
(dp3297
g2777
F0
sg2778
S'Get back some votes by rallying supporters'
p3298
sg2780
I1
sg2781
F0
sg2782
F0
sg2783
S'Wit'
p3299
sg2785
S'AllFriendly'
p3300
sg2787
F0
sg2788
F3
sg2789
(lp3301
g1
(g2791
g3
NtRp3302
(dp3303
g2794
S'add_permanent'
p3304
sg2796
S''
sg2798
S'votes'
p3305
sg2800
F20
sg2801
F1
sg2802
F1
sg2803
S'Votes Restore Rally'
p3306
sg2805
S''
sbasg2807
I1
sg2808
F0
sg2803
g3295
sg2809
S'Rally Constituents'
p3307
sbsS'MESSAGE'
p3308
g1
(g10
g3
NtRp3309
(dp3310
g2777
F6
sg2778
S'You can certainly wear them down by repeating your party line over and over and over...if you want'
p3311
sg2780
F6
sg2781
F10
sg2782
F5
sg2783
S'Cunning'
p3312
sg2785
S'AllEnemy'
p3313
sg2787
F3
sg2788
I0
sg2789
(lp3314
sg2807
I1
sg2808
F10
sg2803
g3308
sg2809
S'Stay On Message'
p3315
sbsS'APPEALTOGOD'
p3316
g1
(g10
g3
NtRp3317
(dp3318
g2777
F10
sg2778
S'asdf'
p3319
sg2780
F3
sg2781
F5
sg2782
F2
sg2783
S'Wit'
p3320
sg2785
S'AllEnemy'
p3321
sg2787
F4
sg2788
F7
sg2789
(lp3322
sg2807
I4
sg2808
F13
sg2803
g3316
sg2809
S'Appeal To God'
p3323
sbssS'levels'
p3324
(lp3325
g1
(g10
g3
NtRp3326
(dp3327
S'votes'
p3328
F20
sS'level'
p3329
F1
sS'spin'
p3330
F5
sS'xp'
p3331
F0
sS'skill_points'
p3332
F0
sbag1
(g10
g3
NtRp3333
(dp3334
g3328
F12
sg3329
F2
sg3330
F5
sg3331
F100
sg3332
F2
sbag1
(g10
g3
NtRp3335
(dp3336
g3328
F15
sg3329
F3
sg3330
F6
sg3331
F200
sg3332
F2
sbag1
(g10
g3
NtRp3337
(dp3338
g3328
F20
sg3329
F4
sg3330
F6
sg3331
F500
sg3332
F2
sbag1
(g10
g3
NtRp3339
(dp3340
g3328
F25
sg3329
F5
sg3330
F7
sg3331
F1000
sg3332
F2
sbag1
(g10
g3
NtRp3341
(dp3342
g3328
F30
sg3329
F6
sg3330
F7
sg3331
F2000
sg3332
F2
sbag1
(g10
g3
NtRp3343
(dp3344
g3328
F35
sg3329
F7
sg3330
F8
sg3331
F5000
sg3332
F2
sbag1
(g10
g3
NtRp3345
(dp3346
g3328
F40
sg3329
F8
sg3330
F8
sg3331
F10000
sg3332
F2
sbag1
(g10
g3
NtRp3347
(dp3348
g3328
F45
sg3329
F9
sg3330
F9
sg3331
F15000
sg3332
F2
sbag1
(g10
g3
NtRp3349
(dp3350
g3328
F50
sg3329
F10
sg3330
F9
sg3331
F20000
sg3332
F2
sbag1
(g10
g3
NtRp3351
(dp3352
g3328
F55
sg3329
F11
sg3330
F10
sg3331
F40000
sg3332
F2
sbag1
(g10
g3
NtRp3353
(dp3354
g3328
S''
sg3329
F12
sg3330
S''
sg3331
S''
sg3332
S''
sbag1
(g10
g3
NtRp3355
(dp3356
g3328
S''
sg3329
F13
sg3330
S''
sg3331
S''
sg3332
S''
sbag1
(g10
g3
NtRp3357
(dp3358
g3328
S''
sg3329
F14
sg3330
S''
sg3331
S''
sg3332
S''
sbag1
(g10
g3
NtRp3359
(dp3360
g3328
S''
sg3329
F15
sg3330
S''
sg3331
S''
sg3332
S''
sbag1
(g10
g3
NtRp3361
(dp3362
g3328
S''
sg3329
F16
sg3330
S''
sg3331
S''
sg3332
S''
sbag1
(g10
g3
NtRp3363
(dp3364
g3328
S''
sg3329
F17
sg3330
S''
sg3331
S''
sg3332
S''
sbag1
(g10
g3
NtRp3365
(dp3366
g3328
S''
sg3329
F18
sg3330
S''
sg3331
S''
sg3332
S''
sbag1
(g10
g3
NtRp3367
(dp3368
g3328
S''
sg3329
F19
sg3330
S''
sg3331
S''
sg3332
S''
sbag1
(g10
g3
NtRp3369
(dp3370
g3328
S''
sg3329
F20
sg3330
S''
sg3331
S''
sg3332
S''
sbag1
(g10
g3
NtRp3371
(dp3372
g3328
S''
sg3329
F21
sg3330
S''
sg3331
S''
sg3332
S''
sbag1
(g10
g3
NtRp3373
(dp3374
g3328
S''
sg3329
F22
sg3330
S''
sg3331
S''
sg3332
S''
sbag1
(g10
g3
NtRp3375
(dp3376
g3328
S''
sg3329
F23
sg3330
S''
sg3331
S''
sg3332
S''
sbag1
(g10
g3
NtRp3377
(dp3378
g3328
S''
sg3329
F24
sg3330
S''
sg3331
S''
sg3332
S''
sbag1
(g10
g3
NtRp3379
(dp3380
g3328
S''
sg3329
F25
sg3330
S''
sg3331
S''
sg3332
S''
sbag1
(g10
g3
NtRp3381
(dp3382
g3328
S''
sg3329
F26
sg3330
S''
sg3331
S''
sg3332
S''
sbag1
(g10
g3
NtRp3383
(dp3384
g3328
S''
sg3329
F27
sg3330
S''
sg3331
S''
sg3332
S''
sbag1
(g10
g3
NtRp3385
(dp3386
g3328
S''
sg3329
F28
sg3330
S''
sg3331
S''
sg3332
S''
sbag1
(g10
g3
NtRp3387
(dp3388
g3328
S''
sg3329
F29
sg3330
S''
sg3331
S''
sg3332
S''
sbasg2789
(dp3389
g2804
g2792
sg2899
g2895
sg2974
g2970
sg3203
g3198
sg3047
g3043
sg2988
g2984
sg3167
g3163
sg3181
g3177
sg3108
g3104
sg3247
g3244
sg2954
g2949
sg3002
g2997
sg3276
g3271
sg2830
g2826
sg2845
g2840
sg3306
g3302
ssS'characters'
p3390
(dp3391
S'Teacher001'
p3392
(lp3393
g1
(g10
g3
NtRp3394
(dp3395
S'flair_base'
p3396
F1
sS'spin_base'
p3397
F4
sS'flair_lvl'
p3398
F1.1499999999999999
sS'wit_base'
p3399
F1
sS'resistance'
p3400
(lp3401
sS'wit_lvl'
p3402
F1.0900000000000001
sS'cunning_base'
p3403
F1
sg2803
g3392
sS'votes_base'
p3404
F10
sS'speed_lvl'
p3405
F1.0800000000000001
sS'standard_attacks'
p3406
(lp3407
g3266
ag3013
asS'cunning_lvl'
p3408
F1.1000000000000001
sS'charisma_lvl'
p3409
F1.1499999999999999
sS'spin_attacks'
p3410
(lp3411
g3111
ag3098
asS'spin_lvl'
p3412
F1.0800000000000001
sS'charisma_base'
p3413
F1
sS'weaknesses'
p3414
(lp3415
sS'attack_group'
p3416
S'Teacher'
p3417
sS'votes_lvl'
p3418
F1.2
sg2809
S'Teacher'
p3419
sS'speed_base'
p3420
F1
sS'immunities'
p3421
(lp3422
sbasS'Politician001'
p3423
(lp3424
g1
(g10
g3
NtRp3425
(dp3426
g3396
F1
sg3397
F4
sg3398
F1.1499999999999999
sg3399
F1
sg3400
(lp3427
g2820
asg3402
F1.0900000000000001
sg3403
F1
sg2803
g3423
sg3404
F10
sg3405
F1.0800000000000001
sg3406
(lp3428
g3309
ag3119
ag2820
ag3223
ag3266
asg3408
F1.1000000000000001
sg3409
F1.1499999999999999
sg3410
(lp3429
g3150
ag2935
ag3239
asg3412
F1.0800000000000001
sg3413
F1
sg3414
(lp3430
g2903
asg3416
S'Politician'
p3431
sg3418
F1.2
sg2809
S'Politician'
p3432
sg3420
F1
sg3421
(lp3433
g3207
asbasS'SecretAgent'
p3434
(lp3435
g1
(g10
g3
NtRp3436
(dp3437
g3396
F1
sg3397
F4
sg3398
F1.1499999999999999
sg3399
F1
sg3400
(lp3438
sg3402
F1.0900000000000001
sg3403
F1
sg2803
g3434
sg3404
F18
sg3405
F1.0800000000000001
sg3406
(lp3439
g3266
ag3288
ag3074
asg3408
F1.1000000000000001
sg3409
F1.1499999999999999
sg3410
(lp3440
g3250
ag3050
asg3412
F1.0800000000000001
sg3413
F1
sg3414
(lp3441
sg3416
S'SecretAgent'
p3442
sg3418
F1.2
sg2809
S'Agent Kawalski'
p3443
sg3420
F1
sg3421
(lp3444
sbasS'Bumpkin001'
p3445
(lp3446
g1
(g10
g3
NtRp3447
(dp3448
g3396
F1
sg3397
F4
sg3398
F1.1499999999999999
sg3399
F1
sg3400
(lp3449
sg3402
F1.0900000000000001
sg3403
F1
sg2803
g3445
sg3404
F10
sg3405
F1.0800000000000001
sg3406
(lp3450
g3223
ag2957
asg3408
F1.1000000000000001
sg3409
F1.1499999999999999
sg3410
(lp3451
g2919
ag3021
asg3412
F1.0800000000000001
sg3413
F1
sg3414
(lp3452
g2820
ag3119
ag3005
asg3416
S'Bumpkin'
p3453
sg3418
F1.2
sg2809
S'Bumpkin'
p3454
sg3420
F1
sg3421
(lp3455
sbasS'WarVet001'
p3456
(lp3457
g1
(g10
g3
NtRp3458
(dp3459
g3396
F1
sg3397
F4
sg3398
F1.1499999999999999
sg3399
F1
sg3400
(lp3460
sg3402
F1.0900000000000001
sg3403
F1
sg2803
g3456
sg3404
F10
sg3405
F1.0800000000000001
sg3406
(lp3461
g3258
ag3266
asg3408
F1.1000000000000001
sg3409
F1.1499999999999999
sg3410
(lp3462
g3215
ag3098
asg3412
F1.0800000000000001
sg3413
F1
sg3414
(lp3463
sg3416
S'WarVet'
p3464
sg3418
F1.2
sg2809
S'War Veteran'
p3465
sg3420
F1
sg3421
(lp3466
sbasS'Receptionist001'
p3467
(lp3468
g1
(g10
g3
NtRp3469
(dp3470
g3396
F1
sg3397
F4
sg3398
F1.1499999999999999
sg3399
F1
sg3400
(lp3471
sg3402
F1.0900000000000001
sg3403
F1
sg2803
g3467
sg3404
F8
sg3405
F1.0800000000000001
sg3406
(lp3472
g3184
ag3127
asg3408
F1.1000000000000001
sg3409
F1.1499999999999999
sg3410
(lp3473
g3135
ag2889
asg3412
F1.0800000000000001
sg3413
F0
sg3414
(lp3474
sg3416
S'Receptionist'
p3475
sg3418
F1.2
sg2809
S'Receptionist'
p3476
sg3420
F1
sg3421
(lp3477
sbasS'DeepThroat'
p3478
(lp3479
g1
(g10
g3
NtRp3480
(dp3481
g3396
F1
sg3397
F4
sg3398
F1.1499999999999999
sg3399
F1
sg3400
(lp3482
sg3402
F1.0900000000000001
sg3403
F1
sg2803
g3478
sg3404
F10
sg3405
F1.0800000000000001
sg3406
(lp3483
g3119
ag3266
ag3258
asg3408
F1.1000000000000001
sg3409
F1.1499999999999999
sg3410
(lp3484
g2991
asg3412
F1.0800000000000001
sg3413
F1
sg3414
(lp3485
sg3416
S'DeepThroat'
p3486
sg3418
F1.2
sg2809
S'Mr Er...?'
p3487
sg3420
F1
sg3421
(lp3488
sbasS'Leo'
p3489
(lp3490
g1
(g10
g3
NtRp3491
(dp3492
g3396
F1
sg3397
F4
sg3398
F1.1499999999999999
sg3399
F1
sg3400
(lp3493
sg3402
F1.0900000000000001
sg3403
F1
sg2803
g3489
sg3404
F14
sg3405
F1.0800000000000001
sg3406
(lp3494
g3309
ag3119
ag2820
ag3223
ag2903
asg3408
F1.1000000000000001
sg3409
F1.1499999999999999
sg3410
(lp3495
g3150
ag2935
ag3207
ag3037
asg3412
F1.0800000000000001
sg3413
F1
sg3414
(lp3496
sg3416
S'Theo'
p3497
sg3418
F1.2
sg2809
S'Theo'
p3498
sg3420
F1
sg3421
(lp3499
sbasS'HippyGirl001'
p3500
(lp3501
g1
(g10
g3
NtRp3502
(dp3503
g3396
F1
sg3397
F4
sg3398
F1.1499999999999999
sg3399
F1
sg3400
(lp3504
sg3402
F1.0900000000000001
sg3403
F1
sg2803
g3500
sg3404
F10
sg3405
F1.0800000000000001
sg3406
(lp3505
g2911
ag3013
ag3058
asg3408
F1.1000000000000001
sg3409
F1.1499999999999999
sg3410
(lp3506
g3082
ag3098
ag3239
asg3412
F1.0800000000000001
sg3413
F1
sg3414
(lp3507
g3223
asg3416
S'Hippy'
p3508
sg3418
F1.2
sg2809
S'Hippy Girl'
p3509
sg3420
F1
sg3421
(lp3510
sbasS'President'
p3511
(lp3512
g1
(g10
g3
NtRp3513
(dp3514
g3396
F1
sg3397
F4
sg3398
F1.1499999999999999
sg3399
F1
sg3400
(lp3515
sg3402
F1.0900000000000001
sg3403
F1
sg2803
g3511
sg3404
F10
sg3405
F1.0800000000000001
sg3406
(lp3516
g3309
ag3119
ag2820
ag3223
ag3266
asg3408
F1.1000000000000001
sg3409
F1.1499999999999999
sg3410
(lp3517
g3150
ag2935
ag3239
asg3412
F1.0800000000000001
sg3413
F1
sg3414
(lp3518
sg3416
S'Politician'
p3519
sg3418
F1.2
sg2809
S'President Allen'
p3520
sg3420
F1
sg3421
(lp3521
sbasS'Unionist001'
p3522
(lp3523
g1
(g10
g3
NtRp3524
(dp3525
g3396
F1
sg3397
F4
sg3398
F1.1499999999999999
sg3399
F1
sg3400
(lp3526
sg3402
F1.0900000000000001
sg3403
F1
sg2803
g3522
sg3404
F10
sg3405
F1.0800000000000001
sg3406
(lp3527
g3258
ag3266
ag3013
asg3408
F1.1000000000000001
sg3409
F1.1499999999999999
sg3410
(lp3528
g3111
asg3412
F1.0800000000000001
sg3413
F1
sg3414
(lp3529
sg3416
S'Unionist'
p3530
sg3418
F1.2
sg2809
S'Unionist'
p3531
sg3420
F1
sg3421
(lp3532
sbasS'Wife'
p3533
(lp3534
g1
(g10
g3
NtRp3535
(dp3536
g3396
F1
sg3397
F4
sg3398
F1.1499999999999999
sg3399
F1
sg3400
(lp3537
sg3402
F1.0900000000000001
sg3403
F1
sg2803
g3533
sg3404
F12
sg3405
F1.0800000000000001
sg3406
(lp3538
g3309
ag2820
ag3223
ag3266
asg3408
F1.1000000000000001
sg3409
F1.1499999999999999
sg3410
(lp3539
g3296
ag3239
ag2943
asg3412
F1.0800000000000001
sg3413
F1
sg3414
(lp3540
sg3416
S'Wife'
p3541
sg3418
F1.2
sg2809
S'Sarah Mossman'
p3542
sg3420
F1
sg3421
(lp3543
sbasS'PresidentAlien'
p3544
(lp3545
g1
(g10
g3
NtRp3546
(dp3547
g3396
F1
sg3397
F4
sg3398
F1.1499999999999999
sg3399
F1
sg3400
(lp3548
sg3402
F1.0900000000000001
sg3403
F1
sg2803
g3544
sg3404
F10
sg3405
F1.0800000000000001
sg3406
(lp3549
g3309
ag3119
ag2820
ag3223
ag3266
asg3408
F1.1000000000000001
sg3409
F1.1499999999999999
sg3410
(lp3550
g3150
ag2935
ag3239
asg3412
F1.0800000000000001
sg3413
F1
sg3414
(lp3551
sg3416
S'Politician'
p3552
sg3418
F1.2
sg2809
S'President Alien'
p3553
sg3420
F1
sg3421
(lp3554
sbasS'Governor'
p3555
(lp3556
g1
(g10
g3
NtRp3557
(dp3558
g3396
F1
sg3397
F4
sg3398
F1.1499999999999999
sg3399
F1
sg3400
(lp3559
sg3402
F1.0900000000000001
sg3403
F1
sg2803
g3555
sg3404
F10
sg3405
F1.0800000000000001
sg3406
(lp3560
g3309
ag3119
ag2820
ag3223
ag3266
asg3408
F1.1000000000000001
sg3409
F1.1499999999999999
sg3410
(lp3561
g3150
ag2935
ag3239
asg3412
F1.0800000000000001
sg3413
F1
sg3414
(lp3562
sg3416
S'Politician'
p3563
sg3418
F1.2
sg2809
g3555
sg3420
F1
sg3421
(lp3564
sbasS'Lobbyist001'
p3565
(lp3566
g1
(g10
g3
NtRp3567
(dp3568
g3396
F1
sg3397
F4
sg3398
F1.1499999999999999
sg3399
F1
sg3400
(lp3569
sg3402
F1.0900000000000001
sg3403
F1
sg2803
g3565
sg3404
F10
sg3405
F1.0800000000000001
sg3406
(lp3570
g3029
ag3258
asg3408
F1.1000000000000001
sg3409
F1.1499999999999999
sg3410
(lp3571
g3171
ag2991
asg3412
F1.0800000000000001
sg3413
F1
sg3414
(lp3572
g3207
asg3416
S'Lobbyist'
p3573
sg3418
F1.2
sg2809
S'Lobbyist'
p3574
sg3420
F1
sg3421
(lp3575
g2903
asbasS'Journalist001'
p3576
(lp3577
g1
(g10
g3
NtRp3578
(dp3579
g3396
F1
sg3397
F4
sg3398
F1.1499999999999999
sg3399
F1
sg3400
(lp3580
sg3402
F1.0900000000000001
sg3403
F1
sg2803
g3576
sg3404
F10
sg3405
F1.0800000000000001
sg3406
(lp3581
g2873
ag3280
asg3408
F1.1000000000000001
sg3409
F1.1499999999999999
sg3410
(lp3582
g3066
ag2775
ag2849
asg3412
F1.0800000000000001
sg3413
F1
sg3414
(lp3583
sg3416
S'Journalist'
p3584
sg3418
F1.2
sg2809
S'Journalist'
p3585
sg3420
F1
sg3421
(lp3586
sbasS'ReligiousNut001'
p3587
(lp3588
g1
(g10
g3
NtRp3589
(dp3590
g3396
F1
sg3397
F4
sg3398
F1.1499999999999999
sg3399
F1
sg3400
(lp3591
sg3402
F1.0900000000000001
sg3403
F1
sg2803
g3587
sg3404
F10
sg3405
F1.0800000000000001
sg3406
(lp3592
g2857
ag3231
ag3266
asg3408
F1.1000000000000001
sg3409
F1.1499999999999999
sg3410
(lp3593
g3317
ag2978
asg3412
F1.0800000000000001
sg3413
F1
sg3414
(lp3594
sg3416
S'Religious'
p3595
sg3418
F1.2
sg2809
S'Religious Nut'
p3596
sg3420
F1
sg3421
(lp3597
g3223
asbasS'JointChief001'
p3598
(lp3599
g1
(g10
g3
NtRp3600
(dp3601
g3396
F1
sg3397
F4
sg3398
F1.1499999999999999
sg3399
F1
sg3400
(lp3602
sg3402
F1.0900000000000001
sg3403
F1
sg2803
g3598
sg3404
F10
sg3405
F1.0800000000000001
sg3406
(lp3603
g3258
ag3266
ag3288
ag2927
asg3408
F1.1000000000000001
sg3409
F1.1499999999999999
sg3410
(lp3604
g3050
asg3412
F1.0800000000000001
sg3413
F1
sg3414
(lp3605
sg3416
S'JointChief'
p3606
sg3418
F1.2
sg2809
S'Joint Chief'
p3607
sg3420
F1
sg3421
(lp3608
sbasS'Protester001'
p3609
(lp3610
g1
(g10
g3
NtRp3611
(dp3612
g3396
F0.5
sg3397
F4
sg3398
F1.1000000000000001
sg3399
F1
sg3400
(lp3613
g3223
asg3402
F1.01
sg3403
F1
sg2803
g3609
sg3404
F8
sg3405
F1.01
sg3406
(lp3614
g3013
ag2865
ag2911
asg3408
F1.01
sg3409
F1.1000000000000001
sg3410
(lp3615
g3098
asg3412
F1.01
sg3413
F1
sg3414
(lp3616
sg3416
S'Protestor'
p3617
sg3418
F1.01
sg2809
S'Protester'
p3618
sg3420
F1
sg3421
(lp3619
sbasS'TVPersonality001'
p3620
(lp3621
g1
(g10
g3
NtRp3622
(dp3623
g3396
F1
sg3397
F4
sg3398
F1.1499999999999999
sg3399
F1
sg3400
(lp3624
sg3402
F1.0900000000000001
sg3403
F1
sg2803
g3620
sg3404
F10
sg3405
F1.0800000000000001
sg3406
(lp3625
g3223
ag2873
asg3408
F1.1000000000000001
sg3409
F1.1499999999999999
sg3410
(lp3626
g2849
ag2834
asg3412
F1.0800000000000001
sg3413
F1
sg3414
(lp3627
sg3416
S'TVPersonality'
p3628
sg3418
F1.2
sg2809
S"Hecules O'Grady"
p3629
sg3420
F1
sg3421
(lp3630
sbasS'Player'
p3631
(lp3632
g1
(g10
g3
NtRp3633
(dp3634
g3396
F1
sg3397
F5
sg3398
F1.1499999999999999
sg3399
F1
sg3400
(lp3635
sg3402
F1.0900000000000001
sg3403
F1
sg2803
g3631
sg3404
F15
sg3405
F1.0800000000000001
sg3406
(lp3636
g3309
ag2820
ag3223
asg3408
F1.1000000000000001
sg3409
F1.1499999999999999
sg3410
(lp3637
g2935
asg3412
F1.0800000000000001
sg3413
F1
sg3414
(lp3638
sg3416
S'Player'
p3639
sg3418
F1.2
sg2809
S'Phillip Mossman'
p3640
sg3420
F2
sg3421
(lp3641
sbasS'Computer'
p3642
(lp3643
g1
(g10
g3
NtRp3644
(dp3645
g3396
F1
sg3397
F4
sg3398
F1.1499999999999999
sg3399
F1
sg3400
(lp3646
sg3402
F1.0900000000000001
sg3403
F1
sg2803
g3642
sg3404
F10
sg3405
F1.0800000000000001
sg3406
(lp3647
g3309
ag3119
ag2820
ag3223
ag3266
asg3408
F1.1000000000000001
sg3409
F1.1499999999999999
sg3410
(lp3648
g3150
ag2935
ag3239
asg3412
F1.0800000000000001
sg3413
F1
sg3414
(lp3649
sg3416
S'Politician'
p3650
sg3418
F1.2
sg2809
S'N.O.T.B.A.D'
p3651
sg3420
F1
sg3421
(lp3652
sbasS'CabinetPolitician001'
p3653
(lp3654
g1
(g10
g3
NtRp3655
(dp3656
g3396
F1
sg3397
F4
sg3398
F1.1499999999999999
sg3399
F1
sg3400
(lp3657
sg3402
F1.0900000000000001
sg3403
F1
sg2803
g3653
sg3404
F10
sg3405
F1.0800000000000001
sg3406
(lp3658
g3309
ag3119
ag2820
ag3223
ag3266
asg3408
F1.1000000000000001
sg3409
F1.1499999999999999
sg3410
(lp3659
g3150
ag2935
ag3239
asg3412
F1.0800000000000001
sg3413
F1
sg3414
(lp3660
sg3416
S'Politician'
p3661
sg3418
F1.2
sg2809
S'Cabinet Politician'
p3662
sg3420
F1
sg3421
(lp3663
sbasS'Constituent001'
p3664
(lp3665
g1
(g10
g3
NtRp3666
(dp3667
g3396
F1
sg3397
F4
sg3398
F1.1499999999999999
sg3399
F1
sg3400
(lp3668
sg3402
F1.0900000000000001
sg3403
F1
sg2803
g3664
sg3404
F10
sg3405
F1.0800000000000001
sg3406
(lp3669
g3013
ag3029
ag3258
asg3408
F1.1000000000000001
sg3409
F1.1499999999999999
sg3410
(lp3670
g3239
asg3412
F1.0800000000000001
sg3413
F1
sg3414
(lp3671
sg3416
S'Constituent'
p3672
sg3418
F1.2
sg2809
S'Constituent'
p3673
sg3420
F1
sg3421
(lp3674
sbasS'Mayor'
p3675
(lp3676
g1
(g10
g3
NtRp3677
(dp3678
g3396
F1
sg3397
F4
sg3398
F1.1499999999999999
sg3399
F1
sg3400
(lp3679
sg3402
F1.0900000000000001
sg3403
F1
sg2803
g3675
sg3404
F10
sg3405
F1.0800000000000001
sg3406
(lp3680
g3309
ag3119
ag2820
ag3223
ag3266
asg3408
F1.1000000000000001
sg3409
F1.1499999999999999
sg3410
(lp3681
g3150
ag2935
ag3239
asg3412
F1.0800000000000001
sg3413
F1
sg3414
(lp3682
sg3416
S'Politician'
p3683
sg3418
F1.2
sg2809
S'Mayor Goodman'
p3684
sg3420
F1
sg3421
(lp3685
sbassS'quest_items'
p3686
(dp3687
S'PEN'
p3688
g1
(g10
g3
NtRp3689
(dp3690
g2778
S''
sg2803
g3688
sg2809
S'A pen'
p3691
sbsS'SOUTHWINGDOORKEY'
p3692
g1
(g10
g3
NtRp3693
(dp3694
g2778
S'It looks old.'
p3695
sg2803
g3692
sg2809
S'Key to the South Wing'
p3696
sbsS'INCRIMINATINGEVIDENCE'
p3697
g1
(g10
g3
NtRp3698
(dp3699
g2778
S'Very incriminating proof that something troubling is going on in the White House.'
p3700
sg2803
g3697
sg2809
S'Incriminating Evidence'
p3701
sbsS'BILLOFRIGHTS'
p3702
g1
(g10
g3
NtRp3703
(dp3704
g2778
S''
sg2803
g3702
sg2809
S"Citizens' Bill of Rights"
p3705
sbssg3406
(dp3706
S'Theo'
p3707
(lp3708
g3309
ag3119
ag2820
ag3223
ag2903
ag3150
ag2935
ag3207
ag3037
asS'JointChief'
p3709
(lp3710
g3258
ag3266
ag3288
ag3050
ag2927
asS'Politician'
p3711
(lp3712
g3309
ag3119
ag2820
ag3223
ag3150
ag2935
ag3239
ag3266
asS'Bumpkin'
p3713
(lp3714
g3223
ag2919
ag3021
ag2957
asS'Wife'
p3715
(lp3716
g3309
ag2820
ag3223
ag3296
ag3239
ag3266
ag2943
asS'Lobbyist'
p3717
(lp3718
g3029
ag3171
ag2991
ag3258
asS'DeepThroat'
p3719
(lp3720
g3119
ag3266
ag2991
ag3258
asS'Protestor'
p3721
(lp3722
g3098
ag3013
ag2865
ag2911
asS'SecretAgent'
p3723
(lp3724
g3266
ag3250
ag3288
ag3050
ag3074
asS'Teacher'
p3725
(lp3726
g3111
ag3266
ag3013
ag3098
asS'Player'
p3727
(lp3728
g3309
ag2820
ag3223
ag2935
asS'Computer'
p3729
(lp3730
g3050
ag3288
ag2881
ag2991
ag3258
ag3119
asS'Receptionist'
p3731
(lp3732
g3184
ag3127
ag3135
ag2889
asS'Hippy'
p3733
(lp3734
g2911
ag3013
ag3058
ag3082
ag3098
ag3239
asS'Constituent'
p3735
(lp3736
g3013
ag3239
ag3029
ag3258
asS'TVPersonality'
p3737
(lp3738
g3223
ag2849
ag2873
ag2834
asS'WarVet'
p3739
(lp3740
g3258
ag3266
ag3215
ag3098
asS'Religious'
p3741
(lp3742
g2857
ag3317
ag2978
ag3231
ag3266
asS'Unionist'
p3743
(lp3744
g3258
ag3266
ag3013
ag3111
asS'Journalist'
p3745
(lp3746
g2873
ag3280
ag3066
ag2775
ag2849
assS'shops'
p3747
(dp3748
sS'encounters'
p3749
(dp3750
S'P-hard-14'
p3751
g1
(g10
g3
NtRp3752
(dp3753
S'item_attack_drops'
p3754
(lp3755
sS'item_attacks'
p3756
(lp3757
sg2809
S''
sg3331
F25
sS'monster2_lvl'
p3758
S''
sS'bribe_cost'
p3759
F50
sS'monster3'
p3760
S''
sS'monster1_lvl'
p3761
F2
sS'monster3_lvl'
p3762
S''
sS'monster4_lvl'
p3763
S''
sS'monster4'
p3764
S''
sS'monster2'
p3765
S''
sg2803
g3751
sS'monster1'
p3766
S'Computer'
p3767
sbsS'P-hard-11'
p3768
g1
(g10
g3
NtRp3769
(dp3770
g3754
(lp3771
sg3756
(lp3772
sg2809
S''
sg3331
F25
sg3758
F2
sg3759
F50
sg3760
S'JointChief001'
p3773
sg3761
F2
sg3762
F2
sg3763
S''
sg3764
S''
sg3765
S'JointChief001'
p3774
sg2803
g3768
sg3766
S'JointChief001'
p3775
sbsS'P-hard-10'
p3776
g1
(g10
g3
NtRp3777
(dp3778
g3754
(lp3779
sg3756
(lp3780
sg2809
S''
sg3331
F25
sg3758
F2
sg3759
F50
sg3760
S'CabinetPolitician001'
p3781
sg3761
F2
sg3762
F2
sg3763
F2
sg3764
S'CabinetPolitician001'
p3782
sg3765
S'CabinetPolitician001'
p3783
sg2803
g3776
sg3766
S'CabinetPolitician001'
p3784
sbsS'P-hard-13'
p3785
g1
(g10
g3
NtRp3786
(dp3787
g3754
(lp3788
sg3756
(lp3789
sg2809
S''
sg3331
F25
sg3758
F2
sg3759
F50
sg3760
S'JointChief001'
p3790
sg3761
F2
sg3762
F2
sg3763
F2
sg3764
S'JointChief001'
p3791
sg3765
S'JointChief001'
p3792
sg2803
g3785
sg3766
S'JointChief001'
p3793
sbsS'P-hard-12'
p3794
g1
(g10
g3
NtRp3795
(dp3796
g3754
(lp3797
sg3756
(lp3798
sg2809
S''
sg3331
F25
sg3758
F2
sg3759
F50
sg3760
S'JointChief001'
p3799
sg3761
F2
sg3762
F2
sg3763
S''
sg3764
S''
sg3765
S'JointChief001'
p3800
sg2803
g3794
sg3766
S'JointChief001'
p3801
sbsS'P-easy-05'
p3802
g1
(g10
g3
NtRp3803
(dp3804
g3754
(lp3805
g1
(c__main__
ItemAttack
p3806
g3
NtRp3807
(dp3808
S'attack'
p3809
g3090
sS'quantity'
p3810
I1
sbasg3756
(lp3811
sg2809
S''
sg3331
F25
sg3758
S''
sg3759
F50
sg3760
S''
sg3761
F2
sg3762
S''
sg3763
S''
sg3764
S''
sg3765
S''
sg2803
g3802
sg3766
S'Journalist001'
p3812
sbsS'P-easy-04'
p3813
g1
(g10
g3
NtRp3814
(dp3815
g3754
(lp3816
g1
(g3806
g3
NtRp3817
(dp3818
g3809
g2965
sg3810
I1
sbasg3756
(lp3819
sg2809
S''
sg3331
F30
sg3758
F1
sg3759
F50
sg3760
S''
sg3761
F1
sg3762
S''
sg3763
S''
sg3764
S''
sg3765
S'Protester001'
p3820
sg2803
g3813
sg3766
S'Protester001'
p3821
sbsS'P-easy-07'
p3822
g1
(g10
g3
NtRp3823
(dp3824
g3754
(lp3825
g1
(g3806
g3
NtRp3826
(dp3827
g3809
g2965
sg3810
I1
sbasg3756
(lp3828
sg2809
S''
sg3331
F25
sg3758
S''
sg3759
F50
sg3760
S''
sg3761
F2
sg3762
S''
sg3763
S''
sg3764
S''
sg3765
S''
sg2803
g3822
sg3766
S'Constituent001'
p3829
sbsS'P-easy-06'
p3830
g1
(g10
g3
NtRp3831
(dp3832
g3754
(lp3833
g1
(g3806
g3
NtRp3834
(dp3835
g3809
g3239
sg3810
I1
sbasg3756
(lp3836
sg2809
S''
sg3331
F25
sg3758
F2
sg3759
F50
sg3760
S''
sg3761
F2
sg3762
S''
sg3763
S''
sg3764
S''
sg3765
S'Lobbyist001'
p3837
sg2803
g3830
sg3766
S'Lobbyist001'
p3838
sbsS'P-easy-01'
p3839
g1
(g10
g3
NtRp3840
(dp3841
g3754
(lp3842
g1
(g3806
g3
NtRp3843
(dp3844
g3809
g3158
sg3810
I1
sbasg3756
(lp3845
g1
(g3806
g3
NtRp3846
(dp3847
g3809
g3090
sg3810
I1
sbasg2809
S'The quest for pen'
p3848
sg3331
F10
sg3758
S''
sg3759
F50
sg3760
S''
sg3761
F1
sg3762
S''
sg3763
S''
sg3764
S''
sg3765
S''
sg2803
g3839
sg3766
S'Receptionist001'
p3849
sbsS'P-easy-03'
p3850
g1
(g10
g3
NtRp3851
(dp3852
g3754
(lp3853
g1
(g3806
g3
NtRp3854
(dp3855
g3809
g3158
sg3810
I1
sbasg3756
(lp3856
g1
(g3806
g3
NtRp3857
(dp3858
g3809
g3090
sg3810
I1
sbasg2809
S''
sg3331
F30
sg3758
F1
sg3759
F50
sg3760
S''
sg3761
F1
sg3762
S''
sg3763
S''
sg3764
S''
sg3765
S'Protester001'
p3859
sg2803
g3850
sg3766
S'Protester001'
p3860
sbsS'P-easy-02'
p3861
g1
(g10
g3
NtRp3862
(dp3863
g3754
(lp3864
sg3756
(lp3865
sg2809
S''
sg3331
F30
sg3758
F1
sg3759
F50
sg3760
S''
sg3761
F1
sg3762
S''
sg3763
S''
sg3764
S''
sg3765
S'Protester001'
p3866
sg2803
g3861
sg3766
S'Protester001'
p3867
sbsS'P-easy-09'
p3868
g1
(g10
g3
NtRp3869
(dp3870
g3754
(lp3871
g1
(g3806
g3
NtRp3872
(dp3873
g3809
g3158
sg3810
I1
sbasg3756
(lp3874
sg2809
S''
sg3331
F25
sg3758
F2
sg3759
F50
sg3760
S'Constituent001'
p3875
sg3761
F2
sg3762
F2
sg3763
S''
sg3764
S''
sg3765
S'Constituent001'
p3876
sg2803
g3868
sg3766
S'Constituent001'
p3877
sbsS'P-easy-08'
p3878
g1
(g10
g3
NtRp3879
(dp3880
g3754
(lp3881
sg3756
(lp3882
sg2809
S''
sg3331
F25
sg3758
F2
sg3759
F50
sg3760
S''
sg3761
F2
sg3762
S''
sg3763
S''
sg3764
S''
sg3765
S'Constituent001'
p3883
sg2803
g3878
sg3766
S'Constituent001'
p3884
sbsS'P-hard-08'
p3885
g1
(g10
g3
NtRp3886
(dp3887
g3754
(lp3888
sg3756
(lp3889
sg2809
S''
sg3331
F25
sg3758
F2
sg3759
F50
sg3760
S'CabinetPolitician001'
p3890
sg3761
F2
sg3762
F2
sg3763
S''
sg3764
S''
sg3765
S'CabinetPolitician001'
p3891
sg2803
g3885
sg3766
S'CabinetPolitician001'
p3892
sbsS'P-hard-09'
p3893
g1
(g10
g3
NtRp3894
(dp3895
g3754
(lp3896
sg3756
(lp3897
sg2809
S''
sg3331
F25
sg3758
F2
sg3759
F50
sg3760
S'CabinetPolitician001'
p3898
sg3761
F2
sg3762
F2
sg3763
F2
sg3764
S'CabinetPolitician001'
p3899
sg3765
S'CabinetPolitician001'
p3900
sg2803
g3893
sg3766
S'CabinetPolitician001'
p3901
sbsS'P-med-08'
p3902
g1
(g10
g3
NtRp3903
(dp3904
g3754
(lp3905
sg3756
(lp3906
sg2809
S''
sg3331
F25
sg3758
F2
sg3759
F50
sg3760
S'Politician001'
p3907
sg3761
F2
sg3762
F2
sg3763
S''
sg3764
S''
sg3765
S'Politician001'
p3908
sg2803
g3902
sg3766
S'Politician001'
p3909
sbsS'P-med-09'
p3910
g1
(g10
g3
NtRp3911
(dp3912
g3754
(lp3913
sg3756
(lp3914
sg2809
S''
sg3331
F25
sg3758
F2
sg3759
F50
sg3760
S'Politician001'
p3915
sg3761
F2
sg3762
F2
sg3763
S''
sg3764
S''
sg3765
S'ReligiousNut001'
p3916
sg2803
g3910
sg3766
S'Politician001'
p3917
sbsS'P-med-02'
p3918
g1
(g10
g3
NtRp3919
(dp3920
g3754
(lp3921
sg3756
(lp3922
sg2809
S''
sg3331
F25
sg3758
F2
sg3759
F50
sg3760
S''
sg3761
F2
sg3762
S''
sg3763
S''
sg3764
S''
sg3765
S'Politician001'
p3923
sg2803
g3918
sg3766
S'Politician001'
p3924
sbsS'P-med-03'
p3925
g1
(g10
g3
NtRp3926
(dp3927
g3754
(lp3928
sg3756
(lp3929
sg2809
S''
sg3331
F25
sg3758
F2
sg3759
F50
sg3760
S''
sg3761
F2
sg3762
S''
sg3763
S''
sg3764
S''
sg3765
S'Bumpkin001'
p3930
sg2803
g3925
sg3766
S'Bumpkin001'
p3931
sbsS'P-med-01'
p3932
g1
(g10
g3
NtRp3933
(dp3934
g3754
(lp3935
sg3756
(lp3936
sg2809
S''
sg3331
F25
sg3758
F2
sg3759
F50
sg3760
S''
sg3761
F2
sg3762
S''
sg3763
S''
sg3764
S''
sg3765
S'Politician001'
p3937
sg2803
g3932
sg3766
S'Politician001'
p3938
sbsS'P-med-06'
p3939
g1
(g10
g3
NtRp3940
(dp3941
g3754
(lp3942
sg3756
(lp3943
sg2809
S''
sg3331
F25
sg3758
F2
sg3759
F50
sg3760
S'Politician001'
p3944
sg3761
F2
sg3762
F2
sg3763
S''
sg3764
S''
sg3765
S'Governor'
p3945
sg2803
g3939
sg3766
S'Politician001'
p3946
sbsS'P-med-07'
p3947
g1
(g10
g3
NtRp3948
(dp3949
g3754
(lp3950
sg3756
(lp3951
sg2809
S''
sg3331
F25
sg3758
F2
sg3759
F50
sg3760
S''
sg3761
F2
sg3762
S''
sg3763
S''
sg3764
S''
sg3765
S'Journalist001'
p3952
sg2803
g3947
sg3766
S'Politician001'
p3953
sbsS'P-med-04'
p3954
g1
(g10
g3
NtRp3955
(dp3956
g3754
(lp3957
sg3756
(lp3958
sg2809
S''
sg3331
F25
sg3758
F2
sg3759
F50
sg3760
S'Bumpkin001'
p3959
sg3761
F2
sg3762
F2
sg3763
S''
sg3764
S''
sg3765
S'Bumpkin001'
p3960
sg2803
g3954
sg3766
S'Bumpkin001'
p3961
sbsS'P-med-05'
p3962
g1
(g10
g3
NtRp3963
(dp3964
g3754
(lp3965
sg3756
(lp3966
sg2809
S''
sg3331
F25
sg3758
F2
sg3759
F50
sg3760
S'Politician001'
p3967
sg3761
F2
sg3762
F2
sg3763
S''
sg3764
S''
sg3765
S'Journalist001'
p3968
sg2803
g3962
sg3766
S'Journalist001'
p3969
sbsS'P-med-24'
p3970
g1
(g10
g3
NtRp3971
(dp3972
g3754
(lp3973
sg3756
(lp3974
sg2809
S''
sg3331
F25
sg3758
F2
sg3759
F50
sg3760
S'Politician001'
p3975
sg3761
F2
sg3762
F2
sg3763
S''
sg3764
S''
sg3765
S'PresidentAlien'
p3976
sg2803
g3970
sg3766
S'Politician001'
p3977
sbsS'P-med-20'
p3978
g1
(g10
g3
NtRp3979
(dp3980
g3754
(lp3981
sg3756
(lp3982
sg2809
S''
sg3331
F25
sg3758
F2
sg3759
F50
sg3760
S'Journalist001'
p3983
sg3761
F2
sg3762
F2
sg3763
S''
sg3764
S''
sg3765
S'TVPersonality001'
p3984
sg2803
g3978
sg3766
S'Journalist001'
p3985
sbsS'P-med-21'
p3986
g1
(g10
g3
NtRp3987
(dp3988
g3754
(lp3989
sg3756
(lp3990
sg2809
S''
sg3331
F25
sg3758
F2
sg3759
F50
sg3760
S'Politician001'
p3991
sg3761
F2
sg3762
F2
sg3763
S''
sg3764
S''
sg3765
S'President'
p3992
sg2803
g3986
sg3766
S'Politician001'
p3993
sbsS'P-med-22'
p3994
g1
(g10
g3
NtRp3995
(dp3996
g3754
(lp3997
sg3756
(lp3998
sg2809
S''
sg3331
F25
sg3758
F2
sg3759
F50
sg3760
S''
sg3761
F2
sg3762
S''
sg3763
S''
sg3764
S''
sg3765
S'DeepThroat'
p3999
sg2803
g3994
sg3766
S'DeepThroat'
p4000
sbsS'P-med-23'
p4001
g1
(g10
g3
NtRp4002
(dp4003
g3754
(lp4004
sg3756
(lp4005
sg2809
S''
sg3331
F25
sg3758
F2
sg3759
F50
sg3760
S'Politician001'
p4006
sg3761
F2
sg3762
F2
sg3763
F2
sg3764
S'Politician001'
p4007
sg3765
S'President'
p4008
sg2803
g4001
sg3766
S'Politician001'
p4009
sbsS'P-hard-06'
p4010
g1
(g10
g3
NtRp4011
(dp4012
g3754
(lp4013
sg3756
(lp4014
sg2809
S''
sg3331
F25
sg3758
F2
sg3759
F50
sg3760
S'Teacher001'
p4015
sg3761
F2
sg3762
F2
sg3763
S''
sg3764
S''
sg3765
S'Teacher001'
p4016
sg2803
g4010
sg3766
S'Teacher001'
p4017
sbsS'P-hard-07'
p4018
g1
(g10
g3
NtRp4019
(dp4020
g3754
(lp4021
sg3756
(lp4022
sg2809
S''
sg3331
F25
sg3758
F2
sg3759
F50
sg3760
S'Teacher001'
p4023
sg3761
F2
sg3762
F2
sg3763
F2
sg3764
S'Teacher001'
p4024
sg3765
S'Teacher001'
p4025
sg2803
g4018
sg3766
S'Teacher001'
p4026
sbsS'P-hard-04'
p4027
g1
(g10
g3
NtRp4028
(dp4029
g3754
(lp4030
sg3756
(lp4031
sg2809
S''
sg3331
F25
sg3758
F2
sg3759
F50
sg3760
S'WarVet001'
p4032
sg3761
F2
sg3762
F2
sg3763
S''
sg3764
S''
sg3765
S'WarVet001'
p4033
sg2803
g4027
sg3766
S'WarVet001'
p4034
sbsS'P-hard-05'
p4035
g1
(g10
g3
NtRp4036
(dp4037
g3754
(lp4038
sg3756
(lp4039
sg2809
S''
sg3331
F25
sg3758
F2
sg3759
F50
sg3760
S'WarVet001'
p4040
sg3761
F2
sg3762
F2
sg3763
F2
sg3764
S'WarVet001'
p4041
sg3765
S'WarVet001'
p4042
sg2803
g4035
sg3766
S'WarVet001'
p4043
sbsS'P-hard-02'
p4044
g1
(g10
g3
NtRp4045
(dp4046
g3754
(lp4047
sg3756
(lp4048
sg2809
S''
sg3331
F25
sg3758
F2
sg3759
F50
sg3760
S'Journalist001'
p4049
sg3761
F2
sg3762
F2
sg3763
S''
sg3764
S''
sg3765
S'TVPersonality001'
p4050
sg2803
g4044
sg3766
S'Journalist001'
p4051
sbsS'P-hard-03'
p4052
g1
(g10
g3
NtRp4053
(dp4054
g3754
(lp4055
sg3756
(lp4056
sg2809
S''
sg3331
F25
sg3758
F2
sg3759
F50
sg3760
S'Journalist001'
p4057
sg3761
F2
sg3762
F2
sg3763
S''
sg3764
S''
sg3765
S'Journalist001'
p4058
sg2803
g4052
sg3766
S'TVPersonality001'
p4059
sbsS'P-hard-01'
p4060
g1
(g10
g3
NtRp4061
(dp4062
g3754
(lp4063
sg3756
(lp4064
sg2809
S''
sg3331
F25
sg3758
F2
sg3759
F50
sg3760
S'Journalist001'
p4065
sg3761
F2
sg3762
F2
sg3763
S''
sg3764
S''
sg3765
S'Journalist001'
p4066
sg2803
g4060
sg3766
S'Journalist001'
p4067
sbsS'P-easy-10'
p4068
g1
(g10
g3
NtRp4069
(dp4070
g3754
(lp4071
sg3756
(lp4072
sg2809
S''
sg3331
F25
sg3758
F2
sg3759
F50
sg3760
S'Politician001'
p4073
sg3761
F2
sg3762
F2
sg3763
S''
sg3764
S''
sg3765
S'Mayor'
p4074
sg2803
g4068
sg3766
S'Politician001'
p4075
sbsS'P-med-19'
p4076
g1
(g10
g3
NtRp4077
(dp4078
g3754
(lp4079
sg3756
(lp4080
sg2809
S''
sg3331
F25
sg3758
F2
sg3759
F50
sg3760
S''
sg3761
F2
sg3762
S''
sg3763
S''
sg3764
S''
sg3765
S'DeepThroat'
p4081
sg2803
g4076
sg3766
S'DeepThroat'
p4082
sbsS'P-med-18'
p4083
g1
(g10
g3
NtRp4084
(dp4085
g3754
(lp4086
sg3756
(lp4087
sg2809
S''
sg3331
F25
sg3758
F2
sg3759
F50
sg3760
S'ReligiousNut001'
p4088
sg3761
F2
sg3762
F2
sg3763
F2
sg3764
S'ReligiousNut001'
p4089
sg3765
S'ReligiousNut001'
p4090
sg2803
g4083
sg3766
S'ReligiousNut001'
p4091
sbsS'P-med-15'
p4092
g1
(g10
g3
NtRp4093
(dp4094
g3754
(lp4095
sg3756
(lp4096
sg2809
S''
sg3331
F25
sg3758
F2
sg3759
F50
sg3760
S''
sg3761
F2
sg3762
S''
sg3763
S''
sg3764
S''
sg3765
S'ReligiousNut001'
p4097
sg2803
g4092
sg3766
S'ReligiousNut001'
p4098
sbsS'P-med-14'
p4099
g1
(g10
g3
NtRp4100
(dp4101
g3754
(lp4102
sg3756
(lp4103
sg2809
S''
sg3331
F25
sg3758
F2
sg3759
F50
sg3760
S'Lobbyist001'
p4104
sg3761
F2
sg3762
F2
sg3763
F2
sg3764
S'Lobbyist001'
p4105
sg3765
S'Lobbyist001'
p4106
sg2803
g4099
sg3766
S'Lobbyist001'
p4107
sbsS'P-med-17'
p4108
g1
(g10
g3
NtRp4109
(dp4110
g3754
(lp4111
sg3756
(lp4112
sg2809
S''
sg3331
F25
sg3758
F2
sg3759
F50
sg3760
S'ReligiousNut001'
p4113
sg3761
F2
sg3762
F2
sg3763
S''
sg3764
S''
sg3765
S'ReligiousNut001'
p4114
sg2803
g4108
sg3766
S'ReligiousNut001'
p4115
sbsS'P-med-16'
p4116
g1
(g10
g3
NtRp4117
(dp4118
g3754
(lp4119
sg3756
(lp4120
sg2809
S''
sg3331
F25
sg3758
F2
sg3759
F50
sg3760
S'ReligiousNut001'
p4121
sg3761
F2
sg3762
F2
sg3763
S''
sg3764
S''
sg3765
S'ReligiousNut001'
p4122
sg2803
g4116
sg3766
S'ReligiousNut001'
p4123
sbsS'P-med-11'
p4124
g1
(g10
g3
NtRp4125
(dp4126
g3754
(lp4127
sg3756
(lp4128
sg2809
S''
sg3331
F25
sg3758
F2
sg3759
F50
sg3760
S'Politician001'
p4129
sg3761
F2
sg3762
F2
sg3763
F2
sg3764
S'Politician001'
p4130
sg3765
S'Politician001'
p4131
sg2803
g4124
sg3766
S'Politician001'
p4132
sbsS'P-med-10'
p4133
g1
(g10
g3
NtRp4134
(dp4135
g3754
(lp4136
sg3756
(lp4137
sg2809
S''
sg3331
F25
sg3758
F2
sg3759
F50
sg3760
S'ReligiousNut001'
p4138
sg3761
F2
sg3762
F2
sg3763
S''
sg3764
S''
sg3765
S'Politician001'
p4139
sg2803
g4133
sg3766
S'Politician001'
p4140
sbsS'P-med-13'
p4141
g1
(g10
g3
NtRp4142
(dp4143
g3754
(lp4144
sg3756
(lp4145
sg2809
S''
sg3331
F25
sg3758
F2
sg3759
F50
sg3760
S'Lobbyist001'
p4146
sg3761
F2
sg3762
F2
sg3763
S''
sg3764
S''
sg3765
S'Lobbyist001'
p4147
sg2803
g4141
sg3766
S'Lobbyist001'
p4148
sbsS'P-med-12'
p4149
g1
(g10
g3
NtRp4150
(dp4151
g3754
(lp4152
sg3756
(lp4153
sg2809
S''
sg3331
F25
sg3758
F2
sg3759
F50
sg3760
S'Lobbyist001'
p4154
sg3761
F2
sg3762
F2
sg3763
S''
sg3764
S''
sg3765
S'Lobbyist001'
p4155
sg2803
g4149
sg3766
S'Lobbyist001'
p4156
sbssb.