ccopy_reg
_reconstructor
p1
(c__main__
GameData
p2
c__builtin__
object
p3
NtRp4
(dp5
S'attacks'
p6
(lp7
g1
(c__main__
TableRow
p8
g3
NtRp9
(dp10
S'base_damage_max'
p11
F5
sS'stat'
p12
S'Cunning'
p13
sS'name'
p14
S'Message'
p15
sS'crit_chance_max'
p16
F10
sS'crit_chance_min'
p17
F2
sS'base_damage_min'
p18
F2
sS'effects'
p19
S'None'
p20
sS'crit_base_damage'
p21
F8
sbag1
(g8
g3
NtRp22
(dp23
g11
F3
sg12
S'Cunning'
p24
sg14
S'Slander Opposition'
p25
sg16
F10
sg17
F2
sg18
F1
sg19
S'Drain Votes'
p26
sg21
F5
sbag1
(g8
g3
NtRp27
(dp28
g11
F8
sg12
S'Cunning'
p29
sg14
S'Lie'
p30
sg16
F10
sg17
F2
sg18
F0
sg19
S'Critical Fail'
p31
sg21
F15
sbag1
(g8
g3
NtRp32
(dp33
g11
F3
sg12
S'Wit'
p34
sg14
S'Joke'
p35
sg16
F10
sg17
F2
sg18
F1
sg19
S'Reduce Cunning'
p36
sg21
F6
sbasS'encounters'
p37
(dp38
S'P-easy-01'
p39
g1
(g8
g3
NtRp40
(dp41
S'monster2_lvl'
p42
F1
sS'id'
p43
g39
sS'monster1_lvl'
p44
F1
sS'monster3_lvl'
p45
F1
sS'monster4_lvl'
p46
F100
sS'monster4'
p47
S''
sS'monster2'
p48
S'Politician001'
p49
sS'monster3'
p50
S'Politician001'
p51
sS'monster1'
p52
S'Politician001'
p53
sbssS'characters'
p54
(dp55
S'Player'
p56
(lp57
g1
(g8
g3
NtRp58
(dp59
S'flair_base'
p60
F1
sS'charisma_lvl'
p61
F1.1499999999999999
sS'spin_lvl'
p62
F1.0800000000000001
sS'cunning_base'
p63
F2
sS'votes_lvl'
p64
F1.2
sS'charisma_base'
p65
F2
sS'wit_base'
p66
F2
sS'speed_base'
p67
F2
sS'votes_base'
p68
F10
sS'spin_base'
p69
F5
sS'wit_lvl'
p70
F1.0900000000000001
sS'speed_lvl'
p71
F1.0800000000000001
sS'cunning_lvl'
p72
F1.1000000000000001
sS'flair_lvl'
p73
F1.1499999999999999
sg43
g56
sbasS'Politician001'
p74
(lp75
g1
(g8
g3
NtRp76
(dp77
g60
F1
sg61
F1.1499999999999999
sg62
F1.0800000000000001
sg63
F1
sg64
F1.2
sg65
F1
sg66
F1
sg67
F1
sg68
F20
sg69
F4
sg70
F1.0900000000000001
sg71
F1.0800000000000001
sg72
F1.1000000000000001
sg73
F1.1499999999999999
sg43
g74
sbassb.