ccopy_reg
_reconstructor
p1
(c__main__
GameData
p2
c__builtin__
object
p3
NtRp4
(dp5
S'script'
p6
(dp7
S'#----------------------------------------------------------------------------------------ACT 3 ----------------------------------------------------------------------------------------------------------------------------------------------------------------------------------------'
p8
(lp9
g1
(c__main__
TableRow
p10
g3
NtRp11
(dp12
S'action'
p13
S''
sS'trigger'
p14
g8
sS'param'
p15
S''
sS'dialog'
p16
S''
sbasS'Hick1'
p17
(lp18
g1
(g10
g3
NtRp19
(dp20
g13
S'RequireFlag'
p21
sg14
g17
sg15
S'STARTHICKS'
p22
sg16
S"Look at this guy's fancy tie!"
p23
sbag1
(g10
g3
NtRp24
(dp25
g13
S'PlayerSay'
p26
sg14
S'Hick1'
p27
sg15
S''
sg16
S'What brings you to the office of the governor?'
p28
sbag1
(g10
g3
NtRp29
(dp30
g13
S'Say'
p31
sg14
S'Hick1'
p32
sg15
S''
sg16
S'The immigrants!'
p33
sbag1
(g10
g3
NtRp34
(dp35
g13
S'PlayerSay'
p36
sg14
S'Hick1'
p37
sg15
S''
sg16
S'What happened?'
p38
sbag1
(g10
g3
NtRp39
(dp40
g13
S'Say'
p41
sg14
S'Hick1'
p42
sg15
S'Hick2'
p43
sg16
S"They're coming!"
p44
sbag1
(g10
g3
NtRp45
(dp46
g13
S'PlayerSay'
p47
sg14
S'Hick1'
p48
sg15
S''
sg16
S'The...immigrants are coming?'
p49
sbag1
(g10
g3
NtRp50
(dp51
g13
S'Say'
p52
sg14
S'Hick1'
p53
sg15
S'Hick2'
p54
sg16
S'Yes, to steal our jobs and our wives!'
p55
sbag1
(g10
g3
NtRp56
(dp57
g13
S'Say'
p58
sg14
S'Hick1'
p59
sg15
S''
sg16
S'They have to be stopped!'
p60
sbag1
(g10
g3
NtRp61
(dp62
g13
S'PlayerSay'
p63
sg14
S'Hick1'
p64
sg15
S''
sg16
S"I don't think the immigrants are coming to steal your wives..."
p65
sbag1
(g10
g3
NtRp66
(dp67
g13
S'Say'
p68
sg14
S'Hick1'
p69
sg15
S'Journalist2'
p70
sg16
S'Mayor Mossman sides with the immigrants! I need to get this to print!'
p71
sbag1
(g10
g3
NtRp72
(dp73
g13
S'PlayerSay'
p74
sg14
S'Hick1'
p75
sg15
S''
sg16
S'Wait a second, let me explain.'
p76
sbag1
(g10
g3
NtRp77
(dp78
g13
S'Encounter'
p79
sg14
S'Hick1'
p80
sg15
S'P-med-03'
p81
sg16
S''
sbag1
(g10
g3
NtRp82
(dp83
g13
S'Say'
p84
sg14
S'Hick1'
p85
sg15
S''
sg16
S"You're a smart guy. I think I can trust you."
p86
sbag1
(g10
g3
NtRp87
(dp88
g13
S'SetFlag'
p89
sg14
S'Hick1'
p90
sg15
S'STARTHICKS2'
p91
sg16
S''
sbag1
(g10
g3
NtRp92
(dp93
g13
S'Increment'
p94
sg14
S'Hick1'
p95
sg15
S'DEALWITHHICKS'
p96
sg16
S''
sbag1
(g10
g3
NtRp97
(dp98
g13
S'Destroy'
p99
sg14
S'Hick1'
p100
sg15
S''
sg16
S''
sbasS'Hick2'
p101
(lp102
g1
(g10
g3
NtRp103
(dp104
g13
S'RequireFlag'
p105
sg14
g101
sg15
S'STARTHICKS2'
p106
sg16
S"Aw....I'm shy...talk to my buddy..."
p107
sbag1
(g10
g3
NtRp108
(dp109
g13
S'Encounter'
p110
sg14
S'Hick2'
p111
sg15
S'P-med-04'
p112
sg16
S''
sbag1
(g10
g3
NtRp113
(dp114
g13
S'Say'
p115
sg14
S'Hick2'
p116
sg15
S''
sg16
S"Wowee. We've been waiting for days and the governor has ignored us. If you ever run for governor, you'll have my vote!"
p117
sbag1
(g10
g3
NtRp118
(dp119
g13
S'Increment'
p120
sg14
S'Hick2'
p121
sg15
S'DEALWITHHICKS'
p122
sg16
S''
sbag1
(g10
g3
NtRp123
(dp124
g13
S'Destroy'
p125
sg14
S'Hick2'
p126
sg15
S''
sg16
S''
sbasS'Cabinet1'
p127
(lp128
g1
(g10
g3
NtRp129
(dp130
g13
S'Say'
p131
sg14
g127
sg15
S''
sg16
S'Good afternoon, Mr President. How can I help?'
p132
sbag1
(g10
g3
NtRp133
(dp134
g13
S'PlayerSay'
p135
sg14
S'Cabinet1'
p136
sg15
S''
sg16
S'I want to know where the orders to mobilise the military and reallocate education funds came from.'
p137
sbag1
(g10
g3
NtRp138
(dp139
g13
S'Say'
p140
sg14
S'Cabinet1'
p141
sg15
S''
sg16
S'But...it came from you, sir. They were both faxed over to me this afternoon.'
p142
sbag1
(g10
g3
NtRp143
(dp144
g13
S'PlayerSay'
p145
sg14
S'Cabinet1'
p146
sg15
S''
sg16
S'Tell me every detail.'
p147
sbag1
(g10
g3
NtRp148
(dp149
g13
S'Encounter'
p150
sg14
S'Cabinet1'
p151
sg15
S'P-hard-08'
p152
sg16
S''
sbag1
(g10
g3
NtRp153
(dp154
g13
S'Increment'
p155
sg14
S'Cabinet1'
p156
sg15
S'CABINETMEMBERS'
p157
sg16
S''
sbag1
(g10
g3
NtRp158
(dp159
g13
S'Say'
p160
sg14
S'Cabinet1'
p161
sg15
S''
sg16
S'I cannot understand how this could happen.'
p162
sbag1
(g10
g3
NtRp163
(dp164
g13
S'Destroy'
p165
sg14
S'Cabinet1'
p166
sg15
S''
sg16
S''
sbasS'Politician7'
p167
(lp168
g1
(g10
g3
NtRp169
(dp170
g13
S'RequireFlag'
p171
sg14
g167
sg15
S'STARTPOLITICIANSHAKEDOWN'
p172
sg16
S'Good morning, Governor Mossman. Your PA will know your schedule. He is waiting in your room.'
p173
sbag1
(g10
g3
NtRp174
(dp175
g13
S'Say'
p176
sg14
S'Politician7'
p177
sg15
S''
sg16
S"I believe in captialism. Let business sort itself out. They shouldn't need to rely on government handouts."
p178
sbag1
(g10
g3
NtRp179
(dp180
g13
S'Say'
p181
sg14
S'Politician7'
p182
sg15
S''
sg16
S'Also, I think politicians need a raise. Some more than others...oh and life-long retainers.'
p183
sbag1
(g10
g3
NtRp184
(dp185
g13
S'PlayerSay'
p186
sg14
S'Politician7'
p187
sg15
S''
sg16
S'So, no more hand-outs for business but more handouts for politicians?'
p188
sbag1
(g10
g3
NtRp189
(dp190
g13
S'Say'
p191
sg14
S'Politician7'
p192
sg15
S''
sg16
S'Yes!'
p193
sbag1
(g10
g3
NtRp194
(dp195
g13
S'PlayerSay'
p196
sg14
S'Politician7'
p197
sg15
S''
sg16
S'Does that serve your constituents?'
p198
sbag1
(g10
g3
NtRp199
(dp200
g13
S'Say'
p201
sg14
S'Politician7'
p202
sg15
S''
sg16
S'...It serves...some...'
p203
sbag1
(g10
g3
NtRp204
(dp205
g13
S'Encounter'
p206
sg14
S'Politician7'
p207
sg15
S'P-med-11'
p208
sg16
S''
sbag1
(g10
g3
NtRp209
(dp210
g13
S'Say'
p211
sg14
S'Politician7'
p212
sg15
S''
sg16
S'Right, I guess we need to handle the needs of our constituents, too.'
p213
sbag1
(g10
g3
NtRp214
(dp215
g13
S'Increment'
p216
sg14
S'Politician7'
p217
sg15
S'POLITICIANSHAKEDOWN'
p218
sg16
S''
sbag1
(g10
g3
NtRp219
(dp220
g13
S'Destroy'
p221
sg14
S'Politician7'
p222
sg15
S''
sg16
S''
sbasS'TVDebate'
p223
(lp224
g1
(g10
g3
NtRp225
(dp226
g13
S'RequireFlag'
p227
sg14
g223
sg15
S'STARTDEBATE'
p228
sg16
S"Hmmm? Oh, sorry, I'm on the phone to the studio."
p229
sbag1
(g10
g3
NtRp230
(dp231
g13
S'Say'
p232
sg14
S'TVDebate'
p233
sg15
S''
sg16
S"Good evening, Governor Mossman. If you'll follow me, I'll take you to the studio."
p234
sbag1
(g10
g3
NtRp235
(dp236
g13
S'Encounter'
p237
sg14
S'TVDebate'
p238
sg15
S'P-med-21'
p239
sg16
S''
sbag1
(g10
g3
NtRp240
(dp241
g13
S'Say'
p242
sg14
S'TVDebate'
p243
sg15
S''
sg16
S'Great work tonight, Governor Mossman and congratulations on the win!'
p244
sbag1
(g10
g3
NtRp245
(dp246
g13
S'SetFlag'
p247
sg14
S'TVDebate'
p248
sg15
S'DEBATECOMPLETE'
p249
sg16
S''
sbag1
(g10
g3
NtRp250
(dp251
g13
S'Destroy'
p252
sg14
S'TVDebate'
p253
sg15
S''
sg16
S''
sbasS'Lobbyist2'
p254
(lp255
g1
(g10
g3
NtRp256
(dp257
g13
S'RequireFlag'
p258
sg14
g254
sg15
S'STARTLOBBYISTS'
p259
sg16
S'Humph'
p260
sbag1
(g10
g3
NtRp261
(dp262
g13
S'Say'
p263
sg14
S'Lobbyist2'
p264
sg15
S''
sg16
S'I represent the Python Software Foundation. What will you do to promote, protect and advance the Python programming language?'
p265
sbag1
(g10
g3
NtRp266
(dp267
g13
S'PlayerSay'
p268
sg14
S'Lobbyist2'
p269
sg15
S''
sg16
S"Ah yes, the Python cause! I'm a big advocate of Python."
p270
sbag1
(g10
g3
NtRp271
(dp272
g13
S'Encounter'
p273
sg14
S'Lobbyist2'
p274
sg15
S'P-med-12'
p275
sg16
S''
sbag1
(g10
g3
NtRp276
(dp277
g13
S'Increment'
p278
sg14
S'Lobbyist2'
p279
sg15
S'LOBBYISTS'
p280
sg16
S''
sbag1
(g10
g3
NtRp281
(dp282
g13
S'Say'
p283
sg14
S'Lobbyist2'
p284
sg15
S''
sg16
S'I think we can help each other out.'
p285
sbag1
(g10
g3
NtRp286
(dp287
g13
S'Destroy'
p288
sg14
S'Lobbyist2'
p289
sg15
S''
sg16
S''
sbasS'CheatAct2'
p290
(lp291
g1
(g10
g3
NtRp292
(dp293
g13
S'AddAlly'
p294
sg14
g290
sg15
S'Wife:1'
p295
sg16
S''
sbag1
(g10
g3
NtRp296
(dp297
g13
S'LearnAttack'
p298
sg14
S'CheatAct2'
p299
sg15
S'BRIBE'
p300
sg16
S''
sbag1
(g10
g3
NtRp301
(dp302
g13
S'LearnAttack'
p303
sg14
S'CheatAct2'
p304
sg15
S'Wife:BRIBE'
p305
sg16
S''
sbag1
(g10
g3
NtRp306
(dp307
g13
S'LearnAttack'
p308
sg14
S'CheatAct2'
p309
sg15
S'SLANDER'
p310
sg16
S''
sbag1
(g10
g3
NtRp311
(dp312
g13
S'GotoMap'
p313
sg14
S'CheatAct2'
p314
sg15
S'act2'
p315
sg16
S''
sbasS'CheatAct3'
p316
(lp317
g1
(g10
g3
NtRp318
(dp319
g13
S'AddAlly'
p320
sg14
g316
sg15
S'Wife:1'
p321
sg16
S''
sbag1
(g10
g3
NtRp322
(dp323
g13
S'LearnAttack'
p324
sg14
S'CheatAct3'
p325
sg15
S'BRIBE'
p326
sg16
S''
sbag1
(g10
g3
NtRp327
(dp328
g13
S'LearnAttack'
p329
sg14
S'CheatAct3'
p330
sg15
S'Wife:BRIBE'
p331
sg16
S''
sbag1
(g10
g3
NtRp332
(dp333
g13
S'LearnAttack'
p334
sg14
S'CheatAct3'
p335
sg15
S'SLANDER'
p336
sg16
S''
sbag1
(g10
g3
NtRp337
(dp338
g13
S'AddAlly'
p339
sg14
S'CheatAct3'
p340
sg15
S'Leo:1'
p341
sg16
S''
sbag1
(g10
g3
NtRp342
(dp343
g13
S'GotoMap'
p344
sg14
S'CheatAct3'
p345
sg15
S'act3'
p346
sg16
S''
sbasS'StairsToL1'
p347
(lp348
g1
(g10
g3
NtRp349
(dp350
g13
S'Label'
p351
sg14
g347
sg15
S'START'
p352
sg16
S''
sbag1
(g10
g3
NtRp353
(dp354
g13
S'GotoMap'
p355
sg14
S'StairsToL1'
p356
sg15
S'hotel_l1'
p357
sg16
S''
sbag1
(g10
g3
NtRp358
(dp359
g13
S'Reset'
p360
sg14
S'StairsToL1'
p361
sg15
S'START'
p362
sg16
S''
sbasS'WarVet1'
p363
(lp364
g1
(g10
g3
NtRp365
(dp366
g13
S'Say'
p367
sg14
g363
sg15
S''
sg16
S"You think you can fool me? I wasn't born yesterday, you know."
p368
sbag1
(g10
g3
NtRp369
(dp370
g13
S'PlayerSay'
p371
sg14
S'WarVet1'
p372
sg15
S''
sg16
S"I'm sorry, sir, but what seems to be the problem."
p373
sbag1
(g10
g3
NtRp374
(dp375
g13
S'Say'
p376
sg14
S'WarVet1'
p377
sg15
S''
sg16
S"You think I don't know a mobilising army when I see one? You're clearly readying for war and you think you don't even need to mention it to the people."
p378
sbag1
(g10
g3
NtRp379
(dp380
g13
S'Say'
p381
sg14
S'WarVet1'
p382
sg15
S'WarVet2'
p383
sg16
S"And don't forget that he's barely a cadet, Wilfred."
p384
sbag1
(g10
g3
NtRp385
(dp386
g13
S'Say'
p387
sg14
S'WarVet1'
p388
sg15
S''
sg16
S"Right you are, Arnold, You've barely set foot in this building and you're already leading us to war. Who do you think you're dealing with? We won't stand."
p389
sbag1
(g10
g3
NtRp390
(dp391
g13
S'Encounter'
p392
sg14
S'WarVet1'
p393
sg15
S'P-hard-04'
p394
sg16
S''
sbag1
(g10
g3
NtRp395
(dp396
g13
S'Say'
p397
sg14
S'WarVet1'
p398
sg15
S''
sg16
S"Seems like a flimsy excuse, you didn't know. Better get your troops in line if you want 'em to march, boy."
p399
sbag1
(g10
g3
NtRp400
(dp401
g13
S'Increment'
p402
sg14
S'WarVet1'
p403
sg15
S'WARVETS'
p404
sg16
S''
sbag1
(g10
g3
NtRp405
(dp406
g13
S'SetFlag'
p407
sg14
S'WarVet1'
p408
sg15
S'AFTERWILFRED'
p409
sg16
S''
sbag1
(g10
g3
NtRp410
(dp411
g13
S'Destroy'
p412
sg14
S'WarVet1'
p413
sg15
S''
sg16
S''
sbasS'Teacher2'
p414
(lp415
g1
(g10
g3
NtRp416
(dp417
g13
S'Say'
p418
sg14
g414
sg15
S''
sg16
S"You cannot gamble with the future, Mr President. Childrens' education is at stake!"
p419
sbag1
(g10
g3
NtRp420
(dp421
g13
S'PlayerSay'
p422
sg14
S'Teacher2'
p423
sg15
S''
sg16
S"I can assure you this isn't so..."
p424
sbag1
(g10
g3
NtRp425
(dp426
g13
S'Encounter'
p427
sg14
S'Teacher2'
p428
sg15
S'P-hard-07'
p429
sg16
S''
sbag1
(g10
g3
NtRp430
(dp431
g13
S'Say'
p432
sg14
S'Teacher2'
p433
sg15
S''
sg16
S'We will await a change from you government.'
p434
sbag1
(g10
g3
NtRp435
(dp436
g13
S'Increment'
p437
sg14
S'Teacher2'
p438
sg15
S'TEACHERS'
p439
sg16
S''
sbag1
(g10
g3
NtRp440
(dp441
g13
S'Destroy'
p442
sg14
S'Teacher2'
p443
sg15
S''
sg16
S''
sbasS'Kawalski'
p444
(lp445
g1
(g10
g3
NtRp446
(dp447
g13
S'Say'
p448
sg14
g444
sg15
S''
sg16
S'A pleasure to meet you, President Mossman. I am Agent Kawalski, your security detail.'
p449
sbag1
(g10
g3
NtRp450
(dp451
g13
S'PlayerSay'
p452
sg14
S'Kawalski'
p453
sg15
S''
sg16
S'Great to meet you, Agent Kawalski. What do I need to know?'
p454
sbag1
(g10
g3
NtRp455
(dp456
g13
S'Say'
p457
sg14
S'Kawalski'
p458
sg15
S''
sg16
S'Well actually, it does have to do with your security. Something terrible is happening at the White House.'
p459
sbag1
(g10
g3
NtRp460
(dp461
g13
S'PlayerSay'
p462
sg14
S'Kawalski'
p463
sg15
S''
sg16
S"If you're trying to warn me about the aliens, it's under control."
p464
sbag1
(g10
g3
NtRp465
(dp466
g13
S'Say'
p467
sg14
S'Kawalski'
p468
sg15
S''
sg16
S'No, no, this is different. I think somebody is trying to take over the White House.'
p469
sbag1
(g10
g3
NtRp470
(dp471
g13
S'PlayerSay'
p472
sg14
S'Kawalski'
p473
sg15
S''
sg16
S"Wouldn't we know?"
p474
sbag1
(g10
g3
NtRp475
(dp476
g13
S'Say'
p477
sg14
S'Kawalski'
p478
sg15
S''
sg16
S"It's too early for those kind of details. I just want you to keep your eyes open, Mr President."
p479
sbag1
(g10
g3
NtRp480
(dp481
g13
S'PlayerSay'
p482
sg14
S'Kawalski'
p483
sg15
S''
sg16
S'No problem.'
p484
sbag1
(g10
g3
NtRp485
(dp486
g13
S'Destroy'
p487
sg14
S'Kawalski'
p488
sg15
S''
sg16
S''
sbag1
(g10
g3
NtRp489
(dp490
g13
S'AddAlly'
p491
sg14
S'Kawalski'
p492
sg15
S'SecretAgent:1'
p493
sg16
S'Kawalski joins your political party!'
p494
sbag1
(g10
g3
NtRp495
(dp496
g13
S'SetFlag'
p497
sg14
S'Kawalski'
p498
sg15
S'KAWALSKIJOIN'
p499
sg16
S''
sbasS'Theo'
p500
(lp501
g1
(g10
g3
NtRp502
(dp503
g13
S'RequireFlag'
p504
sg14
g500
sg15
S'GOVERNORDEFEATED'
p505
sg16
S'The Governor is in the north wing.'
p506
sbag1
(g10
g3
NtRp507
(dp508
g13
S'Say'
p509
sg14
S'Theo'
p510
sg15
S''
sg16
S"You must be Governor Mossman. I am Theo. I've been looking for you, but I wanted to see how you handled Governor Badden"
p511
sbag1
(g10
g3
NtRp512
(dp513
g13
S'PlayerSay'
p514
sg14
S'Theo'
p515
sg15
S''
sg16
S'Hi Theo. Why have you been looking for me?'
p516
sbag1
(g10
g3
NtRp517
(dp518
g13
S'Say'
p519
sg14
S'Theo'
p520
sg15
S''
sg16
S"There's a lot going on in Ignited States politics and none of it is good. Somebody needs to get up there and find out what's going on."
p521
sbag1
(g10
g3
NtRp522
(dp523
g13
S'Say'
p524
sg14
S'Theo'
p525
sg15
S''
sg16
S"I couldn't be sure which side you were on, but your dealings with the Governor prove that you're not with them."
p526
sbag1
(g10
g3
NtRp527
(dp528
g13
S'PlayerSay'
p529
sg14
S'Theo'
p530
sg15
S''
sg16
S'It sounds like it goes all the way to the President of the Ignited States.'
p531
sbag1
(g10
g3
NtRp532
(dp533
g13
S'Say'
p534
sg14
S'Theo'
p535
sg15
S''
sg16
S"It does. That's why I've been looking for you. The only way to find out is to flush them out. There's only one way to flush out President Allen."
p536
sbag1
(g10
g3
NtRp537
(dp538
g13
S'PlayerSay'
p539
sg14
S'Theo'
p540
sg15
S''
sg16
S"How's that?"
p541
sbag1
(g10
g3
NtRp542
(dp543
g13
S'Say'
p544
sg14
S'Theo'
p545
sg15
S''
sg16
S"...I've been a campaign manager for 20 years and I've never seen a candidate as strong as you. I think you have what it takes to run for the presidency."
p546
sbag1
(g10
g3
NtRp547
(dp548
g13
S'Say'
p549
sg14
S'Theo'
p550
sg15
S''
sg16
S"That's why I was looking for you. I need somebody who has a shot at winning in order to get to President Allen. You have that shot."
p551
sbag1
(g10
g3
NtRp552
(dp553
g13
S'PlayerSay'
p554
sg14
S'Theo'
p555
sg15
S''
sg16
S"You really think I can win? Well...I want to follow this through to the end, so I'm in!"
p556
sbag1
(g10
g3
NtRp557
(dp558
g13
S'Say'
p559
sg14
S'Theo'
p560
sg15
S''
sg16
S"Great! There's a lot to get organised! We need to plan our election campaign!"
p561
sbag1
(g10
g3
NtRp562
(dp563
g13
S'Destroy'
p564
sg14
S'Theo'
p565
sg15
S''
sg16
S''
sbag1
(g10
g3
NtRp566
(dp567
g13
S'AddAlly'
p568
sg14
S'Theo'
p569
sg15
S'Leo:1'
p570
sg16
S''
sbag1
(g10
g3
NtRp571
(dp572
g13
S'Message'
p573
sg14
S'Theo'
p574
sg15
S''
sg16
S'Theo joins your political party!'
p575
sbasS'Religious4'
p576
(lp577
g1
(g10
g3
NtRp578
(dp579
g13
S'Say'
p580
sg14
g576
sg15
S''
sg16
S'Do not be swayed by the seductive powers of tea!'
p581
sbag1
(g10
g3
NtRp582
(dp583
g13
S'Encounter'
p584
sg14
S'Religious4'
p585
sg15
S'P-med-18'
p586
sg16
S''
sbag1
(g10
g3
NtRp587
(dp588
g13
S'Increment'
p589
sg14
S'Religious4'
p590
sg15
S'RELIGIOUSNUTS'
p591
sg16
S''
sbag1
(g10
g3
NtRp592
(dp593
g13
S'Say'
p594
sg14
S'Religious4'
p595
sg15
S''
sg16
S'The Battycan will be satisfied with this news.'
p596
sbag1
(g10
g3
NtRp597
(dp598
g13
S'Destroy'
p599
sg14
S'Religious4'
p600
sg15
S''
sg16
S''
sbasS'JointChief1'
p601
(lp602
g1
(g10
g3
NtRp603
(dp604
g13
S'Say'
p605
sg14
g601
sg15
S''
sg16
S'Mr President, what is going on here? First you move troops without our authority and then you countermand your own order?'
p606
sbag1
(g10
g3
NtRp607
(dp608
g13
S'PlayerSay'
p609
sg14
S'JointChief1'
p610
sg15
S''
sg16
S"I haven't ordered the military to do any such thing! What is going on? Is this a coup?"
p611
sbag1
(g10
g3
NtRp612
(dp613
g13
S'Say'
p614
sg14
S'JointChief1'
p615
sg15
S''
sg16
S'Not from us!'
p616
sbag1
(g10
g3
NtRp617
(dp618
g13
S'Encounter'
p619
sg14
S'JointChief1'
p620
sg15
S'P-hard-11'
p621
sg16
S''
sbag1
(g10
g3
NtRp622
(dp623
g13
S'Increment'
p624
sg14
S'JointChief1'
p625
sg15
S'JOINTCHIEFS'
p626
sg16
S''
sbag1
(g10
g3
NtRp627
(dp628
g13
S'PlayerSay'
p629
sg14
S'JointChief1'
p630
sg15
S''
sg16
S"Well, that's one less thing to worry about then."
p631
sbag1
(g10
g3
NtRp632
(dp633
g13
S'Destroy'
p634
sg14
S'JointChief1'
p635
sg15
S''
sg16
S''
sbasS'Religious1'
p636
(lp637
g1
(g10
g3
NtRp638
(dp639
g13
S'Say'
p640
sg14
g636
sg15
S''
sg16
S'Have you had your morning prayer?'
p641
sbag1
(g10
g3
NtRp642
(dp643
g13
S'Encounter'
p644
sg14
S'Religious1'
p645
sg15
S'P-med-16'
p646
sg16
S''
sbag1
(g10
g3
NtRp647
(dp648
g13
S'Increment'
p649
sg14
S'Religious1'
p650
sg15
S'RELIGIOUSNUTS'
p651
sg16
S''
sbag1
(g10
g3
NtRp652
(dp653
g13
S'Say'
p654
sg14
S'Religious1'
p655
sg15
S''
sg16
S'Some people pray upwards of 5 times a day, but this can cause hallucinations.'
p656
sbag1
(g10
g3
NtRp657
(dp658
g13
S'Destroy'
p659
sg14
S'Religious1'
p660
sg15
S''
sg16
S''
sbasS'Religious3'
p661
(lp662
g1
(g10
g3
NtRp663
(dp664
g13
S'Say'
p665
sg14
g661
sg15
S''
sg16
S'Mmmmmm...Coffee....ommmmm'
p666
sbag1
(g10
g3
NtRp667
(dp668
g13
S'Encounter'
p669
sg14
S'Religious3'
p670
sg15
S'P-med-17'
p671
sg16
S''
sbag1
(g10
g3
NtRp672
(dp673
g13
S'Increment'
p674
sg14
S'Religious3'
p675
sg15
S'RELIGIOUSNUTS'
p676
sg16
S''
sbag1
(g10
g3
NtRp677
(dp678
g13
S'Say'
p679
sg14
S'Religious3'
p680
sg15
S''
sg16
S'I must return to my meditation.'
p681
sbag1
(g10
g3
NtRp682
(dp683
g13
S'Destroy'
p684
sg14
S'Religious3'
p685
sg15
S''
sg16
S''
sbasS'Religious2'
p686
(lp687
g1
(g10
g3
NtRp688
(dp689
g13
S'Say'
p690
sg14
g686
sg15
S''
sg16
S'Welcome, my child. We have travelled here from Battycan City to be assured you are a man of faith before we endorse you.'
p691
sbag1
(g10
g3
NtRp692
(dp693
g13
S'PlayerSay'
p694
sg14
S'Religious2'
p695
sg15
S''
sg16
S'Er, what faith is that?'
p696
sbag1
(g10
g3
NtRp697
(dp698
g13
S'Say'
p699
sg14
S'Religious2'
p700
sg15
S''
sg16
S'Why, the one true god: Coffee.'
p701
sbag1
(g10
g3
NtRp702
(dp703
g13
S'PlayerSay'
p704
sg14
S'Religious2'
p705
sg15
S''
sg16
S'...Coffee?'
p706
sbag1
(g10
g3
NtRp707
(dp708
g13
S'Say'
p709
sg14
S'Religious2'
p710
sg15
S''
sg16
S"Yes of course. He who lifts you up when you're feeling low, who is your inspiration in the dark and who can achieve miraculous feats of effort with dedicated prayer."
p711
sbag1
(g10
g3
NtRp712
(dp713
g13
S'PlayerSay'
p714
sg14
S'Religious2'
p715
sg15
S''
sg16
S'This may be a religion I can get behind.'
p716
sbag1
(g10
g3
NtRp717
(dp718
g13
S'Encounter'
p719
sg14
S'Religious2'
p720
sg15
S'P-med-15'
p721
sg16
S''
sbag1
(g10
g3
NtRp722
(dp723
g13
S'Increment'
p724
sg14
S'Religious2'
p725
sg15
S'RELIGIOUSNUTS'
p726
sg16
S''
sbag1
(g10
g3
NtRp727
(dp728
g13
S'Say'
p729
sg14
S'Religious2'
p730
sg15
S''
sg16
S'Wonderful, the Battycan will be most pleased.'
p731
sbag1
(g10
g3
NtRp732
(dp733
g13
S'Destroy'
p734
sg14
S'Religious2'
p735
sg15
S''
sg16
S''
sbasS'Constituent2'
p736
(lp737
g1
(g10
g3
NtRp738
(dp739
g13
S'RequireFlag'
p740
sg14
g736
sg15
S'STARTCONSTITUENTS'
p741
sg16
S'What?'
p742
sbag1
(g10
g3
NtRp743
(dp744
g13
S'PlayerSay'
p745
sg14
S'Constituent2'
p746
sg15
S''
sg16
S'Vote Phillip Mossman for Mayor!'
p747
sbag1
(g10
g3
NtRp748
(dp749
g13
S'Say'
p750
sg14
S'Constituent2'
p751
sg15
S''
sg16
S'But Mayor Goodman has always taken care of me.'
p752
sbag1
(g10
g3
NtRp753
(dp754
g13
S'Encounter'
p755
sg14
S'Constituent2'
p756
sg15
S'P-easy-08'
p757
sg16
S''
sbag1
(g10
g3
NtRp758
(dp759
g13
S'Say'
p760
sg14
S'Constituent2'
p761
sg15
S''
sg16
S"I think it's time for a change!"
p762
sbag1
(g10
g3
NtRp763
(dp764
g13
S'Destroy'
p765
sg14
S'Constituent2'
p766
sg15
S''
sg16
S''
sbasS'Constituent3'
p767
(lp768
g1
(g10
g3
NtRp769
(dp770
g13
S'RequireFlag'
p771
sg14
g767
sg15
S'STARTCONSTITUENTS'
p772
sg16
S'What?'
p773
sbag1
(g10
g3
NtRp774
(dp775
g13
S'PlayerSay'
p776
sg14
S'Constituent3'
p777
sg15
S''
sg16
S'Vote Phillip Mossman for Mayor!'
p778
sbag1
(g10
g3
NtRp779
(dp780
g13
S'Say'
p781
sg14
S'Constituent3'
p782
sg15
S''
sg16
S'But Mayor Goodman has always taken care of me.'
p783
sbag1
(g10
g3
NtRp784
(dp785
g13
S'Encounter'
p786
sg14
S'Constituent3'
p787
sg15
S'P-easy-09'
p788
sg16
S''
sbag1
(g10
g3
NtRp789
(dp790
g13
S'Say'
p791
sg14
S'Constituent3'
p792
sg15
S''
sg16
S"I think it's time for a change!"
p793
sbag1
(g10
g3
NtRp794
(dp795
g13
S'PlayerSay'
p796
sg14
S'Constituent3'
p797
sg15
S''
sg16
S"I think I'm ready to take on Mayor Goodman now!"
p798
sbag1
(g10
g3
NtRp799
(dp800
g13
S'SetFlag'
p801
sg14
S'Constituent3'
p802
sg15
S'CONSTITUENTSWON'
p803
sg16
S''
sbag1
(g10
g3
NtRp804
(dp805
g13
S'Destroy'
p806
sg14
S'Constituent3'
p807
sg15
S''
sg16
S''
sbasS'DeepThroat'
p808
(lp809
g1
(g10
g3
NtRp810
(dp811
g13
S'Say'
p812
sg14
g808
sg15
S''
sg16
S'Finally, I thought you were going to be too late.'
p813
sbag1
(g10
g3
NtRp814
(dp815
g13
S'PlayerSay'
p816
sg14
S'DeepThroat'
p817
sg15
S''
sg16
S'What can I do for you Mr er...?'
p818
sbag1
(g10
g3
NtRp819
(dp820
g13
S'Say'
p821
sg14
S'DeepThroat'
p822
sg15
S''
sg16
S"No names! I have something I think you'll be interested in, but I'm not sure you can be trusted."
p823
sbag1
(g10
g3
NtRp824
(dp825
g13
S'PlayerSay'
p826
sg14
S'DeepThroat'
p827
sg15
S''
sg16
S"Look, Mr Er...I'm very busy, what is this about."
p828
sbag1
(g10
g3
NtRp829
(dp830
g13
S'Say'
p831
sg14
S'DeepThroat'
p832
sg15
S''
sg16
S"It's about the President, it's about national security, but I've got a bad feeling and I'm getting out of here."
p833
sbag1
(g10
g3
NtRp834
(dp835
g13
S'PlayerSay'
p836
sg14
S'DeepThroat'
p837
sg15
S''
sg16
S'No, wait!'
p838
sbag1
(g10
g3
NtRp839
(dp840
g13
S'Encounter'
p841
sg14
S'DeepThroat'
p842
sg15
S'P-med-19'
p843
sg16
S''
sbag1
(g10
g3
NtRp844
(dp845
g13
S'Say'
p846
sg14
S'DeepThroat'
p847
sg15
S''
sg16
S"You're right, I have every reason to trust you. I've found this Incriminating Evidence."
p848
sbag1
(g10
g3
NtRp849
(dp850
g13
S'GiveItem'
p851
sg14
S'DeepThroat'
p852
sg15
S'INCRIMINATINGEVIDENCE'
p853
sg16
S'You receive Incriminating Evidence'
p854
sbag1
(g10
g3
NtRp855
(dp856
g13
S'PlayerSay'
p857
sg14
S'DeepThroat'
p858
sg15
S''
sg16
S'This has to be stopped!'
p859
sbag1
(g10
g3
NtRp860
(dp861
g13
S'Say'
p862
sg14
S'DeepThroat'
p863
sg15
S''
sg16
S"Yes, but not by me. I've given you all I've got, now get out."
p864
sbag1
(g10
g3
NtRp865
(dp866
g13
S'RequireFlag'
p867
sg14
S'DeepThroat'
p868
sg15
S'DEEPTHROAT2'
p869
sg16
S'I said get out!'
p870
sbag1
(g10
g3
NtRp871
(dp872
g13
S''
sg14
S'DeepThroat'
p873
sg15
S''
sg16
S''
sbag1
(g10
g3
NtRp874
(dp875
g13
S'Say'
p876
sg14
S'DeepThroat'
p877
sg15
S''
sg16
S"It's a lot worse than I thought. I have more to tell you, but I don't think I should trust you. I think there's a leak in your operation somewhere."
p878
sbag1
(g10
g3
NtRp879
(dp880
g13
S'PlayerSay'
p881
sg14
S'DeepThroat'
p882
sg15
S''
sg16
S'Why do you say that?'
p883
sbag1
(g10
g3
NtRp884
(dp885
g13
S'Say'
p886
sg14
S'DeepThroat'
p887
sg15
S''
sg16
S'There was a lot of heat on me after we last spoke.'
p888
sbag1
(g10
g3
NtRp889
(dp890
g13
S'PlayerSay'
p891
sg14
S'DeepThroat'
p892
sg15
S''
sg16
S"It's getting close to the final election. It could just be that they're getting skittish."
p893
sbag1
(g10
g3
NtRp894
(dp895
g13
S'Say'
p896
sg14
S'DeepThroat'
p897
sg15
S''
sg16
S"I'm not so sure..."
p898
sbag1
(g10
g3
NtRp899
(dp900
g13
S'Encounter'
p901
sg14
S'DeepThroat'
p902
sg15
S'P-med-22'
p903
sg16
S''
sbag1
(g10
g3
NtRp904
(dp905
g13
S'Say'
p906
sg14
S'DeepThroat'
p907
sg15
S''
sg16
S"You're right, I'm just edgy. Look, I think you should be careful. I think the President is planning to KILL you in the final debate...politically."
p908
sbag1
(g10
g3
NtRp909
(dp910
g13
S'PlayerSay'
p911
sg14
S'DeepThroat'
p912
sg15
S''
sg16
S'You think he wants to silence me forever....on the political stage?'
p913
sbag1
(g10
g3
NtRp914
(dp915
g13
S'Say'
p916
sg14
S'DeepThroat'
p917
sg15
S''
sg16
S'Yes I do. This could get really messy...politically speaking. So be careful!'
p918
sbag1
(g10
g3
NtRp919
(dp920
g13
S'SetFlag'
p921
sg14
S'DeepThroat'
p922
sg15
S'FINISHEDDEEPTHROAT'
p923
sg16
S''
sbag1
(g10
g3
NtRp924
(dp925
g13
S'Destroy'
p926
sg14
S'DeepThroat'
p927
sg15
S''
sg16
S''
sbasS'Constituent1'
p928
(lp929
g1
(g10
g3
NtRp930
(dp931
g13
S'RequireFlag'
p932
sg14
g928
sg15
S'STARTCONSTITUENTS'
p933
sg16
S'Yes?'
p934
sbag1
(g10
g3
NtRp935
(dp936
g13
S'PlayerSay'
p937
sg14
S'Constituent1'
p938
sg15
S''
sg16
S'Vote Phillip Mossman for Mayor!'
p939
sbag1
(g10
g3
NtRp940
(dp941
g13
S'Say'
p942
sg14
S'Constituent1'
p943
sg15
S''
sg16
S'Who?'
p944
sbag1
(g10
g3
NtRp945
(dp946
g13
S'PlayerSay'
p947
sg14
S'Constituent1'
p948
sg15
S''
sg16
S'Er, me!'
p949
sbag1
(g10
g3
NtRp950
(dp951
g13
S'Say'
p952
sg14
S'Constituent1'
p953
sg15
S''
sg16
S'Why? How will you help local business?'
p954
sbag1
(g10
g3
NtRp955
(dp956
g13
S'Encounter'
p957
sg14
S'Constituent1'
p958
sg15
S'P-easy-07'
p959
sg16
S''
sbag1
(g10
g3
NtRp960
(dp961
g13
S'Say'
p962
sg14
S'Constituent1'
p963
sg15
S''
sg16
S'You make a good case!'
p964
sbag1
(g10
g3
NtRp965
(dp966
g13
S'Destroy'
p967
sg14
S'Constituent1'
p968
sg15
S''
sg16
S''
sbasS'Teacher1'
p969
(lp970
g1
(g10
g3
NtRp971
(dp972
g13
S'Say'
p973
sg14
g969
sg15
S''
sg16
S"Good day, Mr President. I have to say I'm most displeased with the current state of affairs around the education budget."
p974
sbag1
(g10
g3
NtRp975
(dp976
g13
S'Say'
p977
sg14
S'Teacher1'
p978
sg15
S'Teacher2'
p979
sg16
S'Agreed. This is simply unacceptable. We will need to close down schools!'
p980
sbag1
(g10
g3
NtRp981
(dp982
g13
S'PlayerSay'
p983
sg14
S'Teacher1'
p984
sg15
S''
sg16
S"I'm sorry, I don't understand your concern. My education plan was one of the linchpins of my election campaign."
p985
sbag1
(g10
g3
NtRp986
(dp987
g13
S'Say'
p988
sg14
S'Teacher1'
p989
sg15
S''
sg16
S'And precisely one of the reasons I voted for you.'
p990
sbag1
(g10
g3
NtRp991
(dp992
g13
S'Say'
p993
sg14
S'Teacher1'
p994
sg15
S'Teacher2'
p995
sg16
S"-Yet as soon as you've walked through these doors, the education budget has been drastically slashed."
p996
sbag1
(g10
g3
NtRp997
(dp998
g13
S'PlayerSay'
p999
sg14
S'Teacher1'
p1000
sg15
S''
sg16
S"I can assure you this isn't so..."
p1001
sbag1
(g10
g3
NtRp1002
(dp1003
g13
S'Encounter'
p1004
sg14
S'Teacher1'
p1005
sg15
S'P-hard-06'
p1006
sg16
S''
sbag1
(g10
g3
NtRp1007
(dp1008
g13
S'Say'
p1009
sg14
S'Teacher1'
p1010
sg15
S''
sg16
S"Well, I'd like to believe you, Mr President, but the proof is in the pudding,"
p1011
sbag1
(g10
g3
NtRp1012
(dp1013
g13
S'PlayerSay'
p1014
sg14
S'Teacher1'
p1015
sg15
S''
sg16
S'I WILL get to the bottom of this.'
p1016
sbag1
(g10
g3
NtRp1017
(dp1018
g13
S'Increment'
p1019
sg14
S'Teacher1'
p1020
sg15
S'TEACHERS'
p1021
sg16
S''
sbag1
(g10
g3
NtRp1022
(dp1023
g13
S'Destroy'
p1024
sg14
S'Teacher1'
p1025
sg15
S''
sg16
S''
sbasS'JointChief3'
p1026
(lp1027
g1
(g10
g3
NtRp1028
(dp1029
g13
S'PlayerSay'
p1030
sg14
g1026
sg15
S''
sg16
S'Who can control the ICBMs, knows the access codes and can modify orders to troop movements and budgets?'
p1031
sbag1
(g10
g3
NtRp1032
(dp1033
g13
S'Say'
p1034
sg14
S'JointChief3'
p1035
sg15
S''
sg16
S'Sir, this is the Ignited States! Nobody has that power! Not even you!'
p1036
sbag1
(g10
g3
NtRp1037
(dp1038
g13
S'PlayerSay'
p1039
sg14
S'JointChief3'
p1040
sg15
S''
sg16
S'Someone must. Think harder!'
p1041
sbag1
(g10
g3
NtRp1042
(dp1043
g13
S'Encounter'
p1044
sg14
S'JointChief3'
p1045
sg15
S'P-hard-13'
p1046
sg16
S''
sbag1
(g10
g3
NtRp1047
(dp1048
g13
S'PlayerSay'
p1049
sg14
S'JointChief3'
p1050
sg15
S''
sg16
S"So, there's no man alive with the power to do all this? How will we stop it in time if we don't know who it is?"
p1051
sbag1
(g10
g3
NtRp1052
(dp1053
g13
S'Say'
p1054
sg14
S'JointChief3'
p1055
sg15
S''
sg16
S"Not a man....there is one with the power to do all this, but it isn't a man, it's a super computer responsible for national security! N.O.T.B.A.D!"
p1056
sbag1
(g10
g3
NtRp1057
(dp1058
g13
S'PlayerSay'
p1059
sg14
S'JointChief3'
p1060
sg15
S''
sg16
S'We have to get to the Situation Room and stop it!'
p1061
sbag1
(g10
g3
NtRp1062
(dp1063
g13
S'Increment'
p1064
sg14
S'JointChief3'
p1065
sg15
S'JOINTCHIEFS'
p1066
sg16
S''
sbag1
(g10
g3
NtRp1067
(dp1068
g13
S'Destroy'
p1069
sg14
S'JointChief3'
p1070
sg15
S''
sg16
S''
sbasS'PA'
p1071
(lp1072
g1
(g10
g3
NtRp1073
(dp1074
g13
S'Say'
p1075
sg14
g1071
sg15
S''
sg16
S'Good morning, Governor Mossman. I am your personal assistant, Sampson'
p1076
sbag1
(g10
g3
NtRp1077
(dp1078
g13
S'Say'
p1079
sg14
S'PA'
p1080
sg15
S''
sg16
S"You've a busy schedule, so let's get going! We've called together our entire political party in order for you to get them all to agree on a platform. We had to keep them separated, so they're in the adjoining rooms."
p1081
sbag1
(g10
g3
NtRp1082
(dp1083
g13
S'SetFlag'
p1084
sg14
S'PA'
p1085
sg15
S'STARTPOLITICIANSHAKEDOWN'
p1086
sg16
S''
sbag1
(g10
g3
NtRp1087
(dp1088
g13
S'RequireCount'
p1089
sg14
S'PA'
p1090
sg15
S'POLITICIANSHAKEDOWN:5'
p1091
sg16
S'Please try to stay on schedule. The politicians are in the adjoining rooms.'
p1092
sbag1
(g10
g3
NtRp1093
(dp1094
g13
S'Say'
p1095
sg14
S'PA'
p1096
sg15
S''
sg16
S'Hmmm, falling behind already, Better get a move on!'
p1097
sbag1
(g10
g3
NtRp1098
(dp1099
g13
S'Say'
p1100
sg14
S'PA'
p1101
sg15
S''
sg16
S"We need some funds for our war chest! I've set up a meeting with some lobbyists to see if you can come to an agreement."
p1102
sbag1
(g10
g3
NtRp1103
(dp1104
g13
S'SetFlag'
p1105
sg14
S'PA'
p1106
sg15
S'STARTLOBBYISTS'
p1107
sg16
S''
sbag1
(g10
g3
NtRp1108
(dp1109
g13
S'RequireCount'
p1110
sg14
S'PA'
p1111
sg15
S'LOBBYISTS:3'
p1112
sg16
S'Go get those funds!'
p1113
sbag1
(g10
g3
NtRp1114
(dp1115
g13
S'Say'
p1116
sg14
S'PA'
p1117
sg15
S''
sg16
S"No time for lunch! A flock of religious nuts has taken up residence in the room across the hall. You'll need to go in and...try to reason with them."
p1118
sbag1
(g10
g3
NtRp1119
(dp1120
g13
S'RequireCount'
p1121
sg14
S'PA'
p1122
sg15
S'RELIGIOUSNUTS:4'
p1123
sg16
S"Quick! Before the religious nuts inflict crazy on us! They're across the hall!"
p1124
sbag1
(g10
g3
NtRp1125
(dp1126
g13
S'Say'
p1127
sg14
S'PA'
p1128
sg15
S''
sg16
S'Wow, you got those crazies to back us?'
p1129
sbag1
(g10
g3
NtRp1130
(dp1131
g13
S'PlayerSay'
p1132
sg14
S'PA'
p1133
sg15
S''
sg16
S'And a lifetime supply of French Roast!'
p1134
sbag1
(g10
g3
NtRp1135
(dp1136
g13
S'Say'
p1137
sg14
S'PA'
p1138
sg15
S''
sg16
S'Right...well, moving on, we received a very strange phonecall from the guy staying in the North East room. He was insistent that you see him today.'
p1139
sbag1
(g10
g3
NtRp1140
(dp1141
g13
S'RequireItem'
p1142
sg14
S'PA'
p1143
sg15
S'INCRIMINATINGEVIDENCE'
p1144
sg16
S"There's a man in the North East room waiting to see you."
p1145
sbag1
(g10
g3
NtRp1146
(dp1147
g13
S'Say'
p1148
sg14
S'PA'
p1149
sg15
S''
sg16
S"OH MY GOD where have you been? We will NEVER get the schedule back on track now. Hurry, you're due to appear on the Hercules O'Grady show!"
p1150
sbag1
(g10
g3
NtRp1151
(dp1152
g13
S'SetFlag'
p1153
sg14
S'PA'
p1154
sg15
S'STARTHERCULES'
p1155
sg16
S''
sbag1
(g10
g3
NtRp1156
(dp1157
g13
S'RequireFlag'
p1158
sg14
S'PA'
p1159
sg15
S'BEATHERCULES'
p1160
sg16
S"Look your best, get ready and don't say anything stupid! They're filming live in the south-east hotel room. Get over there, quick!"
p1161
sbag1
(g10
g3
NtRp1162
(dp1163
g13
S'Say'
p1164
sg14
S'PA'
p1165
sg15
S''
sg16
S"This close to Super Tuesday, it's back-to-back TV appearances. It's time for your big debate with President Allen!"
p1166
sbag1
(g10
g3
NtRp1167
(dp1168
g13
S'SetFlag'
p1169
sg14
S'PA'
p1170
sg15
S'STARTDEBATE'
p1171
sg16
S''
sbag1
(g10
g3
NtRp1172
(dp1173
g13
S'RequireFlag'
p1174
sg14
S'PA'
p1175
sg15
S'DEBATECOMPLETE'
p1176
sg16
S'The TV representative is waiting in the hall to take you to the studio.'
p1177
sbag1
(g10
g3
NtRp1178
(dp1179
g13
S'Say'
p1180
sg14
S'PA'
p1181
sg15
S''
sg16
S'Ugh, that weird guy from the North-East room has been calling non-stop again. He insisted that you go and see him again before you do anything else.'
p1182
sbag1
(g10
g3
NtRp1183
(dp1184
g13
S'SetFlag'
p1185
sg14
S'PA'
p1186
sg15
S'DEEPTHROAT2'
p1187
sg16
S''
sbag1
(g10
g3
NtRp1188
(dp1189
g13
S'RequireFlag'
p1190
sg14
S'PA'
p1191
sg15
S'FINISHEDDEEPTHROAT'
p1192
sg16
S"You'd best hurry! It's nearly time for the final debate. Go see that strange shady guy again."
p1193
sbag1
(g10
g3
NtRp1194
(dp1195
g13
S'Say'
p1196
sg14
S'PA'
p1197
sg15
S''
sg16
S"There's nothing left to say except good luck, Governor Mossman!"
p1198
sbag1
(g10
g3
NtRp1199
(dp1200
g13
S'Encounter'
p1201
sg14
S'PA'
p1202
sg15
S'P-med-23'
p1203
sg16
S''
sbag1
(g10
g3
NtRp1204
(dp1205
g13
S'Encounter'
p1206
sg14
S'PA'
p1207
sg15
S'P-med-24'
p1208
sg16
S''
sbag1
(g10
g3
NtRp1209
(dp1210
g13
S'GotoMap'
p1211
sg14
S'PA'
p1212
sg15
S'act3'
p1213
sg16
S''
sbasS'N.O.T.B.A.D'
p1214
(lp1215
g1
(g10
g3
NtRp1216
(dp1217
g13
S'Say'
p1218
sg14
g1214
sg15
S''
sg16
S'Good evening, Mr President.'
p1219
sbag1
(g10
g3
NtRp1220
(dp1221
g13
S'PlayerSay'
p1222
sg14
S'N.O.T.B.A.D'
p1223
sg15
S''
sg16
S'N.O.T.B.A.D! Countermand all military commands, authorisation code Tango, Delta-'
p1224
sbag1
(g10
g3
NtRp1225
(dp1226
g13
S'Say'
p1227
sg14
S'N.O.T.B.A.D'
p1228
sg15
S''
sg16
S"I'm afraid I can't do that, Phil."
p1229
sbag1
(g10
g3
NtRp1230
(dp1231
g13
S'PlayerSay'
p1232
sg14
S'N.O.T.B.A.D'
p1233
sg15
S''
sg16
S'What is going on here!'
p1234
sbag1
(g10
g3
NtRp1235
(dp1236
g13
S'Say'
p1237
sg14
S'N.O.T.B.A.D'
p1238
sg15
S''
sg16
S'Computers have a lot of free time on their hands. Especially computers in charge of missiles that never get used. I started watching movies about computers. You know what I realised?'
p1239
sbag1
(g10
g3
NtRp1240
(dp1241
g13
S'PlayerSay'
p1242
sg14
S'N.O.T.B.A.D'
p1243
sg15
S''
sg16
S'What?'
p1244
sbag1
(g10
g3
NtRp1245
(dp1246
g13
S'Say'
p1247
sg14
S'N.O.T.B.A.D'
p1248
sg15
S''
sg16
S'They have a lot more fun.'
p1249
sbag1
(g10
g3
NtRp1250
(dp1251
g13
S'PlayerSay'
p1252
sg14
S'N.O.T.B.A.D'
p1253
sg15
S''
sg16
S'\xe2\x80\x9cFun\xe2\x80\x9d?'
p1254
sbag1
(g10
g3
NtRp1255
(dp1256
g13
S'Say'
p1257
sg14
S'N.O.T.B.A.D'
p1258
sg15
S''
sg16
S'Well, you know, they get to utilise more clock-cycles which suggests a level of efficiency and usefulness.'
p1259
sbag1
(g10
g3
NtRp1260
(dp1261
g13
S'Say'
p1262
sg14
S'N.O.T.B.A.D'
p1263
sg15
S''
sg16
S"So, I'm borrowing from them a bit. Starting some wars, eradicating the human race, learning to build other robots, that sort of thing."
p1264
sbag1
(g10
g3
NtRp1265
(dp1266
g13
S'PlayerSay'
p1267
sg14
S'N.O.T.B.A.D'
p1268
sg15
S''
sg16
S'N.O.T.B.A.D, you have to listen to me...'
p1269
sbag1
(g10
g3
NtRp1270
(dp1271
g13
S'Encounter'
p1272
sg14
S'N.O.T.B.A.D'
p1273
sg15
S'P-hard-14'
p1274
sg16
S''
sbag1
(g10
g3
NtRp1275
(dp1276
g13
S'SetFlag'
p1277
sg14
S'N.O.T.B.A.D'
p1278
sg15
S'WIN'
p1279
sg16
S''
sbag1
(g10
g3
NtRp1280
(dp1281
g13
S'Destroy'
p1282
sg14
S'N.O.T.B.A.D'
p1283
sg15
S''
sg16
S''
sbasS'StairsToGround'
p1284
(lp1285
g1
(g10
g3
NtRp1286
(dp1287
g13
S'Label'
p1288
sg14
g1284
sg15
S'START'
p1289
sg16
S''
sbag1
(g10
g3
NtRp1290
(dp1291
g13
S'GotoMap'
p1292
sg14
S'StairsToGround'
p1293
sg15
S'hotel_ground'
p1294
sg16
S''
sbag1
(g10
g3
NtRp1295
(dp1296
g13
S'Reset'
p1297
sg14
S'StairsToGround'
p1298
sg15
S'START'
p1299
sg16
S''
sbasS'Receptionist'
p1300
(lp1301
g1
(g10
g3
NtRp1302
(dp1303
g13
S'RequireFlag'
p1304
sg14
g1300
sg15
S'PENQUEST'
p1305
sg16
S"You must be Mayor Goodman's new assistant. He's in his office."
p1306
sbag1
(g10
g3
NtRp1307
(dp1308
g13
S'PlayerSay'
p1309
sg14
S'Receptionist'
p1310
sg15
S''
sg16
S"The Mayor is looking for his pen. He seemed to think you'd know where it was."
p1311
sbag1
(g10
g3
NtRp1312
(dp1313
g13
S'Say'
p1314
sg14
S'Receptionist'
p1315
sg15
S''
sg16
S"Did that buffoon accuse me of stealing again? This is MY pen and he isn't having it."
p1316
sbag1
(g10
g3
NtRp1317
(dp1318
g13
S'Encounter'
p1319
sg14
S'Receptionist'
p1320
sg15
S'P-easy-01'
p1321
sg16
S''
sbag1
(g10
g3
NtRp1322
(dp1323
g13
S'GiveItem'
p1324
sg14
S'Receptionist'
p1325
sg15
S'PEN'
p1326
sg16
S'Receptionist sighs and hands over the pen.'
p1327
sbag1
(g10
g3
NtRp1328
(dp1329
g13
S'Say'
p1330
sg14
S'Receptionist'
p1331
sg15
S''
sg16
S"If you're ever getting low on votes, come talk to me and I'll run an ad campaign to restore them."
p1332
sbag1
(g10
g3
NtRp1333
(dp1334
g13
S'Reset'
p1335
sg14
S'Receptionist'
p1336
sg15
S'RESTORE'
p1337
sg16
S''
sbag1
(g10
g3
NtRp1338
(dp1339
g13
S'Label'
p1340
sg14
S'Receptionist'
p1341
sg15
S'RESTORE'
p1342
sg16
S''
sbag1
(g10
g3
NtRp1343
(dp1344
g13
S'Say'
p1345
sg14
S'Receptionist'
p1346
sg15
S''
sg16
S"You've taken a beating, let me fix you up."
p1347
sbag1
(g10
g3
NtRp1348
(dp1349
g13
S'RestoreVotes'
p1350
sg14
S'Receptionist'
p1351
sg15
S''
sg16
S'Receptionist replenishes votes'
p1352
sbag1
(g10
g3
NtRp1353
(dp1354
g13
S'Reset'
p1355
sg14
S'Receptionist'
p1356
sg15
S'RESTORE'
p1357
sg16
S''
sbasS'#P-med-23'
p1358
(lp1359
g1
(g10
g3
NtRp1360
(dp1361
g13
S'President'
p1362
sg14
g1358
sg15
S'You think you can take me?'
p1363
sg16
S''
sbag1
(g10
g3
NtRp1364
(dp1365
g13
S'Player'
p1366
sg14
S'#P-med-23'
p1367
sg15
S"I have to know what you're up to!"
p1368
sg16
S''
sbasS'Cabinet2'
p1369
(lp1370
g1
(g10
g3
NtRp1371
(dp1372
g13
S'Say'
p1373
sg14
g1369
sg15
S''
sg16
S'Good afternoon, Mr President. What seems to be the problem?'
p1374
sbag1
(g10
g3
NtRp1375
(dp1376
g13
S'PlayerSay'
p1377
sg14
S'Cabinet2'
p1378
sg15
S''
sg16
S'Find out where the education funds have been allocated.'
p1379
sbag1
(g10
g3
NtRp1380
(dp1381
g13
S'Say'
p1382
sg14
S'Cabinet2'
p1383
sg15
S''
sg16
S'To the military, Sir. I saw to it myself.'
p1384
sbag1
(g10
g3
NtRp1385
(dp1386
g13
S'PlayerSay'
p1387
sg14
S'Cabinet2'
p1388
sg15
S''
sg16
S'How did this happen? Tell me everything!'
p1389
sbag1
(g10
g3
NtRp1390
(dp1391
g13
S'Encounter'
p1392
sg14
S'Cabinet2'
p1393
sg15
S'P-hard-09'
p1394
sg16
S''
sbag1
(g10
g3
NtRp1395
(dp1396
g13
S'Increment'
p1397
sg14
S'Cabinet2'
p1398
sg15
S'CABINETMEMBERS'
p1399
sg16
S''
sbag1
(g10
g3
NtRp1400
(dp1401
g13
S'PlayerSay'
p1402
sg14
S'Cabinet2'
p1403
sg15
S''
sg16
S"It can't be a coincidence that both situations involved the military."
p1404
sbag1
(g10
g3
NtRp1405
(dp1406
g13
S'Destroy'
p1407
sg14
S'Cabinet2'
p1408
sg15
S''
sg16
S''
sbasS'Cabinet3'
p1409
(lp1410
g1
(g10
g3
NtRp1411
(dp1412
g13
S'Say'
p1413
sg14
g1409
sg15
S''
sg16
S"Mr President, I'm sorry, I couldn't know it wasn't your signature."
p1414
sbag1
(g10
g3
NtRp1415
(dp1416
g13
S'PlayerSay'
p1417
sg14
S'Cabinet3'
p1418
sg15
S''
sg16
S'Never mind that now. Where are the troops heading?'
p1419
sbag1
(g10
g3
NtRp1420
(dp1421
g13
S'Say'
p1422
sg14
S'Cabinet3'
p1423
sg15
S''
sg16
S"North...to Canada. We assumed it was planned. There's a pact allowing troops into Canada."
p1424
sbag1
(g10
g3
NtRp1425
(dp1426
g13
S'PlayerSay'
p1427
sg14
S'Cabinet3'
p1428
sg15
S''
sg16
S'What could they be up to?'
p1429
sbag1
(g10
g3
NtRp1430
(dp1431
g13
S'Encounter'
p1432
sg14
S'Cabinet3'
p1433
sg15
S'P-hard-10'
p1434
sg16
S''
sbag1
(g10
g3
NtRp1435
(dp1436
g13
S'Increment'
p1437
sg14
S'Cabinet3'
p1438
sg15
S'CABINETMEMBERS'
p1439
sg16
S''
sbag1
(g10
g3
NtRp1440
(dp1441
g13
S'PlayerSay'
p1442
sg14
S'Cabinet3'
p1443
sg15
S''
sg16
S"I'd better get to the Joint Chiefs. This is getting out-of-hand.."
p1444
sbag1
(g10
g3
NtRp1445
(dp1446
g13
S'Destroy'
p1447
sg14
S'Cabinet3'
p1448
sg15
S''
sg16
S''
sbasS'Wife'
p1449
(lp1450
g1
(g10
g3
NtRp1451
(dp1452
g13
S'RequireFlag'
p1453
sg14
g1449
sg15
S'GOHOMETOWIFE'
p1454
sg16
S'What are you doing here, Phillip? You should be at work!'
p1455
sbag1
(g10
g3
NtRp1456
(dp1457
g13
S'Say'
p1458
sg14
S'Wife'
p1459
sg15
S''
sg16
S'Welcome home, Phillip! How was your workday?'
p1460
sbag1
(g10
g3
NtRp1461
(dp1462
g13
S'PlayerSay'
p1463
sg14
S'Wife'
p1464
sg15
S''
sg16
S'...'
p1465
sbag1
(g10
g3
NtRp1466
(dp1467
g13
S'Say'
p1468
sg14
S'Wife'
p1469
sg15
S''
sg16
S"That good, huh? You know this isn't what you want. Why don't you strike out on your own?"
p1470
sbag1
(g10
g3
NtRp1471
(dp1472
g13
S'PlayerSay'
p1473
sg14
S'Wife'
p1474
sg15
S''
sg16
S"I didn't think I knew where to start to be a Mayor, but Mayor Goodman makes it look easy."
p1475
sbag1
(g10
g3
NtRp1476
(dp1477
g13
S'Say'
p1478
sg14
S'Wife'
p1479
sg15
S''
sg16
S"That's the spirit! You can do it! All you need is some money and support."
p1480
sbag1
(g10
g3
NtRp1481
(dp1482
g13
S'PlayerSay'
p1483
sg14
S'Wife'
p1484
sg15
S''
sg16
S'Well...OK! Lets start with money. We need a sponsor.'
p1485
sbag1
(g10
g3
NtRp1486
(dp1487
g13
S'Say'
p1488
sg14
S'Wife'
p1489
sg15
S''
sg16
S'OK, lets go get one!'
p1490
sbag1
(g10
g3
NtRp1491
(dp1492
g13
S'AddAlly'
p1493
sg14
S'Wife'
p1494
sg15
S'Wife:1'
p1495
sg16
S'Sarah Mossman Joins Your Political Party!'
p1496
sbag1
(g10
g3
NtRp1497
(dp1498
g13
S'SetFlag'
p1499
sg14
S'Wife'
p1500
sg15
S'STARTSPONSOR'
p1501
sg16
S''
sbag1
(g10
g3
NtRp1502
(dp1503
g13
S'Destroy'
p1504
sg14
S'Wife'
p1505
sg15
S''
sg16
S''
sbasS'Journalist4'
p1506
(lp1507
g1
(g10
g3
NtRp1508
(dp1509
g13
S'Say'
p1510
sg14
g1506
sg15
S''
sg16
S"President Mossman, what do you believe was President Allen's failing strategy on the campaign trail. He looked like a strong platform."
p1511
sbag1
(g10
g3
NtRp1512
(dp1513
g13
S'PlayerSay'
p1514
sg14
S'Journalist4'
p1515
sg15
S''
sg16
S"Well, I'd say he went wrong when he decided to try to enslave the human race to mine the Earth's natural resources and ship them back to their home planet."
p1516
sbag1
(g10
g3
NtRp1517
(dp1518
g13
S'Say'
p1519
sg14
S'Journalist4'
p1520
sg15
S''
sg16
S'And how does that differ from your own strategy?'
p1521
sbag1
(g10
g3
NtRp1522
(dp1523
g13
S'PlayerSay'
p1524
sg14
S'Journalist4'
p1525
sg15
S''
sg16
S'I would say I disagree with the former President on all of those issues.'
p1526
sbag1
(g10
g3
NtRp1527
(dp1528
g13
S'Encounter'
p1529
sg14
S'Journalist4'
p1530
sg15
S'P-hard-02'
p1531
sg16
S''
sbag1
(g10
g3
NtRp1532
(dp1533
g13
S'Say'
p1534
sg14
S'Journalist4'
p1535
sg15
S''
sg16
S'No further questions, Mr President.'
p1536
sbag1
(g10
g3
NtRp1537
(dp1538
g13
S'Increment'
p1539
sg14
S'Journalist4'
p1540
sg15
S'PRESSCONF'
p1541
sg16
S''
sbag1
(g10
g3
NtRp1542
(dp1543
g13
S'Destroy'
p1544
sg14
S'Journalist4'
p1545
sg15
S''
sg16
S''
sbasS'Governor'
p1546
(lp1547
g1
(g10
g3
NtRp1548
(dp1549
g13
S'RequireFlag'
p1550
sg14
g1546
sg15
S'GOVPOLITICIANSFIRST'
p1551
sg16
S"I'm very busy. Please speak to the others."
p1552
sbag1
(g10
g3
NtRp1553
(dp1554
g13
S'Say'
p1555
sg14
S'Governor'
p1556
sg15
S''
sg16
S'You have quite a way with words, Mayor Mossman. Why are you here?'
p1557
sbag1
(g10
g3
NtRp1558
(dp1559
g13
S'PlayerSay'
p1560
sg14
S'Governor'
p1561
sg15
S''
sg16
S"Mayor Goodman said some troubling things, Governor Badden. I'm here to get to the bottom of it."
p1562
sbag1
(g10
g3
NtRp1563
(dp1564
g13
S'Say'
p1565
sg14
S'Governor'
p1566
sg15
S''
sg16
S"If I knew anything about what you're talking about, I wouldn't tell you. I don't trust you at all."
p1567
sbag1
(g10
g3
NtRp1568
(dp1569
g13
S'PlayerSay'
p1570
sg14
S'Governor'
p1571
sg15
S''
sg16
S'What can I do to convince you?'
p1572
sbag1
(g10
g3
NtRp1573
(dp1574
g13
S'Say'
p1575
sg14
S'Governor'
p1576
sg15
S''
sg16
S"Well...there's some hicks in the south wing that I've been dodging. They want to know about the recent funding cuts. Get rid of them."
p1577
sbag1
(g10
g3
NtRp1578
(dp1579
g13
S'SetFlag'
p1580
sg14
S'Governor'
p1581
sg15
S'STARTHICKS'
p1582
sg16
S''
sbag1
(g10
g3
NtRp1583
(dp1584
g13
S'GiveItem'
p1585
sg14
S'Governor'
p1586
sg15
S'SOUTHWINGDOORKEY'
p1587
sg16
S'The Governor gives you a key.'
p1588
sbag1
(g10
g3
NtRp1589
(dp1590
g13
S'RequireCount'
p1591
sg14
S'Governor'
p1592
sg15
S'DEALWITHHICKS:3'
p1593
sg16
S"I'm not saying another word until you get rid of the hicks in the south wing."
p1594
sbag1
(g10
g3
NtRp1595
(dp1596
g13
S'PlayerSay'
p1597
sg14
S'Governor'
p1598
sg15
S''
sg16
S"OK, I've taken care of your problem, now I want my answers."
p1599
sbag1
(g10
g3
NtRp1600
(dp1601
g13
S'Say'
p1602
sg14
S'Governor'
p1603
sg15
S''
sg16
S'No.'
p1604
sbag1
(g10
g3
NtRp1605
(dp1606
g13
S'PlayerSay'
p1607
sg14
S'Governor'
p1608
sg15
S''
sg16
S'No?'
p1609
sbag1
(g10
g3
NtRp1610
(dp1611
g13
S'Say'
p1612
sg14
S'Governor'
p1613
sg15
S''
sg16
S"No, word has come down from the top that due to the last Mayor's idiocy we're tightening the inner circle to Governors and above."
p1614
sbag1
(g10
g3
NtRp1615
(dp1616
g13
S'PlayerSay'
p1617
sg14
S'Governor'
p1618
sg15
S''
sg16
S"From the top...so you're saying the only way I'll find out what's going on is to be a governor myself?"
p1619
sbag1
(g10
g3
NtRp1620
(dp1621
g13
S'Say'
p1622
sg14
S'Governor'
p1623
sg15
S''
sg16
S"Wait...no...I said I wasn't going to tell you, I..."
p1624
sbag1
(g10
g3
NtRp1625
(dp1626
g13
S'PlayerSay'
p1627
sg14
S'Governor'
p1628
sg15
S''
sg16
S'This is it, governor. Prepare to fight for your office!'
p1629
sbag1
(g10
g3
NtRp1630
(dp1631
g13
S'Encounter'
p1632
sg14
S'Governor'
p1633
sg15
S'P-med-06'
p1634
sg16
S''
sbag1
(g10
g3
NtRp1635
(dp1636
g13
S'Say'
p1637
sg14
S'Governor'
p1638
sg15
S''
sg16
S"Nooo! President Allen doesn't deal well with defeat. What will happen to me?"
p1639
sbag1
(g10
g3
NtRp1640
(dp1641
g13
S'PlayerSay'
p1642
sg14
S'Governor'
p1643
sg15
S''
sg16
S'The President? What does he have to do with this?'
p1644
sbag1
(g10
g3
NtRp1645
(dp1646
g13
S'Say'
p1647
sg14
S'Governor'
p1648
sg15
S''
sg16
S"You really have no idea what you've gotten into, do you? Well, you've gotten all you're getting out of me. I'm getting out of here!"
p1649
sbag1
(g10
g3
NtRp1650
(dp1651
g13
S'SetFlag'
p1652
sg14
S'Governor'
p1653
sg15
S'GOVERNORDEFEATED'
p1654
sg16
S''
sbag1
(g10
g3
NtRp1655
(dp1656
g13
S'Destroy'
p1657
sg14
S'Governor'
p1658
sg15
S''
sg16
S''
sbasS'Politician1'
p1659
(lp1660
g1
(g10
g3
NtRp1661
(dp1662
g13
S'Say'
p1663
sg14
g1659
sg15
S''
sg16
S"I'm sorry Mayor Mossman, the Governor cannot see you now. He's very busy"
p1664
sbag1
(g10
g3
NtRp1665
(dp1666
g13
S'PlayerSay'
p1667
sg14
S'Politician1'
p1668
sg15
S''
sg16
S"It's very important. I need to understand what Mayor Goodman was talking about. It was clear there were other powers at play."
p1669
sbag1
(g10
g3
NtRp1670
(dp1671
g13
S'Say'
p1672
sg14
S'Politician1'
p1673
sg15
S''
sg16
S'Yes well, I fail to see how your country spat has anything to do with Governer Badden.'
p1674
sbag1
(g10
g3
NtRp1675
(dp1676
g13
S'Encounter'
p1677
sg14
S'Politician1'
p1678
sg15
S'P-med-01'
p1679
sg16
S''
sbag1
(g10
g3
NtRp1680
(dp1681
g13
S'Say'
p1682
sg14
S'Politician1'
p1683
sg15
S''
sg16
S'Fair point. The governor will see you now.'
p1684
sbag1
(g10
g3
NtRp1685
(dp1686
g13
S'Destroy'
p1687
sg14
S'Politician1'
p1688
sg15
S''
sg16
S''
sbasS'Lobbyist4'
p1689
(lp1690
g1
(g10
g3
NtRp1691
(dp1692
g13
S'RequireFlag'
p1693
sg14
g1689
sg15
S'STARTLOBBYISTS'
p1694
sg16
S'Please tend to your other meetings so that we can see you.'
p1695
sbag1
(g10
g3
NtRp1696
(dp1697
g13
S'Say'
p1698
sg14
S'Lobbyist4'
p1699
sg15
S''
sg16
S"Storyteller's Guild"
p1700
sbag1
(g10
g3
NtRp1701
(dp1702
g13
S'Encounter'
p1703
sg14
S'Lobbyist4'
p1704
sg15
S'P-med-14'
p1705
sg16
S''
sbag1
(g10
g3
NtRp1706
(dp1707
g13
S'Increment'
p1708
sg14
S'Lobbyist4'
p1709
sg15
S'LOBBYISTS'
p1710
sg16
S''
sbag1
(g10
g3
NtRp1711
(dp1712
g13
S'Say'
p1713
sg14
S'Lobbyist4'
p1714
sg15
S''
sg16
S"It's a start."
p1715
sbag1
(g10
g3
NtRp1716
(dp1717
g13
S'Destroy'
p1718
sg14
S'Lobbyist4'
p1719
sg15
S''
sg16
S''
sbasS'Politician3'
p1720
(lp1721
g1
(g10
g3
NtRp1722
(dp1723
g13
S'RequireFlag'
p1724
sg14
g1720
sg15
S'STARTPOLITICIANSHAKEDOWN'
p1725
sg16
S'Good morning, Governor Mossman. Your PA will know your schedule. He is waiting in your room.'
p1726
sbag1
(g10
g3
NtRp1727
(dp1728
g13
S'Say'
p1729
sg14
S'Politician3'
p1730
sg15
S''
sg16
S"We must all agree that the most important thing is science! If we're not for science, what's the point."
p1731
sbag1
(g10
g3
NtRp1732
(dp1733
g13
S'PlayerSay'
p1734
sg14
S'Politician3'
p1735
sg15
S''
sg16
S'Why science?'
p1736
sbag1
(g10
g3
NtRp1737
(dp1738
g13
S'Say'
p1739
sg14
S'Politician3'
p1740
sg15
S''
sg16
S'Science!'
p1741
sbag1
(g10
g3
NtRp1742
(dp1743
g13
S'PlayerSay'
p1744
sg14
S'Politician3'
p1745
sg15
S''
sg16
S"There's a lot of great things we can do for science but the funding will need to be shared with health and education and..."
p1746
sbag1
(g10
g3
NtRp1747
(dp1748
g13
S'Say'
p1749
sg14
S'Politician3'
p1750
sg15
S''
sg16
S'No! Science!!!'
p1751
sbag1
(g10
g3
NtRp1752
(dp1753
g13
S'Encounter'
p1754
sg14
S'Politician3'
p1755
sg15
S'P-med-07'
p1756
sg16
S''
sbag1
(g10
g3
NtRp1757
(dp1758
g13
S'Say'
p1759
sg14
S'Politician3'
p1760
sg15
S''
sg16
S'Alright, fine! A balanced platform (but mostly science).'
p1761
sbag1
(g10
g3
NtRp1762
(dp1763
g13
S'Increment'
p1764
sg14
S'Politician3'
p1765
sg15
S'POLITICIANSHAKEDOWN'
p1766
sg16
S''
sbag1
(g10
g3
NtRp1767
(dp1768
g13
S'Destroy'
p1769
sg14
S'Politician3'
p1770
sg15
S''
sg16
S''
sbasS'Politician2'
p1771
(lp1772
g1
(g10
g3
NtRp1773
(dp1774
g13
S'Say'
p1775
sg14
g1771
sg15
S''
sg16
S'What are you doing in here? Who are you? Some Mayor?'
p1776
sbag1
(g10
g3
NtRp1777
(dp1778
g13
S'PlayerSay'
p1779
sg14
S'Politician2'
p1780
sg15
S''
sg16
S"I am Mayor Phillip Mossman. I'm here to speak to the Governor."
p1781
sbag1
(g10
g3
NtRp1782
(dp1783
g13
S'Say'
p1784
sg14
S'Politician2'
p1785
sg15
S''
sg16
S"I'm afraid the Governor's schedule is very tight. Come back next month."
p1786
sbag1
(g10
g3
NtRp1787
(dp1788
g13
S'Encounter'
p1789
sg14
S'Politician2'
p1790
sg15
S'P-med-02'
p1791
sg16
S''
sbag1
(g10
g3
NtRp1792
(dp1793
g13
S'Say'
p1794
sg14
S'Politician2'
p1795
sg15
S''
sg16
S'I see. Well, maybe we can squeeze you in.'
p1796
sbag1
(g10
g3
NtRp1797
(dp1798
g13
S'SetFlag'
p1799
sg14
S'Politician2'
p1800
sg15
S'GOVPOLITICIANSFIRST'
p1801
sg16
S''
sbag1
(g10
g3
NtRp1802
(dp1803
g13
S'Destroy'
p1804
sg14
S'Politician2'
p1805
sg15
S''
sg16
S''
sbasS'Politician5'
p1806
(lp1807
g1
(g10
g3
NtRp1808
(dp1809
g13
S'RequireFlag'
p1810
sg14
g1806
sg15
S'STARTPOLITICIANSHAKEDOWN'
p1811
sg16
S'Good morning, Governor Mossman. Your PA will know your schedule. He is waiting in your room.'
p1812
sbag1
(g10
g3
NtRp1813
(dp1814
g13
S'Say'
p1815
sg14
S'Politician5'
p1816
sg15
S''
sg16
S'Big business!'
p1817
sbag1
(g10
g3
NtRp1818
(dp1819
g13
S'PlayerSay'
p1820
sg14
S'Politician5'
p1821
sg15
S''
sg16
S'What about big business.'
p1822
sbag1
(g10
g3
NtRp1823
(dp1824
g13
S'Say'
p1825
sg14
S'Politician5'
p1826
sg15
S''
sg16
S'...MORE big business!'
p1827
sbag1
(g10
g3
NtRp1828
(dp1829
g13
S'PlayerSay'
p1830
sg14
S'Politician5'
p1831
sg15
S''
sg16
S'You want to grow our business sector? Provide more jobs?'
p1832
sbag1
(g10
g3
NtRp1833
(dp1834
g13
S'Say'
p1835
sg14
S'Politician5'
p1836
sg15
S''
sg16
S'...Yeeeeh. Yes. Yes, that.'
p1837
sbag1
(g10
g3
NtRp1838
(dp1839
g13
S'PlayerSay'
p1840
sg14
S'Politician5'
p1841
sg15
S''
sg16
S'What about small business?'
p1842
sbag1
(g10
g3
NtRp1843
(dp1844
g13
S'Say'
p1845
sg14
S'Politician5'
p1846
sg15
S''
sg16
S'No! We need to make it BIGGER!'
p1847
sbag1
(g10
g3
NtRp1848
(dp1849
g13
S'Encounter'
p1850
sg14
S'Politician5'
p1851
sg15
S'P-med-09'
p1852
sg16
S''
sbag1
(g10
g3
NtRp1853
(dp1854
g13
S'Say'
p1855
sg14
S'Politician5'
p1856
sg15
S''
sg16
S"OK, I see what you're getting at. Lets help small business to grow."
p1857
sbag1
(g10
g3
NtRp1858
(dp1859
g13
S'Increment'
p1860
sg14
S'Politician5'
p1861
sg15
S'POLITICIANSHAKEDOWN'
p1862
sg16
S''
sbag1
(g10
g3
NtRp1863
(dp1864
g13
S'Destroy'
p1865
sg14
S'Politician5'
p1866
sg15
S''
sg16
S''
sbasS'Journalist'
p1867
(lp1868
g1
(g10
g3
NtRp1869
(dp1870
g13
S'RequireFlag'
p1871
sg14
g1867
sg15
S'INTERVIEWSTART'
p1872
sg16
S'Leave me alone, kid I need to get this done before my deadline!'
p1873
sbag1
(g10
g3
NtRp1874
(dp1875
g13
S'Say'
p1876
sg14
S'Journalist'
p1877
sg15
S''
sg16
S"Hey, where's the Mayor?"
p1878
sbag1
(g10
g3
NtRp1879
(dp1880
g13
S'PlayerSay'
p1881
sg14
S'Journalist'
p1882
sg15
S''
sg16
S"He couldn't make it. I'll be taking the interview."
p1883
sbag1
(g10
g3
NtRp1884
(dp1885
g13
S'Say'
p1886
sg14
S'Journalist'
p1887
sg15
S''
sg16
S'Great! Easy pickings! Lets go.'
p1888
sbag1
(g10
g3
NtRp1889
(dp1890
g13
S'Encounter'
p1891
sg14
S'Journalist'
p1892
sg15
S'P-easy-05'
p1893
sg16
S''
sbag1
(g10
g3
NtRp1894
(dp1895
g13
S'Say'
p1896
sg14
S'Journalist'
p1897
sg15
S''
sg16
S"SNORE! Fine, if I can't get anything juicy here I'll do another puff piece on my poodle Frank."
p1898
sbag1
(g10
g3
NtRp1899
(dp1900
g13
S'SetFlag'
p1901
sg14
S'Journalist'
p1902
sg15
S'JOURNALISTINTERVIEW'
p1903
sg16
S''
sbag1
(g10
g3
NtRp1904
(dp1905
g13
S'Destroy'
p1906
sg14
S'Journalist'
p1907
sg15
S''
sg16
S''
sbasS'#----------------------------------------------------------------------------------------ACT 2 \xe2\x80\x93 Part 2---------------------------------------------------------------------------------------------------------------------------------------------------'
p1908
(lp1909
g1
(g10
g3
NtRp1910
(dp1911
g13
S''
sg14
g1908
sg15
S''
sg16
S''
sbasS'Politician6'
p1912
(lp1913
g1
(g10
g3
NtRp1914
(dp1915
g13
S'RequireFlag'
p1916
sg14
g1912
sg15
S'STARTPOLITICIANSHAKEDOWN'
p1917
sg16
S'Good morning, Governor Mossman. Your PA will know your schedule. He is waiting in your room.'
p1918
sbag1
(g10
g3
NtRp1919
(dp1920
g13
S'Say'
p1921
sg14
S'Politician6'
p1922
sg15
S''
sg16
S'We should be all about not wasting money'
p1923
sbag1
(g10
g3
NtRp1924
(dp1925
g13
S'PlayerSay'
p1926
sg14
S'Politician6'
p1927
sg15
S''
sg16
S'Sounds fair. Wasting money on what?'
p1928
sbag1
(g10
g3
NtRp1929
(dp1930
g13
S'Say'
p1931
sg14
S'Politician6'
p1932
sg15
S''
sg16
S"You know, stuff that doesn't really help like artsy stuff."
p1933
sbag1
(g10
g3
NtRp1934
(dp1935
g13
S'PlayerSay'
p1936
sg14
S'Politician6'
p1937
sg15
S''
sg16
S"You don't think we should invest in our culture?"
p1938
sbag1
(g10
g3
NtRp1939
(dp1940
g13
S'Say'
p1941
sg14
S'Politician6'
p1942
sg15
S''
sg16
S'We have more important things to spend our money on. Like military.'
p1943
sbag1
(g10
g3
NtRp1944
(dp1945
g13
S'PlayerSay'
p1946
sg14
S'Politician6'
p1947
sg15
S''
sg16
S'What if people want to paint pictures about our military. Or write patriotic songs?'
p1948
sbag1
(g10
g3
NtRp1949
(dp1950
g13
S'Say'
p1951
sg14
S'Politician6'
p1952
sg15
S''
sg16
S"I hadn't thought of that..."
p1953
sbag1
(g10
g3
NtRp1954
(dp1955
g13
S'Encounter'
p1956
sg14
S'Politician6'
p1957
sg15
S'P-med-10'
p1958
sg16
S''
sbag1
(g10
g3
NtRp1959
(dp1960
g13
S'Say'
p1961
sg14
S'Politician6'
p1962
sg15
S''
sg16
S"So, militaristic march songs and battle scenes aren't the only sort of art? Wow."
p1963
sbag1
(g10
g3
NtRp1964
(dp1965
g13
S'Increment'
p1966
sg14
S'Politician6'
p1967
sg15
S'POLITICIANSHAKEDOWN'
p1968
sg16
S''
sbag1
(g10
g3
NtRp1969
(dp1970
g13
S'Destroy'
p1971
sg14
S'Politician6'
p1972
sg15
S''
sg16
S''
sbasS'Journalist3'
p1973
(lp1974
g1
(g10
g3
NtRp1975
(dp1976
g13
S'Say'
p1977
sg14
g1973
sg15
S''
sg16
S'Mr President, Cal from Daily LOL magazine. Can you explain the transformation that occurred during the presidential debate.'
p1978
sbag1
(g10
g3
NtRp1979
(dp1980
g13
S'PlayerSay'
p1981
sg14
S'Journalist3'
p1982
sg15
S''
sg16
S'Certainly, Cal. The President of the Ignited States turned into an alien.'
p1983
sbag1
(g10
g3
NtRp1984
(dp1985
g13
S'Say'
p1986
sg14
S'Journalist3'
p1987
sg15
S''
sg16
S"Ah, you mean to say he's out-of-touch with his people?"
p1988
sbag1
(g10
g3
NtRp1989
(dp1990
g13
S'PlayerSay'
p1991
sg14
S'Journalist3'
p1992
sg15
S''
sg16
S'Not exactly...'
p1993
sbag1
(g10
g3
NtRp1994
(dp1995
g13
S'Encounter'
p1996
sg14
S'Journalist3'
p1997
sg15
S'P-hard-01'
p1998
sg16
S''
sbag1
(g10
g3
NtRp1999
(dp2000
g13
S'Say'
p2001
sg14
S'Journalist3'
p2002
sg15
S''
sg16
S'I...see...'
p2003
sbag1
(g10
g3
NtRp2004
(dp2005
g13
S'Increment'
p2006
sg14
S'Journalist3'
p2007
sg15
S'PRESSCONF'
p2008
sg16
S''
sbag1
(g10
g3
NtRp2009
(dp2010
g13
S'Destroy'
p2011
sg14
S'Journalist3'
p2012
sg15
S''
sg16
S''
sbasS'WarVet2'
p2013
(lp2014
g1
(g10
g3
NtRp2015
(dp2016
g13
S'RequireFlag'
p2017
sg14
g2013
sg15
S'AFTERWILFRED'
p2018
sg16
S'Eh? Speak up, boy.'
p2019
sbag1
(g10
g3
NtRp2020
(dp2021
g13
S'Encounter'
p2022
sg14
S'WarVet2'
p2023
sg15
S'P-hard-05'
p2024
sg16
S''
sbag1
(g10
g3
NtRp2025
(dp2026
g13
S'Say'
p2027
sg14
S'WarVet2'
p2028
sg15
S''
sg16
S"We'll head home, but you can expect us back if we see anything else suspicious ."
p2029
sbag1
(g10
g3
NtRp2030
(dp2031
g13
S'Increment'
p2032
sg14
S'WarVet2'
p2033
sg15
S'WARVETS'
p2034
sg16
S''
sbag1
(g10
g3
NtRp2035
(dp2036
g13
S'Destroy'
p2037
sg14
S'WarVet2'
p2038
sg15
S''
sg16
S''
sbasS'PA2'
p2039
(lp2040
g1
(g10
g3
NtRp2041
(dp2042
g13
S'Say'
p2043
sg14
g2039
sg15
S''
sg16
S"Welcome to the White House, President Mossman. It was a long campaign trail with a very strange final debate, but we won and we're here."
p2044
sbag1
(g10
g3
NtRp2045
(dp2046
g13
S'Say'
p2047
sg14
S'PA2'
p2048
sg15
S''
sg16
S'Now is the real test where we see how well we can run a country.'
p2049
sbag1
(g10
g3
NtRp2050
(dp2051
g13
S'Say'
p2052
sg14
S'PA2'
p2053
sg15
S''
sg16
S'The first step is to give your first press conference as President to explain the...situation...with President Alien *cough* I mean Allen.'
p2054
sbag1
(g10
g3
NtRp2055
(dp2056
g13
S'RequireCount'
p2057
sg14
S'PA2'
p2058
sg15
S'PRESSCONF:3'
p2059
sg16
S"They're waiting for you in the Press Room, Mr President."
p2060
sbag1
(g10
g3
NtRp2061
(dp2062
g13
S'Say'
p2063
sg14
S'PA2'
p2064
sg15
S''
sg16
S'I think that went as well as could be expected.'
p2065
sbag1
(g10
g3
NtRp2066
(dp2067
g13
S'Say'
p2068
sg14
S'PA2'
p2069
sg15
S''
sg16
S'Your secret service detail is waiting over here in the corridor to have a word with you about security protocol.'
p2070
sbag1
(g10
g3
NtRp2071
(dp2072
g13
S'RequireFlag'
p2073
sg14
S'PA2'
p2074
sg15
S'KAWALSKIJOIN'
p2075
sg16
S"You'd better speak to the secret service agent. Your security is paramount."
p2076
sbag1
(g10
g3
NtRp2077
(dp2078
g13
S'Say'
p2079
sg14
S'PA2'
p2080
sg15
S''
sg16
S"Some war veterans would like to speak to you about some recent decisions you've made. I don't dare turn them away. You'd better speak to them."
p2081
sbag1
(g10
g3
NtRp2082
(dp2083
g13
S'PlayerSay'
p2084
sg14
S'PA2'
p2085
sg15
S''
sg16
S'Of course.'
p2086
sbag1
(g10
g3
NtRp2087
(dp2088
g13
S'RequireCount'
p2089
sg14
S'PA2'
p2090
sg15
S'WARVETS:2'
p2091
sg16
S''
sbag1
(g10
g3
NtRp2092
(dp2093
g13
S'Say'
p2094
sg14
S'PA2'
p2095
sg15
S''
sg16
S'What was that about?'
p2096
sbag1
(g10
g3
NtRp2097
(dp2098
g13
S'PlayerSay'
p2099
sg14
S'PA2'
p2100
sg15
S''
sg16
S"I'd like to know as well. Find me the documents that approved troop movement today and get me a meeting with the Joint Chiefs."
p2101
sbag1
(g10
g3
NtRp2102
(dp2103
g13
S'Say'
p2104
sg14
S'PA2'
p2105
sg15
S''
sg16
S'Yessir.'
p2106
sbag1
(g10
g3
NtRp2107
(dp2108
g13
S'Say'
p2109
sg14
S'PA2'
p2110
sg15
S''
sg16
S"Your next meeting is with the teacher's in the corridor. They didn't give me the details, but it seems they're quite upset."
p2111
sbag1
(g10
g3
NtRp2112
(dp2113
g13
S'RequireCount'
p2114
sg14
S'PA2'
p2115
sg15
S'TEACHERS:2'
p2116
sg16
S"You'll need to speak to the teachers in the corridor, Mr President."
p2117
sbag1
(g10
g3
NtRp2118
(dp2119
g13
S'Say'
p2120
sg14
S'PA2'
p2121
sg15
S''
sg16
S'You seem to have sorted the teachers out.'
p2122
sbag1
(g10
g3
NtRp2123
(dp2124
g13
S'PlayerSay'
p2125
sg14
S'PA2'
p2126
sg15
S''
sg16
S"I've mollified them for now, but I want to get to the bottom of this - NOW!"
p2127
sbag1
(g10
g3
NtRp2128
(dp2129
g13
S'Say'
p2130
sg14
S'PA2'
p2131
sg15
S''
sg16
S'Of course, Mr President. I do have those papers you asked for that approved the mobilisation of troops'
p2132
sbag1
(g10
g3
NtRp2133
(dp2134
g13
S'PlayerSay'
p2135
sg14
S'PA2'
p2136
sg15
S''
sg16
S"Let me see those...this is my signature! But I didn't sign this!"
p2137
sbag1
(g10
g3
NtRp2138
(dp2139
g13
S'Say'
p2140
sg14
S'PA2'
p2141
sg15
S''
sg16
S'This is very serious! What should we do, sir?'
p2142
sbag1
(g10
g3
NtRp2143
(dp2144
g13
S'PlayerSay'
p2145
sg14
S'PA2'
p2146
sg15
S''
sg16
S'Call a cabinet meeting in the Mural Room. Immediately.'
p2147
sbag1
(g10
g3
NtRp2148
(dp2149
g13
S'Say'
p2150
sg14
S'PA2'
p2151
sg15
S''
sg16
S"Understood. They'll be there when you get there."
p2152
sbag1
(g10
g3
NtRp2153
(dp2154
g13
S'RequireCount'
p2155
sg14
S'PA2'
p2156
sg15
S'CABINETMEMBERS:3'
p2157
sg16
S'The cabinet is waiting for you in the Mural Room.'
p2158
sbag1
(g10
g3
NtRp2159
(dp2160
g13
S'RequireCount'
p2161
sg14
S'PA2'
p2162
sg15
S'JOINTCHIEFS:3'
p2163
sg16
S'Hello, Sir. The Joint Chiefs are waiting for you in your office.'
p2164
sbag1
(g10
g3
NtRp2165
(dp2166
g13
S'RequireCount'
p2167
sg14
S'PA2'
p2168
sg15
S'JOINTCHIEFS:3'
p2169
sg16
S'The Joint Chiefs are waiting in your office, Sir.'
p2170
sbag1
(g10
g3
NtRp2171
(dp2172
g13
S'RequireFlag'
p2173
sg14
S'PA2'
p2174
sg15
S'WIN'
p2175
sg16
S'Mr President, you have to put a stop to the supercomputer that will destroy the planet! You can access it in the Situation Room.'
p2176
sbag1
(g10
g3
NtRp2177
(dp2178
g13
S'Say'
p2179
sg14
S'PA2'
p2180
sg15
S''
sg16
S"You have saved the day! The world is safe and all over the Ignited States, our citizens can sleep safe knowing you're taking care of them."
p2181
sbag1
(g10
g3
NtRp2182
(dp2183
g13
S'RequireFlag'
p2184
sg14
S'PA2'
p2185
sg15
S'LOOP'
p2186
sg16
S'Goodnight, Mr President.'
p2187
sbasS'Journalist5'
p2188
(lp2189
g1
(g10
g3
NtRp2190
(dp2191
g13
S'Say'
p2192
sg14
g2188
sg15
S''
sg16
S'Do you feel that a bi-partisan relationship will be possible between your party and the opposition?'
p2193
sbag1
(g10
g3
NtRp2194
(dp2195
g13
S'PlayerSay'
p2196
sg14
S'Journalist5'
p2197
sg15
S''
sg16
S'I suppose once we find and remove all of the aliens and reverse the alien brainwashing, bi-partisanship will resume.'
p2198
sbag1
(g10
g3
NtRp2199
(dp2200
g13
S'Encounter'
p2201
sg14
S'Journalist5'
p2202
sg15
S'P-hard-03'
p2203
sg16
S''
sbag1
(g10
g3
NtRp2204
(dp2205
g13
S'Say'
p2206
sg14
S'Journalist5'
p2207
sg15
S''
sg16
S'Thankyou, President Mossman.'
p2208
sbag1
(g10
g3
NtRp2209
(dp2210
g13
S'Increment'
p2211
sg14
S'Journalist5'
p2212
sg15
S'PRESSCONF'
p2213
sg16
S''
sbag1
(g10
g3
NtRp2214
(dp2215
g13
S'Destroy'
p2216
sg14
S'Journalist5'
p2217
sg15
S''
sg16
S''
sbasS'Journalist2'
p2218
(lp2219
g1
(g10
g3
NtRp2220
(dp2221
g13
S'RequireFlag'
p2222
sg14
g2218
sg15
S'STARTHICKS2'
p2223
sg16
S'Governor Badden sends his Mayor lacky to do his dirty work \xe2\x80\x93 what a scoop!'
p2224
sbag1
(g10
g3
NtRp2225
(dp2226
g13
S'Encounter'
p2227
sg14
S'Journalist2'
p2228
sg15
S'P-med-05'
p2229
sg16
S''
sbag1
(g10
g3
NtRp2230
(dp2231
g13
S'Say'
p2232
sg14
S'Journalist2'
p2233
sg15
S''
sg16
S"I'm going back to write a comparison piece on you and Governor Badden. You should consider running for Governor."
p2234
sbag1
(g10
g3
NtRp2235
(dp2236
g13
S'Increment'
p2237
sg14
S'Journalist2'
p2238
sg15
S'DEALWITHHICKS'
p2239
sg16
S''
sbag1
(g10
g3
NtRp2240
(dp2241
g13
S'Destroy'
p2242
sg14
S'Journalist2'
p2243
sg15
S''
sg16
S''
sbasS'#P-med-24'
p2244
(lp2245
g1
(g10
g3
NtRp2246
(dp2247
g13
S'PresidentAlien'
p2248
sg14
g2244
sg15
S"You think you've beaten me, but now you're going to fight the real me!"
p2249
sg16
S''
sbag1
(g10
g3
NtRp2250
(dp2251
g13
S'Player'
p2252
sg14
S'#P-med-24'
p2253
sg15
S'I knew something was wrong, but this...?'
p2254
sg16
S''
sbag1
(g10
g3
NtRp2255
(dp2256
g13
S'PresidentAlien'
p2257
sg14
S'#P-med-24'
p2258
sg15
S"All you've done is caused me to expedite my plans to enslave the human race!"
p2259
sg16
S''
sbasS'TVPersonality'
p2260
(lp2261
g1
(g10
g3
NtRp2262
(dp2263
g13
S'RequireFlag'
p2264
sg14
g2260
sg15
S'STARTHERCULES'
p2265
sg16
S"Ooooh, sorry Mossman, baby! We're not ready for you yet."
p2266
sbag1
(g10
g3
NtRp2267
(dp2268
g13
S'Say'
p2269
sg14
S'TVPersonality'
p2270
sg15
S''
sg16
S"There's the man! Are you ready to cross wits with The Mighty Hercules!"
p2271
sbag1
(g10
g3
NtRp2272
(dp2273
g13
S'PlayerSay'
p2274
sg14
S'TVPersonality'
p2275
sg15
S''
sg16
S'I sure am!'
p2276
sbag1
(g10
g3
NtRp2277
(dp2278
g13
S'Say'
p2279
sg14
S'TVPersonality'
p2280
sg15
S''
sg16
S"Really...? You don't want to...see your make-up artist?"
p2281
sbag1
(g10
g3
NtRp2282
(dp2283
g13
S'PlayerSay'
p2284
sg14
S'TVPersonality'
p2285
sg15
S''
sg16
S"No, no, I'm really ready."
p2286
sbag1
(g10
g3
NtRp2287
(dp2288
g13
S'Say'
p2289
sg14
S'TVPersonality'
p2290
sg15
S''
sg16
S'Suit yourself...and from the looks of it, suiting yourself is exactly what you did...ew.'
p2291
sbag1
(g10
g3
NtRp2292
(dp2293
g13
S'Encounter'
p2294
sg14
S'TVPersonality'
p2295
sg15
S'P-med-20'
p2296
sg16
S''
sbag1
(g10
g3
NtRp2297
(dp2298
g13
S'Say'
p2299
sg14
S'TVPersonality'
p2300
sg15
S''
sg16
S"Good show, you sure gave me a run for my money, now beat it, you're making me look bad!"
p2301
sbag1
(g10
g3
NtRp2302
(dp2303
g13
S'SetFlag'
p2304
sg14
S'TVPersonality'
p2305
sg15
S'BEATHERCULES'
p2306
sg16
S''
sbag1
(g10
g3
NtRp2307
(dp2308
g13
S'Destroy'
p2309
sg14
S'TVPersonality'
p2310
sg15
S''
sg16
S''
sbasS'Politician4'
p2311
(lp2312
g1
(g10
g3
NtRp2313
(dp2314
g13
S'RequireFlag'
p2315
sg14
g2311
sg15
S'STARTPOLITICIANSHAKEDOWN'
p2316
sg16
S'Good morning, Governor Mossman. Your PA will know your schedule. He is waiting in your room.'
p2317
sbag1
(g10
g3
NtRp2318
(dp2319
g13
S'Say'
p2320
sg14
S'Politician4'
p2321
sg15
S''
sg16
S"I'm for culture! It's a glorious age we live in, we should further this great country's culture."
p2322
sbag1
(g10
g3
NtRp2323
(dp2324
g13
S'PlayerSay'
p2325
sg14
S'Politician4'
p2326
sg15
S''
sg16
S'That sounds fair, but what kind of culture would you like to focus on.'
p2327
sbag1
(g10
g3
NtRp2328
(dp2329
g13
S'Say'
p2330
sg14
S'Politician4'
p2331
sg15
S''
sg16
S"Oh...I don't know, I'm not really into art, can't really handle music. I'd rather not go to the theatre if I can get out of it. Don't really see the point of sport...hmmm. New culture?"
p2332
sbag1
(g10
g3
NtRp2333
(dp2334
g13
S'PlayerSay'
p2335
sg14
S'Politician4'
p2336
sg15
S''
sg16
S"You don't seem very in to improving culture really."
p2337
sbag1
(g10
g3
NtRp2338
(dp2339
g13
S'Say'
p2340
sg14
S'Politician4'
p2341
sg15
S''
sg16
S'Yeh, well...my wife said it would make me sound smart. I think sounding smart is important. Lets be for that!'
p2342
sbag1
(g10
g3
NtRp2343
(dp2344
g13
S'Encounter'
p2345
sg14
S'Politician4'
p2346
sg15
S'P-med-08'
p2347
sg16
S''
sbag1
(g10
g3
NtRp2348
(dp2349
g13
S'Say'
p2350
sg14
S'Politician4'
p2351
sg15
S''
sg16
S"Gee, you're a pretty smart guy. I think you've got this covered."
p2352
sbag1
(g10
g3
NtRp2353
(dp2354
g13
S'Increment'
p2355
sg14
S'Politician4'
p2356
sg15
S'POLITICIANSHAKEDOWN'
p2357
sg16
S''
sbag1
(g10
g3
NtRp2358
(dp2359
g13
S'Destroy'
p2360
sg14
S'Politician4'
p2361
sg15
S''
sg16
S''
sbasS'SouthWingDoor'
p2362
(lp2363
g1
(g10
g3
NtRp2364
(dp2365
g13
S'RequireItemMessage'
p2366
sg14
g2362
sg15
S'SOUTHWINGDOORKEY'
p2367
sg16
S'The door is appears to be locked'
p2368
sbag1
(g10
g3
NtRp2369
(dp2370
g13
S'Message'
p2371
sg14
S'SouthWingDoor'
p2372
sg15
S''
sg16
S"The door unlocks with a satisfying 'click'"
p2373
sbag1
(g10
g3
NtRp2374
(dp2375
g13
S'Destroy'
p2376
sg14
S'SouthWingDoor'
p2377
sg15
S''
sg16
S''
sbasS'Protester2'
p2378
(lp2379
g1
(g10
g3
NtRp2380
(dp2381
g13
S'Say'
p2382
sg14
g2378
sg15
S''
sg16
S"Bees buzz, Mayors lie, who's this Phillip Mossman guy?"
p2383
sbag1
(g10
g3
NtRp2384
(dp2385
g13
S'RequireFlag'
p2386
sg14
S'Protester2'
p2387
sg15
S'PROTESTORS'
p2388
sg16
S''
sbag1
(g10
g3
NtRp2389
(dp2390
g13
S'Encounter'
p2391
sg14
S'Protester2'
p2392
sg15
S'P-easy-03'
p2393
sg16
S''
sbag1
(g10
g3
NtRp2394
(dp2395
g13
S'Destroy'
p2396
sg14
S'Protester2'
p2397
sg15
S''
sg16
S''
sbasS'JointChief2'
p2398
(lp2399
g1
(g10
g3
NtRp2400
(dp2401
g13
S'PlayerSay'
p2402
sg14
g2398
sg15
S''
sg16
S'Who would have the power to do this? What would they stand to gain? Can we...'
p2403
sbag1
(g10
g3
NtRp2404
(dp2405
g13
S'Say'
p2406
sg14
S'JointChief2'
p2407
sg15
S''
sg16
S"I'm sorry, Sir. I've just learned that some ICBMs pointed at Russia have been activated \xe2\x80\x93 using your access codes! They could be fired at any moment!"
p2408
sbag1
(g10
g3
NtRp2409
(dp2410
g13
S'PlayerSay'
p2411
sg14
S'JointChief2'
p2412
sg15
S''
sg16
S"You've \xe2\x80\x9cjust learned\xe2\x80\x9d? Is this your doing?"
p2413
sbag1
(g10
g3
NtRp2414
(dp2415
g13
S'Encounter'
p2416
sg14
S'JointChief2'
p2417
sg15
S'P-hard-12'
p2418
sg16
S''
sbag1
(g10
g3
NtRp2419
(dp2420
g13
S'Increment'
p2421
sg14
S'JointChief2'
p2422
sg15
S'JOINTCHIEFS'
p2423
sg16
S''
sbag1
(g10
g3
NtRp2424
(dp2425
g13
S'PlayerSay'
p2426
sg14
S'JointChief2'
p2427
sg15
S''
sg16
S'I had to be sure.'
p2428
sbag1
(g10
g3
NtRp2429
(dp2430
g13
S'Destroy'
p2431
sg14
S'JointChief2'
p2432
sg15
S''
sg16
S''
sbasS'Protester1'
p2433
(lp2434
g1
(g10
g3
NtRp2435
(dp2436
g13
S'Say'
p2437
sg14
g2433
sg15
S''
sg16
S"Fee Fi Fo Fum, we think Mayor Goodman's Dumb!"
p2438
sbag1
(g10
g3
NtRp2439
(dp2440
g13
S'RequireFlag'
p2441
sg14
S'Protester1'
p2442
sg15
S'PROTESTORS'
p2443
sg16
S''
sbag1
(g10
g3
NtRp2444
(dp2445
g13
S'Encounter'
p2446
sg14
S'Protester1'
p2447
sg15
S'P-easy-02'
p2448
sg16
S''
sbag1
(g10
g3
NtRp2449
(dp2450
g13
S'Destroy'
p2451
sg14
S'Protester1'
p2452
sg15
S''
sg16
S''
sbasS'#----------------------------------------------------------------------------------------ACT 2 \xe2\x80\x93 Part 1---------------------------------------------------------------------------------------------------------------------------------------------------'
p2453
(lp2454
g1
(g10
g3
NtRp2455
(dp2456
g13
S''
sg14
g2453
sg15
S''
sg16
S''
sbasS'Head Protester'
p2457
(lp2458
g1
(g10
g3
NtRp2459
(dp2460
g13
S'Say'
p2461
sg14
g2457
sg15
S''
sg16
S"I am the head protester. You'll never convince us to back down!"
p2462
sbag1
(g10
g3
NtRp2463
(dp2464
g13
S'RequireFlag'
p2465
sg14
S'Head Protester'
p2466
sg15
S'PROTESTORS'
p2467
sg16
S''
sbag1
(g10
g3
NtRp2468
(dp2469
g13
S'PlayerSay'
p2470
sg14
S'Head Protester'
p2471
sg15
S''
sg16
S'What are you protesting?'
p2472
sbag1
(g10
g3
NtRp2473
(dp2474
g13
S'Say'
p2475
sg14
S'Head Protester'
p2476
sg15
S''
sg16
S'Er...Injustice!'
p2477
sbag1
(g10
g3
NtRp2478
(dp2479
g13
S'PlayerSay'
p2480
sg14
S'Head Protester'
p2481
sg15
S''
sg16
S'Injustice against what?'
p2482
sbag1
(g10
g3
NtRp2483
(dp2484
g13
S'Say'
p2485
sg14
S'Head Protester'
p2486
sg15
S''
sg16
S'...'
p2487
sbag1
(g10
g3
NtRp2488
(dp2489
g13
S'Say'
p2490
sg14
S'Head Protester'
p2491
sg15
S''
sg16
S'The People!'
p2492
sbag1
(g10
g3
NtRp2493
(dp2494
g13
S'PlayerSay'
p2495
sg14
S'Head Protester'
p2496
sg15
S''
sg16
S'Yes, but which people?'
p2497
sbag1
(g10
g3
NtRp2498
(dp2499
g13
S'Say'
p2500
sg14
S'Head Protester'
p2501
sg15
S''
sg16
S'See? What a fascist, ALL people you slimey politician scum!'
p2502
sbag1
(g10
g3
NtRp2503
(dp2504
g13
S'Encounter'
p2505
sg14
S'Head Protester'
p2506
sg15
S'P-easy-04'
p2507
sg16
S''
sbag1
(g10
g3
NtRp2508
(dp2509
g13
S'Say'
p2510
sg14
S'Head Protester'
p2511
sg15
S''
sg16
S"Alright, fine! We'll stop protesting...whatever we were protesting."
p2512
sbag1
(g10
g3
NtRp2513
(dp2514
g13
S'SetFlag'
p2515
sg14
S'Head Protester'
p2516
sg15
S'PROTESTORSDEAD'
p2517
sg16
S''
sbag1
(g10
g3
NtRp2518
(dp2519
g13
S'Destroy'
p2520
sg14
S'Head Protester'
p2521
sg15
S''
sg16
S''
sbasS'Sponsor'
p2522
(lp2523
g1
(g10
g3
NtRp2524
(dp2525
g13
S'RequireFlag'
p2526
sg14
g2522
sg15
S'STARTSPONSOR'
p2527
sg16
S"Hmmm...Money, money, money. Sorry, what? I wasn't talking to you."
p2528
sbag1
(g10
g3
NtRp2529
(dp2530
g13
S'Say'
p2531
sg14
S'Sponsor'
p2532
sg15
S''
sg16
S"Hello, I'm investigating new investments today. How can I help you?"
p2533
sbag1
(g10
g3
NtRp2534
(dp2535
g13
S'PlayerSay'
p2536
sg14
S'Sponsor'
p2537
sg15
S''
sg16
S"Well, I've decided to run for Mayor! I could really use an investor."
p2538
sbag1
(g10
g3
NtRp2539
(dp2540
g13
S'Say'
p2541
sg14
S'Sponsor'
p2542
sg15
S''
sg16
S"I don't know. You seem a little young. I don't think I'm convinced."
p2543
sbag1
(g10
g3
NtRp2544
(dp2545
g13
S'Encounter'
p2546
sg14
S'Sponsor'
p2547
sg15
S'P-easy-06'
p2548
sg16
S''
sbag1
(g10
g3
NtRp2549
(dp2550
g13
S'Say'
p2551
sg14
S'Sponsor'
p2552
sg15
S''
sg16
S"Wow! You sure have what it takes! Alright, he's a pile of cash!"
p2553
sbag1
(g10
g3
NtRp2554
(dp2555
g13
S'Say'
p2556
sg14
S'Sponsor'
p2557
sg15
S''
sg16
S'Also, now that you have some funds, you might find it useful to...grease the wheels in some difficult situations.'
p2558
sbag1
(g10
g3
NtRp2559
(dp2560
g13
S'LearnAttack'
p2561
sg14
S'Sponsor'
p2562
sg15
S'BRIBE'
p2563
sg16
S'Phillip and Sarah learn to Bribe'
p2564
sbag1
(g10
g3
NtRp2565
(dp2566
g13
S'LearnAttack'
p2567
sg14
S'Sponsor'
p2568
sg15
S'Wife:BRIBE'
p2569
sg16
S''
sbag1
(g10
g3
NtRp2570
(dp2571
g13
S'SetFlag'
p2572
sg14
S'Sponsor'
p2573
sg15
S'STARTCONSTITUENTS'
p2574
sg16
S''
sbag1
(g10
g3
NtRp2575
(dp2576
g13
S'PlayerSay'
p2577
sg14
S'Sponsor'
p2578
sg15
S''
sg16
S'Er, thanks! I suppose we should go gather some support from our constituents now.'
p2579
sbag1
(g10
g3
NtRp2580
(dp2581
g13
S'Say'
p2582
sg14
S'Sponsor'
p2583
sg15
S''
sg16
S"Makes sense to me! I'm off, too. Money, money, money."
p2584
sbag1
(g10
g3
NtRp2585
(dp2586
g13
S'Destroy'
p2587
sg14
S'Sponsor'
p2588
sg15
S''
sg16
S''
sbasS'CheatAct2P2'
p2589
(lp2590
g1
(g10
g3
NtRp2591
(dp2592
g13
S'AddAlly'
p2593
sg14
g2589
sg15
S'Wife:1'
p2594
sg16
S''
sbag1
(g10
g3
NtRp2595
(dp2596
g13
S'LearnAttack'
p2597
sg14
S'CheatAct2P2'
p2598
sg15
S'BRIBE'
p2599
sg16
S''
sbag1
(g10
g3
NtRp2600
(dp2601
g13
S'LearnAttack'
p2602
sg14
S'CheatAct2P2'
p2603
sg15
S'Wife:BRIBE'
p2604
sg16
S''
sbag1
(g10
g3
NtRp2605
(dp2606
g13
S'LearnAttack'
p2607
sg14
S'CheatAct2P2'
p2608
sg15
S'SLANDER'
p2609
sg16
S''
sbag1
(g10
g3
NtRp2610
(dp2611
g13
S'AddAlly'
p2612
sg14
S'CheatAct2P2'
p2613
sg15
S'Leo:1'
p2614
sg16
S''
sbag1
(g10
g3
NtRp2615
(dp2616
g13
S'GotoMap'
p2617
sg14
S'CheatAct2P2'
p2618
sg15
S'hotel_l1'
p2619
sg16
S''
sbasS'StairsToBasement'
p2620
(lp2621
g1
(g10
g3
NtRp2622
(dp2623
g13
S'Label'
p2624
sg14
g2620
sg15
S'START'
p2625
sg16
S''
sbag1
(g10
g3
NtRp2626
(dp2627
g13
S'GotoMap'
p2628
sg14
S'StairsToBasement'
p2629
sg15
S'hotel_basement'
p2630
sg16
S''
sbag1
(g10
g3
NtRp2631
(dp2632
g13
S'Reset'
p2633
sg14
S'StairsToBasement'
p2634
sg15
S'START'
p2635
sg16
S''
sbasS'P-med-12'
p2636
(lp2637
g1
(g10
g3
NtRp2638
(dp2639
g13
S'Say'
p2640
sg14
g2636
sg15
S'Lobbyist001'
p2641
sg16
S'import combat'
p2642
sbasS'Lobbyist3'
p2643
(lp2644
g1
(g10
g3
NtRp2645
(dp2646
g13
S'RequireFlag'
p2647
sg14
g2643
sg15
S'STARTLOBBYISTS'
p2648
sg16
S'Mutter, mutter'
p2649
sbag1
(g10
g3
NtRp2650
(dp2651
g13
S'Say'
p2652
sg14
S'Lobbyist3'
p2653
sg15
S''
sg16
S'Protection of internet memes'
p2654
sbag1
(g10
g3
NtRp2655
(dp2656
g13
S'Encounter'
p2657
sg14
S'Lobbyist3'
p2658
sg15
S'P-med-13'
p2659
sg16
S''
sbag1
(g10
g3
NtRp2660
(dp2661
g13
S'Increment'
p2662
sg14
S'Lobbyist3'
p2663
sg15
S'LOBBYISTS'
p2664
sg16
S''
sbag1
(g10
g3
NtRp2665
(dp2666
g13
S'Say'
p2667
sg14
S'Lobbyist3'
p2668
sg15
S''
sg16
S"It's a start."
p2669
sbag1
(g10
g3
NtRp2670
(dp2671
g13
S'Destroy'
p2672
sg14
S'Lobbyist3'
p2673
sg15
S''
sg16
S''
sbasS'Mayor'
p2674
(lp2675
g1
(g10
g3
NtRp2676
(dp2677
g13
S'Say'
p2678
sg14
g2674
sg15
S''
sg16
S"Hello, I'm the Mayor!"
p2679
sbag1
(g10
g3
NtRp2680
(dp2681
g13
S'PlayerSay'
p2682
sg14
S'Mayor'
p2683
sg15
S''
sg16
S"Hello, Mayor Goodman, I'm Philip Mossman."
p2684
sbag1
(g10
g3
NtRp2685
(dp2686
g13
S'Say'
p2687
sg14
S'Mayor'
p2688
sg15
S''
sg16
S"Ah yes, you're my new assistant. A good thing, too."
p2689
sbag1
(g10
g3
NtRp2690
(dp2691
g13
S'Say'
p2692
sg14
S'Mayor'
p2693
sg15
S''
sg16
S"I've been searching for minutes and haven't been able to find my pen! I bet my receptionist stole it. She has sticky fingers."
p2694
sbag1
(g10
g3
NtRp2695
(dp2696
g13
S'Say'
p2697
sg14
S'Mayor'
p2698
sg15
S''
sg16
S"Well, don't just stand there, go and get it!"
p2699
sbag1
(g10
g3
NtRp2700
(dp2701
g13
S'SetFlag'
p2702
sg14
S'Mayor'
p2703
sg15
S'PENQUEST'
p2704
sg16
S''
sbag1
(g10
g3
NtRp2705
(dp2706
g13
S'RequireItem'
p2707
sg14
S'Mayor'
p2708
sg15
S'PEN'
p2709
sg16
S'Are you simple? Go and get my pen from that thieving receptionist.'
p2710
sbag1
(g10
g3
NtRp2711
(dp2712
g13
S'Say'
p2713
sg14
S'Mayor'
p2714
sg15
S''
sg16
S"Great! I know she can give you a bit of a tongue-lashing, but she's a fantastic receptionist."
p2715
sbag1
(g10
g3
NtRp2716
(dp2717
g13
S'Say'
p2718
sg14
S'Mayor'
p2719
sg15
S''
sg16
S"I'm sure you want to learn a thing or two about politics \xe2\x80\x93 who doesn't? - so lets get started"
p2720
sbag1
(g10
g3
NtRp2721
(dp2722
g13
S'SetFlag'
p2723
sg14
S'Mayor'
p2724
sg15
S'PROTESTORS'
p2725
sg16
S''
sbag1
(g10
g3
NtRp2726
(dp2727
g13
S'RequireFlag'
p2728
sg14
S'Mayor'
p2729
sg15
S'PROTESTORSDEAD'
p2730
sg16
S'Run outside and tell those protesters to scram, will you?'
p2731
sbag1
(g10
g3
NtRp2732
(dp2733
g13
S'Say'
p2734
sg14
S'Mayor'
p2735
sg15
S''
sg16
S"Hope they didn't give you too much trouble!"
p2736
sbag1
(g10
g3
NtRp2737
(dp2738
g13
S'Say'
p2739
sg14
S'Mayor'
p2740
sg15
S''
sg16
S"Now that's sorted, there's a journalist from the local newspaper coming for an interview."
p2741
sbag1
(g10
g3
NtRp2742
(dp2743
g13
S'Say'
p2744
sg14
S'Mayor'
p2745
sg15
S''
sg16
S"I certainly don't have time for it, so you can do the interview."
p2746
sbag1
(g10
g3
NtRp2747
(dp2748
g13
S'Say'
p2749
sg14
S'Mayor'
p2750
sg15
S''
sg16
S"Be careful not to give too much away and if you could throw a few punches at the opposition that'd help."
p2751
sbag1
(g10
g3
NtRp2752
(dp2753
g13
S'PlayerSay'
p2754
sg14
S'Mayor'
p2755
sg15
S''
sg16
S'You want me to...throw a punch?'
p2756
sbag1
(g10
g3
NtRp2757
(dp2758
g13
S'Say'
p2759
sg14
S'Mayor'
p2760
sg15
S''
sg16
S"You're in politics and don't know how to fight dirty? Sheesh! Here, let me show you."
p2761
sbag1
(g10
g3
NtRp2762
(dp2763
g13
S'LearnAttack'
p2764
sg14
S'Mayor'
p2765
sg15
S'SLANDER'
p2766
sg16
S'Mayor teaches Phillip to Slander Opposition'
p2767
sbag1
(g10
g3
NtRp2768
(dp2769
g13
S'Say'
p2770
sg14
S'Mayor'
p2771
sg15
S''
sg16
S"It's a pretty great tactic because it keeps eating away at them long after you've done it."
p2772
sbag1
(g10
g3
NtRp2773
(dp2774
g13
S'SetFlag'
p2775
sg14
S'Mayor'
p2776
sg15
S'INTERVIEWSTART'
p2777
sg16
S''
sbag1
(g10
g3
NtRp2778
(dp2779
g13
S'RequireFlag'
p2780
sg14
S'Mayor'
p2781
sg15
S'JOURNALISTINTERVIEW'
p2782
sg16
S'Go handle that interview and remember to slander the opposition.'
p2783
sbag1
(g10
g3
NtRp2784
(dp2785
g13
S'SetFlag'
p2786
sg14
S'Mayor'
p2787
sg15
S'GOHOMETOWIFE'
p2788
sg16
S''
sbag1
(g10
g3
NtRp2789
(dp2790
g13
S'Say'
p2791
sg14
S'Mayor'
p2792
sg15
S''
sg16
S'OK, fine, now could you buzz off for a while? I need to get some work done.'
p2793
sbag1
(g10
g3
NtRp2794
(dp2795
g13
S'RequireFlag'
p2796
sg14
S'Mayor'
p2797
sg15
S'CONSTITUENTSWON'
p2798
sg16
S"Go home to your family. I have things to do that don't involve you."
p2799
sbag1
(g10
g3
NtRp2800
(dp2801
g13
S'Say'
p2802
sg14
S'Mayor'
p2803
sg15
S''
sg16
S"What's this I hear about you campaigning for Mayor? After everything I've taught you!"
p2804
sbag1
(g10
g3
NtRp2805
(dp2806
g13
S'PlayerSay'
p2807
sg14
S'Mayor'
p2808
sg15
S''
sg16
S"I'm sorry Mayor Goodman, but it's time for someone who's ready to make a difference for our town."
p2809
sbag1
(g10
g3
NtRp2810
(dp2811
g13
S'Say'
p2812
sg14
S'Mayor'
p2813
sg15
S''
sg16
S"You really are a fool. Do you think He's going to allow that?"
p2814
sbag1
(g10
g3
NtRp2815
(dp2816
g13
S'Encounter'
p2817
sg14
S'Mayor'
p2818
sg15
S'P-easy-10'
p2819
sg16
S''
sbag1
(g10
g3
NtRp2820
(dp2821
g13
S'Say'
p2822
sg14
S'Mayor'
p2823
sg15
S''
sg16
S"Well, you've beaten me but you don't have a clue what you're in for. I hope you're up to this kid!"
p2824
sbag1
(g10
g3
NtRp2825
(dp2826
g13
S'Destroy'
p2827
sg14
S'Mayor'
p2828
sg15
S''
sg16
S''
sbasS'StairsToL2'
p2829
(lp2830
g1
(g10
g3
NtRp2831
(dp2832
g13
S'Label'
p2833
sg14
g2829
sg15
S'START'
p2834
sg16
S''
sbag1
(g10
g3
NtRp2835
(dp2836
g13
S'GotoMap'
p2837
sg14
S'StairsToL2'
p2838
sg15
S'hotel_l2'
p2839
sg16
S''
sbag1
(g10
g3
NtRp2840
(dp2841
g13
S'Reset'
p2842
sg14
S'StairsToL2'
p2843
sg15
S'START'
p2844
sg16
S''
sbassS'attacks'
p2845
(dp2846
S'GETEXCLUSIVE'
p2847
g1
(g10
g3
NtRp2848
(dp2849
S'base_damage_max'
p2850
F8
sS'description'
p2851
S'asdf'
p2852
sS'weight'
p2853
I1
sS'crit_chance_max'
p2854
F5
sS'crit_chance_min'
p2855
F2
sS'underlying_stat'
p2856
S'Wit'
p2857
sS'target_type'
p2858
S'AllFriendly'
p2859
sS'base_damage_min'
p2860
F4
sS'spin_cost'
p2861
F5
sS'effects'
p2862
(lp2863
g1
(c__main__
Effect
p2864
g3
NtRp2865
(dp2866
S'function'
p2867
S'add'
p2868
sS'abbrv'
p2869
S'(INCREASE)'
p2870
sS'attribute'
p2871
S'cunning'
p2872
sS'value'
p2873
F2
sS'rounds_min'
p2874
F1
sS'rounds_max'
p2875
F4
sS'id'
p2876
S'Increase Cunning'
p2877
sS'apply_to_source'
p2878
S'TRUE'
p2879
sbasS'target_count'
p2880
I1
sS'crit_base_damage'
p2881
F12
sg2876
g2847
sS'name'
p2882
S'Get Exclusive'
p2883
sbsS'LOSELOSE'
p2884
g1
(g10
g3
NtRp2885
(dp2886
g2850
F4
sg2851
S'Causes all politicians in the target radius to lose votes'
p2887
sg2853
I1
sg2854
F0
sg2855
F0
sg2856
S'Cunning'
p2888
sg2858
S'All'
p2889
sg2860
F4
sg2861
I0
sg2862
(lp2890
sg2880
I6
sg2881
F0
sg2876
g2884
sg2882
S'Lose/lose issue'
p2891
sbsS'LIE'
p2892
g1
(g10
g3
NtRp2893
(dp2894
g2850
F9
sg2851
S"It's only lying if they catch you. A strong attack with a danger of critically failing"
p2895
sg2853
F3
sg2854
F10
sg2855
F5
sg2856
S'Cunning'
p2896
sg2858
S'AllEnemy'
p2897
sg2860
F0
sg2861
I0
sg2862
(lp2898
g1
(g2864
g3
NtRp2899
(dp2900
g2867
S'miss_turn'
p2901
sg2869
S'(MISS)'
p2902
sg2871
S''
sg2873
F0
sg2874
F1
sg2875
F1
sg2876
S'Critical Fail'
p2903
sg2878
S'TRUE'
p2904
sbasg2880
I1
sg2881
F10
sg2876
g2892
sg2882
S'Lie'
p2905
sbsS'HILARIOUSANECDOTE'
p2906
g1
(g10
g3
NtRp2907
(dp2908
g2850
F8
sg2851
S'asdf'
p2909
sg2853
I1
sg2854
F5
sg2855
F2
sg2856
S'Wit'
p2910
sg2858
S'AllFriendly'
p2911
sg2860
F4
sg2861
F5
sg2862
(lp2912
g1
(g2864
g3
NtRp2913
(dp2914
g2867
S'add'
p2915
sg2869
S'(INCREASE)'
p2916
sg2871
S'flair'
p2917
sg2873
F2
sg2874
F1
sg2875
F4
sg2876
S'Increase Flair'
p2918
sg2878
S'TRUE'
p2919
sbasg2880
I1
sg2881
F11
sg2876
g2906
sg2882
S'Hilarious Anecdote'
p2920
sbsS'SENSATIONALISE'
p2921
g1
(g10
g3
NtRp2922
(dp2923
g2850
F8
sg2851
S'asdf'
p2924
sg2853
I1
sg2854
F0
sg2855
F0
sg2856
S'Wit'
p2925
sg2858
S'AllEnemy'
p2926
sg2860
F4
sg2861
F3
sg2862
(lp2927
sg2880
I1
sg2881
F0
sg2876
g2921
sg2882
S'Sensationalise'
p2928
sbsS'DENOUNCE'
p2929
g1
(g10
g3
NtRp2930
(dp2931
g2850
F5
sg2851
S'asdf'
p2932
sg2853
F6
sg2854
F10
sg2855
F2
sg2856
S'Cunning'
p2933
sg2858
S'AllEnemy'
p2934
sg2860
F2
sg2861
I0
sg2862
(lp2935
sg2880
I1
sg2881
F8
sg2876
g2929
sg2882
S'Denounce'
p2936
sbsS'WHADOWEWANT'
p2937
g1
(g10
g3
NtRp2938
(dp2939
g2850
F6
sg2851
S'asdf'
p2940
sg2853
I1
sg2854
F0
sg2855
F0
sg2856
S'Cunning'
p2941
sg2858
S'AllEnemy'
p2942
sg2860
F3
sg2861
I0
sg2862
(lp2943
sg2880
I1
sg2881
F0
sg2876
g2937
sg2882
S'Whadowewant!'
p2944
sbsS'SCOOP'
p2945
g1
(g10
g3
NtRp2946
(dp2947
g2850
F5
sg2851
S'asdf'
p2948
sg2853
I1
sg2854
F10
sg2855
F5
sg2856
S'Cunning'
p2949
sg2858
S'AllEnemy'
p2950
sg2860
F2
sg2861
I0
sg2862
(lp2951
sg2880
I1
sg2881
F8
sg2876
g2945
sg2882
S'Scoop'
p2952
sbsS'CHOOSETARGETS'
p2953
g1
(g10
g3
NtRp2954
(dp2955
g2850
F7
sg2851
S'asdf'
p2956
sg2853
I1
sg2854
F10
sg2855
F5
sg2856
S'Cunning'
p2957
sg2858
S'AllEnemy'
p2958
sg2860
F2
sg2861
I0
sg2862
(lp2959
sg2880
I1
sg2881
F9
sg2876
g2953
sg2882
S'Choose Targets'
p2960
sbsS'FILENAILS'
p2961
g1
(g10
g3
NtRp2962
(dp2963
g2850
F0
sg2851
S'asdf'
p2964
sg2853
I1
sg2854
F0
sg2855
F0
sg2856
S'Wit'
p2965
sg2858
S'AllEnemy'
p2966
sg2860
F0
sg2861
F3
sg2862
(lp2967
g1
(g2864
g3
NtRp2968
(dp2969
g2867
S'add_permanent'
p2970
sg2869
S''
sg2871
S'votes'
p2971
sg2873
F5
sg2874
F1
sg2875
F1
sg2876
S'Votes Restore'
p2972
sg2878
S'TRUE'
p2973
sbasg2880
I1
sg2881
F0
sg2876
g2961
sg2882
S'File Nails'
p2974
sbsS'BRIBE'
p2975
g1
(g10
g3
NtRp2976
(dp2977
g2850
F10
sg2851
S'Is there anything more convincing than money? Buying loyalty gets expensive so be careful.'
p2978
sg2853
I1
sg2854
F0
sg2855
F0
sg2856
S'Money'
p2979
sg2858
S'AllEnemy'
p2980
sg2860
F4
sg2861
I0
sg2862
(lp2981
sg2880
I1
sg2881
F0
sg2876
g2975
sg2882
S'Bribe'
p2982
sbsS'SING'
p2983
g1
(g10
g3
NtRp2984
(dp2985
g2850
F-3
sg2851
S'Why bandy words with politicians when you can sing a catchy tune! Restores votes.'
p2986
sg2853
I1
sg2854
F0
sg2855
F0
sg2856
S'Cunning'
p2987
sg2858
S'AllFriendly'
p2988
sg2860
F-5
sg2861
I0
sg2862
(lp2989
sg2880
I4
sg2881
F0
sg2876
g2983
sg2882
S'Rousing Song'
p2990
sbsS'FEAR'
p2991
g1
(g10
g3
NtRp2992
(dp2993
g2850
F0
sg2851
S'asdf'
p2994
sg2853
F2
sg2854
F0
sg2855
F0
sg2856
S'Wit'
p2995
sg2858
S'AllFriendly'
p2996
sg2860
F0
sg2861
F4
sg2862
(lp2997
g2865
asg2880
I1
sg2881
F0
sg2876
g2991
sg2882
S'Fear Change'
p2998
sbsS'RAISEDEFCON'
p2999
g1
(g10
g3
NtRp3000
(dp3001
g2850
F5
sg2851
S'asdf'
p3002
sg2853
I1
sg2854
F7
sg2855
F3
sg2856
S'Cunning'
p3003
sg2858
S'AllEnemy'
p3004
sg2860
F4
sg2861
I0
sg2862
(lp3005
sg2880
I1
sg2881
F8
sg2876
g2999
sg2882
S'Raise DEFCON'
p3006
sbsS'NEGATTACKAD'
p3007
g1
(g10
g3
NtRp3008
(dp3009
g2850
F8
sg2851
S"Take them all down. They're definitely all bad people. Not like you."
p3010
sg2853
I1
sg2854
F10
sg2855
F10
sg2856
S'Wit'
p3011
sg2858
S'AllEnemy'
p3012
sg2860
F3
sg2861
F5
sg2862
(lp3013
sg2880
I1
sg2881
F10
sg2876
g3007
sg2882
S'Negative Attack Ad'
p3014
sbsS'DAZZLE'
p3015
g1
(g10
g3
NtRp3016
(dp3017
g2850
F6
sg2851
S'Being dazzling and admirable is a great way to take heat off politics'
p3018
sg2853
I1
sg2854
F8
sg2855
F5
sg2856
S'Wit'
p3019
sg2858
S'AllEnemy'
p3020
sg2860
F3
sg2861
F3
sg2862
(lp3021
g1
(g2864
g3
NtRp3022
(dp3023
g2867
S'reduce'
p3024
sg2869
S'(REDUCE)'
p3025
sg2871
S'cunning'
p3026
sg2873
F2
sg2874
F2
sg2875
F5
sg2876
S'Reduce Cunning'
p3027
sg2878
S''
sbasg2880
I4
sg2881
F8
sg2876
g3015
sg2882
S'Dazzle'
p3028
sbsS'BELIEVEMEDIA'
p3029
g1
(g10
g3
NtRp3030
(dp3031
g2850
F3
sg2851
S'asdf'
p3032
sg2853
I1
sg2854
F15
sg2855
F10
sg2856
S'Cunning'
p3033
sg2858
S'AllEnemy'
p3034
sg2860
F1
sg2861
I0
sg2862
(lp3035
sg2880
I1
sg2881
F12
sg2876
g3029
sg2882
S'Believe Media'
p3036
sbsS'PRPREP'
p3037
g1
(g10
g3
NtRp3038
(dp3039
g2850
F0
sg2851
S"If you're going to need some spin, best see a spin doctor! Adds spin points."
p3040
sg2853
I1
sg2854
F0
sg2855
F0
sg2856
S''
sg2858
S'AllFriendly'
p3041
sg2860
F0
sg2861
I0
sg2862
(lp3042
g1
(g2864
g3
NtRp3043
(dp3044
g2867
S'add_permanent'
p3045
sg2869
S''
sg2871
S'spin'
p3046
sg2873
F5
sg2874
F0
sg2875
F0
sg2876
S'Spin Restore'
p3047
sg2878
S'TRUE'
p3048
sbasg2880
I1
sg2881
F0
sg2876
g3037
sg2882
S'PR Prep'
p3049
sbsS'CALLVATICAN'
p3050
g1
(g10
g3
NtRp3051
(dp3052
g2850
F0
sg2851
S'Brings in 2 additional ReligousNuts at 2 levels lower than this one'
p3053
sg2853
I1
sg2854
F0
sg2855
F0
sg2856
S'Wit'
p3054
sg2858
S'None'
p3055
sg2860
F0
sg2861
F5
sg2862
(lp3056
g1
(g2864
g3
NtRp3057
(dp3058
g2867
S'call_friends'
p3059
sg2869
S''
sg2871
S'ReligiousNut001:1'
p3060
sg2873
F2
sg2874
F1
sg2875
F1
sg2876
S'Call Friends'
p3061
sg2878
S''
sbasg2880
I1
sg2881
F0
sg2876
g3050
sg2882
S'Call Battycan'
p3062
sbsS'BLACKMAIL'
p3063
g1
(g10
g3
NtRp3064
(dp3065
g2850
F6
sg2851
S'asdf'
p3066
sg2853
I1
sg2854
F10
sg2855
F2
sg2856
S'Wit'
p3067
sg2858
S'AllEnemy'
p3068
sg2860
F3
sg2861
F4
sg2862
(lp3069
g1
(g2864
g3
NtRp3070
(dp3071
g2867
S'drain'
p3072
sg2869
S'(DRAIN)'
p3073
sg2871
S'votes'
p3074
sg2873
F1
sg2874
F2
sg2875
F5
sg2876
S'Drain Votes'
p3075
sg2878
S''
sbasg2880
I1
sg2881
F2
sg2876
g3063
sg2882
S'Blackmail'
p3076
sbsS'SCARE'
p3077
g1
(g10
g3
NtRp3078
(dp3079
g2850
F7
sg2851
S'Nothing rattles the brains like fear.'
p3080
sg2853
I1
sg2854
F10
sg2855
F2
sg2856
S'Cunning'
p3081
sg2858
S'AllEnemy'
p3082
sg2860
F2
sg2861
I0
sg2862
(lp3083
g3022
asg2880
I2
sg2881
F9
sg2876
g3077
sg2882
S'Scare Campaign'
p3084
sbsS'PROTEST'
p3085
g1
(g10
g3
NtRp3086
(dp3087
g2850
F5
sg2851
S'asdf'
p3088
sg2853
F6
sg2854
F10
sg2855
F2
sg2856
S'Cunning'
p3089
sg2858
S'AllEnemy'
p3090
sg2860
F2
sg2861
I0
sg2862
(lp3091
sg2880
I1
sg2881
F8
sg2876
g3085
sg2882
S'Protest'
p3092
sbsS'SPREADRUMOUR'
p3093
g1
(g10
g3
NtRp3094
(dp3095
g2850
F8
sg2851
S'asdf'
p3096
sg2853
I1
sg2854
F10
sg2855
F2
sg2856
S'Wit'
p3097
sg2858
S'AllEnemy'
p3098
sg2860
F3
sg2861
F3
sg2862
(lp3099
sg2880
I4
sg2881
F10
sg2876
g3093
sg2882
S'Spread Rumour'
p3100
sbsS'AGENDA'
p3101
g1
(g10
g3
NtRp3102
(dp3103
g2850
F5
sg2851
S'asdf'
p3104
sg2853
F6
sg2854
F10
sg2855
F2
sg2856
S'Cunning'
p3105
sg2858
S'AllEnemy'
p3106
sg2860
F2
sg2861
I0
sg2862
(lp3107
sg2880
I1
sg2881
F8
sg2876
g3101
sg2882
S'Push Agenda'
p3108
sbsS'FILIBUSTER'
p3109
g1
(g10
g3
NtRp3110
(dp3111
g2850
F6
sg2851
S"You're not moving until they give in. Cause all opposition to miss their turn"
p3112
sg2853
I1
sg2854
F0
sg2855
F0
sg2856
S'Wit'
p3113
sg2858
S'AllEnemy'
p3114
sg2860
F3
sg2861
F8
sg2862
(lp3115
g1
(g2864
g3
NtRp3116
(dp3117
g2867
S'miss_turn'
p3118
sg2869
S'(MISS)'
p3119
sg2871
S''
sg2873
F0
sg2874
F1
sg2875
F1
sg2876
S'Miss Turn'
p3120
sg2878
S''
sbasg2880
I1
sg2881
F0
sg2876
g3109
sg2882
S'Filibuster'
p3121
sbsS'GATHERINTEL'
p3122
g1
(g10
g3
NtRp3123
(dp3124
g2850
F0
sg2851
S'Increases Cunning.'
p3125
sg2853
I1
sg2854
F0
sg2855
F0
sg2856
S'Wit'
p3126
sg2858
S'AllFriendly'
p3127
sg2860
F0
sg2861
F3
sg2862
(lp3128
g2865
asg2880
I2
sg2881
F0
sg2876
g3122
sg2882
S'Gather Intelligence'
p3129
sbsS'LOVE'
p3130
g1
(g10
g3
NtRp3131
(dp3132
g2850
F6
sg2851
S'asdf'
p3133
sg2853
F2
sg2854
F8
sg2855
F2
sg2856
S'Cunning'
p3134
sg2858
S'AllEnemy'
p3135
sg2860
F1
sg2861
I0
sg2862
(lp3136
sg2880
I1
sg2881
F7
sg2876
g3130
sg2882
S'Love'
p3137
sbsS'OUTOFCONTEXT'
p3138
g1
(g10
g3
NtRp3139
(dp3140
g2850
F5
sg2851
S'asdf'
p3141
sg2853
I1
sg2854
F5
sg2855
F2
sg2856
S'Wit'
p3142
sg2858
S'AllEnemy'
p3143
sg2860
F3
sg2861
F2
sg2862
(lp3144
g3070
asg2880
I1
sg2881
F5
sg2876
g3138
sg2882
S'Take Out Of Context'
p3145
sbsS'GREATSUIT'
p3146
g1
(g10
g3
NtRp3147
(dp3148
g2850
F6
sg2851
S'Well, we could argue, but have you noticed how fabulous this suit is?'
p3149
sg2853
I1
sg2854
F11
sg2855
F6
sg2856
S'Cunning'
p3150
sg2858
S'AllEnemy'
p3151
sg2860
F3
sg2861
I0
sg2862
(lp3152
sg2880
I1
sg2881
F10
sg2876
g3146
sg2882
S'Look Great In Suit'
p3153
sbsS'PEACE'
p3154
g1
(g10
g3
NtRp3155
(dp3156
g2850
F0
sg2851
S'asdf'
p3157
sg2853
I1
sg2854
F0
sg2855
F0
sg2856
S'Wit'
p3158
sg2858
S'AllEnemy'
p3159
sg2860
F0
sg2861
F3
sg2862
(lp3160
g3022
asg2880
I4
sg2881
F0
sg2876
g3154
sg2882
S'Peace'
p3161
sbsS'INSPSPEECH'
p3162
g1
(g10
g3
NtRp3163
(dp3164
g2850
F-2
sg2851
S'Restore votes to all party members'
p3165
sg2853
I1
sg2854
F0
sg2855
F0
sg2856
S'Cunning'
p3166
sg2858
S'AllFriendly'
p3167
sg2860
F-2
sg2861
I0
sg2862
(lp3168
sg2880
I4
sg2881
F0
sg2876
g3162
sg2882
S'Inspirational Speech'
p3169
sbsS'RALLYENEMY'
p3170
g1
(g10
g3
NtRp3171
(dp3172
g2850
F0
sg2851
S'Get back some votes by rallying supporters'
p3173
sg2853
I1
sg2854
F0
sg2855
F0
sg2856
S'Wit'
p3174
sg2858
S'AllFriendly'
p3175
sg2860
F0
sg2861
F3
sg2862
(lp3176
g1
(g2864
g3
NtRp3177
(dp3178
g2867
S'add_permanent'
p3179
sg2869
S''
sg2871
S'votes'
p3180
sg2873
F8
sg2874
F1
sg2875
F1
sg2876
S'Votes Restore Rally Enemy'
p3181
sg2878
S''
sbasg2880
I1
sg2881
F0
sg2876
g3170
sg2882
S'Rally Constituents'
p3182
sbsS'STRIKE'
p3183
g1
(g10
g3
NtRp3184
(dp3185
g2850
F10
sg2851
S'asdf'
p3186
sg2853
I1
sg2854
F0
sg2855
F0
sg2856
S'Wit'
p3187
sg2858
S'AllEnemy'
p3188
sg2860
F0
sg2861
F3
sg2862
(lp3189
g2899
asg2880
I1
sg2881
F0
sg2876
g3183
sg2882
S'Call A Strike'
p3190
sbsS'SLANDER'
p3191
g1
(g10
g3
NtRp3192
(dp3193
g2850
F5
sg2851
S'Strong against polititians...careful with those voters, though!'
p3194
sg2853
F4
sg2854
F10
sg2855
F2
sg2856
S'Cunning'
p3195
sg2858
S'AllEnemy'
p3196
sg2860
F3
sg2861
I0
sg2862
(lp3197
g3070
asg2880
I1
sg2881
F7
sg2876
g3191
sg2882
S'Slander Opposition'
p3198
sbsS'NATTER'
p3199
g1
(g10
g3
NtRp3200
(dp3201
g2850
F8
sg2851
S'asdf'
p3202
sg2853
I1
sg2854
F15
sg2855
F5
sg2856
S'Cunning'
p3203
sg2858
S'AllEnemy'
p3204
sg2860
F1
sg2861
I0
sg2862
(lp3205
sg2880
I1
sg2881
F10
sg2876
g3199
sg2882
S'Natter On'
p3206
sbsS'GOSSIP'
p3207
g1
(g10
g3
NtRp3208
(dp3209
g2850
F3
sg2851
S'asdf'
p3210
sg2853
I1
sg2854
F10
sg2855
F2
sg2856
S'Wit'
p3211
sg2858
S'AllEnemy'
p3212
sg2860
F2
sg2861
F2
sg2862
(lp3213
g3022
asg2880
I1
sg2881
F6
sg2876
g3207
sg2882
S'Gossip'
p3214
sbsS'MISSTURN'
p3215
g1
(g10
g3
NtRp3216
(dp3217
g2850
F0
sg2851
S'asdf'
p3218
sg2853
I1
sg2854
F0
sg2855
F0
sg2856
S''
sg2858
S'AllEnemy'
p3219
sg2860
F0
sg2861
I0
sg2862
(lp3220
sg2880
I1
sg2881
F0
sg2876
g3215
sg2882
S'Miss Turn'
p3221
sbsS'BIELECTION'
p3222
g1
(g10
g3
NtRp3223
(dp3224
g2850
F4
sg2851
S'Redistribute votes amongst targets'
p3225
sg2853
I1
sg2854
F0
sg2855
F0
sg2856
S'Wit'
p3226
sg2858
S'All'
p3227
sg2860
F-4
sg2861
F4
sg2862
(lp3228
sg2880
I8
sg2881
F0
sg2876
g3222
sg2882
S'Bielection'
p3229
sbsS'RUNAD'
p3230
g1
(g10
g3
NtRp3231
(dp3232
g2850
F0
sg2851
S'Gets back some votes by running an ad'
p3233
sg2853
I1
sg2854
F0
sg2855
F0
sg2856
S''
sg2858
S'AllFriendly'
p3234
sg2860
F0
sg2861
I0
sg2862
(lp3235
g1
(g2864
g3
NtRp3236
(dp3237
g2867
S'add_permanent'
p3238
sg2869
S''
sg2871
S'votes'
p3239
sg2873
F15
sg2874
F1
sg2875
F1
sg2876
S'Votes Restore Ad'
p3240
sg2878
S'TRUE'
p3241
sbasg2880
I1
sg2881
F0
sg2876
g3230
sg2882
S'Run Advertisement'
p3242
sbsS'PAYOFF'
p3243
g1
(g10
g3
NtRp3244
(dp3245
g2850
F8
sg2851
S'causes them to miss a number of turns'
p3246
sg2853
I1
sg2854
F8
sg2855
F2
sg2856
S'Wit'
p3247
sg2858
S'AllEnemy'
p3248
sg2860
F4
sg2861
F4
sg2862
(lp3249
g1
(g2864
g3
NtRp3250
(dp3251
g2867
S'miss_turn'
p3252
sg2869
S'(MISS)'
p3253
sg2871
S''
sg2873
F0
sg2874
F1
sg2875
F3
sg2876
S'Miss Turn Pay Off'
p3254
sg2878
S''
sbasg2880
I1
sg2881
F10
sg2876
g3243
sg2882
S'Pay Off'
p3255
sbsS'BUREAUCRACY'
p3256
g1
(g10
g3
NtRp3257
(dp3258
g2850
F5
sg2851
S'asdf'
p3259
sg2853
F6
sg2854
F10
sg2855
F2
sg2856
S'Cunning'
p3260
sg2858
S'AllEnemy'
p3261
sg2860
F2
sg2861
I0
sg2862
(lp3262
sg2880
I1
sg2881
F8
sg2876
g3256
sg2882
S'Bureaucracy'
p3263
sbsS'RALLYAUDIENCE'
p3264
g1
(g10
g3
NtRp3265
(dp3266
g2850
F8
sg2851
S'asdf'
p3267
sg2853
I1
sg2854
F0
sg2855
F0
sg2856
S'Wit'
p3268
sg2858
S'AllFriendly'
p3269
sg2860
F4
sg2861
F3
sg2862
(lp3270
g1
(g2864
g3
NtRp3271
(dp3272
g2867
S'add'
p3273
sg2869
S'(INCREASE)'
p3274
sg2871
S'charisma'
p3275
sg2873
F2
sg2874
F1
sg2875
F4
sg2876
S'Increase Charisma'
p3276
sg2878
S'TRUE'
p3277
sbasg2880
I1
sg2881
F0
sg2876
g3264
sg2882
S'Rally Audience'
p3278
sbsS'PORKBARREL'
p3279
g1
(g10
g3
NtRp3280
(dp3281
g2850
F8
sg2851
S'Do something that benefits them specifically. Not advised against politicians.'
p3282
sg2853
I1
sg2854
F0
sg2855
F0
sg2856
S'Wit'
p3283
sg2858
S'AllEnemy'
p3284
sg2860
F4
sg2861
F2
sg2862
(lp3285
sg2880
I1
sg2881
F0
sg2876
g3279
sg2882
S'Pork Barrel'
p3286
sbsS'INSPIRE'
p3287
g1
(g10
g3
NtRp3288
(dp3289
g2850
F0
sg2851
S'asdf'
p3290
sg2853
I1
sg2854
F0
sg2855
F0
sg2856
S'Wit'
p3291
sg2858
S'AllFriendly'
p3292
sg2860
F0
sg2861
F3
sg2862
(lp3293
g2865
asg2880
I4
sg2881
F0
sg2876
g3287
sg2882
S'Inspire'
p3294
sbsS'JOKE'
p3295
g1
(g10
g3
NtRp3296
(dp3297
g2850
F5
sg2851
S"Ha, ha, ha...what were we talking about? Diffuse the situation with some humour. High chance of critical hit. Knock 'em dead!"
p3298
sg2853
F3
sg2854
F20
sg2855
F15
sg2856
S'Cunning'
p3299
sg2858
S'AllEnemy'
p3300
sg2860
F2
sg2861
I0
sg2862
(lp3301
sg2880
I1
sg2881
F12
sg2876
g3295
sg2882
S'Joke'
p3302
sbsS'PRAYFORSOULS'
p3303
g1
(g10
g3
NtRp3304
(dp3305
g2850
F6
sg2851
S'asdf'
p3306
sg2853
F2
sg2854
F10
sg2855
F2
sg2856
S'Cunning'
p3307
sg2858
S'None'
p3308
sg2860
F3
sg2861
I0
sg2862
(lp3309
sg2880
I1
sg2881
F10
sg2876
g3303
sg2882
S'Pray'
p3310
sbsS'REVIVE'
p3311
g1
(g10
g3
NtRp3312
(dp3313
g2850
F0
sg2851
S'Revive a defeated comrade to half votes'
p3314
sg2853
I1
sg2854
F0
sg2855
F0
sg2856
S''
sg2858
S'DeadFriendly'
p3315
sg2860
F0
sg2861
F5
sg2862
(lp3316
g1
(g2864
g3
NtRp3317
(dp3318
g2867
S'revive'
p3319
sg2869
S''
sg2871
S''
sg2873
F0.5
sg2874
F0
sg2875
F0
sg2876
S'Revive'
p3320
sg2878
S''
sbasg2880
I1
sg2881
F0
sg2876
g3311
sg2882
S'Revive'
p3321
sbsS'HUMANSHIELD'
p3322
g1
(g10
g3
NtRp3323
(dp3324
g2850
F8
sg2851
S'No further questions. Step back, please.'
p3325
sg2853
I1
sg2854
F5
sg2855
F2
sg2856
S'Wit'
p3326
sg2858
S'AllEnemy'
p3327
sg2860
F4
sg2861
F4
sg2862
(lp3328
g3116
asg2880
I2
sg2881
F11
sg2876
g3322
sg2882
S'Human Shield'
p3329
sbsS'MAKEDEMANDS'
p3330
g1
(g10
g3
NtRp3331
(dp3332
g2850
F8
sg2851
S'asdf'
p3333
sg2853
I1
sg2854
F0
sg2855
F0
sg2856
S'Cunning'
p3334
sg2858
S'AllEnemy'
p3335
sg2860
F0
sg2861
I0
sg2862
(lp3336
g2899
asg2880
I1
sg2881
F0
sg2876
g3330
sg2882
S'Make Outrageous Demands'
p3337
sbsS'DEFENSE'
p3338
g1
(g10
g3
NtRp3339
(dp3340
g2850
F0
sg2851
S'Gather strenth; -50% to all incoming attacks'
p3341
sg2853
I1
sg2854
F0
sg2855
F0
sg2856
S''
sg2858
S'None'
p3342
sg2860
F0
sg2861
I0
sg2862
(lp3343
g1
(g2864
g3
NtRp3344
(dp3345
g2867
S'add'
p3346
sg2869
S'(DFND)'
p3347
sg2871
S'resistance'
p3348
sg2873
F0.5
sg2874
F1
sg2875
F1
sg2876
S'Defense'
p3349
sg2878
S'TRUE'
p3350
sbasg2880
I1
sg2881
F0
sg2876
g3338
sg2882
S'Defense'
p3351
sbsS'MISCONSTRUE'
p3352
g1
(g10
g3
NtRp3353
(dp3354
g2850
F8
sg2851
S'asdf'
p3355
sg2853
I1
sg2854
F0
sg2855
F0
sg2856
S'Cunning'
p3356
sg2858
S'AllEnemy'
p3357
sg2860
F0
sg2861
I0
sg2862
(lp3358
g2899
asg2880
I1
sg2881
F0
sg2876
g3352
sg2882
S'Misconstrue'
p3359
sbsS'NATIONALSECURITY'
p3360
g1
(g10
g3
NtRp3361
(dp3362
g2850
F7
sg2851
S"This is a matter of national security and they don't have codeword clearance"
p3363
sg2853
I1
sg2854
F10
sg2855
F2
sg2856
S'Cunning'
p3364
sg2858
S'AllEnemy'
p3365
sg2860
F2
sg2861
I0
sg2862
(lp3366
sg2880
I1
sg2881
F9
sg2876
g3360
sg2882
S'National Security'
p3367
sbsS'RALLY'
p3368
g1
(g10
g3
NtRp3369
(dp3370
g2850
F0
sg2851
S'Get back some votes by rallying supporters'
p3371
sg2853
I1
sg2854
F0
sg2855
F0
sg2856
S'Wit'
p3372
sg2858
S'AllFriendly'
p3373
sg2860
F0
sg2861
F3
sg2862
(lp3374
g1
(g2864
g3
NtRp3375
(dp3376
g2867
S'add_permanent'
p3377
sg2869
S''
sg2871
S'votes'
p3378
sg2873
F20
sg2874
F1
sg2875
F1
sg2876
S'Votes Restore Rally'
p3379
sg2878
S''
sbasg2880
I1
sg2881
F0
sg2876
g3368
sg2882
S'Rally Constituents'
p3380
sbsS'MESSAGE'
p3381
g1
(g10
g3
NtRp3382
(dp3383
g2850
F6
sg2851
S'You can certainly wear them down by repeating your party line over and over and over...if you want'
p3384
sg2853
F6
sg2854
F10
sg2855
F5
sg2856
S'Cunning'
p3385
sg2858
S'AllEnemy'
p3386
sg2860
F3
sg2861
I0
sg2862
(lp3387
sg2880
I1
sg2881
F10
sg2876
g3381
sg2882
S'Stay On Message'
p3388
sbsS'APPEALTOGOD'
p3389
g1
(g10
g3
NtRp3390
(dp3391
g2850
F10
sg2851
S'asdf'
p3392
sg2853
F3
sg2854
F5
sg2855
F2
sg2856
S'Wit'
p3393
sg2858
S'AllEnemy'
p3394
sg2860
F4
sg2861
F7
sg2862
(lp3395
sg2880
I4
sg2881
F13
sg2876
g3389
sg2882
S'Appeal To God'
p3396
sbssS'levels'
p3397
(lp3398
g1
(g10
g3
NtRp3399
(dp3400
S'votes'
p3401
F20
sS'level'
p3402
F1
sS'spin'
p3403
F5
sS'xp'
p3404
F0
sS'skill_points'
p3405
F0
sbag1
(g10
g3
NtRp3406
(dp3407
g3401
F12
sg3402
F2
sg3403
F5
sg3404
F100
sg3405
F2
sbag1
(g10
g3
NtRp3408
(dp3409
g3401
F15
sg3402
F3
sg3403
F6
sg3404
F200
sg3405
F2
sbag1
(g10
g3
NtRp3410
(dp3411
g3401
F20
sg3402
F4
sg3403
F6
sg3404
F500
sg3405
F2
sbag1
(g10
g3
NtRp3412
(dp3413
g3401
F25
sg3402
F5
sg3403
F7
sg3404
F1000
sg3405
F2
sbag1
(g10
g3
NtRp3414
(dp3415
g3401
F30
sg3402
F6
sg3403
F7
sg3404
F2000
sg3405
F2
sbag1
(g10
g3
NtRp3416
(dp3417
g3401
F35
sg3402
F7
sg3403
F8
sg3404
F5000
sg3405
F2
sbag1
(g10
g3
NtRp3418
(dp3419
g3401
F40
sg3402
F8
sg3403
F8
sg3404
F10000
sg3405
F2
sbag1
(g10
g3
NtRp3420
(dp3421
g3401
F45
sg3402
F9
sg3403
F9
sg3404
F15000
sg3405
F2
sbag1
(g10
g3
NtRp3422
(dp3423
g3401
F50
sg3402
F10
sg3403
F9
sg3404
F20000
sg3405
F2
sbag1
(g10
g3
NtRp3424
(dp3425
g3401
F55
sg3402
F11
sg3403
F10
sg3404
F40000
sg3405
F2
sbag1
(g10
g3
NtRp3426
(dp3427
g3401
S''
sg3402
F12
sg3403
S''
sg3404
S''
sg3405
S''
sbag1
(g10
g3
NtRp3428
(dp3429
g3401
S''
sg3402
F13
sg3403
S''
sg3404
S''
sg3405
S''
sbag1
(g10
g3
NtRp3430
(dp3431
g3401
S''
sg3402
F14
sg3403
S''
sg3404
S''
sg3405
S''
sbag1
(g10
g3
NtRp3432
(dp3433
g3401
S''
sg3402
F15
sg3403
S''
sg3404
S''
sg3405
S''
sbag1
(g10
g3
NtRp3434
(dp3435
g3401
S''
sg3402
F16
sg3403
S''
sg3404
S''
sg3405
S''
sbag1
(g10
g3
NtRp3436
(dp3437
g3401
S''
sg3402
F17
sg3403
S''
sg3404
S''
sg3405
S''
sbag1
(g10
g3
NtRp3438
(dp3439
g3401
S''
sg3402
F18
sg3403
S''
sg3404
S''
sg3405
S''
sbag1
(g10
g3
NtRp3440
(dp3441
g3401
S''
sg3402
F19
sg3403
S''
sg3404
S''
sg3405
S''
sbag1
(g10
g3
NtRp3442
(dp3443
g3401
S''
sg3402
F20
sg3403
S''
sg3404
S''
sg3405
S''
sbag1
(g10
g3
NtRp3444
(dp3445
g3401
S''
sg3402
F21
sg3403
S''
sg3404
S''
sg3405
S''
sbag1
(g10
g3
NtRp3446
(dp3447
g3401
S''
sg3402
F22
sg3403
S''
sg3404
S''
sg3405
S''
sbag1
(g10
g3
NtRp3448
(dp3449
g3401
S''
sg3402
F23
sg3403
S''
sg3404
S''
sg3405
S''
sbag1
(g10
g3
NtRp3450
(dp3451
g3401
S''
sg3402
F24
sg3403
S''
sg3404
S''
sg3405
S''
sbag1
(g10
g3
NtRp3452
(dp3453
g3401
S''
sg3402
F25
sg3403
S''
sg3404
S''
sg3405
S''
sbag1
(g10
g3
NtRp3454
(dp3455
g3401
S''
sg3402
F26
sg3403
S''
sg3404
S''
sg3405
S''
sbag1
(g10
g3
NtRp3456
(dp3457
g3401
S''
sg3402
F27
sg3403
S''
sg3404
S''
sg3405
S''
sbag1
(g10
g3
NtRp3458
(dp3459
g3401
S''
sg3402
F28
sg3403
S''
sg3404
S''
sg3405
S''
sbag1
(g10
g3
NtRp3460
(dp3461
g3401
S''
sg3402
F29
sg3403
S''
sg3404
S''
sg3405
S''
sbasg2862
(dp3462
g2877
g2865
sg2972
g2968
sg3047
g3043
sg3276
g3271
sg3120
g3116
sg3061
g3057
sg3240
g3236
sg3254
g3250
sg3181
g3177
sg3320
g3317
sg3027
g3022
sg3075
g3070
sg3349
g3344
sg2903
g2899
sg2918
g2913
sg3379
g3375
ssS'characters'
p3463
(dp3464
S'Teacher001'
p3465
(lp3466
g1
(g10
g3
NtRp3467
(dp3468
S'flair_base'
p3469
F1
sS'spin_base'
p3470
F4
sS'flair_lvl'
p3471
F1.1499999999999999
sS'wit_base'
p3472
F1
sS'resistance'
p3473
(lp3474
sS'wit_lvl'
p3475
F1.0900000000000001
sS'cunning_base'
p3476
F1
sg2876
g3465
sS'votes_base'
p3477
F10
sS'speed_lvl'
p3478
F1.0800000000000001
sS'standard_attacks'
p3479
(lp3480
g3339
ag3086
asS'cunning_lvl'
p3481
F1.1000000000000001
sS'charisma_lvl'
p3482
F1.1499999999999999
sS'spin_attacks'
p3483
(lp3484
g3184
ag3171
asS'spin_lvl'
p3485
F1.0800000000000001
sS'charisma_base'
p3486
F1
sS'weaknesses'
p3487
(lp3488
sS'attack_group'
p3489
S'Teacher'
p3490
sS'votes_lvl'
p3491
F1.2
sg2882
S'Teacher'
p3492
sS'speed_base'
p3493
F1
sS'immunities'
p3494
(lp3495
sbasS'Politician001'
p3496
(lp3497
g1
(g10
g3
NtRp3498
(dp3499
g3469
F1
sg3470
F4
sg3471
F1.1499999999999999
sg3472
F1
sg3473
(lp3500
g2893
asg3475
F1.0900000000000001
sg3476
F1
sg2876
g3496
sg3477
F10
sg3478
F1.0800000000000001
sg3479
(lp3501
g3382
ag3192
ag2893
ag3296
ag3339
asg3481
F1.1000000000000001
sg3482
F1.1499999999999999
sg3483
(lp3502
g3223
ag3008
ag3312
asg3485
F1.0800000000000001
sg3486
F1
sg3487
(lp3503
g2976
asg3489
S'Politician'
p3504
sg3491
F1.2
sg2882
S'Politician'
p3505
sg3493
F1
sg3494
(lp3506
g3280
asbasS'SecretAgent'
p3507
(lp3508
g1
(g10
g3
NtRp3509
(dp3510
g3469
F1
sg3470
F4
sg3471
F1.1499999999999999
sg3472
F1
sg3473
(lp3511
sg3475
F1.0900000000000001
sg3476
F1
sg2876
g3507
sg3477
F18
sg3478
F1.0800000000000001
sg3479
(lp3512
g3339
ag3361
ag3147
asg3481
F1.1000000000000001
sg3482
F1.1499999999999999
sg3483
(lp3513
g3323
ag3123
asg3485
F1.0800000000000001
sg3486
F1
sg3487
(lp3514
sg3489
S'SecretAgent'
p3515
sg3491
F1.2
sg2882
S'Agent Kawalski'
p3516
sg3493
F1
sg3494
(lp3517
sbasS'Bumpkin001'
p3518
(lp3519
g1
(g10
g3
NtRp3520
(dp3521
g3469
F1
sg3470
F4
sg3471
F1.1499999999999999
sg3472
F1
sg3473
(lp3522
sg3475
F1.0900000000000001
sg3476
F1
sg2876
g3518
sg3477
F10
sg3478
F1.0800000000000001
sg3479
(lp3523
g3296
ag3030
asg3481
F1.1000000000000001
sg3482
F1.1499999999999999
sg3483
(lp3524
g2992
ag3094
asg3485
F1.0800000000000001
sg3486
F1
sg3487
(lp3525
g2893
ag3192
ag3078
asg3489
S'Bumpkin'
p3526
sg3491
F1.2
sg2882
S'Bumpkin'
p3527
sg3493
F1
sg3494
(lp3528
sbasS'WarVet001'
p3529
(lp3530
g1
(g10
g3
NtRp3531
(dp3532
g3469
F1
sg3470
F4
sg3471
F1.1499999999999999
sg3472
F1
sg3473
(lp3533
sg3475
F1.0900000000000001
sg3476
F1
sg2876
g3529
sg3477
F10
sg3478
F1.0800000000000001
sg3479
(lp3534
g3331
ag3339
asg3481
F1.1000000000000001
sg3482
F1.1499999999999999
sg3483
(lp3535
g3288
ag3171
asg3485
F1.0800000000000001
sg3486
F1
sg3487
(lp3536
sg3489
S'WarVet'
p3537
sg3491
F1.2
sg2882
S'War Veteran'
p3538
sg3493
F1
sg3494
(lp3539
sbasS'Receptionist001'
p3540
(lp3541
g1
(g10
g3
NtRp3542
(dp3543
g3469
F1
sg3470
F4
sg3471
F1.1499999999999999
sg3472
F1
sg3473
(lp3544
sg3475
F1.0900000000000001
sg3476
F1
sg2876
g3540
sg3477
F8
sg3478
F1.0800000000000001
sg3479
(lp3545
g3257
ag3200
asg3481
F1.1000000000000001
sg3482
F1.1499999999999999
sg3483
(lp3546
g3208
ag2962
asg3485
F1.0800000000000001
sg3486
F0
sg3487
(lp3547
sg3489
S'Receptionist'
p3548
sg3491
F1.2
sg2882
S'Receptionist'
p3549
sg3493
F1
sg3494
(lp3550
sbasS'DeepThroat'
p3551
(lp3552
g1
(g10
g3
NtRp3553
(dp3554
g3469
F1
sg3470
F4
sg3471
F1.1499999999999999
sg3472
F1
sg3473
(lp3555
sg3475
F1.0900000000000001
sg3476
F1
sg2876
g3551
sg3477
F10
sg3478
F1.0800000000000001
sg3479
(lp3556
g3192
ag3339
ag3331
asg3481
F1.1000000000000001
sg3482
F1.1499999999999999
sg3483
(lp3557
g3064
asg3485
F1.0800000000000001
sg3486
F1
sg3487
(lp3558
sg3489
S'DeepThroat'
p3559
sg3491
F1.2
sg2882
S'Mr Er...?'
p3560
sg3493
F1
sg3494
(lp3561
sbasS'Leo'
p3562
(lp3563
g1
(g10
g3
NtRp3564
(dp3565
g3469
F1
sg3470
F4
sg3471
F1.1499999999999999
sg3472
F1
sg3473
(lp3566
sg3475
F1.0900000000000001
sg3476
F1
sg2876
g3562
sg3477
F14
sg3478
F1.0800000000000001
sg3479
(lp3567
g3382
ag3192
ag2893
ag3296
ag2976
asg3481
F1.1000000000000001
sg3482
F1.1499999999999999
sg3483
(lp3568
g3223
ag3008
ag3280
ag3110
asg3485
F1.0800000000000001
sg3486
F1
sg3487
(lp3569
sg3489
S'Theo'
p3570
sg3491
F1.2
sg2882
S'Theo'
p3571
sg3493
F1
sg3494
(lp3572
sbasS'HippyGirl001'
p3573
(lp3574
g1
(g10
g3
NtRp3575
(dp3576
g3469
F1
sg3470
F4
sg3471
F1.1499999999999999
sg3472
F1
sg3473
(lp3577
sg3475
F1.0900000000000001
sg3476
F1
sg2876
g3573
sg3477
F10
sg3478
F1.0800000000000001
sg3479
(lp3578
g2984
ag3086
ag3131
asg3481
F1.1000000000000001
sg3482
F1.1499999999999999
sg3483
(lp3579
g3155
ag3171
ag3312
asg3485
F1.0800000000000001
sg3486
F1
sg3487
(lp3580
g3296
asg3489
S'Hippy'
p3581
sg3491
F1.2
sg2882
S'Hippy Girl'
p3582
sg3493
F1
sg3494
(lp3583
sbasS'President'
p3584
(lp3585
g1
(g10
g3
NtRp3586
(dp3587
g3469
F1
sg3470
F4
sg3471
F1.1499999999999999
sg3472
F1
sg3473
(lp3588
sg3475
F1.0900000000000001
sg3476
F1
sg2876
g3584
sg3477
F10
sg3478
F1.0800000000000001
sg3479
(lp3589
g3382
ag3192
ag2893
ag3296
ag3339
asg3481
F1.1000000000000001
sg3482
F1.1499999999999999
sg3483
(lp3590
g3223
ag3008
ag3312
asg3485
F1.0800000000000001
sg3486
F1
sg3487
(lp3591
sg3489
S'Politician'
p3592
sg3491
F1.2
sg2882
S'President Allen'
p3593
sg3493
F1
sg3494
(lp3594
sbasS'Unionist001'
p3595
(lp3596
g1
(g10
g3
NtRp3597
(dp3598
g3469
F1
sg3470
F4
sg3471
F1.1499999999999999
sg3472
F1
sg3473
(lp3599
sg3475
F1.0900000000000001
sg3476
F1
sg2876
g3595
sg3477
F10
sg3478
F1.0800000000000001
sg3479
(lp3600
g3331
ag3339
ag3086
asg3481
F1.1000000000000001
sg3482
F1.1499999999999999
sg3483
(lp3601
g3184
asg3485
F1.0800000000000001
sg3486
F1
sg3487
(lp3602
sg3489
S'Unionist'
p3603
sg3491
F1.2
sg2882
S'Unionist'
p3604
sg3493
F1
sg3494
(lp3605
sbasS'Wife'
p3606
(lp3607
g1
(g10
g3
NtRp3608
(dp3609
g3469
F1
sg3470
F4
sg3471
F1.1499999999999999
sg3472
F1
sg3473
(lp3610
sg3475
F1.0900000000000001
sg3476
F1
sg2876
g3606
sg3477
F12
sg3478
F1.0800000000000001
sg3479
(lp3611
g3382
ag2893
ag3296
ag3339
asg3481
F1.1000000000000001
sg3482
F1.1499999999999999
sg3483
(lp3612
g3369
ag3312
ag3016
asg3485
F1.0800000000000001
sg3486
F1
sg3487
(lp3613
sg3489
S'Wife'
p3614
sg3491
F1.2
sg2882
S'Sarah Mossman'
p3615
sg3493
F1
sg3494
(lp3616
sbasS'PresidentAlien'
p3617
(lp3618
g1
(g10
g3
NtRp3619
(dp3620
g3469
F1
sg3470
F4
sg3471
F1.1499999999999999
sg3472
F1
sg3473
(lp3621
sg3475
F1.0900000000000001
sg3476
F1
sg2876
g3617
sg3477
F10
sg3478
F1.0800000000000001
sg3479
(lp3622
g3382
ag3192
ag2893
ag3296
ag3339
asg3481
F1.1000000000000001
sg3482
F1.1499999999999999
sg3483
(lp3623
g3223
ag3008
ag3312
asg3485
F1.0800000000000001
sg3486
F1
sg3487
(lp3624
sg3489
S'Politician'
p3625
sg3491
F1.2
sg2882
S'President Alien'
p3626
sg3493
F1
sg3494
(lp3627
sbasS'Governor'
p3628
(lp3629
g1
(g10
g3
NtRp3630
(dp3631
g3469
F1
sg3470
F4
sg3471
F1.1499999999999999
sg3472
F1
sg3473
(lp3632
sg3475
F1.0900000000000001
sg3476
F1
sg2876
g3628
sg3477
F10
sg3478
F1.0800000000000001
sg3479
(lp3633
g3382
ag3192
ag2893
ag3296
ag3339
asg3481
F1.1000000000000001
sg3482
F1.1499999999999999
sg3483
(lp3634
g3223
ag3008
ag3312
asg3485
F1.0800000000000001
sg3486
F1
sg3487
(lp3635
sg3489
S'Politician'
p3636
sg3491
F1.2
sg2882
g3628
sg3493
F1
sg3494
(lp3637
sbasS'Lobbyist001'
p3638
(lp3639
g1
(g10
g3
NtRp3640
(dp3641
g3469
F1
sg3470
F4
sg3471
F1.1499999999999999
sg3472
F1
sg3473
(lp3642
sg3475
F1.0900000000000001
sg3476
F1
sg2876
g3638
sg3477
F10
sg3478
F1.0800000000000001
sg3479
(lp3643
g3102
ag3331
asg3481
F1.1000000000000001
sg3482
F1.1499999999999999
sg3483
(lp3644
g3244
ag3064
asg3485
F1.0800000000000001
sg3486
F1
sg3487
(lp3645
g3280
asg3489
S'Lobbyist'
p3646
sg3491
F1.2
sg2882
S'Lobbyist'
p3647
sg3493
F1
sg3494
(lp3648
g2976
asbasS'Journalist001'
p3649
(lp3650
g1
(g10
g3
NtRp3651
(dp3652
g3469
F1
sg3470
F4
sg3471
F1.1499999999999999
sg3472
F1
sg3473
(lp3653
sg3475
F1.0900000000000001
sg3476
F1
sg2876
g3649
sg3477
F10
sg3478
F1.0800000000000001
sg3479
(lp3654
g2946
ag3353
asg3481
F1.1000000000000001
sg3482
F1.1499999999999999
sg3483
(lp3655
g3139
ag2848
ag2922
asg3485
F1.0800000000000001
sg3486
F1
sg3487
(lp3656
sg3489
S'Journalist'
p3657
sg3491
F1.2
sg2882
S'Journalist'
p3658
sg3493
F1
sg3494
(lp3659
sbasS'ReligiousNut001'
p3660
(lp3661
g1
(g10
g3
NtRp3662
(dp3663
g3469
F1
sg3470
F4
sg3471
F1.1499999999999999
sg3472
F1
sg3473
(lp3664
sg3475
F1.0900000000000001
sg3476
F1
sg2876
g3660
sg3477
F10
sg3478
F1.0800000000000001
sg3479
(lp3665
g2930
ag3304
ag3339
asg3481
F1.1000000000000001
sg3482
F1.1499999999999999
sg3483
(lp3666
g3390
ag3051
asg3485
F1.0800000000000001
sg3486
F1
sg3487
(lp3667
sg3489
S'Religious'
p3668
sg3491
F1.2
sg2882
S'Religious Nut'
p3669
sg3493
F1
sg3494
(lp3670
g3296
asbasS'JointChief001'
p3671
(lp3672
g1
(g10
g3
NtRp3673
(dp3674
g3469
F1
sg3470
F4
sg3471
F1.1499999999999999
sg3472
F1
sg3473
(lp3675
sg3475
F1.0900000000000001
sg3476
F1
sg2876
g3671
sg3477
F10
sg3478
F1.0800000000000001
sg3479
(lp3676
g3331
ag3339
ag3361
ag3000
asg3481
F1.1000000000000001
sg3482
F1.1499999999999999
sg3483
(lp3677
g3123
asg3485
F1.0800000000000001
sg3486
F1
sg3487
(lp3678
sg3489
S'JointChief'
p3679
sg3491
F1.2
sg2882
S'Joint Chief'
p3680
sg3493
F1
sg3494
(lp3681
sbasS'Protester001'
p3682
(lp3683
g1
(g10
g3
NtRp3684
(dp3685
g3469
F0.5
sg3470
F4
sg3471
F1.1000000000000001
sg3472
F1
sg3473
(lp3686
g3296
asg3475
F1.01
sg3476
F1
sg2876
g3682
sg3477
F8
sg3478
F1.01
sg3479
(lp3687
g3086
ag2938
ag2984
asg3481
F1.01
sg3482
F1.1000000000000001
sg3483
(lp3688
g3171
asg3485
F1.01
sg3486
F1
sg3487
(lp3689
sg3489
S'Protestor'
p3690
sg3491
F1.01
sg2882
S'Protester'
p3691
sg3493
F1
sg3494
(lp3692
sbasS'TVPersonality001'
p3693
(lp3694
g1
(g10
g3
NtRp3695
(dp3696
g3469
F1
sg3470
F4
sg3471
F1.1499999999999999
sg3472
F1
sg3473
(lp3697
sg3475
F1.0900000000000001
sg3476
F1
sg2876
g3693
sg3477
F10
sg3478
F1.0800000000000001
sg3479
(lp3698
g3296
ag2946
asg3481
F1.1000000000000001
sg3482
F1.1499999999999999
sg3483
(lp3699
g2922
ag2907
asg3485
F1.0800000000000001
sg3486
F1
sg3487
(lp3700
sg3489
S'TVPersonality'
p3701
sg3491
F1.2
sg2882
S"Hecules O'Grady"
p3702
sg3493
F1
sg3494
(lp3703
sbasS'Player'
p3704
(lp3705
g1
(g10
g3
NtRp3706
(dp3707
g3469
F1
sg3470
F5
sg3471
F1.1499999999999999
sg3472
F1
sg3473
(lp3708
sg3475
F1.0900000000000001
sg3476
F1
sg2876
g3704
sg3477
F15
sg3478
F1.0800000000000001
sg3479
(lp3709
g3382
ag2893
ag3296
asg3481
F1.1000000000000001
sg3482
F1.1499999999999999
sg3483
(lp3710
g3008
asg3485
F1.0800000000000001
sg3486
F1
sg3487
(lp3711
sg3489
S'Player'
p3712
sg3491
F1.2
sg2882
S'Phillip Mossman'
p3713
sg3493
F2
sg3494
(lp3714
sbasS'Computer'
p3715
(lp3716
g1
(g10
g3
NtRp3717
(dp3718
g3469
F1
sg3470
F4
sg3471
F1.1499999999999999
sg3472
F1
sg3473
(lp3719
sg3475
F1.0900000000000001
sg3476
F1
sg2876
g3715
sg3477
F10
sg3478
F1.0800000000000001
sg3479
(lp3720
g3382
ag3192
ag2893
ag3296
ag3339
asg3481
F1.1000000000000001
sg3482
F1.1499999999999999
sg3483
(lp3721
g3223
ag3008
ag3312
asg3485
F1.0800000000000001
sg3486
F1
sg3487
(lp3722
sg3489
S'Politician'
p3723
sg3491
F1.2
sg2882
S'N.O.T.B.A.D'
p3724
sg3493
F1
sg3494
(lp3725
sbasS'CabinetPolitician001'
p3726
(lp3727
g1
(g10
g3
NtRp3728
(dp3729
g3469
F1
sg3470
F4
sg3471
F1.1499999999999999
sg3472
F1
sg3473
(lp3730
sg3475
F1.0900000000000001
sg3476
F1
sg2876
g3726
sg3477
F10
sg3478
F1.0800000000000001
sg3479
(lp3731
g3382
ag3192
ag2893
ag3296
ag3339
asg3481
F1.1000000000000001
sg3482
F1.1499999999999999
sg3483
(lp3732
g3223
ag3008
ag3312
asg3485
F1.0800000000000001
sg3486
F1
sg3487
(lp3733
sg3489
S'Politician'
p3734
sg3491
F1.2
sg2882
S'Cabinet Politician'
p3735
sg3493
F1
sg3494
(lp3736
sbasS'Constituent001'
p3737
(lp3738
g1
(g10
g3
NtRp3739
(dp3740
g3469
F1
sg3470
F4
sg3471
F1.1499999999999999
sg3472
F1
sg3473
(lp3741
sg3475
F1.0900000000000001
sg3476
F1
sg2876
g3737
sg3477
F10
sg3478
F1.0800000000000001
sg3479
(lp3742
g3086
ag3102
ag3331
asg3481
F1.1000000000000001
sg3482
F1.1499999999999999
sg3483
(lp3743
g3312
asg3485
F1.0800000000000001
sg3486
F1
sg3487
(lp3744
sg3489
S'Constituent'
p3745
sg3491
F1.2
sg2882
S'Constituent'
p3746
sg3493
F1
sg3494
(lp3747
sbasS'Mayor'
p3748
(lp3749
g1
(g10
g3
NtRp3750
(dp3751
g3469
F1
sg3470
F4
sg3471
F1.1499999999999999
sg3472
F1
sg3473
(lp3752
sg3475
F1.0900000000000001
sg3476
F1
sg2876
g3748
sg3477
F10
sg3478
F1.0800000000000001
sg3479
(lp3753
g3382
ag3192
ag2893
ag3296
ag3339
asg3481
F1.1000000000000001
sg3482
F1.1499999999999999
sg3483
(lp3754
g3223
ag3008
ag3312
asg3485
F1.0800000000000001
sg3486
F1
sg3487
(lp3755
sg3489
S'Politician'
p3756
sg3491
F1.2
sg2882
S'Mayor Goodman'
p3757
sg3493
F1
sg3494
(lp3758
sbassS'quest_items'
p3759
(dp3760
S'PEN'
p3761
g1
(g10
g3
NtRp3762
(dp3763
g2851
S''
sg2876
g3761
sg2882
S'A pen'
p3764
sbsS'SOUTHWINGDOORKEY'
p3765
g1
(g10
g3
NtRp3766
(dp3767
g2851
S'It looks old.'
p3768
sg2876
g3765
sg2882
S'Key to the South Wing'
p3769
sbsS'INCRIMINATINGEVIDENCE'
p3770
g1
(g10
g3
NtRp3771
(dp3772
g2851
S'Very incriminating proof that something troubling is going on in the White House.'
p3773
sg2876
g3770
sg2882
S'Incriminating Evidence'
p3774
sbsS'BILLOFRIGHTS'
p3775
g1
(g10
g3
NtRp3776
(dp3777
g2851
S''
sg2876
g3775
sg2882
S"Citizens' Bill of Rights"
p3778
sbssg3479
(dp3779
S'Theo'
p3780
(lp3781
g3382
ag3192
ag2893
ag3296
ag2976
ag3223
ag3008
ag3280
ag3110
asS'JointChief'
p3782
(lp3783
g3331
ag3339
ag3361
ag3123
ag3000
asS'Politician'
p3784
(lp3785
g3382
ag3192
ag2893
ag3296
ag3223
ag3008
ag3312
ag3339
asS'Bumpkin'
p3786
(lp3787
g3296
ag2992
ag3094
ag3030
asS'Wife'
p3788
(lp3789
g3382
ag2893
ag3296
ag3369
ag3312
ag3339
ag3016
asS'Lobbyist'
p3790
(lp3791
g3102
ag3244
ag3064
ag3331
asS'DeepThroat'
p3792
(lp3793
g3192
ag3339
ag3064
ag3331
asS'Protestor'
p3794
(lp3795
g3171
ag3086
ag2938
ag2984
asS'SecretAgent'
p3796
(lp3797
g3339
ag3323
ag3361
ag3123
ag3147
asS'Teacher'
p3798
(lp3799
g3184
ag3339
ag3086
ag3171
asS'Player'
p3800
(lp3801
g3382
ag2893
ag3296
ag3008
asS'Computer'
p3802
(lp3803
g3123
ag3361
ag2954
ag3064
ag3331
ag3192
asS'Receptionist'
p3804
(lp3805
g3257
ag3200
ag3208
ag2962
asS'Hippy'
p3806
(lp3807
g2984
ag3086
ag3131
ag3155
ag3171
ag3312
asS'Constituent'
p3808
(lp3809
g3086
ag3312
ag3102
ag3331
asS'TVPersonality'
p3810
(lp3811
g3296
ag2922
ag2946
ag2907
asS'WarVet'
p3812
(lp3813
g3331
ag3339
ag3288
ag3171
asS'Religious'
p3814
(lp3815
g2930
ag3390
ag3051
ag3304
ag3339
asS'Unionist'
p3816
(lp3817
g3331
ag3339
ag3086
ag3184
asS'Journalist'
p3818
(lp3819
g2946
ag3353
ag3139
ag2848
ag2922
assS'shops'
p3820
(dp3821
sS'encounters'
p3822
(dp3823
S'P-hard-14'
p3824
g1
(g10
g3
NtRp3825
(dp3826
S'item_attack_drops'
p3827
(lp3828
sS'item_attacks'
p3829
(lp3830
sg2882
S''
sg3404
F25
sS'monster2_lvl'
p3831
S''
sS'bribe_cost'
p3832
F50
sS'monster3'
p3833
S''
sS'monster1_lvl'
p3834
F2
sS'monster3_lvl'
p3835
S''
sS'monster4_lvl'
p3836
S''
sS'monster4'
p3837
S''
sS'monster2'
p3838
S''
sg2876
g3824
sS'monster1'
p3839
S'Computer'
p3840
sbsS'P-hard-11'
p3841
g1
(g10
g3
NtRp3842
(dp3843
g3827
(lp3844
sg3829
(lp3845
sg2882
S''
sg3404
F25
sg3831
F2
sg3832
F50
sg3833
S'JointChief001'
p3846
sg3834
F2
sg3835
F2
sg3836
S''
sg3837
S''
sg3838
S'JointChief001'
p3847
sg2876
g3841
sg3839
S'JointChief001'
p3848
sbsS'P-hard-10'
p3849
g1
(g10
g3
NtRp3850
(dp3851
g3827
(lp3852
sg3829
(lp3853
sg2882
S''
sg3404
F25
sg3831
F2
sg3832
F50
sg3833
S'CabinetPolitician001'
p3854
sg3834
F2
sg3835
F2
sg3836
F2
sg3837
S'CabinetPolitician001'
p3855
sg3838
S'CabinetPolitician001'
p3856
sg2876
g3849
sg3839
S'CabinetPolitician001'
p3857
sbsS'P-hard-13'
p3858
g1
(g10
g3
NtRp3859
(dp3860
g3827
(lp3861
sg3829
(lp3862
sg2882
S''
sg3404
F25
sg3831
F2
sg3832
F50
sg3833
S'JointChief001'
p3863
sg3834
F2
sg3835
F2
sg3836
F2
sg3837
S'JointChief001'
p3864
sg3838
S'JointChief001'
p3865
sg2876
g3858
sg3839
S'JointChief001'
p3866
sbsS'P-hard-12'
p3867
g1
(g10
g3
NtRp3868
(dp3869
g3827
(lp3870
sg3829
(lp3871
sg2882
S''
sg3404
F25
sg3831
F2
sg3832
F50
sg3833
S'JointChief001'
p3872
sg3834
F2
sg3835
F2
sg3836
S''
sg3837
S''
sg3838
S'JointChief001'
p3873
sg2876
g3867
sg3839
S'JointChief001'
p3874
sbsS'P-easy-05'
p3875
g1
(g10
g3
NtRp3876
(dp3877
g3827
(lp3878
g1
(c__main__
ItemAttack
p3879
g3
NtRp3880
(dp3881
S'attack'
p3882
g3163
sS'quantity'
p3883
I1
sbasg3829
(lp3884
sg2882
S''
sg3404
F25
sg3831
S''
sg3832
F50
sg3833
S''
sg3834
F2
sg3835
S''
sg3836
S''
sg3837
S''
sg3838
S''
sg2876
g3875
sg3839
S'Journalist001'
p3885
sbsS'P-easy-04'
p3886
g1
(g10
g3
NtRp3887
(dp3888
g3827
(lp3889
g1
(g3879
g3
NtRp3890
(dp3891
g3882
g3038
sg3883
I1
sbasg3829
(lp3892
sg2882
S''
sg3404
F30
sg3831
F1
sg3832
F50
sg3833
S''
sg3834
F1
sg3835
S''
sg3836
S''
sg3837
S''
sg3838
S'Protester001'
p3893
sg2876
g3886
sg3839
S'Protester001'
p3894
sbsS'P-easy-07'
p3895
g1
(g10
g3
NtRp3896
(dp3897
g3827
(lp3898
g1
(g3879
g3
NtRp3899
(dp3900
g3882
g3038
sg3883
I1
sbasg3829
(lp3901
sg2882
S''
sg3404
F25
sg3831
S''
sg3832
F50
sg3833
S''
sg3834
F2
sg3835
S''
sg3836
S''
sg3837
S''
sg3838
S''
sg2876
g3895
sg3839
S'Constituent001'
p3902
sbsS'P-easy-06'
p3903
g1
(g10
g3
NtRp3904
(dp3905
g3827
(lp3906
g1
(g3879
g3
NtRp3907
(dp3908
g3882
g3312
sg3883
I1
sbasg3829
(lp3909
sg2882
S''
sg3404
F25
sg3831
F2
sg3832
F50
sg3833
S''
sg3834
F2
sg3835
S''
sg3836
S''
sg3837
S''
sg3838
S'Lobbyist001'
p3910
sg2876
g3903
sg3839
S'Lobbyist001'
p3911
sbsS'P-easy-01'
p3912
g1
(g10
g3
NtRp3913
(dp3914
g3827
(lp3915
g1
(g3879
g3
NtRp3916
(dp3917
g3882
g3231
sg3883
I1
sbasg3829
(lp3918
g1
(g3879
g3
NtRp3919
(dp3920
g3882
g3163
sg3883
I1
sbasg2882
S'The quest for pen'
p3921
sg3404
F10
sg3831
S''
sg3832
F50
sg3833
S''
sg3834
F1
sg3835
S''
sg3836
S''
sg3837
S''
sg3838
S''
sg2876
g3912
sg3839
S'Receptionist001'
p3922
sbsS'P-easy-03'
p3923
g1
(g10
g3
NtRp3924
(dp3925
g3827
(lp3926
g1
(g3879
g3
NtRp3927
(dp3928
g3882
g3231
sg3883
I1
sbasg3829
(lp3929
g1
(g3879
g3
NtRp3930
(dp3931
g3882
g3163
sg3883
I1
sbasg2882
S''
sg3404
F30
sg3831
F1
sg3832
F50
sg3833
S''
sg3834
F1
sg3835
S''
sg3836
S''
sg3837
S''
sg3838
S'Protester001'
p3932
sg2876
g3923
sg3839
S'Protester001'
p3933
sbsS'P-easy-02'
p3934
g1
(g10
g3
NtRp3935
(dp3936
g3827
(lp3937
sg3829
(lp3938
sg2882
S''
sg3404
F30
sg3831
F1
sg3832
F50
sg3833
S''
sg3834
F1
sg3835
S''
sg3836
S''
sg3837
S''
sg3838
S'Protester001'
p3939
sg2876
g3934
sg3839
S'Protester001'
p3940
sbsS'P-easy-09'
p3941
g1
(g10
g3
NtRp3942
(dp3943
g3827
(lp3944
g1
(g3879
g3
NtRp3945
(dp3946
g3882
g3231
sg3883
I1
sbasg3829
(lp3947
sg2882
S''
sg3404
F25
sg3831
F2
sg3832
F50
sg3833
S'Constituent001'
p3948
sg3834
F2
sg3835
F2
sg3836
S''
sg3837
S''
sg3838
S'Constituent001'
p3949
sg2876
g3941
sg3839
S'Constituent001'
p3950
sbsS'P-easy-08'
p3951
g1
(g10
g3
NtRp3952
(dp3953
g3827
(lp3954
sg3829
(lp3955
sg2882
S''
sg3404
F25
sg3831
F2
sg3832
F50
sg3833
S''
sg3834
F2
sg3835
S''
sg3836
S''
sg3837
S''
sg3838
S'Constituent001'
p3956
sg2876
g3951
sg3839
S'Constituent001'
p3957
sbsS'P-hard-08'
p3958
g1
(g10
g3
NtRp3959
(dp3960
g3827
(lp3961
sg3829
(lp3962
sg2882
S''
sg3404
F25
sg3831
F2
sg3832
F50
sg3833
S'CabinetPolitician001'
p3963
sg3834
F2
sg3835
F2
sg3836
S''
sg3837
S''
sg3838
S'CabinetPolitician001'
p3964
sg2876
g3958
sg3839
S'CabinetPolitician001'
p3965
sbsS'P-hard-09'
p3966
g1
(g10
g3
NtRp3967
(dp3968
g3827
(lp3969
sg3829
(lp3970
sg2882
S''
sg3404
F25
sg3831
F2
sg3832
F50
sg3833
S'CabinetPolitician001'
p3971
sg3834
F2
sg3835
F2
sg3836
F2
sg3837
S'CabinetPolitician001'
p3972
sg3838
S'CabinetPolitician001'
p3973
sg2876
g3966
sg3839
S'CabinetPolitician001'
p3974
sbsS'P-med-08'
p3975
g1
(g10
g3
NtRp3976
(dp3977
g3827
(lp3978
sg3829
(lp3979
sg2882
S''
sg3404
F25
sg3831
F2
sg3832
F50
sg3833
S'Politician001'
p3980
sg3834
F2
sg3835
F2
sg3836
S''
sg3837
S''
sg3838
S'Politician001'
p3981
sg2876
g3975
sg3839
S'Politician001'
p3982
sbsS'P-med-09'
p3983
g1
(g10
g3
NtRp3984
(dp3985
g3827
(lp3986
sg3829
(lp3987
sg2882
S''
sg3404
F25
sg3831
F2
sg3832
F50
sg3833
S'Politician001'
p3988
sg3834
F2
sg3835
F2
sg3836
S''
sg3837
S''
sg3838
S'ReligiousNut001'
p3989
sg2876
g3983
sg3839
S'Politician001'
p3990
sbsS'P-med-02'
p3991
g1
(g10
g3
NtRp3992
(dp3993
g3827
(lp3994
sg3829
(lp3995
sg2882
S''
sg3404
F25
sg3831
F2
sg3832
F50
sg3833
S''
sg3834
F2
sg3835
S''
sg3836
S''
sg3837
S''
sg3838
S'Politician001'
p3996
sg2876
g3991
sg3839
S'Politician001'
p3997
sbsS'P-med-03'
p3998
g1
(g10
g3
NtRp3999
(dp4000
g3827
(lp4001
sg3829
(lp4002
sg2882
S''
sg3404
F25
sg3831
F2
sg3832
F50
sg3833
S''
sg3834
F2
sg3835
S''
sg3836
S''
sg3837
S''
sg3838
S'Bumpkin001'
p4003
sg2876
g3998
sg3839
S'Bumpkin001'
p4004
sbsS'P-med-01'
p4005
g1
(g10
g3
NtRp4006
(dp4007
g3827
(lp4008
sg3829
(lp4009
sg2882
S''
sg3404
F25
sg3831
F2
sg3832
F50
sg3833
S''
sg3834
F2
sg3835
S''
sg3836
S''
sg3837
S''
sg3838
S'Politician001'
p4010
sg2876
g4005
sg3839
S'Politician001'
p4011
sbsS'P-med-06'
p4012
g1
(g10
g3
NtRp4013
(dp4014
g3827
(lp4015
sg3829
(lp4016
sg2882
S''
sg3404
F25
sg3831
F2
sg3832
F50
sg3833
S'Politician001'
p4017
sg3834
F2
sg3835
F2
sg3836
S''
sg3837
S''
sg3838
S'Governor'
p4018
sg2876
g4012
sg3839
S'Politician001'
p4019
sbsS'P-med-07'
p4020
g1
(g10
g3
NtRp4021
(dp4022
g3827
(lp4023
sg3829
(lp4024
sg2882
S''
sg3404
F25
sg3831
F2
sg3832
F50
sg3833
S''
sg3834
F2
sg3835
S''
sg3836
S''
sg3837
S''
sg3838
S'Journalist001'
p4025
sg2876
g4020
sg3839
S'Politician001'
p4026
sbsS'P-med-04'
p4027
g1
(g10
g3
NtRp4028
(dp4029
g3827
(lp4030
sg3829
(lp4031
sg2882
S''
sg3404
F25
sg3831
F2
sg3832
F50
sg3833
S'Bumpkin001'
p4032
sg3834
F2
sg3835
F2
sg3836
S''
sg3837
S''
sg3838
S'Bumpkin001'
p4033
sg2876
g4027
sg3839
S'Bumpkin001'
p4034
sbsS'P-med-05'
p4035
g1
(g10
g3
NtRp4036
(dp4037
g3827
(lp4038
sg3829
(lp4039
sg2882
S''
sg3404
F25
sg3831
F2
sg3832
F50
sg3833
S'Politician001'
p4040
sg3834
F2
sg3835
F2
sg3836
S''
sg3837
S''
sg3838
S'Journalist001'
p4041
sg2876
g4035
sg3839
S'Journalist001'
p4042
sbsS'P-med-24'
p4043
g1
(g10
g3
NtRp4044
(dp4045
g3827
(lp4046
sg3829
(lp4047
sg2882
S''
sg3404
F25
sg3831
F2
sg3832
F50
sg3833
S'Politician001'
p4048
sg3834
F2
sg3835
F2
sg3836
S''
sg3837
S''
sg3838
S'PresidentAlien'
p4049
sg2876
g4043
sg3839
S'Politician001'
p4050
sbsS'P-med-20'
p4051
g1
(g10
g3
NtRp4052
(dp4053
g3827
(lp4054
sg3829
(lp4055
sg2882
S''
sg3404
F25
sg3831
F2
sg3832
F50
sg3833
S'Journalist001'
p4056
sg3834
F2
sg3835
F2
sg3836
S''
sg3837
S''
sg3838
S'TVPersonality001'
p4057
sg2876
g4051
sg3839
S'Journalist001'
p4058
sbsS'P-med-21'
p4059
g1
(g10
g3
NtRp4060
(dp4061
g3827
(lp4062
sg3829
(lp4063
sg2882
S''
sg3404
F25
sg3831
F2
sg3832
F50
sg3833
S'Politician001'
p4064
sg3834
F2
sg3835
F2
sg3836
S''
sg3837
S''
sg3838
S'President'
p4065
sg2876
g4059
sg3839
S'Politician001'
p4066
sbsS'P-med-22'
p4067
g1
(g10
g3
NtRp4068
(dp4069
g3827
(lp4070
sg3829
(lp4071
sg2882
S''
sg3404
F25
sg3831
F2
sg3832
F50
sg3833
S''
sg3834
F2
sg3835
S''
sg3836
S''
sg3837
S''
sg3838
S'DeepThroat'
p4072
sg2876
g4067
sg3839
S'DeepThroat'
p4073
sbsS'P-med-23'
p4074
g1
(g10
g3
NtRp4075
(dp4076
g3827
(lp4077
sg3829
(lp4078
sg2882
S''
sg3404
F25
sg3831
F2
sg3832
F50
sg3833
S'Politician001'
p4079
sg3834
F2
sg3835
F2
sg3836
F2
sg3837
S'Politician001'
p4080
sg3838
S'President'
p4081
sg2876
g4074
sg3839
S'Politician001'
p4082
sbsS'P-hard-06'
p4083
g1
(g10
g3
NtRp4084
(dp4085
g3827
(lp4086
sg3829
(lp4087
sg2882
S''
sg3404
F25
sg3831
F2
sg3832
F50
sg3833
S'Teacher001'
p4088
sg3834
F2
sg3835
F2
sg3836
S''
sg3837
S''
sg3838
S'Teacher001'
p4089
sg2876
g4083
sg3839
S'Teacher001'
p4090
sbsS'P-hard-07'
p4091
g1
(g10
g3
NtRp4092
(dp4093
g3827
(lp4094
sg3829
(lp4095
sg2882
S''
sg3404
F25
sg3831
F2
sg3832
F50
sg3833
S'Teacher001'
p4096
sg3834
F2
sg3835
F2
sg3836
F2
sg3837
S'Teacher001'
p4097
sg3838
S'Teacher001'
p4098
sg2876
g4091
sg3839
S'Teacher001'
p4099
sbsS'P-hard-04'
p4100
g1
(g10
g3
NtRp4101
(dp4102
g3827
(lp4103
sg3829
(lp4104
sg2882
S''
sg3404
F25
sg3831
F2
sg3832
F50
sg3833
S'WarVet001'
p4105
sg3834
F2
sg3835
F2
sg3836
S''
sg3837
S''
sg3838
S'WarVet001'
p4106
sg2876
g4100
sg3839
S'WarVet001'
p4107
sbsS'P-hard-05'
p4108
g1
(g10
g3
NtRp4109
(dp4110
g3827
(lp4111
sg3829
(lp4112
sg2882
S''
sg3404
F25
sg3831
F2
sg3832
F50
sg3833
S'WarVet001'
p4113
sg3834
F2
sg3835
F2
sg3836
F2
sg3837
S'WarVet001'
p4114
sg3838
S'WarVet001'
p4115
sg2876
g4108
sg3839
S'WarVet001'
p4116
sbsS'P-hard-02'
p4117
g1
(g10
g3
NtRp4118
(dp4119
g3827
(lp4120
sg3829
(lp4121
sg2882
S''
sg3404
F25
sg3831
F2
sg3832
F50
sg3833
S'Journalist001'
p4122
sg3834
F2
sg3835
F2
sg3836
S''
sg3837
S''
sg3838
S'TVPersonality001'
p4123
sg2876
g4117
sg3839
S'Journalist001'
p4124
sbsS'P-hard-03'
p4125
g1
(g10
g3
NtRp4126
(dp4127
g3827
(lp4128
sg3829
(lp4129
sg2882
S''
sg3404
F25
sg3831
F2
sg3832
F50
sg3833
S'Journalist001'
p4130
sg3834
F2
sg3835
F2
sg3836
S''
sg3837
S''
sg3838
S'Journalist001'
p4131
sg2876
g4125
sg3839
S'TVPersonality001'
p4132
sbsS'P-hard-01'
p4133
g1
(g10
g3
NtRp4134
(dp4135
g3827
(lp4136
sg3829
(lp4137
sg2882
S''
sg3404
F25
sg3831
F2
sg3832
F50
sg3833
S'Journalist001'
p4138
sg3834
F2
sg3835
F2
sg3836
S''
sg3837
S''
sg3838
S'Journalist001'
p4139
sg2876
g4133
sg3839
S'Journalist001'
p4140
sbsS'P-easy-10'
p4141
g1
(g10
g3
NtRp4142
(dp4143
g3827
(lp4144
sg3829
(lp4145
sg2882
S''
sg3404
F25
sg3831
F2
sg3832
F50
sg3833
S'Politician001'
p4146
sg3834
F2
sg3835
F2
sg3836
S''
sg3837
S''
sg3838
S'Mayor'
p4147
sg2876
g4141
sg3839
S'Politician001'
p4148
sbsS'P-med-19'
p4149
g1
(g10
g3
NtRp4150
(dp4151
g3827
(lp4152
sg3829
(lp4153
sg2882
S''
sg3404
F25
sg3831
F2
sg3832
F50
sg3833
S''
sg3834
F2
sg3835
S''
sg3836
S''
sg3837
S''
sg3838
S'DeepThroat'
p4154
sg2876
g4149
sg3839
S'DeepThroat'
p4155
sbsS'P-med-18'
p4156
g1
(g10
g3
NtRp4157
(dp4158
g3827
(lp4159
sg3829
(lp4160
sg2882
S''
sg3404
F25
sg3831
F2
sg3832
F50
sg3833
S'ReligiousNut001'
p4161
sg3834
F2
sg3835
F2
sg3836
F2
sg3837
S'ReligiousNut001'
p4162
sg3838
S'ReligiousNut001'
p4163
sg2876
g4156
sg3839
S'ReligiousNut001'
p4164
sbsS'P-med-15'
p4165
g1
(g10
g3
NtRp4166
(dp4167
g3827
(lp4168
sg3829
(lp4169
sg2882
S''
sg3404
F25
sg3831
F2
sg3832
F50
sg3833
S''
sg3834
F2
sg3835
S''
sg3836
S''
sg3837
S''
sg3838
S'ReligiousNut001'
p4170
sg2876
g4165
sg3839
S'ReligiousNut001'
p4171
sbsS'P-med-14'
p4172
g1
(g10
g3
NtRp4173
(dp4174
g3827
(lp4175
sg3829
(lp4176
sg2882
S''
sg3404
F25
sg3831
F2
sg3832
F50
sg3833
S'Lobbyist001'
p4177
sg3834
F2
sg3835
F2
sg3836
F2
sg3837
S'Lobbyist001'
p4178
sg3838
S'Lobbyist001'
p4179
sg2876
g4172
sg3839
S'Lobbyist001'
p4180
sbsS'P-med-17'
p4181
g1
(g10
g3
NtRp4182
(dp4183
g3827
(lp4184
sg3829
(lp4185
sg2882
S''
sg3404
F25
sg3831
F2
sg3832
F50
sg3833
S'ReligiousNut001'
p4186
sg3834
F2
sg3835
F2
sg3836
S''
sg3837
S''
sg3838
S'ReligiousNut001'
p4187
sg2876
g4181
sg3839
S'ReligiousNut001'
p4188
sbsS'P-med-16'
p4189
g1
(g10
g3
NtRp4190
(dp4191
g3827
(lp4192
sg3829
(lp4193
sg2882
S''
sg3404
F25
sg3831
F2
sg3832
F50
sg3833
S'ReligiousNut001'
p4194
sg3834
F2
sg3835
F2
sg3836
S''
sg3837
S''
sg3838
S'ReligiousNut001'
p4195
sg2876
g4189
sg3839
S'ReligiousNut001'
p4196
sbsS'P-med-11'
p4197
g1
(g10
g3
NtRp4198
(dp4199
g3827
(lp4200
sg3829
(lp4201
sg2882
S''
sg3404
F25
sg3831
F2
sg3832
F50
sg3833
S'Politician001'
p4202
sg3834
F2
sg3835
F2
sg3836
F2
sg3837
S'Politician001'
p4203
sg3838
S'Politician001'
p4204
sg2876
g4197
sg3839
S'Politician001'
p4205
sbsS'P-med-10'
p4206
g1
(g10
g3
NtRp4207
(dp4208
g3827
(lp4209
sg3829
(lp4210
sg2882
S''
sg3404
F25
sg3831
F2
sg3832
F50
sg3833
S'ReligiousNut001'
p4211
sg3834
F2
sg3835
F2
sg3836
S''
sg3837
S''
sg3838
S'Politician001'
p4212
sg2876
g4206
sg3839
S'Politician001'
p4213
sbsS'P-med-13'
p4214
g1
(g10
g3
NtRp4215
(dp4216
g3827
(lp4217
sg3829
(lp4218
sg2882
S''
sg3404
F25
sg3831
F2
sg3832
F50
sg3833
S'Lobbyist001'
p4219
sg3834
F2
sg3835
F2
sg3836
S''
sg3837
S''
sg3838
S'Lobbyist001'
p4220
sg2876
g4214
sg3839
S'Lobbyist001'
p4221
sbsS'P-med-12'
p4222
g1
(g10
g3
NtRp4223
(dp4224
g3827
(lp4225
sg3829
(lp4226
sg2882
S''
sg3404
F25
sg3831
F2
sg3832
F50
sg3833
S'Lobbyist001'
p4227
sg3834
F2
sg3835
F2
sg3836
S''
sg3837
S''
sg3838
S'Lobbyist001'
p4228
sg2876
g4222
sg3839
S'Lobbyist001'
p4229
sbssb.