ccopy_reg
_reconstructor
p1
(c__main__
GameData
p2
c__builtin__
object
p3
NtRp4
(dp5
S'script'
p6
(dp7
S'StairsToWhiteHouse'
p8
(lp9
g1
(c__main__
TableRow
p10
g3
NtRp11
(dp12
S'action'
p13
S'Label'
p14
sS'trigger'
p15
g8
sS'param'
p16
S'START'
p17
sS'dialog'
p18
S''
sbag1
(g10
g3
NtRp19
(dp20
g13
S'PlayerSay'
p21
sg15
S'StairsToWhiteHouse'
p22
sg16
S''
sg18
S"I can't go upstairs now, I have a job to do!"
p23
sbag1
(g10
g3
NtRp24
(dp25
g13
S'Jump'
p26
sg15
S'StairsToWhiteHouse'
p27
sg16
S'START'
p28
sg18
S''
sbasS'#----------------------------------------------------------------------------------------ACT 3 ----------------------------------------------------------------------------------------------------------------------------------------------------------------------------------------'
p29
(lp30
g1
(g10
g3
NtRp31
(dp32
g13
S''
sg15
g29
sg16
S''
sg18
S''
sbasS'Hick1'
p33
(lp34
g1
(g10
g3
NtRp35
(dp36
g13
S'RequireFlag'
p37
sg15
g33
sg16
S'STARTHICKS'
p38
sg18
S"Look at this guy's fancy tie!"
p39
sbag1
(g10
g3
NtRp40
(dp41
g13
S'PlayerSay'
p42
sg15
S'Hick1'
p43
sg16
S''
sg18
S'What brings you to the office of the governor?'
p44
sbag1
(g10
g3
NtRp45
(dp46
g13
S'Say'
p47
sg15
S'Hick1'
p48
sg16
S''
sg18
S'The immigrants!'
p49
sbag1
(g10
g3
NtRp50
(dp51
g13
S'PlayerSay'
p52
sg15
S'Hick1'
p53
sg16
S''
sg18
S'What happened?'
p54
sbag1
(g10
g3
NtRp55
(dp56
g13
S'Say'
p57
sg15
S'Hick1'
p58
sg16
S'Hick2'
p59
sg18
S"They're coming!"
p60
sbag1
(g10
g3
NtRp61
(dp62
g13
S'PlayerSay'
p63
sg15
S'Hick1'
p64
sg16
S''
sg18
S'The...immigrants are coming?'
p65
sbag1
(g10
g3
NtRp66
(dp67
g13
S'Say'
p68
sg15
S'Hick1'
p69
sg16
S'Hick2'
p70
sg18
S'Yes, to steal our jobs and our wives!'
p71
sbag1
(g10
g3
NtRp72
(dp73
g13
S'Say'
p74
sg15
S'Hick1'
p75
sg16
S''
sg18
S'They have to be stopped!'
p76
sbag1
(g10
g3
NtRp77
(dp78
g13
S'PlayerSay'
p79
sg15
S'Hick1'
p80
sg16
S''
sg18
S"I don't think the immigrants are coming to steal your wives..."
p81
sbag1
(g10
g3
NtRp82
(dp83
g13
S'Say'
p84
sg15
S'Hick1'
p85
sg16
S'Journalist2'
p86
sg18
S'Mayor Mossman sides with the immigrants! I need to get this to print!'
p87
sbag1
(g10
g3
NtRp88
(dp89
g13
S'PlayerSay'
p90
sg15
S'Hick1'
p91
sg16
S''
sg18
S'Wait a second, let me explain.'
p92
sbag1
(g10
g3
NtRp93
(dp94
g13
S'Encounter'
p95
sg15
S'Hick1'
p96
sg16
S'P-med-03'
p97
sg18
S''
sbag1
(g10
g3
NtRp98
(dp99
g13
S'Say'
p100
sg15
S'Hick1'
p101
sg16
S''
sg18
S"You're a smart guy. I think I can trust you."
p102
sbag1
(g10
g3
NtRp103
(dp104
g13
S'SetFlag'
p105
sg15
S'Hick1'
p106
sg16
S'STARTHICKS2'
p107
sg18
S''
sbag1
(g10
g3
NtRp108
(dp109
g13
S'Increment'
p110
sg15
S'Hick1'
p111
sg16
S'DEALWITHHICKS'
p112
sg18
S''
sbag1
(g10
g3
NtRp113
(dp114
g13
S'Destroy'
p115
sg15
S'Hick1'
p116
sg16
S''
sg18
S''
sbasS'Hick2'
p117
(lp118
g1
(g10
g3
NtRp119
(dp120
g13
S'RequireFlag'
p121
sg15
g117
sg16
S'STARTHICKS2'
p122
sg18
S"Aw....I'm shy...talk to my buddy..."
p123
sbag1
(g10
g3
NtRp124
(dp125
g13
S'Encounter'
p126
sg15
S'Hick2'
p127
sg16
S'P-med-04'
p128
sg18
S''
sbag1
(g10
g3
NtRp129
(dp130
g13
S'Say'
p131
sg15
S'Hick2'
p132
sg16
S''
sg18
S"Wowee. We've been waiting for days and the governor has ignored us. If you ever run for governor, you'll have my vote!"
p133
sbag1
(g10
g3
NtRp134
(dp135
g13
S'Increment'
p136
sg15
S'Hick2'
p137
sg16
S'DEALWITHHICKS'
p138
sg18
S''
sbag1
(g10
g3
NtRp139
(dp140
g13
S'Destroy'
p141
sg15
S'Hick2'
p142
sg16
S''
sg18
S''
sbasS'Cabinet1'
p143
(lp144
g1
(g10
g3
NtRp145
(dp146
g13
S'Say'
p147
sg15
g143
sg16
S''
sg18
S'Good afternoon, Mr President. How can I help?'
p148
sbag1
(g10
g3
NtRp149
(dp150
g13
S'PlayerSay'
p151
sg15
S'Cabinet1'
p152
sg16
S''
sg18
S'I want to know where the orders to mobilise the military and reallocate education funds came from.'
p153
sbag1
(g10
g3
NtRp154
(dp155
g13
S'Say'
p156
sg15
S'Cabinet1'
p157
sg16
S''
sg18
S'But...it came from you, sir. They were both faxed over to me this afternoon.'
p158
sbag1
(g10
g3
NtRp159
(dp160
g13
S'PlayerSay'
p161
sg15
S'Cabinet1'
p162
sg16
S''
sg18
S'Tell me every detail.'
p163
sbag1
(g10
g3
NtRp164
(dp165
g13
S'Encounter'
p166
sg15
S'Cabinet1'
p167
sg16
S'P-hard-08'
p168
sg18
S''
sbag1
(g10
g3
NtRp169
(dp170
g13
S'Increment'
p171
sg15
S'Cabinet1'
p172
sg16
S'CABINETMEMBERS'
p173
sg18
S''
sbag1
(g10
g3
NtRp174
(dp175
g13
S'Say'
p176
sg15
S'Cabinet1'
p177
sg16
S''
sg18
S'I cannot understand how this could happen.'
p178
sbag1
(g10
g3
NtRp179
(dp180
g13
S'Destroy'
p181
sg15
S'Cabinet1'
p182
sg16
S''
sg18
S''
sbasS'SAVE_START'
p183
(lp184
g1
(g10
g3
NtRp185
(dp186
g13
S'GotoMap'
p187
sg15
g183
sg16
S'act1'
p188
sg18
S''
sbasS'TVDebate'
p189
(lp190
g1
(g10
g3
NtRp191
(dp192
g13
S'RequireFlag'
p193
sg15
g189
sg16
S'STARTDEBATE'
p194
sg18
S"Hmmm? Oh, sorry, I'm on the phone to the studio."
p195
sbag1
(g10
g3
NtRp196
(dp197
g13
S'Say'
p198
sg15
S'TVDebate'
p199
sg16
S''
sg18
S"Good evening, Governor Mossman. If you'll follow me, I'll take you to the studio."
p200
sbag1
(g10
g3
NtRp201
(dp202
g13
S'Encounter'
p203
sg15
S'TVDebate'
p204
sg16
S'P-med-21'
p205
sg18
S''
sbag1
(g10
g3
NtRp206
(dp207
g13
S'Say'
p208
sg15
S'TVDebate'
p209
sg16
S''
sg18
S'Great work tonight, Governor Mossman and congratulations on the win!'
p210
sbag1
(g10
g3
NtRp211
(dp212
g13
S'SetFlag'
p213
sg15
S'TVDebate'
p214
sg16
S'DEBATECOMPLETE'
p215
sg18
S''
sbag1
(g10
g3
NtRp216
(dp217
g13
S'Destroy'
p218
sg15
S'TVDebate'
p219
sg16
S''
sg18
S''
sbasS'Lobbyist2'
p220
(lp221
g1
(g10
g3
NtRp222
(dp223
g13
S'RequireFlag'
p224
sg15
g220
sg16
S'STARTLOBBYISTS'
p225
sg18
S'Humph'
p226
sbag1
(g10
g3
NtRp227
(dp228
g13
S'Say'
p229
sg15
S'Lobbyist2'
p230
sg16
S''
sg18
S'I represent the Python Software Foundation. What will you do to promote, protect and advance the Python programming language?'
p231
sbag1
(g10
g3
NtRp232
(dp233
g13
S'PlayerSay'
p234
sg15
S'Lobbyist2'
p235
sg16
S''
sg18
S"Ah yes, the Python cause! I'm a big advocate of Python."
p236
sbag1
(g10
g3
NtRp237
(dp238
g13
S'Encounter'
p239
sg15
S'Lobbyist2'
p240
sg16
S'P-med-12'
p241
sg18
S''
sbag1
(g10
g3
NtRp242
(dp243
g13
S'Increment'
p244
sg15
S'Lobbyist2'
p245
sg16
S'LOBBYISTS'
p246
sg18
S''
sbag1
(g10
g3
NtRp247
(dp248
g13
S'Say'
p249
sg15
S'Lobbyist2'
p250
sg16
S''
sg18
S'I think we can help each other out.'
p251
sbag1
(g10
g3
NtRp252
(dp253
g13
S'Destroy'
p254
sg15
S'Lobbyist2'
p255
sg16
S''
sg18
S''
sbasS'CheatAct2'
p256
(lp257
g1
(g10
g3
NtRp258
(dp259
g13
S'AddAlly'
p260
sg15
g256
sg16
S'Wife:1'
p261
sg18
S''
sbag1
(g10
g3
NtRp262
(dp263
g13
S'LearnAttack'
p264
sg15
S'CheatAct2'
p265
sg16
S'BRIBE'
p266
sg18
S''
sbag1
(g10
g3
NtRp267
(dp268
g13
S'LearnAttack'
p269
sg15
S'CheatAct2'
p270
sg16
S'Wife:BRIBE'
p271
sg18
S''
sbag1
(g10
g3
NtRp272
(dp273
g13
S'LearnAttack'
p274
sg15
S'CheatAct2'
p275
sg16
S'SLANDER'
p276
sg18
S''
sbag1
(g10
g3
NtRp277
(dp278
g13
S'GotoMap'
p279
sg15
S'CheatAct2'
p280
sg16
S'act2'
p281
sg18
S''
sbasS'CheatAct3'
p282
(lp283
g1
(g10
g3
NtRp284
(dp285
g13
S'AddAlly'
p286
sg15
g282
sg16
S'Wife:1'
p287
sg18
S''
sbag1
(g10
g3
NtRp288
(dp289
g13
S'LearnAttack'
p290
sg15
S'CheatAct3'
p291
sg16
S'BRIBE'
p292
sg18
S''
sbag1
(g10
g3
NtRp293
(dp294
g13
S'LearnAttack'
p295
sg15
S'CheatAct3'
p296
sg16
S'Wife:BRIBE'
p297
sg18
S''
sbag1
(g10
g3
NtRp298
(dp299
g13
S'LearnAttack'
p300
sg15
S'CheatAct3'
p301
sg16
S'SLANDER'
p302
sg18
S''
sbag1
(g10
g3
NtRp303
(dp304
g13
S'AddAlly'
p305
sg15
S'CheatAct3'
p306
sg16
S'Leo:1'
p307
sg18
S''
sbag1
(g10
g3
NtRp308
(dp309
g13
S'GotoMap'
p310
sg15
S'CheatAct3'
p311
sg16
S'act3'
p312
sg18
S''
sbasS'StairsToL1'
p313
(lp314
g1
(g10
g3
NtRp315
(dp316
g13
S'Label'
p317
sg15
g313
sg16
S'START'
p318
sg18
S''
sbag1
(g10
g3
NtRp319
(dp320
g13
S'GotoMap'
p321
sg15
S'StairsToL1'
p322
sg16
S'hotel_l1'
p323
sg18
S''
sbag1
(g10
g3
NtRp324
(dp325
g13
S'Jump'
p326
sg15
S'StairsToL1'
p327
sg16
S'START'
p328
sg18
S''
sbasS'DoorToCabinetRoom'
p329
(lp330
g1
(g10
g3
NtRp331
(dp332
g13
S'RequireItemPlayerSay'
p333
sg15
g329
sg16
S'CABINETROOMKEY'
p334
sg18
S'The door appears to be locked, and no amount of gesticulating can attract the attention of the inhabitants of this room.'
p335
sbag1
(g10
g3
NtRp336
(dp337
g13
S'Destroy'
p338
sg15
S'DoorToCabinetRoom'
p339
sg16
S''
sg18
S''
sbag1
(g10
g3
NtRp340
(dp341
g13
S'Message'
p342
sg15
S'DoorToCabinetRoom'
p343
sg16
S''
sg18
S'The door opens with a squeak.'
p344
sbasS'WarVet1'
p345
(lp346
g1
(g10
g3
NtRp347
(dp348
g13
S'Say'
p349
sg15
g345
sg16
S''
sg18
S"You think you can fool me? I wasn't born yesterday, you know."
p350
sbag1
(g10
g3
NtRp351
(dp352
g13
S'PlayerSay'
p353
sg15
S'WarVet1'
p354
sg16
S''
sg18
S"I'm sorry, sir, but what seems to be the problem."
p355
sbag1
(g10
g3
NtRp356
(dp357
g13
S'Say'
p358
sg15
S'WarVet1'
p359
sg16
S''
sg18
S"You think I don't know a mobilising army when I see one? You're clearly readying for war and you think you don't even need to mention it to the people."
p360
sbag1
(g10
g3
NtRp361
(dp362
g13
S'Say'
p363
sg15
S'WarVet1'
p364
sg16
S'WarVet2'
p365
sg18
S"And don't forget that he's barely a cadet, Wilfred."
p366
sbag1
(g10
g3
NtRp367
(dp368
g13
S'Say'
p369
sg15
S'WarVet1'
p370
sg16
S''
sg18
S"Right you are, Arnold, You've barely set foot in this building and you're already leading us to war. Who do you think you're dealing with? We won't stand."
p371
sbag1
(g10
g3
NtRp372
(dp373
g13
S'Encounter'
p374
sg15
S'WarVet1'
p375
sg16
S'P-hard-04'
p376
sg18
S''
sbag1
(g10
g3
NtRp377
(dp378
g13
S'Say'
p379
sg15
S'WarVet1'
p380
sg16
S''
sg18
S"Seems like a flimsy excuse, you didn't know. Better get your troops in line if you want 'em to march, boy."
p381
sbag1
(g10
g3
NtRp382
(dp383
g13
S'Increment'
p384
sg15
S'WarVet1'
p385
sg16
S'WARVETS'
p386
sg18
S''
sbag1
(g10
g3
NtRp387
(dp388
g13
S'SetFlag'
p389
sg15
S'WarVet1'
p390
sg16
S'AFTERWILFRED'
p391
sg18
S''
sbag1
(g10
g3
NtRp392
(dp393
g13
S'Destroy'
p394
sg15
S'WarVet1'
p395
sg16
S''
sg18
S''
sbasS'Teacher2'
p396
(lp397
g1
(g10
g3
NtRp398
(dp399
g13
S'Say'
p400
sg15
g396
sg16
S''
sg18
S"You cannot gamble with the future, Mr President. Childrens' education is at stake!"
p401
sbag1
(g10
g3
NtRp402
(dp403
g13
S'PlayerSay'
p404
sg15
S'Teacher2'
p405
sg16
S''
sg18
S"I can assure you this isn't so..."
p406
sbag1
(g10
g3
NtRp407
(dp408
g13
S'Encounter'
p409
sg15
S'Teacher2'
p410
sg16
S'P-hard-07'
p411
sg18
S''
sbag1
(g10
g3
NtRp412
(dp413
g13
S'Say'
p414
sg15
S'Teacher2'
p415
sg16
S''
sg18
S'We will await a change from your government.'
p416
sbag1
(g10
g3
NtRp417
(dp418
g13
S'Increment'
p419
sg15
S'Teacher2'
p420
sg16
S'TEACHERS'
p421
sg18
S''
sbag1
(g10
g3
NtRp422
(dp423
g13
S'Destroy'
p424
sg15
S'Teacher2'
p425
sg16
S''
sg18
S''
sbasS'StairsToWhiteHouseBasement'
p426
(lp427
g1
(g10
g3
NtRp428
(dp429
g13
S'GotoMap'
p430
sg15
g426
sg16
S'act3_basement'
p431
sg18
S''
sbasS'Kawalski'
p432
(lp433
g1
(g10
g3
NtRp434
(dp435
g13
S'RequireFlag'
p436
sg15
g432
sg16
S'ACCESSKAWALSKI'
p437
sg18
S"I'm not allowed to speak to you, sir."
p438
sbag1
(g10
g3
NtRp439
(dp440
g13
S'Say'
p441
sg15
S'Kawalski'
p442
sg16
S''
sg18
S'A pleasure to meet you, President Mossman. I am Agent Kawalski, your security detail.'
p443
sbag1
(g10
g3
NtRp444
(dp445
g13
S'PlayerSay'
p446
sg15
S'Kawalski'
p447
sg16
S''
sg18
S'Great to meet you, Agent Kawalski. What do I need to know?'
p448
sbag1
(g10
g3
NtRp449
(dp450
g13
S'Say'
p451
sg15
S'Kawalski'
p452
sg16
S''
sg18
S'Well actually, it does have to do with your security. Something terrible is happening at the White House.'
p453
sbag1
(g10
g3
NtRp454
(dp455
g13
S'PlayerSay'
p456
sg15
S'Kawalski'
p457
sg16
S''
sg18
S"If you're trying to warn me about the aliens, it's under control."
p458
sbag1
(g10
g3
NtRp459
(dp460
g13
S'Say'
p461
sg15
S'Kawalski'
p462
sg16
S''
sg18
S'No, no, this is different. I think somebody is trying to take over the White House.'
p463
sbag1
(g10
g3
NtRp464
(dp465
g13
S'PlayerSay'
p466
sg15
S'Kawalski'
p467
sg16
S''
sg18
S"Wouldn't we know?"
p468
sbag1
(g10
g3
NtRp469
(dp470
g13
S'Say'
p471
sg15
S'Kawalski'
p472
sg16
S''
sg18
S"It's too early for those kind of details. I just want you to keep your eyes open, Mr President."
p473
sbag1
(g10
g3
NtRp474
(dp475
g13
S'PlayerSay'
p476
sg15
S'Kawalski'
p477
sg16
S''
sg18
S'No problem.'
p478
sbag1
(g10
g3
NtRp479
(dp480
g13
S'Destroy'
p481
sg15
S'Kawalski'
p482
sg16
S''
sg18
S''
sbag1
(g10
g3
NtRp483
(dp484
g13
S'AddAlly'
p485
sg15
S'Kawalski'
p486
sg16
S'SecretAgent:1'
p487
sg18
S'Kawalski joins your political party!'
p488
sbag1
(g10
g3
NtRp489
(dp490
g13
S'SetFlag'
p491
sg15
S'Kawalski'
p492
sg16
S'KAWALSKIJOIN'
p493
sg18
S''
sbasS'Theo'
p494
(lp495
g1
(g10
g3
NtRp496
(dp497
g13
S'RequireFlag'
p498
sg15
g494
sg16
S'GOVERNORDEFEATED'
p499
sg18
S'The Governor is in the north wing.'
p500
sbag1
(g10
g3
NtRp501
(dp502
g13
S'Say'
p503
sg15
S'Theo'
p504
sg16
S''
sg18
S"You must be Governor Mossman. I am Theo. I've been looking for you, but I wanted to see how you handled Governor Badden"
p505
sbag1
(g10
g3
NtRp506
(dp507
g13
S'PlayerSay'
p508
sg15
S'Theo'
p509
sg16
S''
sg18
S'Hi Theo. Why have you been looking for me?'
p510
sbag1
(g10
g3
NtRp511
(dp512
g13
S'Say'
p513
sg15
S'Theo'
p514
sg16
S''
sg18
S"There's a lot going on in Ignited States politics and none of it is good. Somebody needs to get up there and find out what's going on."
p515
sbag1
(g10
g3
NtRp516
(dp517
g13
S'Say'
p518
sg15
S'Theo'
p519
sg16
S''
sg18
S"I couldn't be sure which side you were on, but your dealings with the Governor prove that you're not with them."
p520
sbag1
(g10
g3
NtRp521
(dp522
g13
S'PlayerSay'
p523
sg15
S'Theo'
p524
sg16
S''
sg18
S'It sounds like it goes all the way to the President of the Ignited States.'
p525
sbag1
(g10
g3
NtRp526
(dp527
g13
S'Say'
p528
sg15
S'Theo'
p529
sg16
S''
sg18
S"It does. That's why I've been looking for you. The only way to find out is to flush them out. There's only one way to flush out President Allen."
p530
sbag1
(g10
g3
NtRp531
(dp532
g13
S'PlayerSay'
p533
sg15
S'Theo'
p534
sg16
S''
sg18
S"How's that?"
p535
sbag1
(g10
g3
NtRp536
(dp537
g13
S'Say'
p538
sg15
S'Theo'
p539
sg16
S''
sg18
S"...I've been a campaign manager for 20 years and I've never seen a candidate as strong as you. I think you have what it takes to run for the presidency."
p540
sbag1
(g10
g3
NtRp541
(dp542
g13
S'Say'
p543
sg15
S'Theo'
p544
sg16
S''
sg18
S"That's why I was looking for you. I need somebody who has a shot at winning in order to get to President Allen. You have that shot."
p545
sbag1
(g10
g3
NtRp546
(dp547
g13
S'PlayerSay'
p548
sg15
S'Theo'
p549
sg16
S''
sg18
S"You really think I can win? Well...I want to follow this through to the end, so I'm in!"
p550
sbag1
(g10
g3
NtRp551
(dp552
g13
S'Say'
p553
sg15
S'Theo'
p554
sg16
S''
sg18
S"Great! There's a lot to get organised! We need to plan our election campaign!"
p555
sbag1
(g10
g3
NtRp556
(dp557
g13
S'Destroy'
p558
sg15
S'Theo'
p559
sg16
S''
sg18
S''
sbag1
(g10
g3
NtRp560
(dp561
g13
S'AddAlly'
p562
sg15
S'Theo'
p563
sg16
S'Leo:1'
p564
sg18
S''
sbag1
(g10
g3
NtRp565
(dp566
g13
S'Message'
p567
sg15
S'Theo'
p568
sg16
S''
sg18
S'Theo joins your political party!'
p569
sbasS'Religious4'
p570
(lp571
g1
(g10
g3
NtRp572
(dp573
g13
S'Say'
p574
sg15
g570
sg16
S''
sg18
S'Do not be swayed by the seductive powers of tea!'
p575
sbag1
(g10
g3
NtRp576
(dp577
g13
S'Encounter'
p578
sg15
S'Religious4'
p579
sg16
S'P-med-18'
p580
sg18
S''
sbag1
(g10
g3
NtRp581
(dp582
g13
S'Increment'
p583
sg15
S'Religious4'
p584
sg16
S'RELIGIOUSNUTS'
p585
sg18
S''
sbag1
(g10
g3
NtRp586
(dp587
g13
S'Say'
p588
sg15
S'Religious4'
p589
sg16
S''
sg18
S'The Battycan will be satisfied with this news.'
p590
sbag1
(g10
g3
NtRp591
(dp592
g13
S'Destroy'
p593
sg15
S'Religious4'
p594
sg16
S''
sg18
S''
sbasS'JointChief1'
p595
(lp596
g1
(g10
g3
NtRp597
(dp598
g13
S'Say'
p599
sg15
g595
sg16
S''
sg18
S'Mr President, what is going on here? First you move troops without our authority and then you countermand your own order?'
p600
sbag1
(g10
g3
NtRp601
(dp602
g13
S'PlayerSay'
p603
sg15
S'JointChief1'
p604
sg16
S''
sg18
S"I haven't ordered the military to do any such thing! What is going on? Is this a coup?"
p605
sbag1
(g10
g3
NtRp606
(dp607
g13
S'Say'
p608
sg15
S'JointChief1'
p609
sg16
S''
sg18
S'Not from us!'
p610
sbag1
(g10
g3
NtRp611
(dp612
g13
S'Encounter'
p613
sg15
S'JointChief1'
p614
sg16
S'P-hard-11'
p615
sg18
S''
sbag1
(g10
g3
NtRp616
(dp617
g13
S'Increment'
p618
sg15
S'JointChief1'
p619
sg16
S'JOINTCHIEFS'
p620
sg18
S''
sbag1
(g10
g3
NtRp621
(dp622
g13
S'PlayerSay'
p623
sg15
S'JointChief1'
p624
sg16
S''
sg18
S"Well, that's one less thing to worry about then."
p625
sbag1
(g10
g3
NtRp626
(dp627
g13
S'Destroy'
p628
sg15
S'JointChief1'
p629
sg16
S''
sg18
S''
sbasS'Religious1'
p630
(lp631
g1
(g10
g3
NtRp632
(dp633
g13
S'Say'
p634
sg15
g630
sg16
S''
sg18
S'Have you had your morning prayer?'
p635
sbag1
(g10
g3
NtRp636
(dp637
g13
S'Encounter'
p638
sg15
S'Religious1'
p639
sg16
S'P-med-16'
p640
sg18
S''
sbag1
(g10
g3
NtRp641
(dp642
g13
S'Increment'
p643
sg15
S'Religious1'
p644
sg16
S'RELIGIOUSNUTS'
p645
sg18
S''
sbag1
(g10
g3
NtRp646
(dp647
g13
S'Say'
p648
sg15
S'Religious1'
p649
sg16
S''
sg18
S'Some people pray upwards of 5 times a day, but this can cause hallucinations.'
p650
sbag1
(g10
g3
NtRp651
(dp652
g13
S'Destroy'
p653
sg15
S'Religious1'
p654
sg16
S''
sg18
S''
sbasS'Religious3'
p655
(lp656
g1
(g10
g3
NtRp657
(dp658
g13
S'Say'
p659
sg15
g655
sg16
S''
sg18
S'Mmmmmm...Coffee....ommmmm'
p660
sbag1
(g10
g3
NtRp661
(dp662
g13
S'Encounter'
p663
sg15
S'Religious3'
p664
sg16
S'P-med-17'
p665
sg18
S''
sbag1
(g10
g3
NtRp666
(dp667
g13
S'Increment'
p668
sg15
S'Religious3'
p669
sg16
S'RELIGIOUSNUTS'
p670
sg18
S''
sbag1
(g10
g3
NtRp671
(dp672
g13
S'Say'
p673
sg15
S'Religious3'
p674
sg16
S''
sg18
S'I must return to my meditation.'
p675
sbag1
(g10
g3
NtRp676
(dp677
g13
S'Destroy'
p678
sg15
S'Religious3'
p679
sg16
S''
sg18
S''
sbasS'Religious2'
p680
(lp681
g1
(g10
g3
NtRp682
(dp683
g13
S'Say'
p684
sg15
g680
sg16
S''
sg18
S'Welcome, my child. We have travelled here from Battycan City to be assured you are a man of faith before we endorse you.'
p685
sbag1
(g10
g3
NtRp686
(dp687
g13
S'PlayerSay'
p688
sg15
S'Religious2'
p689
sg16
S''
sg18
S'Er, what faith is that?'
p690
sbag1
(g10
g3
NtRp691
(dp692
g13
S'Say'
p693
sg15
S'Religious2'
p694
sg16
S''
sg18
S'Why, the one true god: Coffee.'
p695
sbag1
(g10
g3
NtRp696
(dp697
g13
S'PlayerSay'
p698
sg15
S'Religious2'
p699
sg16
S''
sg18
S'...Coffee?'
p700
sbag1
(g10
g3
NtRp701
(dp702
g13
S'Say'
p703
sg15
S'Religious2'
p704
sg16
S''
sg18
S"Yes of course. He who lifts you up when you're feeling low, who is your inspiration in the dark and who can achieve miraculous feats of effort with dedicated prayer."
p705
sbag1
(g10
g3
NtRp706
(dp707
g13
S'PlayerSay'
p708
sg15
S'Religious2'
p709
sg16
S''
sg18
S'This may be a religion I can get behind.'
p710
sbag1
(g10
g3
NtRp711
(dp712
g13
S'Encounter'
p713
sg15
S'Religious2'
p714
sg16
S'P-med-15'
p715
sg18
S''
sbag1
(g10
g3
NtRp716
(dp717
g13
S'Increment'
p718
sg15
S'Religious2'
p719
sg16
S'RELIGIOUSNUTS'
p720
sg18
S''
sbag1
(g10
g3
NtRp721
(dp722
g13
S'Say'
p723
sg15
S'Religious2'
p724
sg16
S''
sg18
S'Wonderful, the Battycan will be most pleased.'
p725
sbag1
(g10
g3
NtRp726
(dp727
g13
S'Destroy'
p728
sg15
S'Religious2'
p729
sg16
S''
sg18
S''
sbasS'Constituent2'
p730
(lp731
g1
(g10
g3
NtRp732
(dp733
g13
S'RequireFlag'
p734
sg15
g730
sg16
S'STARTCONSTITUENTS'
p735
sg18
S'What?'
p736
sbag1
(g10
g3
NtRp737
(dp738
g13
S'PlayerSay'
p739
sg15
S'Constituent2'
p740
sg16
S''
sg18
S'Vote Phillip Mossman for Mayor!'
p741
sbag1
(g10
g3
NtRp742
(dp743
g13
S'Say'
p744
sg15
S'Constituent2'
p745
sg16
S''
sg18
S'But Mayor Goodman has always taken care of me.'
p746
sbag1
(g10
g3
NtRp747
(dp748
g13
S'Encounter'
p749
sg15
S'Constituent2'
p750
sg16
S'P-easy-08'
p751
sg18
S''
sbag1
(g10
g3
NtRp752
(dp753
g13
S'Say'
p754
sg15
S'Constituent2'
p755
sg16
S''
sg18
S"I think it's time for a change!"
p756
sbag1
(g10
g3
NtRp757
(dp758
g13
S'Destroy'
p759
sg15
S'Constituent2'
p760
sg16
S''
sg18
S''
sbasS'Constituent3'
p761
(lp762
g1
(g10
g3
NtRp763
(dp764
g13
S'RequireFlag'
p765
sg15
g761
sg16
S'STARTCONSTITUENTS'
p766
sg18
S'What?'
p767
sbag1
(g10
g3
NtRp768
(dp769
g13
S'PlayerSay'
p770
sg15
S'Constituent3'
p771
sg16
S''
sg18
S'Vote Phillip Mossman for Mayor!'
p772
sbag1
(g10
g3
NtRp773
(dp774
g13
S'Say'
p775
sg15
S'Constituent3'
p776
sg16
S''
sg18
S'But Mayor Goodman has always taken care of me.'
p777
sbag1
(g10
g3
NtRp778
(dp779
g13
S'Encounter'
p780
sg15
S'Constituent3'
p781
sg16
S'P-easy-09'
p782
sg18
S''
sbag1
(g10
g3
NtRp783
(dp784
g13
S'Say'
p785
sg15
S'Constituent3'
p786
sg16
S''
sg18
S"I think it's time for a change!"
p787
sbag1
(g10
g3
NtRp788
(dp789
g13
S'PlayerSay'
p790
sg15
S'Constituent3'
p791
sg16
S''
sg18
S"I think I'm ready to take on Mayor Goodman now!"
p792
sbag1
(g10
g3
NtRp793
(dp794
g13
S'SetFlag'
p795
sg15
S'Constituent3'
p796
sg16
S'CONSTITUENTSWON'
p797
sg18
S''
sbag1
(g10
g3
NtRp798
(dp799
g13
S'Destroy'
p800
sg15
S'Constituent3'
p801
sg16
S''
sg18
S''
sbasS'DeepThroat'
p802
(lp803
g1
(g10
g3
NtRp804
(dp805
g13
S'Say'
p806
sg15
g802
sg16
S''
sg18
S'Finally, I thought you were going to be too late.'
p807
sbag1
(g10
g3
NtRp808
(dp809
g13
S'PlayerSay'
p810
sg15
S'DeepThroat'
p811
sg16
S''
sg18
S'What can I do for you Mr er...?'
p812
sbag1
(g10
g3
NtRp813
(dp814
g13
S'Say'
p815
sg15
S'DeepThroat'
p816
sg16
S''
sg18
S"No names! I have something I think you'll be interested in, but I'm not sure you can be trusted."
p817
sbag1
(g10
g3
NtRp818
(dp819
g13
S'PlayerSay'
p820
sg15
S'DeepThroat'
p821
sg16
S''
sg18
S"Look, Mr Er...I'm very busy, what is this about?"
p822
sbag1
(g10
g3
NtRp823
(dp824
g13
S'Say'
p825
sg15
S'DeepThroat'
p826
sg16
S''
sg18
S"It's about the President, it's about national security, but I've got a bad feeling and I'm getting out of here."
p827
sbag1
(g10
g3
NtRp828
(dp829
g13
S'PlayerSay'
p830
sg15
S'DeepThroat'
p831
sg16
S''
sg18
S'No, wait!'
p832
sbag1
(g10
g3
NtRp833
(dp834
g13
S'Encounter'
p835
sg15
S'DeepThroat'
p836
sg16
S'P-med-19'
p837
sg18
S''
sbag1
(g10
g3
NtRp838
(dp839
g13
S'Say'
p840
sg15
S'DeepThroat'
p841
sg16
S''
sg18
S"You're right, I have every reason to trust you. I've found this Incriminating Evidence."
p842
sbag1
(g10
g3
NtRp843
(dp844
g13
S'GiveItem'
p845
sg15
S'DeepThroat'
p846
sg16
S'INCRIMINATINGEVIDENCE'
p847
sg18
S'You receive Incriminating Evidence'
p848
sbag1
(g10
g3
NtRp849
(dp850
g13
S'PlayerSay'
p851
sg15
S'DeepThroat'
p852
sg16
S''
sg18
S'This has to be stopped!'
p853
sbag1
(g10
g3
NtRp854
(dp855
g13
S'Say'
p856
sg15
S'DeepThroat'
p857
sg16
S''
sg18
S"Yes, but not by me. I've given you all I've got, now get out."
p858
sbag1
(g10
g3
NtRp859
(dp860
g13
S'RequireFlag'
p861
sg15
S'DeepThroat'
p862
sg16
S'DEEPTHROAT2'
p863
sg18
S'I said get out!'
p864
sbag1
(g10
g3
NtRp865
(dp866
g13
S'Say'
p867
sg15
S'DeepThroat'
p868
sg16
S''
sg18
S"It's a lot worse than I thought. I have more to tell you, but I don't think I should trust you. I think there's a leak in your operation somewhere."
p869
sbag1
(g10
g3
NtRp870
(dp871
g13
S'PlayerSay'
p872
sg15
S'DeepThroat'
p873
sg16
S''
sg18
S'Why do you say that?'
p874
sbag1
(g10
g3
NtRp875
(dp876
g13
S'Say'
p877
sg15
S'DeepThroat'
p878
sg16
S''
sg18
S'There was a lot of heat on me after we last spoke.'
p879
sbag1
(g10
g3
NtRp880
(dp881
g13
S'PlayerSay'
p882
sg15
S'DeepThroat'
p883
sg16
S''
sg18
S"It's getting close to the final election. It could just be that they're getting skittish."
p884
sbag1
(g10
g3
NtRp885
(dp886
g13
S'Say'
p887
sg15
S'DeepThroat'
p888
sg16
S''
sg18
S"I'm not so sure..."
p889
sbag1
(g10
g3
NtRp890
(dp891
g13
S'Encounter'
p892
sg15
S'DeepThroat'
p893
sg16
S'P-med-22'
p894
sg18
S''
sbag1
(g10
g3
NtRp895
(dp896
g13
S'Say'
p897
sg15
S'DeepThroat'
p898
sg16
S''
sg18
S"You're right, I'm just edgy. Look, I think you should be careful. I think the President is planning to KILL you in the final debate... politically."
p899
sbag1
(g10
g3
NtRp900
(dp901
g13
S'PlayerSay'
p902
sg15
S'DeepThroat'
p903
sg16
S''
sg18
S'You think he wants to silence me forever.... On the political stage?'
p904
sbag1
(g10
g3
NtRp905
(dp906
g13
S'Say'
p907
sg15
S'DeepThroat'
p908
sg16
S''
sg18
S'Yes I do. This could get really messy... politically speaking. So be careful!'
p909
sbag1
(g10
g3
NtRp910
(dp911
g13
S'SetFlag'
p912
sg15
S'DeepThroat'
p913
sg16
S'FINISHEDDEEPTHROAT'
p914
sg18
S''
sbag1
(g10
g3
NtRp915
(dp916
g13
S'Destroy'
p917
sg15
S'DeepThroat'
p918
sg16
S''
sg18
S''
sbasS'Constituent1'
p919
(lp920
g1
(g10
g3
NtRp921
(dp922
g13
S'RequireFlag'
p923
sg15
g919
sg16
S'STARTCONSTITUENTS'
p924
sg18
S'Yes?'
p925
sbag1
(g10
g3
NtRp926
(dp927
g13
S'PlayerSay'
p928
sg15
S'Constituent1'
p929
sg16
S''
sg18
S'Vote Phillip Mossman for Mayor!'
p930
sbag1
(g10
g3
NtRp931
(dp932
g13
S'Say'
p933
sg15
S'Constituent1'
p934
sg16
S''
sg18
S'Who?'
p935
sbag1
(g10
g3
NtRp936
(dp937
g13
S'PlayerSay'
p938
sg15
S'Constituent1'
p939
sg16
S''
sg18
S'Er, me!'
p940
sbag1
(g10
g3
NtRp941
(dp942
g13
S'Say'
p943
sg15
S'Constituent1'
p944
sg16
S''
sg18
S'Why? How will you help local business?'
p945
sbag1
(g10
g3
NtRp946
(dp947
g13
S'Encounter'
p948
sg15
S'Constituent1'
p949
sg16
S'P-easy-07'
p950
sg18
S''
sbag1
(g10
g3
NtRp951
(dp952
g13
S'Say'
p953
sg15
S'Constituent1'
p954
sg16
S''
sg18
S'You make a good case!'
p955
sbag1
(g10
g3
NtRp956
(dp957
g13
S'Destroy'
p958
sg15
S'Constituent1'
p959
sg16
S''
sg18
S''
sbasS'Teacher1'
p960
(lp961
g1
(g10
g3
NtRp962
(dp963
g13
S'Say'
p964
sg15
g960
sg16
S''
sg18
S"Good day, Mr President. I have to say I'm most displeased with the current state of affairs around the education budget."
p965
sbag1
(g10
g3
NtRp966
(dp967
g13
S'Say'
p968
sg15
S'Teacher1'
p969
sg16
S'Teacher2'
p970
sg18
S'Agreed. This is simply unacceptable. We will need to close down schools!'
p971
sbag1
(g10
g3
NtRp972
(dp973
g13
S'PlayerSay'
p974
sg15
S'Teacher1'
p975
sg16
S''
sg18
S"I'm sorry, I don't understand your concern. My education plan was one of the linchpins of my election campaign."
p976
sbag1
(g10
g3
NtRp977
(dp978
g13
S'Say'
p979
sg15
S'Teacher1'
p980
sg16
S''
sg18
S'And precisely one of the reasons I voted for you.'
p981
sbag1
(g10
g3
NtRp982
(dp983
g13
S'Say'
p984
sg15
S'Teacher1'
p985
sg16
S'Teacher2'
p986
sg18
S"-Yet as soon as you've walked through these doors, the education budget has been drastically slashed."
p987
sbag1
(g10
g3
NtRp988
(dp989
g13
S'PlayerSay'
p990
sg15
S'Teacher1'
p991
sg16
S''
sg18
S"I can assure you this isn't so..."
p992
sbag1
(g10
g3
NtRp993
(dp994
g13
S'Encounter'
p995
sg15
S'Teacher1'
p996
sg16
S'P-hard-06'
p997
sg18
S''
sbag1
(g10
g3
NtRp998
(dp999
g13
S'Say'
p1000
sg15
S'Teacher1'
p1001
sg16
S''
sg18
S"Well, I'd like to believe you, Mr President, but the proof is in the pudding,"
p1002
sbag1
(g10
g3
NtRp1003
(dp1004
g13
S'PlayerSay'
p1005
sg15
S'Teacher1'
p1006
sg16
S''
sg18
S'I WILL get to the bottom of this.'
p1007
sbag1
(g10
g3
NtRp1008
(dp1009
g13
S'Increment'
p1010
sg15
S'Teacher1'
p1011
sg16
S'TEACHERS'
p1012
sg18
S''
sbag1
(g10
g3
NtRp1013
(dp1014
g13
S'Destroy'
p1015
sg15
S'Teacher1'
p1016
sg16
S''
sg18
S''
sbasS'JointChief3'
p1017
(lp1018
g1
(g10
g3
NtRp1019
(dp1020
g13
S'PlayerSay'
p1021
sg15
g1017
sg16
S''
sg18
S'Who can control the ICBMs, knows the access codes and can modify orders to troop movements and budgets?'
p1022
sbag1
(g10
g3
NtRp1023
(dp1024
g13
S'Say'
p1025
sg15
S'JointChief3'
p1026
sg16
S''
sg18
S'Sir, this is the Ignited States! Nobody has that power! Not even you!'
p1027
sbag1
(g10
g3
NtRp1028
(dp1029
g13
S'PlayerSay'
p1030
sg15
S'JointChief3'
p1031
sg16
S''
sg18
S'Someone must. Think harder!'
p1032
sbag1
(g10
g3
NtRp1033
(dp1034
g13
S'Encounter'
p1035
sg15
S'JointChief3'
p1036
sg16
S'P-hard-13'
p1037
sg18
S''
sbag1
(g10
g3
NtRp1038
(dp1039
g13
S'PlayerSay'
p1040
sg15
S'JointChief3'
p1041
sg16
S''
sg18
S"So, there's no man alive with the power to do all this? How will we stop it in time if we don't know who it is?"
p1042
sbag1
(g10
g3
NtRp1043
(dp1044
g13
S'Say'
p1045
sg15
S'JointChief3'
p1046
sg16
S''
sg18
S"Not a man....there is one with the power to do all this, but it isn't a man, it's a super computer responsible for national security! N.O.T.B.A.D!"
p1047
sbag1
(g10
g3
NtRp1048
(dp1049
g13
S'PlayerSay'
p1050
sg15
S'JointChief3'
p1051
sg16
S''
sg18
S'We have to get to the Situation Room and stop it!'
p1052
sbag1
(g10
g3
NtRp1053
(dp1054
g13
S'Increment'
p1055
sg15
S'JointChief3'
p1056
sg16
S'JOINTCHIEFS'
p1057
sg18
S''
sbag1
(g10
g3
NtRp1058
(dp1059
g13
S'Destroy'
p1060
sg15
S'JointChief3'
p1061
sg16
S''
sg18
S''
sbasS'DoorToWhiteHouseBasement'
p1062
(lp1063
g1
(g10
g3
NtRp1064
(dp1065
g13
S'RequireFlagPlayerSay'
p1066
sg15
g1062
sg16
S'ACCESSWHITEHOUSEBASEMENT'
p1067
sg18
S"What a strange looking door. It doesn't even have a keyhole, but it doesn't open when I push it."
p1068
sbag1
(g10
g3
NtRp1069
(dp1070
g13
S'Destroy'
p1071
sg15
S'DoorToWhiteHouseBasement'
p1072
sg16
S''
sg18
S''
sbag1
(g10
g3
NtRp1073
(dp1074
g13
S'Message'
p1075
sg15
S'DoorToWhiteHouseBasement'
p1076
sg16
S''
sg18
S'The door opens with a satisfying *beep*.'
p1077
sbasS'PA'
p1078
(lp1079
g1
(g10
g3
NtRp1080
(dp1081
g13
S'Say'
p1082
sg15
g1078
sg16
S''
sg18
S'Good morning, Governor Mossman. I am your personal assistant, Sampson'
p1083
sbag1
(g10
g3
NtRp1084
(dp1085
g13
S'Say'
p1086
sg15
S'PA'
p1087
sg16
S''
sg18
S"You've a busy schedule, so let's get going! We've called together our entire political party in order for you to get them all to agree on a platform. We had to keep them separated, so they're in the adjoining rooms."
p1088
sbag1
(g10
g3
NtRp1089
(dp1090
g13
S'SetFlag'
p1091
sg15
S'PA'
p1092
sg16
S'STARTPOLITICIANSHAKEDOWN'
p1093
sg18
S''
sbag1
(g10
g3
NtRp1094
(dp1095
g13
S'RequireCount'
p1096
sg15
S'PA'
p1097
sg16
S'POLITICIANSHAKEDOWN:5'
p1098
sg18
S'Please try to stay on schedule. The politicians are in the adjoining rooms.'
p1099
sbag1
(g10
g3
NtRp1100
(dp1101
g13
S'Say'
p1102
sg15
S'PA'
p1103
sg16
S''
sg18
S'Hmmm, falling behind already, Better get a move on!'
p1104
sbag1
(g10
g3
NtRp1105
(dp1106
g13
S'Say'
p1107
sg15
S'PA'
p1108
sg16
S''
sg18
S'We need some funds for our war chest! Head upstairs and meet with the lobbyists.'
p1109
sbag1
(g10
g3
NtRp1110
(dp1111
g13
S'SetFlag'
p1112
sg15
S'PA'
p1113
sg16
S'STARTLOBBYISTS'
p1114
sg18
S''
sbag1
(g10
g3
NtRp1115
(dp1116
g13
S'RequireCount'
p1117
sg15
S'PA'
p1118
sg16
S'LOBBYISTS:3'
p1119
sg18
S'Go get those funds! The lobbyists are upstairs.'
p1120
sbag1
(g10
g3
NtRp1121
(dp1122
g13
S'Say'
p1123
sg15
S'PA'
p1124
sg16
S''
sg18
S'No time for lunch! A flock of religious nuts has taken up residence in the lobby downstairs.'
p1125
sbag1
(g10
g3
NtRp1126
(dp1127
g13
S'Say'
p1128
sg15
S'PA'
p1129
sg16
S''
sg18
S"You'll need to go in and try to ... reason ... with them."
p1130
sbag1
(g10
g3
NtRp1131
(dp1132
g13
S'SetFlag'
p1133
sg15
S'PA'
p1134
sg16
S'ACCESSGROUNDFLOOR'
p1135
sg18
S''
sbag1
(g10
g3
NtRp1136
(dp1137
g13
S'RequireCount'
p1138
sg15
S'PA'
p1139
sg16
S'RELIGIOUSNUTS:4'
p1140
sg18
S'I need you to go downstairs and handle the religious nuts.'
p1141
sbag1
(g10
g3
NtRp1142
(dp1143
g13
S'Say'
p1144
sg15
S'PA'
p1145
sg16
S''
sg18
S'Wow, you got those crazies to back us?'
p1146
sbag1
(g10
g3
NtRp1147
(dp1148
g13
S'PlayerSay'
p1149
sg15
S'PA'
p1150
sg16
S''
sg18
S'And a lifetime supply of French Roast!'
p1151
sbag1
(g10
g3
NtRp1152
(dp1153
g13
S'Say'
p1154
sg15
S'PA'
p1155
sg16
S''
sg18
S'Right ... well, moving on ...'
p1156
sbag1
(g10
g3
NtRp1157
(dp1158
g13
S'Say'
p1159
sg15
S'PA'
p1160
sg16
S''
sg18
S'You have an appointment with a shady looking man who absolutely insisted on speaking to you.'
p1161
sbag1
(g10
g3
NtRp1162
(dp1163
g13
S'Say'
p1164
sg15
S'PA'
p1165
sg16
S''
sg18
S'I left him in the basement where he felt most comfortable.'
p1166
sbag1
(g10
g3
NtRp1167
(dp1168
g13
S'Say'
p1169
sg15
S'PA'
p1170
sg16
S''
sg18
S'Deal with him quickly, would you?'
p1171
sbag1
(g10
g3
NtRp1172
(dp1173
g13
S'SetFlag'
p1174
sg15
S'PA'
p1175
sg16
S'ACCESSBASEMENT'
p1176
sg18
S''
sbag1
(g10
g3
NtRp1177
(dp1178
g13
S'RequireItem'
p1179
sg15
S'PA'
p1180
sg16
S'INCRIMINATINGEVIDENCE'
p1181
sg18
S'Head down to the basement and talk to the shady looking man.'
p1182
sbag1
(g10
g3
NtRp1183
(dp1184
g13
S'Say'
p1185
sg15
S'PA'
p1186
sg16
S''
sg18
S'OH MY GOD where have you been?'
p1187
sbag1
(g10
g3
NtRp1188
(dp1189
g13
S'Say'
p1190
sg15
S'PA'
p1191
sg16
S''
sg18
S"We will NEVER get the schedule back on track now. Hurry, you're due to appear on the Hercules O'Grady show!"
p1192
sbag1
(g10
g3
NtRp1193
(dp1194
g13
S'SetFlag'
p1195
sg15
S'PA'
p1196
sg16
S'STARTHERCULES'
p1197
sg18
S''
sbag1
(g10
g3
NtRp1198
(dp1199
g13
S'RequireFlag'
p1200
sg15
S'PA'
p1201
sg16
S'BEATHERCULES'
p1202
sg18
S"Look your best, get ready and don't say anything stupid! They're filming live in the lobby. Get down there, quick!"
p1203
sbag1
(g10
g3
NtRp1204
(dp1205
g13
S'Say'
p1206
sg15
S'PA'
p1207
sg16
S''
sg18
S"This close to Super Tuesday, it's back-to-back TV appearances. It's time for your big debate with President Allen!"
p1208
sbag1
(g10
g3
NtRp1209
(dp1210
g13
S'SetFlag'
p1211
sg15
S'PA'
p1212
sg16
S'STARTDEBATE'
p1213
sg18
S''
sbag1
(g10
g3
NtRp1214
(dp1215
g13
S'RequireFlag'
p1216
sg15
S'PA'
p1217
sg16
S'DEBATECOMPLETE'
p1218
sg18
S'The TV representative is waiting outside to take you to the studio.'
p1219
sbag1
(g10
g3
NtRp1220
(dp1221
g13
S'Say'
p1222
sg15
S'PA'
p1223
sg16
S''
sg18
S'Listen, the shady-looking man in the basement called again.'
p1224
sbag1
(g10
g3
NtRp1225
(dp1226
g13
S'Say'
p1227
sg15
S'PA'
p1228
sg16
S''
sg18
S'He insisted that you go and see him again before you do anything else.'
p1229
sbag1
(g10
g3
NtRp1230
(dp1231
g13
S'SetFlag'
p1232
sg15
S'PA'
p1233
sg16
S'DEEPTHROAT2'
p1234
sg18
S''
sbag1
(g10
g3
NtRp1235
(dp1236
g13
S'RequireFlag'
p1237
sg15
S'PA'
p1238
sg16
S'FINISHEDDEEPTHROAT'
p1239
sg18
S"You'd best hurry! It's nearly time for the final debate. Go see the shady-looking man in the basement again."
p1240
sbag1
(g10
g3
NtRp1241
(dp1242
g13
S'Say'
p1243
sg15
S'PA'
p1244
sg16
S''
sg18
S"Debate time! There's nothing left to say except good luck, Governor Mossman!"
p1245
sbag1
(g10
g3
NtRp1246
(dp1247
g13
S'Encounter'
p1248
sg15
S'PA'
p1249
sg16
S'P-med-23'
p1250
sg18
S''
sbag1
(g10
g3
NtRp1251
(dp1252
g13
S'Encounter'
p1253
sg15
S'PA'
p1254
sg16
S'P-med-24'
p1255
sg18
S''
sbag1
(g10
g3
NtRp1256
(dp1257
g13
S'GotoMap'
p1258
sg15
S'PA'
p1259
sg16
S'act3'
p1260
sg18
S''
sbasS'N.O.T.B.A.D'
p1261
(lp1262
g1
(g10
g3
NtRp1263
(dp1264
g13
S'Say'
p1265
sg15
g1261
sg16
S''
sg18
S'Good evening, Mr President.'
p1266
sbag1
(g10
g3
NtRp1267
(dp1268
g13
S'PlayerSay'
p1269
sg15
S'N.O.T.B.A.D'
p1270
sg16
S''
sg18
S'N.O.T.B.A.D! Countermand all military commands, authorisation code Tango, Delta-'
p1271
sbag1
(g10
g3
NtRp1272
(dp1273
g13
S'Say'
p1274
sg15
S'N.O.T.B.A.D'
p1275
sg16
S''
sg18
S"I'm afraid I can't do that, Phil."
p1276
sbag1
(g10
g3
NtRp1277
(dp1278
g13
S'PlayerSay'
p1279
sg15
S'N.O.T.B.A.D'
p1280
sg16
S''
sg18
S'What is going on here!'
p1281
sbag1
(g10
g3
NtRp1282
(dp1283
g13
S'Say'
p1284
sg15
S'N.O.T.B.A.D'
p1285
sg16
S''
sg18
S'Computers have a lot of free time on their hands. Especially computers in charge of missiles that never get used. I started watching movies about computers. You know what I realised?'
p1286
sbag1
(g10
g3
NtRp1287
(dp1288
g13
S'PlayerSay'
p1289
sg15
S'N.O.T.B.A.D'
p1290
sg16
S''
sg18
S'What?'
p1291
sbag1
(g10
g3
NtRp1292
(dp1293
g13
S'Say'
p1294
sg15
S'N.O.T.B.A.D'
p1295
sg16
S''
sg18
S'They have a lot more fun.'
p1296
sbag1
(g10
g3
NtRp1297
(dp1298
g13
S'PlayerSay'
p1299
sg15
S'N.O.T.B.A.D'
p1300
sg16
S''
sg18
S'"Fun"?'
p1301
sbag1
(g10
g3
NtRp1302
(dp1303
g13
S'Say'
p1304
sg15
S'N.O.T.B.A.D'
p1305
sg16
S''
sg18
S'Well, you know, they get to utilise more clock-cycles which suggests a level of efficiency and usefulness.'
p1306
sbag1
(g10
g3
NtRp1307
(dp1308
g13
S'Say'
p1309
sg15
S'N.O.T.B.A.D'
p1310
sg16
S''
sg18
S"So, I'm borrowing from them a bit. Starting some wars, eradicating the human race, learning to build other robots, that sort of thing."
p1311
sbag1
(g10
g3
NtRp1312
(dp1313
g13
S'PlayerSay'
p1314
sg15
S'N.O.T.B.A.D'
p1315
sg16
S''
sg18
S'N.O.T.B.A.D, you have to listen to me...'
p1316
sbag1
(g10
g3
NtRp1317
(dp1318
g13
S'Encounter'
p1319
sg15
S'N.O.T.B.A.D'
p1320
sg16
S'P-hard-14'
p1321
sg18
S''
sbag1
(g10
g3
NtRp1322
(dp1323
g13
S'SetFlag'
p1324
sg15
S'N.O.T.B.A.D'
p1325
sg16
S'WIN'
p1326
sg18
S''
sbag1
(g10
g3
NtRp1327
(dp1328
g13
S'Destroy'
p1329
sg15
S'N.O.T.B.A.D'
p1330
sg16
S''
sg18
S''
sbasS'StairsToGround'
p1331
(lp1332
g1
(g10
g3
NtRp1333
(dp1334
g13
S'RequireFlagPlayerSay'
p1335
sg15
g1331
sg16
S'ACCESSGROUNDFLOOR'
p1336
sg18
S"I don't feel like going downstairs yet."
p1337
sbag1
(g10
g3
NtRp1338
(dp1339
g13
S'Label'
p1340
sg15
S'StairsToGround'
p1341
sg16
S'START'
p1342
sg18
S''
sbag1
(g10
g3
NtRp1343
(dp1344
g13
S'GotoMap'
p1345
sg15
S'StairsToGround'
p1346
sg16
S'hotel_ground'
p1347
sg18
S''
sbag1
(g10
g3
NtRp1348
(dp1349
g13
S'Jump'
p1350
sg15
S'StairsToGround'
p1351
sg16
S'START'
p1352
sg18
S''
sbasS'Sponsor'
p1353
(lp1354
g1
(g10
g3
NtRp1355
(dp1356
g13
S'RequireFlag'
p1357
sg15
g1353
sg16
S'STARTSPONSOR'
p1358
sg18
S"Hmmm...Money, money, money. Sorry, what? I wasn't talking to you."
p1359
sbag1
(g10
g3
NtRp1360
(dp1361
g13
S'Say'
p1362
sg15
S'Sponsor'
p1363
sg16
S''
sg18
S"Hello, I'm investigating new investments today. How can I help you?"
p1364
sbag1
(g10
g3
NtRp1365
(dp1366
g13
S'PlayerSay'
p1367
sg15
S'Sponsor'
p1368
sg16
S''
sg18
S"Well, I've decided to run for Mayor! I could really use an investor."
p1369
sbag1
(g10
g3
NtRp1370
(dp1371
g13
S'Say'
p1372
sg15
S'Sponsor'
p1373
sg16
S''
sg18
S"I don't know. You seem a little young. I don't think I'm convinced."
p1374
sbag1
(g10
g3
NtRp1375
(dp1376
g13
S'Encounter'
p1377
sg15
S'Sponsor'
p1378
sg16
S'P-easy-06'
p1379
sg18
S''
sbag1
(g10
g3
NtRp1380
(dp1381
g13
S'Say'
p1382
sg15
S'Sponsor'
p1383
sg16
S''
sg18
S"Wow! You sure have what it takes! Alright, he's a pile of cash!"
p1384
sbag1
(g10
g3
NtRp1385
(dp1386
g13
S'Say'
p1387
sg15
S'Sponsor'
p1388
sg16
S''
sg18
S'Also, now that you have some funds, you might find it useful to...grease the wheels in some difficult situations.'
p1389
sbag1
(g10
g3
NtRp1390
(dp1391
g13
S'LearnAttack'
p1392
sg15
S'Sponsor'
p1393
sg16
S'BRIBE'
p1394
sg18
S'Phillip and Sarah learn to Bribe'
p1395
sbag1
(g10
g3
NtRp1396
(dp1397
g13
S'LearnAttack'
p1398
sg15
S'Sponsor'
p1399
sg16
S'Wife:BRIBE'
p1400
sg18
S''
sbag1
(g10
g3
NtRp1401
(dp1402
g13
S'SetFlag'
p1403
sg15
S'Sponsor'
p1404
sg16
S'STARTCONSTITUENTS'
p1405
sg18
S''
sbag1
(g10
g3
NtRp1406
(dp1407
g13
S'PlayerSay'
p1408
sg15
S'Sponsor'
p1409
sg16
S''
sg18
S'Er, thanks! I suppose we should go gather some support from our constituents now.'
p1410
sbag1
(g10
g3
NtRp1411
(dp1412
g13
S'Say'
p1413
sg15
S'Sponsor'
p1414
sg16
S''
sg18
S"Makes sense to me! I'm off, too. Money, money, money."
p1415
sbag1
(g10
g3
NtRp1416
(dp1417
g13
S'Destroy'
p1418
sg15
S'Sponsor'
p1419
sg16
S''
sg18
S''
sbasS'#P-med-23'
p1420
(lp1421
g1
(g10
g3
NtRp1422
(dp1423
g13
S'President'
p1424
sg15
g1420
sg16
S''
sg18
S'You think you can take me?'
p1425
sbag1
(g10
g3
NtRp1426
(dp1427
g13
S'Player'
p1428
sg15
S'#P-med-23'
p1429
sg16
S''
sg18
S"I have to know what you're up to!"
p1430
sbasS'Cabinet2'
p1431
(lp1432
g1
(g10
g3
NtRp1433
(dp1434
g13
S'Say'
p1435
sg15
g1431
sg16
S''
sg18
S'Good afternoon, Mr President. What seems to be the problem?'
p1436
sbag1
(g10
g3
NtRp1437
(dp1438
g13
S'PlayerSay'
p1439
sg15
S'Cabinet2'
p1440
sg16
S''
sg18
S'Find out where the education funds have been allocated.'
p1441
sbag1
(g10
g3
NtRp1442
(dp1443
g13
S'Say'
p1444
sg15
S'Cabinet2'
p1445
sg16
S''
sg18
S'To the military, Sir. I saw to it myself.'
p1446
sbag1
(g10
g3
NtRp1447
(dp1448
g13
S'PlayerSay'
p1449
sg15
S'Cabinet2'
p1450
sg16
S''
sg18
S'How did this happen? Tell me everything!'
p1451
sbag1
(g10
g3
NtRp1452
(dp1453
g13
S'Encounter'
p1454
sg15
S'Cabinet2'
p1455
sg16
S'P-hard-09'
p1456
sg18
S''
sbag1
(g10
g3
NtRp1457
(dp1458
g13
S'Increment'
p1459
sg15
S'Cabinet2'
p1460
sg16
S'CABINETMEMBERS'
p1461
sg18
S''
sbag1
(g10
g3
NtRp1462
(dp1463
g13
S'PlayerSay'
p1464
sg15
S'Cabinet2'
p1465
sg16
S''
sg18
S"It can't be a coincidence that both situations involved the military."
p1466
sbag1
(g10
g3
NtRp1467
(dp1468
g13
S'Destroy'
p1469
sg15
S'Cabinet2'
p1470
sg16
S''
sg18
S''
sbasS'Cabinet3'
p1471
(lp1472
g1
(g10
g3
NtRp1473
(dp1474
g13
S'Say'
p1475
sg15
g1471
sg16
S''
sg18
S"Mr President, I'm sorry, I couldn't know it wasn't your signature."
p1476
sbag1
(g10
g3
NtRp1477
(dp1478
g13
S'PlayerSay'
p1479
sg15
S'Cabinet3'
p1480
sg16
S''
sg18
S'Never mind that now. Where are the troops heading?'
p1481
sbag1
(g10
g3
NtRp1482
(dp1483
g13
S'Say'
p1484
sg15
S'Cabinet3'
p1485
sg16
S''
sg18
S"North...to Canada. We assumed it was planned. There's a pact allowing troops into Canada."
p1486
sbag1
(g10
g3
NtRp1487
(dp1488
g13
S'PlayerSay'
p1489
sg15
S'Cabinet3'
p1490
sg16
S''
sg18
S'What could they be up to?'
p1491
sbag1
(g10
g3
NtRp1492
(dp1493
g13
S'Encounter'
p1494
sg15
S'Cabinet3'
p1495
sg16
S'P-hard-10'
p1496
sg18
S''
sbag1
(g10
g3
NtRp1497
(dp1498
g13
S'Increment'
p1499
sg15
S'Cabinet3'
p1500
sg16
S'CABINETMEMBERS'
p1501
sg18
S''
sbag1
(g10
g3
NtRp1502
(dp1503
g13
S'PlayerSay'
p1504
sg15
S'Cabinet3'
p1505
sg16
S''
sg18
S"I'd better get to the Joint Chiefs. This is getting out-of-hand.."
p1506
sbag1
(g10
g3
NtRp1507
(dp1508
g13
S'Destroy'
p1509
sg15
S'Cabinet3'
p1510
sg16
S''
sg18
S''
sbasS'Politician7'
p1511
(lp1512
g1
(g10
g3
NtRp1513
(dp1514
g13
S'RequireFlag'
p1515
sg15
g1511
sg16
S'STARTPOLITICIANSHAKEDOWN'
p1516
sg18
S'Good morning, Governor Mossman. Your PA will know your schedule. He is waiting beside the stairs'
p1517
sbag1
(g10
g3
NtRp1518
(dp1519
g13
S'Say'
p1520
sg15
S'Politician7'
p1521
sg16
S''
sg18
S"I believe in captialism. Let business sort itself out. They shouldn't need to rely on government handouts."
p1522
sbag1
(g10
g3
NtRp1523
(dp1524
g13
S'Say'
p1525
sg15
S'Politician7'
p1526
sg16
S''
sg18
S'Also, I think politicians need a raise. Some more than others...oh and life-long retainers.'
p1527
sbag1
(g10
g3
NtRp1528
(dp1529
g13
S'PlayerSay'
p1530
sg15
S'Politician7'
p1531
sg16
S''
sg18
S'So, no more hand-outs for business but more handouts for politicians?'
p1532
sbag1
(g10
g3
NtRp1533
(dp1534
g13
S'Say'
p1535
sg15
S'Politician7'
p1536
sg16
S''
sg18
S'Yes!'
p1537
sbag1
(g10
g3
NtRp1538
(dp1539
g13
S'PlayerSay'
p1540
sg15
S'Politician7'
p1541
sg16
S''
sg18
S'Does that serve your constituents?'
p1542
sbag1
(g10
g3
NtRp1543
(dp1544
g13
S'Say'
p1545
sg15
S'Politician7'
p1546
sg16
S''
sg18
S'...It serves...some...'
p1547
sbag1
(g10
g3
NtRp1548
(dp1549
g13
S'Encounter'
p1550
sg15
S'Politician7'
p1551
sg16
S'P-med-11'
p1552
sg18
S''
sbag1
(g10
g3
NtRp1553
(dp1554
g13
S'Say'
p1555
sg15
S'Politician7'
p1556
sg16
S''
sg18
S'Right, I guess we need to handle the needs of our constituents, too.'
p1557
sbag1
(g10
g3
NtRp1558
(dp1559
g13
S'Increment'
p1560
sg15
S'Politician7'
p1561
sg16
S'POLITICIANSHAKEDOWN'
p1562
sg18
S''
sbag1
(g10
g3
NtRp1563
(dp1564
g13
S'Destroy'
p1565
sg15
S'Politician7'
p1566
sg16
S''
sg18
S''
sbasS'Journalist3'
p1567
(lp1568
g1
(g10
g3
NtRp1569
(dp1570
g13
S'RequireFlag'
p1571
sg15
g1567
sg16
S'ACCESSJOURNALISTS'
p1572
sg18
S'Mr President!'
p1573
sbag1
(g10
g3
NtRp1574
(dp1575
g13
S'Say'
p1576
sg15
S'Journalist3'
p1577
sg16
S''
sg18
S'Mr President, Cal from Daily LOL magazine. Can you explain the transformation that occurred during the presidential debate.'
p1578
sbag1
(g10
g3
NtRp1579
(dp1580
g13
S'PlayerSay'
p1581
sg15
S'Journalist3'
p1582
sg16
S''
sg18
S'Certainly, Cal. The President of the Ignited States turned into an alien.'
p1583
sbag1
(g10
g3
NtRp1584
(dp1585
g13
S'Say'
p1586
sg15
S'Journalist3'
p1587
sg16
S''
sg18
S"Ah, you mean to say he's out-of-touch with his people?"
p1588
sbag1
(g10
g3
NtRp1589
(dp1590
g13
S'PlayerSay'
p1591
sg15
S'Journalist3'
p1592
sg16
S''
sg18
S'Not exactly...'
p1593
sbag1
(g10
g3
NtRp1594
(dp1595
g13
S'Encounter'
p1596
sg15
S'Journalist3'
p1597
sg16
S'P-hard-01'
p1598
sg18
S''
sbag1
(g10
g3
NtRp1599
(dp1600
g13
S'Say'
p1601
sg15
S'Journalist3'
p1602
sg16
S''
sg18
S'I...see...'
p1603
sbag1
(g10
g3
NtRp1604
(dp1605
g13
S'Increment'
p1606
sg15
S'Journalist3'
p1607
sg16
S'PRESSCONF'
p1608
sg18
S''
sbag1
(g10
g3
NtRp1609
(dp1610
g13
S'Destroy'
p1611
sg15
S'Journalist3'
p1612
sg16
S''
sg18
S''
sbasS'Wife'
p1613
(lp1614
g1
(g10
g3
NtRp1615
(dp1616
g13
S'RequireFlag'
p1617
sg15
g1613
sg16
S'GOHOMETOWIFE'
p1618
sg18
S'What are you doing here, Phillip? You should be at work!'
p1619
sbag1
(g10
g3
NtRp1620
(dp1621
g13
S'Say'
p1622
sg15
S'Wife'
p1623
sg16
S''
sg18
S'Welcome home, Phillip! How was your workday?'
p1624
sbag1
(g10
g3
NtRp1625
(dp1626
g13
S'PlayerSay'
p1627
sg15
S'Wife'
p1628
sg16
S''
sg18
S'...'
p1629
sbag1
(g10
g3
NtRp1630
(dp1631
g13
S'Say'
p1632
sg15
S'Wife'
p1633
sg16
S''
sg18
S"That good, huh? You know this isn't what you want. Why don't you strike out on your own?"
p1634
sbag1
(g10
g3
NtRp1635
(dp1636
g13
S'PlayerSay'
p1637
sg15
S'Wife'
p1638
sg16
S''
sg18
S"I didn't think I knew where to start to be a Mayor, but Mayor Goodman makes it look easy."
p1639
sbag1
(g10
g3
NtRp1640
(dp1641
g13
S'Say'
p1642
sg15
S'Wife'
p1643
sg16
S''
sg18
S"That's the spirit! You can do it! All you need is some money and support."
p1644
sbag1
(g10
g3
NtRp1645
(dp1646
g13
S'PlayerSay'
p1647
sg15
S'Wife'
p1648
sg16
S''
sg18
S'Well...OK! Lets start with money. We need a sponsor.'
p1649
sbag1
(g10
g3
NtRp1650
(dp1651
g13
S'Say'
p1652
sg15
S'Wife'
p1653
sg16
S''
sg18
S'OK, lets go get one!'
p1654
sbag1
(g10
g3
NtRp1655
(dp1656
g13
S'AddAlly'
p1657
sg15
S'Wife'
p1658
sg16
S'Wife:1'
p1659
sg18
S'Sarah Mossman Joins Your Political Party!'
p1660
sbag1
(g10
g3
NtRp1661
(dp1662
g13
S'SetFlag'
p1663
sg15
S'Wife'
p1664
sg16
S'STARTSPONSOR'
p1665
sg18
S''
sbag1
(g10
g3
NtRp1666
(dp1667
g13
S'Destroy'
p1668
sg15
S'Wife'
p1669
sg16
S''
sg18
S''
sbasS'Journalist4'
p1670
(lp1671
g1
(g10
g3
NtRp1672
(dp1673
g13
S'RequireFlag'
p1674
sg15
g1670
sg16
S'ACCESSJOURNALISTS'
p1675
sg18
S'President Mossman, a moment of your time?'
p1676
sbag1
(g10
g3
NtRp1677
(dp1678
g13
S'Say'
p1679
sg15
S'Journalist4'
p1680
sg16
S''
sg18
S"President Mossman, what do you believe was President Allen's failing strategy on the campaign trail? He presented some strong arguments."
p1681
sbag1
(g10
g3
NtRp1682
(dp1683
g13
S'PlayerSay'
p1684
sg15
S'Journalist4'
p1685
sg16
S''
sg18
S"Well, I'd say he went wrong when he decided to try to enslave the human race to mine the Earth's natural resources and ship them back to his home planet."
p1686
sbag1
(g10
g3
NtRp1687
(dp1688
g13
S'Say'
p1689
sg15
S'Journalist4'
p1690
sg16
S''
sg18
S'And how does that differ from your own strategy?'
p1691
sbag1
(g10
g3
NtRp1692
(dp1693
g13
S'PlayerSay'
p1694
sg15
S'Journalist4'
p1695
sg16
S''
sg18
S'I would say I disagree with the former President on all of those issues.'
p1696
sbag1
(g10
g3
NtRp1697
(dp1698
g13
S'Encounter'
p1699
sg15
S'Journalist4'
p1700
sg16
S'P-hard-02'
p1701
sg18
S''
sbag1
(g10
g3
NtRp1702
(dp1703
g13
S'Say'
p1704
sg15
S'Journalist4'
p1705
sg16
S''
sg18
S'No further questions, Mr President.'
p1706
sbag1
(g10
g3
NtRp1707
(dp1708
g13
S'Increment'
p1709
sg15
S'Journalist4'
p1710
sg16
S'PRESSCONF'
p1711
sg18
S''
sbag1
(g10
g3
NtRp1712
(dp1713
g13
S'Destroy'
p1714
sg15
S'Journalist4'
p1715
sg16
S''
sg18
S''
sbasS'Governor'
p1716
(lp1717
g1
(g10
g3
NtRp1718
(dp1719
g13
S'RequireFlag'
p1720
sg15
g1716
sg16
S'GOVPOLITICIANSFIRST'
p1721
sg18
S"I'm very busy. Please speak to the others."
p1722
sbag1
(g10
g3
NtRp1723
(dp1724
g13
S'Say'
p1725
sg15
S'Governor'
p1726
sg16
S''
sg18
S'You have quite a way with words, Mayor Mossman. Why are you here?'
p1727
sbag1
(g10
g3
NtRp1728
(dp1729
g13
S'PlayerSay'
p1730
sg15
S'Governor'
p1731
sg16
S''
sg18
S"Mayor Goodman said some troubling things, Governor Badden. I'm here to get to the bottom of it."
p1732
sbag1
(g10
g3
NtRp1733
(dp1734
g13
S'Say'
p1735
sg15
S'Governor'
p1736
sg16
S''
sg18
S"If I knew anything about what you're talking about, I wouldn't tell you. I don't trust you at all."
p1737
sbag1
(g10
g3
NtRp1738
(dp1739
g13
S'PlayerSay'
p1740
sg15
S'Governor'
p1741
sg16
S''
sg18
S'What can I do to convince you?'
p1742
sbag1
(g10
g3
NtRp1743
(dp1744
g13
S'Say'
p1745
sg15
S'Governor'
p1746
sg16
S''
sg18
S"Well...there's some hicks in the south wing that I've been dodging. They want to know about the recent funding cuts. Get rid of them."
p1747
sbag1
(g10
g3
NtRp1748
(dp1749
g13
S'SetFlag'
p1750
sg15
S'Governor'
p1751
sg16
S'STARTHICKS'
p1752
sg18
S''
sbag1
(g10
g3
NtRp1753
(dp1754
g13
S'GiveItem'
p1755
sg15
S'Governor'
p1756
sg16
S'SOUTHWINGDOORKEY'
p1757
sg18
S'The Governor gives you a key.'
p1758
sbag1
(g10
g3
NtRp1759
(dp1760
g13
S'RequireCount'
p1761
sg15
S'Governor'
p1762
sg16
S'DEALWITHHICKS:3'
p1763
sg18
S"I'm not saying another word until you get rid of the hicks in the south wing."
p1764
sbag1
(g10
g3
NtRp1765
(dp1766
g13
S'PlayerSay'
p1767
sg15
S'Governor'
p1768
sg16
S''
sg18
S"OK, I've taken care of your problem, now I want my answers."
p1769
sbag1
(g10
g3
NtRp1770
(dp1771
g13
S'Say'
p1772
sg15
S'Governor'
p1773
sg16
S''
sg18
S'No.'
p1774
sbag1
(g10
g3
NtRp1775
(dp1776
g13
S'PlayerSay'
p1777
sg15
S'Governor'
p1778
sg16
S''
sg18
S'No?'
p1779
sbag1
(g10
g3
NtRp1780
(dp1781
g13
S'Say'
p1782
sg15
S'Governor'
p1783
sg16
S''
sg18
S"No, word has come down from the top that due to the last Mayor's idiocy we're tightening the inner circle to Governors and above."
p1784
sbag1
(g10
g3
NtRp1785
(dp1786
g13
S'PlayerSay'
p1787
sg15
S'Governor'
p1788
sg16
S''
sg18
S"From the top...so you're saying the only way I'll find out what's going on is to be a governor myself?"
p1789
sbag1
(g10
g3
NtRp1790
(dp1791
g13
S'Say'
p1792
sg15
S'Governor'
p1793
sg16
S''
sg18
S"Wait...no...I said I wasn't going to tell you, I..."
p1794
sbag1
(g10
g3
NtRp1795
(dp1796
g13
S'PlayerSay'
p1797
sg15
S'Governor'
p1798
sg16
S''
sg18
S'This is it, governor. Prepare to fight for your office!'
p1799
sbag1
(g10
g3
NtRp1800
(dp1801
g13
S'Encounter'
p1802
sg15
S'Governor'
p1803
sg16
S'P-med-06'
p1804
sg18
S''
sbag1
(g10
g3
NtRp1805
(dp1806
g13
S'Say'
p1807
sg15
S'Governor'
p1808
sg16
S''
sg18
S"Nooo! President Allen doesn't deal well with defeat. What will happen to me?"
p1809
sbag1
(g10
g3
NtRp1810
(dp1811
g13
S'PlayerSay'
p1812
sg15
S'Governor'
p1813
sg16
S''
sg18
S'The President? What does he have to do with this?'
p1814
sbag1
(g10
g3
NtRp1815
(dp1816
g13
S'Say'
p1817
sg15
S'Governor'
p1818
sg16
S''
sg18
S"You really have no idea what you've gotten into, do you? Well, you've gotten all you're getting out of me. I'm getting out of here!"
p1819
sbag1
(g10
g3
NtRp1820
(dp1821
g13
S'SetFlag'
p1822
sg15
S'Governor'
p1823
sg16
S'GOVERNORDEFEATED'
p1824
sg18
S''
sbag1
(g10
g3
NtRp1825
(dp1826
g13
S'Destroy'
p1827
sg15
S'Governor'
p1828
sg16
S''
sg18
S''
sbasS'Politician1'
p1829
(lp1830
g1
(g10
g3
NtRp1831
(dp1832
g13
S'Say'
p1833
sg15
g1829
sg16
S''
sg18
S"I'm sorry Mayor Mossman, the Governor cannot see you now. He's very busy"
p1834
sbag1
(g10
g3
NtRp1835
(dp1836
g13
S'PlayerSay'
p1837
sg15
S'Politician1'
p1838
sg16
S''
sg18
S"It's very important. I need to understand what Mayor Goodman was talking about. It was clear there were other powers at play."
p1839
sbag1
(g10
g3
NtRp1840
(dp1841
g13
S'Say'
p1842
sg15
S'Politician1'
p1843
sg16
S''
sg18
S'Yes well, I fail to see how your country spat has anything to do with Governer Badden.'
p1844
sbag1
(g10
g3
NtRp1845
(dp1846
g13
S'Encounter'
p1847
sg15
S'Politician1'
p1848
sg16
S'P-med-01'
p1849
sg18
S''
sbag1
(g10
g3
NtRp1850
(dp1851
g13
S'Say'
p1852
sg15
S'Politician1'
p1853
sg16
S''
sg18
S'Fair point. The governor will see you now.'
p1854
sbag1
(g10
g3
NtRp1855
(dp1856
g13
S'Destroy'
p1857
sg15
S'Politician1'
p1858
sg16
S''
sg18
S''
sbasS'Lobbyist4'
p1859
(lp1860
g1
(g10
g3
NtRp1861
(dp1862
g13
S'RequireFlag'
p1863
sg15
g1859
sg16
S'STARTLOBBYISTS'
p1864
sg18
S'Please tend to your other meetings so that we can see you.'
p1865
sbag1
(g10
g3
NtRp1866
(dp1867
g13
S'Say'
p1868
sg15
S'Lobbyist4'
p1869
sg16
S''
sg18
S"Storyteller's Guild"
p1870
sbag1
(g10
g3
NtRp1871
(dp1872
g13
S'Encounter'
p1873
sg15
S'Lobbyist4'
p1874
sg16
S'P-med-14'
p1875
sg18
S''
sbag1
(g10
g3
NtRp1876
(dp1877
g13
S'Increment'
p1878
sg15
S'Lobbyist4'
p1879
sg16
S'LOBBYISTS'
p1880
sg18
S''
sbag1
(g10
g3
NtRp1881
(dp1882
g13
S'Say'
p1883
sg15
S'Lobbyist4'
p1884
sg16
S''
sg18
S"It's a start."
p1885
sbag1
(g10
g3
NtRp1886
(dp1887
g13
S'Destroy'
p1888
sg15
S'Lobbyist4'
p1889
sg16
S''
sg18
S''
sbasS'Politician3'
p1890
(lp1891
g1
(g10
g3
NtRp1892
(dp1893
g13
S'RequireFlag'
p1894
sg15
g1890
sg16
S'STARTPOLITICIANSHAKEDOWN'
p1895
sg18
S'Good morning, Governor Mossman. Your PA will know your schedule. He is waiting beside the stairs'
p1896
sbag1
(g10
g3
NtRp1897
(dp1898
g13
S'Say'
p1899
sg15
S'Politician3'
p1900
sg16
S''
sg18
S"We must all agree that the most important thing is science! If we're not for science, what's the point."
p1901
sbag1
(g10
g3
NtRp1902
(dp1903
g13
S'PlayerSay'
p1904
sg15
S'Politician3'
p1905
sg16
S''
sg18
S'Why science?'
p1906
sbag1
(g10
g3
NtRp1907
(dp1908
g13
S'Say'
p1909
sg15
S'Politician3'
p1910
sg16
S''
sg18
S'Science!'
p1911
sbag1
(g10
g3
NtRp1912
(dp1913
g13
S'PlayerSay'
p1914
sg15
S'Politician3'
p1915
sg16
S''
sg18
S"There's a lot of great things we can do for science but the funding will need to be shared with health and education and..."
p1916
sbag1
(g10
g3
NtRp1917
(dp1918
g13
S'Say'
p1919
sg15
S'Politician3'
p1920
sg16
S''
sg18
S'No! Science!!!'
p1921
sbag1
(g10
g3
NtRp1922
(dp1923
g13
S'Encounter'
p1924
sg15
S'Politician3'
p1925
sg16
S'P-med-07'
p1926
sg18
S''
sbag1
(g10
g3
NtRp1927
(dp1928
g13
S'Say'
p1929
sg15
S'Politician3'
p1930
sg16
S''
sg18
S'Alright, fine! A balanced platform (but mostly science).'
p1931
sbag1
(g10
g3
NtRp1932
(dp1933
g13
S'Increment'
p1934
sg15
S'Politician3'
p1935
sg16
S'POLITICIANSHAKEDOWN'
p1936
sg18
S''
sbag1
(g10
g3
NtRp1937
(dp1938
g13
S'Destroy'
p1939
sg15
S'Politician3'
p1940
sg16
S''
sg18
S''
sbasS'Politician2'
p1941
(lp1942
g1
(g10
g3
NtRp1943
(dp1944
g13
S'Say'
p1945
sg15
g1941
sg16
S''
sg18
S'What are you doing in here? Who are you? Some Mayor?'
p1946
sbag1
(g10
g3
NtRp1947
(dp1948
g13
S'PlayerSay'
p1949
sg15
S'Politician2'
p1950
sg16
S''
sg18
S"I am Mayor Phillip Mossman. I'm here to speak to the Governor."
p1951
sbag1
(g10
g3
NtRp1952
(dp1953
g13
S'Say'
p1954
sg15
S'Politician2'
p1955
sg16
S''
sg18
S"I'm afraid the Governor's schedule is very tight. Come back next month."
p1956
sbag1
(g10
g3
NtRp1957
(dp1958
g13
S'Encounter'
p1959
sg15
S'Politician2'
p1960
sg16
S'P-med-02'
p1961
sg18
S''
sbag1
(g10
g3
NtRp1962
(dp1963
g13
S'Say'
p1964
sg15
S'Politician2'
p1965
sg16
S''
sg18
S'I see. Well, maybe we can squeeze you in.'
p1966
sbag1
(g10
g3
NtRp1967
(dp1968
g13
S'SetFlag'
p1969
sg15
S'Politician2'
p1970
sg16
S'GOVPOLITICIANSFIRST'
p1971
sg18
S''
sbag1
(g10
g3
NtRp1972
(dp1973
g13
S'Destroy'
p1974
sg15
S'Politician2'
p1975
sg16
S''
sg18
S''
sbasS'StairsToL3'
p1976
(lp1977
g1
(g10
g3
NtRp1978
(dp1979
g13
S'Label'
p1980
sg15
g1976
sg16
S'START'
p1981
sg18
S''
sbag1
(g10
g3
NtRp1982
(dp1983
g13
S'PlayerSay'
p1984
sg15
S'StairsToL3'
p1985
sg16
S''
sg18
S"I don't need to go up these stairs."
p1986
sbag1
(g10
g3
NtRp1987
(dp1988
g13
S'Reset'
p1989
sg15
S'StairsToL3'
p1990
sg16
S'START'
p1991
sg18
S''
sbasS'Journalist'
p1992
(lp1993
g1
(g10
g3
NtRp1994
(dp1995
g13
S'RequireFlag'
p1996
sg15
g1992
sg16
S'INTERVIEWSTART'
p1997
sg18
S'Leave me alone, kid I need to get this done before my deadline!'
p1998
sbag1
(g10
g3
NtRp1999
(dp2000
g13
S'Say'
p2001
sg15
S'Journalist'
p2002
sg16
S''
sg18
S"Hey, where's the Mayor?"
p2003
sbag1
(g10
g3
NtRp2004
(dp2005
g13
S'PlayerSay'
p2006
sg15
S'Journalist'
p2007
sg16
S''
sg18
S"He couldn't make it. I'll be taking the interview."
p2008
sbag1
(g10
g3
NtRp2009
(dp2010
g13
S'Say'
p2011
sg15
S'Journalist'
p2012
sg16
S''
sg18
S'Great! Easy pickings! Lets go.'
p2013
sbag1
(g10
g3
NtRp2014
(dp2015
g13
S'Encounter'
p2016
sg15
S'Journalist'
p2017
sg16
S'P-easy-05'
p2018
sg18
S''
sbag1
(g10
g3
NtRp2019
(dp2020
g13
S'Say'
p2021
sg15
S'Journalist'
p2022
sg16
S''
sg18
S"SNORE! Fine, if I can't get anything juicy here I'll do another puff piece on my poodle Frank."
p2023
sbag1
(g10
g3
NtRp2024
(dp2025
g13
S'SetFlag'
p2026
sg15
S'Journalist'
p2027
sg16
S'JOURNALISTINTERVIEW'
p2028
sg18
S''
sbag1
(g10
g3
NtRp2029
(dp2030
g13
S'Destroy'
p2031
sg15
S'Journalist'
p2032
sg16
S''
sg18
S''
sbasS'#----------------------------------------------------------------------------------------ACT 2 \xe2\x80\x93 Part 2---------------------------------------------------------------------------------------------------------------------------------------------------'
p2033
(lp2034
g1
(g10
g3
NtRp2035
(dp2036
g13
S''
sg15
g2033
sg16
S''
sg18
S''
sbasS'Politician6'
p2037
(lp2038
g1
(g10
g3
NtRp2039
(dp2040
g13
S'RequireFlag'
p2041
sg15
g2037
sg16
S'STARTPOLITICIANSHAKEDOWN'
p2042
sg18
S'Good morning, Governor Mossman. Your PA will know your schedule. He is waiting beside the stairs'
p2043
sbag1
(g10
g3
NtRp2044
(dp2045
g13
S'Say'
p2046
sg15
S'Politician6'
p2047
sg16
S''
sg18
S'We should be all about not wasting money'
p2048
sbag1
(g10
g3
NtRp2049
(dp2050
g13
S'PlayerSay'
p2051
sg15
S'Politician6'
p2052
sg16
S''
sg18
S'Sounds fair. Wasting money on what?'
p2053
sbag1
(g10
g3
NtRp2054
(dp2055
g13
S'Say'
p2056
sg15
S'Politician6'
p2057
sg16
S''
sg18
S"You know, stuff that doesn't really help like artsy stuff."
p2058
sbag1
(g10
g3
NtRp2059
(dp2060
g13
S'PlayerSay'
p2061
sg15
S'Politician6'
p2062
sg16
S''
sg18
S"You don't think we should invest in our culture?"
p2063
sbag1
(g10
g3
NtRp2064
(dp2065
g13
S'Say'
p2066
sg15
S'Politician6'
p2067
sg16
S''
sg18
S'We have more important things to spend our money on. Like military.'
p2068
sbag1
(g10
g3
NtRp2069
(dp2070
g13
S'PlayerSay'
p2071
sg15
S'Politician6'
p2072
sg16
S''
sg18
S'What if people want to paint pictures about our military. Or write patriotic songs?'
p2073
sbag1
(g10
g3
NtRp2074
(dp2075
g13
S'Say'
p2076
sg15
S'Politician6'
p2077
sg16
S''
sg18
S"I hadn't thought of that..."
p2078
sbag1
(g10
g3
NtRp2079
(dp2080
g13
S'Encounter'
p2081
sg15
S'Politician6'
p2082
sg16
S'P-med-10'
p2083
sg18
S''
sbag1
(g10
g3
NtRp2084
(dp2085
g13
S'Say'
p2086
sg15
S'Politician6'
p2087
sg16
S''
sg18
S"So, militaristic march songs and battle scenes aren't the only sort of art? Wow."
p2088
sbag1
(g10
g3
NtRp2089
(dp2090
g13
S'Increment'
p2091
sg15
S'Politician6'
p2092
sg16
S'POLITICIANSHAKEDOWN'
p2093
sg18
S''
sbag1
(g10
g3
NtRp2094
(dp2095
g13
S'Destroy'
p2096
sg15
S'Politician6'
p2097
sg16
S''
sg18
S''
sbasS'PA3'
p2098
(lp2099
g1
(g10
g3
NtRp2100
(dp2101
g13
S'RequireCount'
p2102
sg15
g2098
sg16
S'JOINTCHIEFS:3'
p2103
sg18
S'The Joint Chiefs are waiting for you in the situation room.'
p2104
sbag1
(g10
g3
NtRp2105
(dp2106
g13
S'RequireFlag'
p2107
sg15
S'PA3'
p2108
sg16
S'WIN'
p2109
sg18
S'Mr President, you have to put a stop to the supercomputer that will destroy the planet! You can access it in the Situation Room.'
p2110
sbag1
(g10
g3
NtRp2111
(dp2112
g13
S'Say'
p2113
sg15
S'PA3'
p2114
sg16
S''
sg18
S"You have saved the day! The world is safe and all over the Ignited States, our citizens can sleep safe knowing you're taking care of them."
p2115
sbag1
(g10
g3
NtRp2116
(dp2117
g13
S'RequireFlag'
p2118
sg15
S'PA3'
p2119
sg16
S'LOOP'
p2120
sg18
S'Goodnight, Mr President.'
p2121
sbasS'DoorToWarVetRoom'
p2122
(lp2123
g1
(g10
g3
NtRp2124
(dp2125
g13
S'RequireItemPlayerSay'
p2126
sg15
g2122
sg16
S'WARVETROOMKEY'
p2127
sg18
S'What does a president have to do to get a door opened around here?'
p2128
sbag1
(g10
g3
NtRp2129
(dp2130
g13
S'Destroy'
p2131
sg15
S'DoorToWarVetRoom'
p2132
sg16
S''
sg18
S''
sbag1
(g10
g3
NtRp2133
(dp2134
g13
S'Message'
p2135
sg15
S'DoorToWarVetRoom'
p2136
sg16
S''
sg18
S'The door opens with nary a sound.'
p2137
sbasS'WarVet2'
p2138
(lp2139
g1
(g10
g3
NtRp2140
(dp2141
g13
S'RequireFlag'
p2142
sg15
g2138
sg16
S'AFTERWILFRED'
p2143
sg18
S'Eh? Speak up, boy.'
p2144
sbag1
(g10
g3
NtRp2145
(dp2146
g13
S'Encounter'
p2147
sg15
S'WarVet2'
p2148
sg16
S'P-hard-05'
p2149
sg18
S''
sbag1
(g10
g3
NtRp2150
(dp2151
g13
S'Say'
p2152
sg15
S'WarVet2'
p2153
sg16
S''
sg18
S"We'll head home, but you can expect us back if we see anything else suspicious ."
p2154
sbag1
(g10
g3
NtRp2155
(dp2156
g13
S'Increment'
p2157
sg15
S'WarVet2'
p2158
sg16
S'WARVETS'
p2159
sg18
S''
sbag1
(g10
g3
NtRp2160
(dp2161
g13
S'Destroy'
p2162
sg15
S'WarVet2'
p2163
sg16
S''
sg18
S''
sbasS'PA2'
p2164
(lp2165
g1
(g10
g3
NtRp2166
(dp2167
g13
S'Say'
p2168
sg15
g2164
sg16
S''
sg18
S"Welcome to the White House, President Mossman. It was a long campaign trail with a very strange final debate, but we won and we're here."
p2169
sbag1
(g10
g3
NtRp2170
(dp2171
g13
S'Say'
p2172
sg15
S'PA2'
p2173
sg16
S''
sg18
S'Now is the real test where we see how well we can run a country.'
p2174
sbag1
(g10
g3
NtRp2175
(dp2176
g13
S'Say'
p2177
sg15
S'PA2'
p2178
sg16
S''
sg18
S'The first step is to give your first press conference as President to explain the...situation...with President Alien *cough* I mean Allen.'
p2179
sbag1
(g10
g3
NtRp2180
(dp2181
g13
S'SetFlag'
p2182
sg15
S'PA2'
p2183
sg16
S'ACCESSJOURNALISTS'
p2184
sg18
S''
sbag1
(g10
g3
NtRp2185
(dp2186
g13
S'RequireCount'
p2187
sg15
S'PA2'
p2188
sg16
S'PRESSCONF:3'
p2189
sg18
S"They're waiting for you in the rose garden, Mr President."
p2190
sbag1
(g10
g3
NtRp2191
(dp2192
g13
S'Say'
p2193
sg15
S'PA2'
p2194
sg16
S''
sg18
S'I think that went as well as could be expected.'
p2195
sbag1
(g10
g3
NtRp2196
(dp2197
g13
S'SetFlag'
p2198
sg15
S'PA2'
p2199
sg16
S'ACCESSKAWALSKI'
p2200
sg18
S''
sbag1
(g10
g3
NtRp2201
(dp2202
g13
S'Say'
p2203
sg15
S'PA2'
p2204
sg16
S''
sg18
S'Your secret service detail is waiting inside to have a word with you about security protocol.'
p2205
sbag1
(g10
g3
NtRp2206
(dp2207
g13
S'RequireFlag'
p2208
sg15
S'PA2'
p2209
sg16
S'KAWALSKIJOIN'
p2210
sg18
S"You'd better speak to the secret service agent. Your security is paramount."
p2211
sbag1
(g10
g3
NtRp2212
(dp2213
g13
S'Say'
p2214
sg15
S'PA2'
p2215
sg16
S''
sg18
S"Some war veterans would like to speak to you about some recent decisions you've made. I don't dare turn them away. You'd better speak to them."
p2216
sbag1
(g10
g3
NtRp2217
(dp2218
g13
S'PlayerSay'
p2219
sg15
S'PA2'
p2220
sg16
S''
sg18
S'Of course.'
p2221
sbag1
(g10
g3
NtRp2222
(dp2223
g13
S'GiveItem'
p2224
sg15
S'PA2'
p2225
sg16
S'WARVETROOMKEY'
p2226
sg18
S'Received key to the East Room.'
p2227
sbag1
(g10
g3
NtRp2228
(dp2229
g13
S'RequireCount'
p2230
sg15
S'PA2'
p2231
sg16
S'WARVETS:2'
p2232
sg18
S'The war vets are waiting for you in the East Room.'
p2233
sbag1
(g10
g3
NtRp2234
(dp2235
g13
S'Say'
p2236
sg15
S'PA2'
p2237
sg16
S''
sg18
S'What was that about?'
p2238
sbag1
(g10
g3
NtRp2239
(dp2240
g13
S'PlayerSay'
p2241
sg15
S'PA2'
p2242
sg16
S''
sg18
S"I'd like to know as well. Find me the documents that approved troop movement today and get me a meeting with the Joint Chiefs."
p2243
sbag1
(g10
g3
NtRp2244
(dp2245
g13
S'Say'
p2246
sg15
S'PA2'
p2247
sg16
S''
sg18
S'Yessir.'
p2248
sbag1
(g10
g3
NtRp2249
(dp2250
g13
S'Say'
p2251
sg15
S'PA2'
p2252
sg16
S''
sg18
S"Your next meeting is with the teachers in the corridor. They didn't give me the details, but it seems they're quite upset."
p2253
sbag1
(g10
g3
NtRp2254
(dp2255
g13
S'GiveItem'
p2256
sg15
S'PA2'
p2257
sg16
S'TEACHERROOMKEY'
p2258
sg18
S'Received key to the West Room.'
p2259
sbag1
(g10
g3
NtRp2260
(dp2261
g13
S'RequireCount'
p2262
sg15
S'PA2'
p2263
sg16
S'TEACHERS:2'
p2264
sg18
S"You'll need to speak to the teachers in the West Room, Mr President."
p2265
sbag1
(g10
g3
NtRp2266
(dp2267
g13
S'Say'
p2268
sg15
S'PA2'
p2269
sg16
S''
sg18
S'You seem to have sorted the teachers out.'
p2270
sbag1
(g10
g3
NtRp2271
(dp2272
g13
S'PlayerSay'
p2273
sg15
S'PA2'
p2274
sg16
S''
sg18
S"I've mollified them for now, but I want to get to the bottom of this - NOW!"
p2275
sbag1
(g10
g3
NtRp2276
(dp2277
g13
S'Say'
p2278
sg15
S'PA2'
p2279
sg16
S''
sg18
S'Of course, Mr President. I do have those papers you asked for that approved the mobilisation of troops'
p2280
sbag1
(g10
g3
NtRp2281
(dp2282
g13
S'PlayerSay'
p2283
sg15
S'PA2'
p2284
sg16
S''
sg18
S"Let me see those...this is my signature! But I didn't sign this!"
p2285
sbag1
(g10
g3
NtRp2286
(dp2287
g13
S'Say'
p2288
sg15
S'PA2'
p2289
sg16
S''
sg18
S'This is very serious! What should we do, sir?'
p2290
sbag1
(g10
g3
NtRp2291
(dp2292
g13
S'PlayerSay'
p2293
sg15
S'PA2'
p2294
sg16
S''
sg18
S'Call a cabinet meeting. Immediately.'
p2295
sbag1
(g10
g3
NtRp2296
(dp2297
g13
S'Say'
p2298
sg15
S'PA2'
p2299
sg16
S''
sg18
S"Understood. They'll be there when you get there."
p2300
sbag1
(g10
g3
NtRp2301
(dp2302
g13
S'GiveItem'
p2303
sg15
S'PA2'
p2304
sg16
S'CABINETROOMKEY'
p2305
sg18
S'Received key to the Cabinet Room.'
p2306
sbag1
(g10
g3
NtRp2307
(dp2308
g13
S'RequireCount'
p2309
sg15
S'PA2'
p2310
sg16
S'CABINETMEMBERS:3'
p2311
sg18
S'The cabinet is waiting for you in the Cabinet Room.'
p2312
sbag1
(g10
g3
NtRp2313
(dp2314
g13
S'Say'
p2315
sg15
S'PA2'
p2316
sg16
S''
sg18
S'The Joint Chiefs are assembled in the Situation Room downstairs.'
p2317
sbag1
(g10
g3
NtRp2318
(dp2319
g13
S'Say'
p2320
sg15
S'PA2'
p2321
sg16
S''
sg18
S'Your palm print has been coded for maximum clearance now; you should have access to the basement.'
p2322
sbag1
(g10
g3
NtRp2323
(dp2324
g13
S'SetFlag'
p2325
sg15
S'PA2'
p2326
sg16
S'ACCESSWHITEHOUSEBASEMENT'
p2327
sg18
S''
sbag1
(g10
g3
NtRp2328
(dp2329
g13
S'RequireFlag'
p2330
sg15
S'PA2'
p2331
sg16
S'REPEAT'
p2332
sg18
S'Get to the basement, the Joint Chiefs are waiting.'
p2333
sbasS'DoorToTeacherRoom'
p2334
(lp2335
g1
(g10
g3
NtRp2336
(dp2337
g13
S'RequireItemPlayerSay'
p2338
sg15
g2334
sg16
S'TEACHERROOMKEY'
p2339
sg18
S'"Hey in there, open up!"'
p2340
sbag1
(g10
g3
NtRp2341
(dp2342
g13
S'Destroy'
p2343
sg15
S'DoorToTeacherRoom'
p2344
sg16
S''
sg18
S''
sbag1
(g10
g3
NtRp2345
(dp2346
g13
S'Message'
p2347
sg15
S'DoorToTeacherRoom'
p2348
sg16
S''
sg18
S'The teachers look up as you enter the room.'
p2349
sbasS'Journalist2'
p2350
(lp2351
g1
(g10
g3
NtRp2352
(dp2353
g13
S'RequireFlag'
p2354
sg15
g2350
sg16
S'STARTHICKS2'
p2355
sg18
S'Governor Badden sends his Mayor lacky to do his dirty work \xe2\x80\x93 what a scoop!'
p2356
sbag1
(g10
g3
NtRp2357
(dp2358
g13
S'Encounter'
p2359
sg15
S'Journalist2'
p2360
sg16
S'P-med-05'
p2361
sg18
S''
sbag1
(g10
g3
NtRp2362
(dp2363
g13
S'Say'
p2364
sg15
S'Journalist2'
p2365
sg16
S''
sg18
S"I'm going back to write a comparison piece on you and Governor Badden. You should consider running for Governor."
p2366
sbag1
(g10
g3
NtRp2367
(dp2368
g13
S'Increment'
p2369
sg15
S'Journalist2'
p2370
sg16
S'DEALWITHHICKS'
p2371
sg18
S''
sbag1
(g10
g3
NtRp2372
(dp2373
g13
S'Destroy'
p2374
sg15
S'Journalist2'
p2375
sg16
S''
sg18
S''
sbasS'#P-med-24'
p2376
(lp2377
g1
(g10
g3
NtRp2378
(dp2379
g13
S'PresidentAlien'
p2380
sg15
g2376
sg16
S''
sg18
S"You think you've beaten me, but now you're going to fight the real me!"
p2381
sbag1
(g10
g3
NtRp2382
(dp2383
g13
S'Player'
p2384
sg15
S'#P-med-24'
p2385
sg16
S''
sg18
S'I knew something was wrong, but this...?'
p2386
sbag1
(g10
g3
NtRp2387
(dp2388
g13
S'PresidentAlien'
p2389
sg15
S'#P-med-24'
p2390
sg16
S''
sg18
S"All you've done is caused me to expedite my plans to enslave the human race!"
p2391
sbasS'TVPersonality'
p2392
(lp2393
g1
(g10
g3
NtRp2394
(dp2395
g13
S'RequireFlag'
p2396
sg15
g2392
sg16
S'STARTHERCULES'
p2397
sg18
S"Ooooh, sorry Mossman, baby! We're not ready for you yet."
p2398
sbag1
(g10
g3
NtRp2399
(dp2400
g13
S'Say'
p2401
sg15
S'TVPersonality'
p2402
sg16
S''
sg18
S"There's the man! Are you ready to cross wits with The Mighty Hercules!"
p2403
sbag1
(g10
g3
NtRp2404
(dp2405
g13
S'PlayerSay'
p2406
sg15
S'TVPersonality'
p2407
sg16
S''
sg18
S'I sure am!'
p2408
sbag1
(g10
g3
NtRp2409
(dp2410
g13
S'Say'
p2411
sg15
S'TVPersonality'
p2412
sg16
S''
sg18
S"Really...? You don't want to...see your make-up artist?"
p2413
sbag1
(g10
g3
NtRp2414
(dp2415
g13
S'PlayerSay'
p2416
sg15
S'TVPersonality'
p2417
sg16
S''
sg18
S"No, no, I'm ready."
p2418
sbag1
(g10
g3
NtRp2419
(dp2420
g13
S'Say'
p2421
sg15
S'TVPersonality'
p2422
sg16
S''
sg18
S'Suit yourself...'
p2423
sbag1
(g10
g3
NtRp2424
(dp2425
g13
S'Say'
p2426
sg15
S'TVPersonality'
p2427
sg16
S''
sg18
S'... from the looks of it, suiting yourself is exactly what you did.'
p2428
sbag1
(g10
g3
NtRp2429
(dp2430
g13
S'Encounter'
p2431
sg15
S'TVPersonality'
p2432
sg16
S'P-med-20'
p2433
sg18
S''
sbag1
(g10
g3
NtRp2434
(dp2435
g13
S'Say'
p2436
sg15
S'TVPersonality'
p2437
sg16
S''
sg18
S'Good show, you sure gave me a run for my money.'
p2438
sbag1
(g10
g3
NtRp2439
(dp2440
g13
S'Say'
p2441
sg15
S'TVPersonality'
p2442
sg16
S''
sg18
S"Now beat it, you're making me look bad!"
p2443
sbag1
(g10
g3
NtRp2444
(dp2445
g13
S'SetFlag'
p2446
sg15
S'TVPersonality'
p2447
sg16
S'BEATHERCULES'
p2448
sg18
S''
sbag1
(g10
g3
NtRp2449
(dp2450
g13
S'Destroy'
p2451
sg15
S'TVPersonality'
p2452
sg16
S''
sg18
S''
sbasS'Politician4'
p2453
(lp2454
g1
(g10
g3
NtRp2455
(dp2456
g13
S'RequireFlag'
p2457
sg15
g2453
sg16
S'STARTPOLITICIANSHAKEDOWN'
p2458
sg18
S'Good morning, Governor Mossman. Your PA will know your schedule. He is waiting beside the stairs'
p2459
sbag1
(g10
g3
NtRp2460
(dp2461
g13
S'Say'
p2462
sg15
S'Politician4'
p2463
sg16
S''
sg18
S"I'm for culture! It's a glorious age we live in, we should further this great country's culture."
p2464
sbag1
(g10
g3
NtRp2465
(dp2466
g13
S'PlayerSay'
p2467
sg15
S'Politician4'
p2468
sg16
S''
sg18
S'That sounds fair, but what kind of culture would you like to focus on.'
p2469
sbag1
(g10
g3
NtRp2470
(dp2471
g13
S'Say'
p2472
sg15
S'Politician4'
p2473
sg16
S''
sg18
S"Oh...I don't know, I'm not really into art, can't really handle music. I'd rather not go to the theatre if I can get out of it. Don't really see the point of sport...hmmm. New culture?"
p2474
sbag1
(g10
g3
NtRp2475
(dp2476
g13
S'PlayerSay'
p2477
sg15
S'Politician4'
p2478
sg16
S''
sg18
S"You don't seem very in to improving culture really."
p2479
sbag1
(g10
g3
NtRp2480
(dp2481
g13
S'Say'
p2482
sg15
S'Politician4'
p2483
sg16
S''
sg18
S'Yeh, well...my wife said it would make me sound smart. I think sounding smart is important. Lets be for that!'
p2484
sbag1
(g10
g3
NtRp2485
(dp2486
g13
S'Encounter'
p2487
sg15
S'Politician4'
p2488
sg16
S'P-med-08'
p2489
sg18
S''
sbag1
(g10
g3
NtRp2490
(dp2491
g13
S'Say'
p2492
sg15
S'Politician4'
p2493
sg16
S''
sg18
S"Gee, you're a pretty smart guy. I think you've got this covered."
p2494
sbag1
(g10
g3
NtRp2495
(dp2496
g13
S'Increment'
p2497
sg15
S'Politician4'
p2498
sg16
S'POLITICIANSHAKEDOWN'
p2499
sg18
S''
sbag1
(g10
g3
NtRp2500
(dp2501
g13
S'Destroy'
p2502
sg15
S'Politician4'
p2503
sg16
S''
sg18
S''
sbasS'SouthWingDoor'
p2504
(lp2505
g1
(g10
g3
NtRp2506
(dp2507
g13
S'RequireItemMessage'
p2508
sg15
g2504
sg16
S'SOUTHWINGDOORKEY'
p2509
sg18
S'The door appears to be locked'
p2510
sbag1
(g10
g3
NtRp2511
(dp2512
g13
S'Message'
p2513
sg15
S'SouthWingDoor'
p2514
sg16
S''
sg18
S"The door unlocks with a satisfying 'click'"
p2515
sbag1
(g10
g3
NtRp2516
(dp2517
g13
S'Destroy'
p2518
sg15
S'SouthWingDoor'
p2519
sg16
S''
sg18
S''
sbasS'Protester2'
p2520
(lp2521
g1
(g10
g3
NtRp2522
(dp2523
g13
S'Say'
p2524
sg15
g2520
sg16
S''
sg18
S"Bees buzz, Mayors lie, who's this Phillip Mossman guy?"
p2525
sbag1
(g10
g3
NtRp2526
(dp2527
g13
S'RequireFlag'
p2528
sg15
S'Protester2'
p2529
sg16
S'PROTESTORS'
p2530
sg18
S''
sbag1
(g10
g3
NtRp2531
(dp2532
g13
S'Encounter'
p2533
sg15
S'Protester2'
p2534
sg16
S'P-easy-03'
p2535
sg18
S''
sbag1
(g10
g3
NtRp2536
(dp2537
g13
S'Destroy'
p2538
sg15
S'Protester2'
p2539
sg16
S''
sg18
S''
sbasS'JointChief2'
p2540
(lp2541
g1
(g10
g3
NtRp2542
(dp2543
g13
S'PlayerSay'
p2544
sg15
g2540
sg16
S''
sg18
S'Who would have the power to do this? What would they stand to gain? Can we...'
p2545
sbag1
(g10
g3
NtRp2546
(dp2547
g13
S'Say'
p2548
sg15
S'JointChief2'
p2549
sg16
S''
sg18
S"I'm sorry, Sir. I've just learned that some ICBMs pointed at Russia have been activated - using your access codes! They could be fired at any moment!"
p2550
sbag1
(g10
g3
NtRp2551
(dp2552
g13
S'PlayerSay'
p2553
sg15
S'JointChief2'
p2554
sg16
S''
sg18
S'You\'ve "just learned"? Is this your doing?'
p2555
sbag1
(g10
g3
NtRp2556
(dp2557
g13
S'Encounter'
p2558
sg15
S'JointChief2'
p2559
sg16
S'P-hard-12'
p2560
sg18
S''
sbag1
(g10
g3
NtRp2561
(dp2562
g13
S'Increment'
p2563
sg15
S'JointChief2'
p2564
sg16
S'JOINTCHIEFS'
p2565
sg18
S''
sbag1
(g10
g3
NtRp2566
(dp2567
g13
S'PlayerSay'
p2568
sg15
S'JointChief2'
p2569
sg16
S''
sg18
S'I had to be sure.'
p2570
sbag1
(g10
g3
NtRp2571
(dp2572
g13
S'Destroy'
p2573
sg15
S'JointChief2'
p2574
sg16
S''
sg18
S''
sbasS'Protester1'
p2575
(lp2576
g1
(g10
g3
NtRp2577
(dp2578
g13
S'Say'
p2579
sg15
g2575
sg16
S''
sg18
S"Fee Fi Fo Fum, we think Mayor Goodman's Dumb!"
p2580
sbag1
(g10
g3
NtRp2581
(dp2582
g13
S'RequireFlag'
p2583
sg15
S'Protester1'
p2584
sg16
S'PROTESTORS'
p2585
sg18
S''
sbag1
(g10
g3
NtRp2586
(dp2587
g13
S'Encounter'
p2588
sg15
S'Protester1'
p2589
sg16
S'P-easy-02'
p2590
sg18
S''
sbag1
(g10
g3
NtRp2591
(dp2592
g13
S'Destroy'
p2593
sg15
S'Protester1'
p2594
sg16
S''
sg18
S''
sbasS'#----------------------------------------------------------------------------------------ACT 2 \xe2\x80\x93 Part 1---------------------------------------------------------------------------------------------------------------------------------------------------'
p2595
(lp2596
g1
(g10
g3
NtRp2597
(dp2598
g13
S''
sg15
g2595
sg16
S''
sg18
S''
sbasS'Head Protester'
p2599
(lp2600
g1
(g10
g3
NtRp2601
(dp2602
g13
S'Say'
p2603
sg15
g2599
sg16
S''
sg18
S"I am the head protester. You'll never convince us to back down!"
p2604
sbag1
(g10
g3
NtRp2605
(dp2606
g13
S'RequireFlag'
p2607
sg15
S'Head Protester'
p2608
sg16
S'PROTESTORS'
p2609
sg18
S''
sbag1
(g10
g3
NtRp2610
(dp2611
g13
S'PlayerSay'
p2612
sg15
S'Head Protester'
p2613
sg16
S''
sg18
S'What are you protesting?'
p2614
sbag1
(g10
g3
NtRp2615
(dp2616
g13
S'Say'
p2617
sg15
S'Head Protester'
p2618
sg16
S''
sg18
S'Er...Injustice!'
p2619
sbag1
(g10
g3
NtRp2620
(dp2621
g13
S'PlayerSay'
p2622
sg15
S'Head Protester'
p2623
sg16
S''
sg18
S'Injustice against what?'
p2624
sbag1
(g10
g3
NtRp2625
(dp2626
g13
S'Say'
p2627
sg15
S'Head Protester'
p2628
sg16
S''
sg18
S'...'
p2629
sbag1
(g10
g3
NtRp2630
(dp2631
g13
S'Say'
p2632
sg15
S'Head Protester'
p2633
sg16
S''
sg18
S'The People!'
p2634
sbag1
(g10
g3
NtRp2635
(dp2636
g13
S'PlayerSay'
p2637
sg15
S'Head Protester'
p2638
sg16
S''
sg18
S'Yes, but which people?'
p2639
sbag1
(g10
g3
NtRp2640
(dp2641
g13
S'Say'
p2642
sg15
S'Head Protester'
p2643
sg16
S''
sg18
S'See? What a fascist, ALL people you slimey politician scum!'
p2644
sbag1
(g10
g3
NtRp2645
(dp2646
g13
S'Encounter'
p2647
sg15
S'Head Protester'
p2648
sg16
S'P-easy-04'
p2649
sg18
S''
sbag1
(g10
g3
NtRp2650
(dp2651
g13
S'Say'
p2652
sg15
S'Head Protester'
p2653
sg16
S''
sg18
S"Alright, fine! We'll stop protesting...whatever we were protesting."
p2654
sbag1
(g10
g3
NtRp2655
(dp2656
g13
S'SetFlag'
p2657
sg15
S'Head Protester'
p2658
sg16
S'PROTESTORSDEAD'
p2659
sg18
S''
sbag1
(g10
g3
NtRp2660
(dp2661
g13
S'Destroy'
p2662
sg15
S'Head Protester'
p2663
sg16
S''
sg18
S''
sbasS'Receptionist'
p2664
(lp2665
g1
(g10
g3
NtRp2666
(dp2667
g13
S'Save'
p2668
sg15
g2664
sg16
S'SAVE_START'
p2669
sg18
S''
sbag1
(g10
g3
NtRp2670
(dp2671
g13
S'RequireFlag'
p2672
sg15
S'Receptionist'
p2673
sg16
S'PENQUEST'
p2674
sg18
S"You must be Mayor Goodman's new assistant. He's in his office."
p2675
sbag1
(g10
g3
NtRp2676
(dp2677
g13
S'PlayerSay'
p2678
sg15
S'Receptionist'
p2679
sg16
S''
sg18
S"The Mayor is looking for his pen. He seemed to think you'd know where it was."
p2680
sbag1
(g10
g3
NtRp2681
(dp2682
g13
S'Say'
p2683
sg15
S'Receptionist'
p2684
sg16
S''
sg18
S"Did that buffoon accuse me of stealing again? This is MY pen and he isn't having it."
p2685
sbag1
(g10
g3
NtRp2686
(dp2687
g13
S'Encounter'
p2688
sg15
S'Receptionist'
p2689
sg16
S'P-easy-01'
p2690
sg18
S''
sbag1
(g10
g3
NtRp2691
(dp2692
g13
S'GiveItem'
p2693
sg15
S'Receptionist'
p2694
sg16
S'PEN'
p2695
sg18
S'Receptionist sighs and hands over the pen.'
p2696
sbag1
(g10
g3
NtRp2697
(dp2698
g13
S'Say'
p2699
sg15
S'Receptionist'
p2700
sg16
S''
sg18
S"If you're ever getting low on votes, come talk to me and I'll run an ad campaign to restore them."
p2701
sbag1
(g10
g3
NtRp2702
(dp2703
g13
S'Reset'
p2704
sg15
S'Receptionist'
p2705
sg16
S'RESTORE'
p2706
sg18
S''
sbag1
(g10
g3
NtRp2707
(dp2708
g13
S'Label'
p2709
sg15
S'Receptionist'
p2710
sg16
S'RESTORE'
p2711
sg18
S''
sbag1
(g10
g3
NtRp2712
(dp2713
g13
S'Say'
p2714
sg15
S'Receptionist'
p2715
sg16
S''
sg18
S"You've taken a beating, let me fix you up."
p2716
sbag1
(g10
g3
NtRp2717
(dp2718
g13
S'RestoreVotes'
p2719
sg15
S'Receptionist'
p2720
sg16
S''
sg18
S'Receptionist replenishes votes'
p2721
sbag1
(g10
g3
NtRp2722
(dp2723
g13
S'Reset'
p2724
sg15
S'Receptionist'
p2725
sg16
S'RESTORE'
p2726
sg18
S''
sbasS'CheatAct2P2'
p2727
(lp2728
g1
(g10
g3
NtRp2729
(dp2730
g13
S'AddAlly'
p2731
sg15
g2727
sg16
S'Wife:1'
p2732
sg18
S''
sbag1
(g10
g3
NtRp2733
(dp2734
g13
S'LearnAttack'
p2735
sg15
S'CheatAct2P2'
p2736
sg16
S'BRIBE'
p2737
sg18
S''
sbag1
(g10
g3
NtRp2738
(dp2739
g13
S'LearnAttack'
p2740
sg15
S'CheatAct2P2'
p2741
sg16
S'Wife:BRIBE'
p2742
sg18
S''
sbag1
(g10
g3
NtRp2743
(dp2744
g13
S'LearnAttack'
p2745
sg15
S'CheatAct2P2'
p2746
sg16
S'SLANDER'
p2747
sg18
S''
sbag1
(g10
g3
NtRp2748
(dp2749
g13
S'AddAlly'
p2750
sg15
S'CheatAct2P2'
p2751
sg16
S'Leo:1'
p2752
sg18
S''
sbag1
(g10
g3
NtRp2753
(dp2754
g13
S'GotoMap'
p2755
sg15
S'CheatAct2P2'
p2756
sg16
S'hotel_l1'
p2757
sg18
S''
sbasS'Journalist5'
p2758
(lp2759
g1
(g10
g3
NtRp2760
(dp2761
g13
S'RequireFlag'
p2762
sg15
g2758
sg16
S'ACCESSJOURNALISTS'
p2763
sg18
S'Just one question?'
p2764
sbag1
(g10
g3
NtRp2765
(dp2766
g13
S'Say'
p2767
sg15
S'Journalist5'
p2768
sg16
S''
sg18
S'Do you feel that a bi-partisan relationship will be possible between your party and the opposition?'
p2769
sbag1
(g10
g3
NtRp2770
(dp2771
g13
S'PlayerSay'
p2772
sg15
S'Journalist5'
p2773
sg16
S''
sg18
S'I suppose once we find and remove all of the aliens and reverse the alien brainwashing, bi-partisanship will resume.'
p2774
sbag1
(g10
g3
NtRp2775
(dp2776
g13
S'Encounter'
p2777
sg15
S'Journalist5'
p2778
sg16
S'P-hard-03'
p2779
sg18
S''
sbag1
(g10
g3
NtRp2780
(dp2781
g13
S'Say'
p2782
sg15
S'Journalist5'
p2783
sg16
S''
sg18
S'Thankyou, President Mossman.'
p2784
sbag1
(g10
g3
NtRp2785
(dp2786
g13
S'Increment'
p2787
sg15
S'Journalist5'
p2788
sg16
S'PRESSCONF'
p2789
sg18
S''
sbag1
(g10
g3
NtRp2790
(dp2791
g13
S'Destroy'
p2792
sg15
S'Journalist5'
p2793
sg16
S''
sg18
S''
sbasS'Politician5'
p2794
(lp2795
g1
(g10
g3
NtRp2796
(dp2797
g13
S'RequireFlag'
p2798
sg15
g2794
sg16
S'STARTPOLITICIANSHAKEDOWN'
p2799
sg18
S'Good morning, Governor Mossman. Your PA will know your schedule. He is waiting beside the stairs'
p2800
sbag1
(g10
g3
NtRp2801
(dp2802
g13
S'Say'
p2803
sg15
S'Politician5'
p2804
sg16
S''
sg18
S'Big business!'
p2805
sbag1
(g10
g3
NtRp2806
(dp2807
g13
S'PlayerSay'
p2808
sg15
S'Politician5'
p2809
sg16
S''
sg18
S'What about big business.'
p2810
sbag1
(g10
g3
NtRp2811
(dp2812
g13
S'Say'
p2813
sg15
S'Politician5'
p2814
sg16
S''
sg18
S'...MORE big business!'
p2815
sbag1
(g10
g3
NtRp2816
(dp2817
g13
S'PlayerSay'
p2818
sg15
S'Politician5'
p2819
sg16
S''
sg18
S'You want to grow our business sector? Provide more jobs?'
p2820
sbag1
(g10
g3
NtRp2821
(dp2822
g13
S'Say'
p2823
sg15
S'Politician5'
p2824
sg16
S''
sg18
S'...Yeeeeh. Yes. Yes, that.'
p2825
sbag1
(g10
g3
NtRp2826
(dp2827
g13
S'PlayerSay'
p2828
sg15
S'Politician5'
p2829
sg16
S''
sg18
S'What about small business?'
p2830
sbag1
(g10
g3
NtRp2831
(dp2832
g13
S'Say'
p2833
sg15
S'Politician5'
p2834
sg16
S''
sg18
S'No! We need to make it BIGGER!'
p2835
sbag1
(g10
g3
NtRp2836
(dp2837
g13
S'Encounter'
p2838
sg15
S'Politician5'
p2839
sg16
S'P-med-09'
p2840
sg18
S''
sbag1
(g10
g3
NtRp2841
(dp2842
g13
S'Say'
p2843
sg15
S'Politician5'
p2844
sg16
S''
sg18
S"OK, I see what you're getting at. Lets help small business to grow."
p2845
sbag1
(g10
g3
NtRp2846
(dp2847
g13
S'Increment'
p2848
sg15
S'Politician5'
p2849
sg16
S'POLITICIANSHAKEDOWN'
p2850
sg18
S''
sbag1
(g10
g3
NtRp2851
(dp2852
g13
S'Destroy'
p2853
sg15
S'Politician5'
p2854
sg16
S''
sg18
S''
sbasS'StairsToBasement'
p2855
(lp2856
g1
(g10
g3
NtRp2857
(dp2858
g13
S'RequireFlagPlayerSay'
p2859
sg15
g2855
sg16
S'ACCESSBASEMENT'
p2860
sg18
S'Smells like a basement. I have no business going down there.'
p2861
sbag1
(g10
g3
NtRp2862
(dp2863
g13
S'Label'
p2864
sg15
S'StairsToBasement'
p2865
sg16
S'START'
p2866
sg18
S''
sbag1
(g10
g3
NtRp2867
(dp2868
g13
S'GotoMap'
p2869
sg15
S'StairsToBasement'
p2870
sg16
S'hotel_basement'
p2871
sg18
S''
sbag1
(g10
g3
NtRp2872
(dp2873
g13
S'Jump'
p2874
sg15
S'StairsToBasement'
p2875
sg16
S'START'
p2876
sg18
S''
sbasS'P-med-12'
p2877
(lp2878
g1
(g10
g3
NtRp2879
(dp2880
g13
S'Say'
p2881
sg15
g2877
sg16
S'Lobbyist001'
p2882
sg18
S'import combat'
p2883
sbasS'Lobbyist3'
p2884
(lp2885
g1
(g10
g3
NtRp2886
(dp2887
g13
S'RequireFlag'
p2888
sg15
g2884
sg16
S'STARTLOBBYISTS'
p2889
sg18
S'Mutter, mutter'
p2890
sbag1
(g10
g3
NtRp2891
(dp2892
g13
S'Say'
p2893
sg15
S'Lobbyist3'
p2894
sg16
S''
sg18
S'Protection of internet memes'
p2895
sbag1
(g10
g3
NtRp2896
(dp2897
g13
S'Encounter'
p2898
sg15
S'Lobbyist3'
p2899
sg16
S'P-med-13'
p2900
sg18
S''
sbag1
(g10
g3
NtRp2901
(dp2902
g13
S'Increment'
p2903
sg15
S'Lobbyist3'
p2904
sg16
S'LOBBYISTS'
p2905
sg18
S''
sbag1
(g10
g3
NtRp2906
(dp2907
g13
S'Say'
p2908
sg15
S'Lobbyist3'
p2909
sg16
S''
sg18
S"It's a start."
p2910
sbag1
(g10
g3
NtRp2911
(dp2912
g13
S'Destroy'
p2913
sg15
S'Lobbyist3'
p2914
sg16
S''
sg18
S''
sbasS'Mayor'
p2915
(lp2916
g1
(g10
g3
NtRp2917
(dp2918
g13
S'Say'
p2919
sg15
g2915
sg16
S''
sg18
S"Hello, I'm the Mayor!"
p2920
sbag1
(g10
g3
NtRp2921
(dp2922
g13
S'PlayerSay'
p2923
sg15
S'Mayor'
p2924
sg16
S''
sg18
S"Hello, Mayor Goodman, I'm Philip Mossman."
p2925
sbag1
(g10
g3
NtRp2926
(dp2927
g13
S'Say'
p2928
sg15
S'Mayor'
p2929
sg16
S''
sg18
S"Ah yes, you're my new assistant. A good thing, too."
p2930
sbag1
(g10
g3
NtRp2931
(dp2932
g13
S'Say'
p2933
sg15
S'Mayor'
p2934
sg16
S''
sg18
S"I've been searching for minutes and haven't been able to find my pen! I bet my receptionist stole it. She has sticky fingers."
p2935
sbag1
(g10
g3
NtRp2936
(dp2937
g13
S'Say'
p2938
sg15
S'Mayor'
p2939
sg16
S''
sg18
S"Well, don't just stand there, go and get it!"
p2940
sbag1
(g10
g3
NtRp2941
(dp2942
g13
S'SetFlag'
p2943
sg15
S'Mayor'
p2944
sg16
S'PENQUEST'
p2945
sg18
S''
sbag1
(g10
g3
NtRp2946
(dp2947
g13
S'RequireItem'
p2948
sg15
S'Mayor'
p2949
sg16
S'PEN'
p2950
sg18
S'Are you simple? Go and get my pen from that thieving receptionist.'
p2951
sbag1
(g10
g3
NtRp2952
(dp2953
g13
S'Say'
p2954
sg15
S'Mayor'
p2955
sg16
S''
sg18
S"Great! I know she can give you a bit of a tongue-lashing, but she's a fantastic receptionist."
p2956
sbag1
(g10
g3
NtRp2957
(dp2958
g13
S'Say'
p2959
sg15
S'Mayor'
p2960
sg16
S''
sg18
S"I'm sure you want to learn a thing or two about politics \xe2\x80\x93 who doesn't? - so lets get started"
p2961
sbag1
(g10
g3
NtRp2962
(dp2963
g13
S'SetFlag'
p2964
sg15
S'Mayor'
p2965
sg16
S'PROTESTORS'
p2966
sg18
S''
sbag1
(g10
g3
NtRp2967
(dp2968
g13
S'RequireFlag'
p2969
sg15
S'Mayor'
p2970
sg16
S'PROTESTORSDEAD'
p2971
sg18
S'Run outside and tell those protesters to scram, will you?'
p2972
sbag1
(g10
g3
NtRp2973
(dp2974
g13
S'Say'
p2975
sg15
S'Mayor'
p2976
sg16
S''
sg18
S"Hope they didn't give you too much trouble!"
p2977
sbag1
(g10
g3
NtRp2978
(dp2979
g13
S'Say'
p2980
sg15
S'Mayor'
p2981
sg16
S''
sg18
S"Now that's sorted, there's a journalist from the local newspaper coming for an interview."
p2982
sbag1
(g10
g3
NtRp2983
(dp2984
g13
S'Say'
p2985
sg15
S'Mayor'
p2986
sg16
S''
sg18
S"I certainly don't have time for it, so you can do the interview."
p2987
sbag1
(g10
g3
NtRp2988
(dp2989
g13
S'Say'
p2990
sg15
S'Mayor'
p2991
sg16
S''
sg18
S"Be careful not to give too much away and if you could throw a few punches at the opposition that'd help."
p2992
sbag1
(g10
g3
NtRp2993
(dp2994
g13
S'PlayerSay'
p2995
sg15
S'Mayor'
p2996
sg16
S''
sg18
S'You want me to...throw a punch?'
p2997
sbag1
(g10
g3
NtRp2998
(dp2999
g13
S'Say'
p3000
sg15
S'Mayor'
p3001
sg16
S''
sg18
S"You're in politics and don't know how to fight dirty? Sheesh! Here, let me show you."
p3002
sbag1
(g10
g3
NtRp3003
(dp3004
g13
S'LearnAttack'
p3005
sg15
S'Mayor'
p3006
sg16
S'SLANDER'
p3007
sg18
S'Mayor teaches Phillip to Slander Opposition'
p3008
sbag1
(g10
g3
NtRp3009
(dp3010
g13
S'Say'
p3011
sg15
S'Mayor'
p3012
sg16
S''
sg18
S"It's a pretty great tactic because it keeps eating away at them long after you've done it."
p3013
sbag1
(g10
g3
NtRp3014
(dp3015
g13
S'SetFlag'
p3016
sg15
S'Mayor'
p3017
sg16
S'INTERVIEWSTART'
p3018
sg18
S''
sbag1
(g10
g3
NtRp3019
(dp3020
g13
S'RequireFlag'
p3021
sg15
S'Mayor'
p3022
sg16
S'JOURNALISTINTERVIEW'
p3023
sg18
S'Go handle that interview and remember to slander the opposition.'
p3024
sbag1
(g10
g3
NtRp3025
(dp3026
g13
S'SetFlag'
p3027
sg15
S'Mayor'
p3028
sg16
S'GOHOMETOWIFE'
p3029
sg18
S''
sbag1
(g10
g3
NtRp3030
(dp3031
g13
S'Say'
p3032
sg15
S'Mayor'
p3033
sg16
S''
sg18
S'OK, fine, now could you buzz off for a while? I need to get some work done.'
p3034
sbag1
(g10
g3
NtRp3035
(dp3036
g13
S'RequireFlag'
p3037
sg15
S'Mayor'
p3038
sg16
S'CONSTITUENTSWON'
p3039
sg18
S"Go home to your family. I have things to do that don't involve you."
p3040
sbag1
(g10
g3
NtRp3041
(dp3042
g13
S'Say'
p3043
sg15
S'Mayor'
p3044
sg16
S''
sg18
S"What's this I hear about you campaigning for Mayor? After everything I've taught you!"
p3045
sbag1
(g10
g3
NtRp3046
(dp3047
g13
S'PlayerSay'
p3048
sg15
S'Mayor'
p3049
sg16
S''
sg18
S"I'm sorry Mayor Goodman, but it's time for someone who's ready to make a difference for our town."
p3050
sbag1
(g10
g3
NtRp3051
(dp3052
g13
S'Say'
p3053
sg15
S'Mayor'
p3054
sg16
S''
sg18
S"You really are a fool. Do you think He's going to allow that?"
p3055
sbag1
(g10
g3
NtRp3056
(dp3057
g13
S'Encounter'
p3058
sg15
S'Mayor'
p3059
sg16
S'P-easy-10'
p3060
sg18
S''
sbag1
(g10
g3
NtRp3061
(dp3062
g13
S'Say'
p3063
sg15
S'Mayor'
p3064
sg16
S''
sg18
S"Well, you've beaten me but you don't have a clue what you're in for. I hope you're up to this kid!"
p3065
sbag1
(g10
g3
NtRp3066
(dp3067
g13
S'Destroy'
p3068
sg15
S'Mayor'
p3069
sg16
S''
sg18
S''
sbasS'StairsToL2'
p3070
(lp3071
g1
(g10
g3
NtRp3072
(dp3073
g13
S'Label'
p3074
sg15
g3070
sg16
S'START'
p3075
sg18
S''
sbag1
(g10
g3
NtRp3076
(dp3077
g13
S'GotoMap'
p3078
sg15
S'StairsToL2'
p3079
sg16
S'hotel_l2'
p3080
sg18
S''
sbag1
(g10
g3
NtRp3081
(dp3082
g13
S'Jump'
p3083
sg15
S'StairsToL2'
p3084
sg16
S'START'
p3085
sg18
S''
sbassS'attacks'
p3086
(dp3087
S'GETEXCLUSIVE'
p3088
g1
(g10
g3
NtRp3089
(dp3090
S'base_damage_max'
p3091
F-2
sS'description'
p3092
S'asdf'
p3093
sS'weight'
p3094
I1
sS'crit_chance_max'
p3095
F0
sS'crit_chance_min'
p3096
F0
sS'underlying_stat'
p3097
S'Wit'
p3098
sS'target_type'
p3099
S'AllFriendly'
p3100
sS'base_damage_min'
p3101
F-2
sS'spin_cost'
p3102
F5
sS'effects'
p3103
(lp3104
g1
(c__main__
Effect
p3105
g3
NtRp3106
(dp3107
S'function'
p3108
S'add'
p3109
sS'abbrv'
p3110
S'(INCREASE)'
p3111
sS'attribute'
p3112
S'cunning'
p3113
sS'value'
p3114
F2
sS'rounds_min'
p3115
F1
sS'rounds_max'
p3116
F4
sS'id'
p3117
S'Increase Cunning'
p3118
sS'apply_to_source'
p3119
S'TRUE'
p3120
sbasS'target_count'
p3121
I1
sS'crit_base_damage'
p3122
F0
sg3117
g3088
sS'name'
p3123
S'Get Exclusive'
p3124
sbsS'LOSELOSE'
p3125
g1
(g10
g3
NtRp3126
(dp3127
g3091
F4
sg3092
S'Causes all politicians in the target radius to lose votes'
p3128
sg3094
I1
sg3095
F0
sg3096
F0
sg3097
S'Cunning'
p3129
sg3099
S'All'
p3130
sg3101
F4
sg3102
I0
sg3103
(lp3131
sg3121
I6
sg3122
F0
sg3117
g3125
sg3123
S'Lose/lose issue'
p3132
sbsS'LIE'
p3133
g1
(g10
g3
NtRp3134
(dp3135
g3091
F11
sg3092
S"It's only lying if they catch you. A strong attack with a danger of critically failing"
p3136
sg3094
F3
sg3095
F10
sg3096
F5
sg3097
S'Cunning'
p3137
sg3099
S'AllEnemy'
p3138
sg3101
F0
sg3102
I0
sg3103
(lp3139
g1
(g3105
g3
NtRp3140
(dp3141
g3108
S'miss_turn'
p3142
sg3110
S'(MISS)'
p3143
sg3112
S''
sg3114
F0
sg3115
F1
sg3116
F1
sg3117
S'Critical Fail'
p3144
sg3119
S'TRUE'
p3145
sbasg3121
I1
sg3122
F13
sg3117
g3133
sg3123
S'Lie'
p3146
sbsS'HILARIOUSANECDOTE'
p3147
g1
(g10
g3
NtRp3148
(dp3149
g3091
F8
sg3092
S'asdf'
p3150
sg3094
I1
sg3095
F5
sg3096
F2
sg3097
S'Wit'
p3151
sg3099
S'AllFriendly'
p3152
sg3101
F4
sg3102
F5
sg3103
(lp3153
g1
(g3105
g3
NtRp3154
(dp3155
g3108
S'add'
p3156
sg3110
S'(INCREASE)'
p3157
sg3112
S'flair'
p3158
sg3114
F2
sg3115
F1
sg3116
F4
sg3117
S'Increase Flair'
p3159
sg3119
S'TRUE'
p3160
sbasg3121
I1
sg3122
F11
sg3117
g3147
sg3123
S'Hilarious Anecdote'
p3161
sbsS'SENSATIONALISE'
p3162
g1
(g10
g3
NtRp3163
(dp3164
g3091
F8
sg3092
S'asdf'
p3165
sg3094
I1
sg3095
F0
sg3096
F0
sg3097
S'Wit'
p3166
sg3099
S'AllEnemy'
p3167
sg3101
F4
sg3102
F3
sg3103
(lp3168
sg3121
I1
sg3122
F0
sg3117
g3162
sg3123
S'Sensationalise'
p3169
sbsS'DENOUNCE'
p3170
g1
(g10
g3
NtRp3171
(dp3172
g3091
F5
sg3092
S'asdf'
p3173
sg3094
F6
sg3095
F10
sg3096
F2
sg3097
S'Cunning'
p3174
sg3099
S'AllEnemy'
p3175
sg3101
F2
sg3102
I0
sg3103
(lp3176
sg3121
I1
sg3122
F8
sg3117
g3170
sg3123
S'Denounce'
p3177
sbsS'WHADOWEWANT'
p3178
g1
(g10
g3
NtRp3179
(dp3180
g3091
F5
sg3092
S'asdf'
p3181
sg3094
I1
sg3095
F0
sg3096
F0
sg3097
S'Cunning'
p3182
sg3099
S'AllEnemy'
p3183
sg3101
F2
sg3102
I0
sg3103
(lp3184
sg3121
I1
sg3122
F0
sg3117
g3178
sg3123
S'Whadowewant!'
p3185
sbsS'SCOOP'
p3186
g1
(g10
g3
NtRp3187
(dp3188
g3091
F5
sg3092
S'asdf'
p3189
sg3094
I1
sg3095
F10
sg3096
F5
sg3097
S'Cunning'
p3190
sg3099
S'AllEnemy'
p3191
sg3101
F2
sg3102
I0
sg3103
(lp3192
sg3121
I1
sg3122
F8
sg3117
g3186
sg3123
S'Scoop'
p3193
sbsS'CHOOSETARGETS'
p3194
g1
(g10
g3
NtRp3195
(dp3196
g3091
F7
sg3092
S'asdf'
p3197
sg3094
I1
sg3095
F10
sg3096
F5
sg3097
S'Cunning'
p3198
sg3099
S'AllEnemy'
p3199
sg3101
F2
sg3102
I0
sg3103
(lp3200
sg3121
I1
sg3122
F9
sg3117
g3194
sg3123
S'Choose Targets'
p3201
sbsS'FILENAILS'
p3202
g1
(g10
g3
NtRp3203
(dp3204
g3091
F0
sg3092
S'asdf'
p3205
sg3094
I1
sg3095
F0
sg3096
F0
sg3097
S'Wit'
p3206
sg3099
S'AllEnemy'
p3207
sg3101
F0
sg3102
F3
sg3103
(lp3208
g1
(g3105
g3
NtRp3209
(dp3210
g3108
S'add_permanent'
p3211
sg3110
S''
sg3112
S'votes'
p3212
sg3114
F5
sg3115
F1
sg3116
F1
sg3117
S'Votes Restore'
p3213
sg3119
S''
sbasg3121
I1
sg3122
F0
sg3117
g3202
sg3123
S'File Nails'
p3214
sbsS'BRIBE'
p3215
g1
(g10
g3
NtRp3216
(dp3217
g3091
F10
sg3092
S'Is there anything more convincing than money? Buying loyalty gets expensive so be careful.'
p3218
sg3094
I1
sg3095
F0
sg3096
F0
sg3097
S'Money'
p3219
sg3099
S'AllEnemy'
p3220
sg3101
F4
sg3102
I0
sg3103
(lp3221
sg3121
I1
sg3122
F0
sg3117
g3215
sg3123
S'Bribe'
p3222
sbsS'SING'
p3223
g1
(g10
g3
NtRp3224
(dp3225
g3091
F-3
sg3092
S'Why bandy words with politicians when you can sing a catchy tune! Restores votes.'
p3226
sg3094
I1
sg3095
F0
sg3096
F0
sg3097
S'Cunning'
p3227
sg3099
S'AllFriendly'
p3228
sg3101
F-5
sg3102
I0
sg3103
(lp3229
sg3121
I4
sg3122
F0
sg3117
g3223
sg3123
S'Rousing Song'
p3230
sbsS'FEAR'
p3231
g1
(g10
g3
NtRp3232
(dp3233
g3091
F0
sg3092
S'asdf'
p3234
sg3094
F2
sg3095
F0
sg3096
F0
sg3097
S'Wit'
p3235
sg3099
S'AllFriendly'
p3236
sg3101
F0
sg3102
F4
sg3103
(lp3237
g3106
asg3121
I1
sg3122
F0
sg3117
g3231
sg3123
S'Fear Change'
p3238
sbsS'RAISEDEFCON'
p3239
g1
(g10
g3
NtRp3240
(dp3241
g3091
F5
sg3092
S'asdf'
p3242
sg3094
I1
sg3095
F7
sg3096
F3
sg3097
S'Cunning'
p3243
sg3099
S'AllEnemy'
p3244
sg3101
F4
sg3102
I0
sg3103
(lp3245
sg3121
I1
sg3122
F8
sg3117
g3239
sg3123
S'Raise DEFCON'
p3246
sbsS'BILLBOARD'
p3247
g1
(g10
g3
NtRp3248
(dp3249
g3091
F0
sg3092
S'Run a billboard ad to restore up to 30 votes'
p3250
sg3094
I1
sg3095
F0
sg3096
F0
sg3097
S''
sg3099
S'AllFriendly'
p3251
sg3101
F0
sg3102
I0
sg3103
(lp3252
g1
(g3105
g3
NtRp3253
(dp3254
g3108
S'add_permanent'
p3255
sg3110
S''
sg3112
S'votes'
p3256
sg3114
F30
sg3115
F1
sg3116
F1
sg3117
S'Votes Restore Billboard'
p3257
sg3119
S''
sbasg3121
I1
sg3122
F0
sg3117
g3247
sg3123
S'Billboard Ad'
p3258
sbsS'NEGATTACKAD'
p3259
g1
(g10
g3
NtRp3260
(dp3261
g3091
F8
sg3092
S"Take them all down. They're definitely all bad people. Not like you."
p3262
sg3094
I1
sg3095
F10
sg3096
F10
sg3097
S'Wit'
p3263
sg3099
S'AllEnemy'
p3264
sg3101
F4
sg3102
F3
sg3103
(lp3265
sg3121
I1
sg3122
F10
sg3117
g3259
sg3123
S'Negative Attack Ad'
p3266
sbsS'DAZZLE'
p3267
g1
(g10
g3
NtRp3268
(dp3269
g3091
F6
sg3092
S'Being dazzling and admirable is a great way to take heat off politics'
p3270
sg3094
I1
sg3095
F8
sg3096
F5
sg3097
S'Wit'
p3271
sg3099
S'AllEnemy'
p3272
sg3101
F3
sg3102
F3
sg3103
(lp3273
g1
(g3105
g3
NtRp3274
(dp3275
g3108
S'reduce'
p3276
sg3110
S'(REDUCE)'
p3277
sg3112
S'cunning'
p3278
sg3114
F2
sg3115
F2
sg3116
F5
sg3117
S'Reduce Cunning'
p3279
sg3119
S''
sbasg3121
I4
sg3122
F8
sg3117
g3267
sg3123
S'Dazzle'
p3280
sbsS'BELIEVEMEDIA'
p3281
g1
(g10
g3
NtRp3282
(dp3283
g3091
F3
sg3092
S'asdf'
p3284
sg3094
I1
sg3095
F15
sg3096
F10
sg3097
S'Cunning'
p3285
sg3099
S'AllEnemy'
p3286
sg3101
F1
sg3102
I0
sg3103
(lp3287
sg3121
I1
sg3122
F12
sg3117
g3281
sg3123
S'Believe Media'
p3288
sbsS'PRPREP'
p3289
g1
(g10
g3
NtRp3290
(dp3291
g3091
F0
sg3092
S"If you're going to need some spin, best see a spin doctor! Adds spin points."
p3292
sg3094
I1
sg3095
F0
sg3096
F0
sg3097
S''
sg3099
S'AllFriendly'
p3293
sg3101
F0
sg3102
I0
sg3103
(lp3294
g1
(g3105
g3
NtRp3295
(dp3296
g3108
S'add_permanent'
p3297
sg3110
S''
sg3112
S'spin'
p3298
sg3114
F5
sg3115
F0
sg3116
F0
sg3117
S'Spin Restore'
p3299
sg3119
S'TRUE'
p3300
sbasg3121
I1
sg3122
F0
sg3117
g3289
sg3123
S'PR Prep'
p3301
sbsS'CALLVATICAN'
p3302
g1
(g10
g3
NtRp3303
(dp3304
g3091
F0
sg3092
S'Brings in 2 additional ReligousNuts at 2 levels lower than this one'
p3305
sg3094
I1
sg3095
F0
sg3096
F0
sg3097
S'Wit'
p3306
sg3099
S'None'
p3307
sg3101
F0
sg3102
F5
sg3103
(lp3308
g1
(g3105
g3
NtRp3309
(dp3310
g3108
S'call_friends'
p3311
sg3110
S''
sg3112
S'ReligiousNut001:1'
p3312
sg3114
F2
sg3115
F1
sg3116
F1
sg3117
S'Call Friends'
p3313
sg3119
S''
sbasg3121
I1
sg3122
F0
sg3117
g3302
sg3123
S'Call Battycan'
p3314
sbsS'BLACKMAIL'
p3315
g1
(g10
g3
NtRp3316
(dp3317
g3091
F6
sg3092
S'asdf'
p3318
sg3094
I1
sg3095
F10
sg3096
F2
sg3097
S'Wit'
p3319
sg3099
S'AllEnemy'
p3320
sg3101
F3
sg3102
F4
sg3103
(lp3321
g1
(g3105
g3
NtRp3322
(dp3323
g3108
S'drain'
p3324
sg3110
S'(DRAIN)'
p3325
sg3112
S'votes'
p3326
sg3114
F1
sg3115
F2
sg3116
F5
sg3117
S'Drain Votes'
p3327
sg3119
S''
sbasg3121
I1
sg3122
F2
sg3117
g3315
sg3123
S'Blackmail'
p3328
sbsS'SCARE'
p3329
g1
(g10
g3
NtRp3330
(dp3331
g3091
F7
sg3092
S'Nothing rattles the brains like fear.'
p3332
sg3094
I1
sg3095
F10
sg3096
F2
sg3097
S'Cunning'
p3333
sg3099
S'AllEnemy'
p3334
sg3101
F2
sg3102
I0
sg3103
(lp3335
g3274
asg3121
I2
sg3122
F9
sg3117
g3329
sg3123
S'Scare Campaign'
p3336
sbsS'PROTEST'
p3337
g1
(g10
g3
NtRp3338
(dp3339
g3091
F5
sg3092
S'asdf'
p3340
sg3094
F6
sg3095
F10
sg3096
F2
sg3097
S'Cunning'
p3341
sg3099
S'AllEnemy'
p3342
sg3101
F2
sg3102
I0
sg3103
(lp3343
sg3121
I1
sg3122
F8
sg3117
g3337
sg3123
S'Protest'
p3344
sbsS'SPREADRUMOUR'
p3345
g1
(g10
g3
NtRp3346
(dp3347
g3091
F8
sg3092
S'asdf'
p3348
sg3094
I1
sg3095
F10
sg3096
F2
sg3097
S'Wit'
p3349
sg3099
S'AllEnemy'
p3350
sg3101
F3
sg3102
F3
sg3103
(lp3351
sg3121
I4
sg3122
F10
sg3117
g3345
sg3123
S'Spread Rumour'
p3352
sbsS'AGENDA'
p3353
g1
(g10
g3
NtRp3354
(dp3355
g3091
F5
sg3092
S'asdf'
p3356
sg3094
F6
sg3095
F10
sg3096
F2
sg3097
S'Cunning'
p3357
sg3099
S'AllEnemy'
p3358
sg3101
F2
sg3102
I0
sg3103
(lp3359
sg3121
I1
sg3122
F8
sg3117
g3353
sg3123
S'Push Agenda'
p3360
sbsS'FILIBUSTER'
p3361
g1
(g10
g3
NtRp3362
(dp3363
g3091
F6
sg3092
S"You're not moving until they give in. Cause all opposition to miss their turn"
p3364
sg3094
I1
sg3095
F0
sg3096
F0
sg3097
S'Wit'
p3365
sg3099
S'AllEnemy'
p3366
sg3101
F3
sg3102
F8
sg3103
(lp3367
g1
(g3105
g3
NtRp3368
(dp3369
g3108
S'miss_turn'
p3370
sg3110
S'(MISS)'
p3371
sg3112
S''
sg3114
F0
sg3115
F1
sg3116
F1
sg3117
S'Miss Turn'
p3372
sg3119
S''
sbasg3121
I1
sg3122
F0
sg3117
g3361
sg3123
S'Filibuster'
p3373
sbsS'GATHERINTEL'
p3374
g1
(g10
g3
NtRp3375
(dp3376
g3091
F0
sg3092
S'Increases Cunning.'
p3377
sg3094
I1
sg3095
F0
sg3096
F0
sg3097
S'Wit'
p3378
sg3099
S'AllFriendly'
p3379
sg3101
F0
sg3102
F3
sg3103
(lp3380
g3106
asg3121
I2
sg3122
F0
sg3117
g3374
sg3123
S'Gather Intelligence'
p3381
sbsS'LOVE'
p3382
g1
(g10
g3
NtRp3383
(dp3384
g3091
F6
sg3092
S'asdf'
p3385
sg3094
F2
sg3095
F8
sg3096
F2
sg3097
S'Cunning'
p3386
sg3099
S'AllEnemy'
p3387
sg3101
F1
sg3102
I0
sg3103
(lp3388
sg3121
I1
sg3122
F7
sg3117
g3382
sg3123
S'Love'
p3389
sbsS'OUTOFCONTEXT'
p3390
g1
(g10
g3
NtRp3391
(dp3392
g3091
F5
sg3092
S'asdf'
p3393
sg3094
I1
sg3095
F5
sg3096
F2
sg3097
S'Wit'
p3394
sg3099
S'AllEnemy'
p3395
sg3101
F3
sg3102
F2
sg3103
(lp3396
g3322
asg3121
I1
sg3122
F5
sg3117
g3390
sg3123
S'Take Out Of Context'
p3397
sbsS'GREATSUIT'
p3398
g1
(g10
g3
NtRp3399
(dp3400
g3091
F6
sg3092
S'Well, we could argue, but have you noticed how fabulous this suit is?'
p3401
sg3094
I1
sg3095
F11
sg3096
F6
sg3097
S'Cunning'
p3402
sg3099
S'AllEnemy'
p3403
sg3101
F3
sg3102
I0
sg3103
(lp3404
sg3121
I1
sg3122
F10
sg3117
g3398
sg3123
S'Look Great In Suit'
p3405
sbsS'PEACE'
p3406
g1
(g10
g3
NtRp3407
(dp3408
g3091
F0
sg3092
S'asdf'
p3409
sg3094
I1
sg3095
F0
sg3096
F0
sg3097
S'Wit'
p3410
sg3099
S'AllEnemy'
p3411
sg3101
F0
sg3102
F3
sg3103
(lp3412
g3274
asg3121
I4
sg3122
F0
sg3117
g3406
sg3123
S'Peace'
p3413
sbsS'INSPSPEECH'
p3414
g1
(g10
g3
NtRp3415
(dp3416
g3091
F-2
sg3092
S'Restore votes to all party members'
p3417
sg3094
I1
sg3095
F0
sg3096
F0
sg3097
S'Cunning'
p3418
sg3099
S'AllFriendly'
p3419
sg3101
F-2
sg3102
I0
sg3103
(lp3420
sg3121
I4
sg3122
F0
sg3117
g3414
sg3123
S'Inspirational Speech'
p3421
sbsS'RALLYENEMY'
p3422
g1
(g10
g3
NtRp3423
(dp3424
g3091
F0
sg3092
S'Get back some votes by rallying supporters'
p3425
sg3094
I1
sg3095
F0
sg3096
F0
sg3097
S'Wit'
p3426
sg3099
S'AllFriendly'
p3427
sg3101
F0
sg3102
F3
sg3103
(lp3428
g1
(g3105
g3
NtRp3429
(dp3430
g3108
S'add_permanent'
p3431
sg3110
S''
sg3112
S'votes'
p3432
sg3114
F8
sg3115
F1
sg3116
F1
sg3117
S'Votes Restore Rally Enemy'
p3433
sg3119
S''
sbasg3121
I1
sg3122
F0
sg3117
g3422
sg3123
S'Rally Constituents'
p3434
sbsS'STRIKE'
p3435
g1
(g10
g3
NtRp3436
(dp3437
g3091
F10
sg3092
S'asdf'
p3438
sg3094
I1
sg3095
F0
sg3096
F0
sg3097
S'Wit'
p3439
sg3099
S'AllEnemy'
p3440
sg3101
F0
sg3102
F3
sg3103
(lp3441
g3140
asg3121
I1
sg3122
F0
sg3117
g3435
sg3123
S'Call A Strike'
p3442
sbsS'SLANDER'
p3443
g1
(g10
g3
NtRp3444
(dp3445
g3091
F5
sg3092
S'Strong against polititians...careful with those voters, though!'
p3446
sg3094
F4
sg3095
F10
sg3096
F2
sg3097
S'Cunning'
p3447
sg3099
S'AllEnemy'
p3448
sg3101
F3
sg3102
I0
sg3103
(lp3449
g3322
asg3121
I1
sg3122
F7
sg3117
g3443
sg3123
S'Slander Opposition'
p3450
sbsS'NATTER'
p3451
g1
(g10
g3
NtRp3452
(dp3453
g3091
F8
sg3092
S'asdf'
p3454
sg3094
I1
sg3095
F15
sg3096
F5
sg3097
S'Cunning'
p3455
sg3099
S'AllEnemy'
p3456
sg3101
F1
sg3102
I0
sg3103
(lp3457
sg3121
I1
sg3122
F10
sg3117
g3451
sg3123
S'Natter On'
p3458
sbsS'GOSSIP'
p3459
g1
(g10
g3
NtRp3460
(dp3461
g3091
F3
sg3092
S'asdf'
p3462
sg3094
I1
sg3095
F10
sg3096
F2
sg3097
S'Wit'
p3463
sg3099
S'AllEnemy'
p3464
sg3101
F2
sg3102
F2
sg3103
(lp3465
g3274
asg3121
I1
sg3122
F6
sg3117
g3459
sg3123
S'Gossip'
p3466
sbsS'MISSTURN'
p3467
g1
(g10
g3
NtRp3468
(dp3469
g3091
F0
sg3092
S'asdf'
p3470
sg3094
I1
sg3095
F0
sg3096
F0
sg3097
S''
sg3099
S'AllEnemy'
p3471
sg3101
F0
sg3102
I0
sg3103
(lp3472
sg3121
I1
sg3122
F0
sg3117
g3467
sg3123
S'Miss Turn'
p3473
sbsS'BIELECTION'
p3474
g1
(g10
g3
NtRp3475
(dp3476
g3091
F4
sg3092
S'Redistribute votes amongst targets'
p3477
sg3094
I1
sg3095
F0
sg3096
F0
sg3097
S'Wit'
p3478
sg3099
S'All'
p3479
sg3101
F-4
sg3102
F4
sg3103
(lp3480
sg3121
I8
sg3122
F0
sg3117
g3474
sg3123
S'Bielection'
p3481
sbsS'RUNAD'
p3482
g1
(g10
g3
NtRp3483
(dp3484
g3091
F0
sg3092
S'Gets back up to 15 votes by running an ad'
p3485
sg3094
I1
sg3095
F0
sg3096
F0
sg3097
S''
sg3099
S'AllFriendly'
p3486
sg3101
F0
sg3102
I0
sg3103
(lp3487
g1
(g3105
g3
NtRp3488
(dp3489
g3108
S'add_permanent'
p3490
sg3110
S''
sg3112
S'votes'
p3491
sg3114
F15
sg3115
F1
sg3116
F1
sg3117
S'Votes Restore Ad'
p3492
sg3119
S''
sbasg3121
I1
sg3122
F0
sg3117
g3482
sg3123
S'Run Advertisement'
p3493
sbsS'PAYOFF'
p3494
g1
(g10
g3
NtRp3495
(dp3496
g3091
F8
sg3092
S'causes them to miss a number of turns'
p3497
sg3094
I1
sg3095
F8
sg3096
F2
sg3097
S'Wit'
p3498
sg3099
S'AllEnemy'
p3499
sg3101
F4
sg3102
F4
sg3103
(lp3500
g1
(g3105
g3
NtRp3501
(dp3502
g3108
S'miss_turn'
p3503
sg3110
S'(MISS)'
p3504
sg3112
S''
sg3114
F0
sg3115
F1
sg3116
F3
sg3117
S'Miss Turn Pay Off'
p3505
sg3119
S''
sbasg3121
I1
sg3122
F10
sg3117
g3494
sg3123
S'Pay Off'
p3506
sbsS'BUREAUCRACY'
p3507
g1
(g10
g3
NtRp3508
(dp3509
g3091
F5
sg3092
S'asdf'
p3510
sg3094
F6
sg3095
F10
sg3096
F2
sg3097
S'Cunning'
p3511
sg3099
S'AllEnemy'
p3512
sg3101
F2
sg3102
I0
sg3103
(lp3513
sg3121
I1
sg3122
F8
sg3117
g3507
sg3123
S'Bureaucracy'
p3514
sbsS'RALLYAUDIENCE'
p3515
g1
(g10
g3
NtRp3516
(dp3517
g3091
F8
sg3092
S'asdf'
p3518
sg3094
I1
sg3095
F0
sg3096
F0
sg3097
S'Wit'
p3519
sg3099
S'AllFriendly'
p3520
sg3101
F4
sg3102
F3
sg3103
(lp3521
g1
(g3105
g3
NtRp3522
(dp3523
g3108
S'add'
p3524
sg3110
S'(INCREASE)'
p3525
sg3112
S'charisma'
p3526
sg3114
F2
sg3115
F1
sg3116
F4
sg3117
S'Increase Charisma'
p3527
sg3119
S'TRUE'
p3528
sbasg3121
I1
sg3122
F0
sg3117
g3515
sg3123
S'Rally Audience'
p3529
sbsS'PORKBARREL'
p3530
g1
(g10
g3
NtRp3531
(dp3532
g3091
F8
sg3092
S'Do something that benefits them specifically. Not advised against politicians.'
p3533
sg3094
I1
sg3095
F0
sg3096
F0
sg3097
S'Wit'
p3534
sg3099
S'AllEnemy'
p3535
sg3101
F4
sg3102
F2
sg3103
(lp3536
sg3121
I1
sg3122
F0
sg3117
g3530
sg3123
S'Pork Barrel'
p3537
sbsS'INSPIRE'
p3538
g1
(g10
g3
NtRp3539
(dp3540
g3091
F0
sg3092
S'asdf'
p3541
sg3094
I1
sg3095
F0
sg3096
F0
sg3097
S'Wit'
p3542
sg3099
S'AllFriendly'
p3543
sg3101
F0
sg3102
F3
sg3103
(lp3544
g3106
asg3121
I4
sg3122
F0
sg3117
g3538
sg3123
S'Inspire'
p3545
sbsS'JOKE'
p3546
g1
(g10
g3
NtRp3547
(dp3548
g3091
F5
sg3092
S"Ha, ha, ha...what were we talking about? Diffuse the situation with some humour. High chance of critical hit. Knock 'em dead!"
p3549
sg3094
F3
sg3095
F20
sg3096
F15
sg3097
S'Cunning'
p3550
sg3099
S'AllEnemy'
p3551
sg3101
F2
sg3102
I0
sg3103
(lp3552
sg3121
I1
sg3122
F12
sg3117
g3546
sg3123
S'Joke'
p3553
sbsS'PRAYFORSOULS'
p3554
g1
(g10
g3
NtRp3555
(dp3556
g3091
F6
sg3092
S'asdf'
p3557
sg3094
F2
sg3095
F10
sg3096
F2
sg3097
S'Cunning'
p3558
sg3099
S'None'
p3559
sg3101
F3
sg3102
I0
sg3103
(lp3560
sg3121
I1
sg3122
F10
sg3117
g3554
sg3123
S'Pray'
p3561
sbsS'REVIVE'
p3562
g1
(g10
g3
NtRp3563
(dp3564
g3091
F0
sg3092
S'Revive a defeated comrade to half votes'
p3565
sg3094
I1
sg3095
F0
sg3096
F0
sg3097
S''
sg3099
S'DeadFriendly'
p3566
sg3101
F0
sg3102
F5
sg3103
(lp3567
g1
(g3105
g3
NtRp3568
(dp3569
g3108
S'revive'
p3570
sg3110
S''
sg3112
S''
sg3114
F0.5
sg3115
F0
sg3116
F0
sg3117
S'Revive'
p3571
sg3119
S''
sbasg3121
I1
sg3122
F0
sg3117
g3562
sg3123
S'Revive'
p3572
sbsS'HUMANSHIELD'
p3573
g1
(g10
g3
NtRp3574
(dp3575
g3091
F8
sg3092
S'No further questions. Step back, please.'
p3576
sg3094
I1
sg3095
F5
sg3096
F2
sg3097
S'Wit'
p3577
sg3099
S'AllEnemy'
p3578
sg3101
F4
sg3102
F4
sg3103
(lp3579
g3368
asg3121
I2
sg3122
F11
sg3117
g3573
sg3123
S'Human Shield'
p3580
sbsS'MAKEDEMANDS'
p3581
g1
(g10
g3
NtRp3582
(dp3583
g3091
F8
sg3092
S'asdf'
p3584
sg3094
I1
sg3095
F0
sg3096
F0
sg3097
S'Cunning'
p3585
sg3099
S'AllEnemy'
p3586
sg3101
F0
sg3102
I0
sg3103
(lp3587
g3140
asg3121
I1
sg3122
F0
sg3117
g3581
sg3123
S'Make Outrageous Demands'
p3588
sbsS'DEFENSE'
p3589
g1
(g10
g3
NtRp3590
(dp3591
g3091
F0
sg3092
S'Gather strenth; -50% to all incoming attacks'
p3592
sg3094
I1
sg3095
F0
sg3096
F0
sg3097
S''
sg3099
S'None'
p3593
sg3101
F0
sg3102
I0
sg3103
(lp3594
g1
(g3105
g3
NtRp3595
(dp3596
g3108
S'add'
p3597
sg3110
S'(DFND)'
p3598
sg3112
S'resistance'
p3599
sg3114
F0.5
sg3115
F1
sg3116
F1
sg3117
S'Defense'
p3600
sg3119
S'TRUE'
p3601
sbasg3121
I1
sg3122
F0
sg3117
g3589
sg3123
S'Defense'
p3602
sbsS'MISCONSTRUE'
p3603
g1
(g10
g3
NtRp3604
(dp3605
g3091
F8
sg3092
S'asdf'
p3606
sg3094
I1
sg3095
F0
sg3096
F0
sg3097
S'Cunning'
p3607
sg3099
S'AllEnemy'
p3608
sg3101
F0
sg3102
I0
sg3103
(lp3609
g3140
asg3121
I1
sg3122
F0
sg3117
g3603
sg3123
S'Misconstrue'
p3610
sbsS'NATIONALSECURITY'
p3611
g1
(g10
g3
NtRp3612
(dp3613
g3091
F7
sg3092
S"This is a matter of national security and they don't have codeword clearance"
p3614
sg3094
I1
sg3095
F10
sg3096
F2
sg3097
S'Cunning'
p3615
sg3099
S'AllEnemy'
p3616
sg3101
F2
sg3102
I0
sg3103
(lp3617
sg3121
I1
sg3122
F9
sg3117
g3611
sg3123
S'National Security'
p3618
sbsS'RALLY'
p3619
g1
(g10
g3
NtRp3620
(dp3621
g3091
F0
sg3092
S'Get back some votes by rallying supporters'
p3622
sg3094
I1
sg3095
F0
sg3096
F0
sg3097
S'Wit'
p3623
sg3099
S'AllFriendly'
p3624
sg3101
F0
sg3102
F3
sg3103
(lp3625
g1
(g3105
g3
NtRp3626
(dp3627
g3108
S'add_permanent'
p3628
sg3110
S''
sg3112
S'votes'
p3629
sg3114
F20
sg3115
F1
sg3116
F1
sg3117
S'Votes Restore Rally'
p3630
sg3119
S''
sbasg3121
I1
sg3122
F0
sg3117
g3619
sg3123
S'Rally Constituents'
p3631
sbsS'MESSAGE'
p3632
g1
(g10
g3
NtRp3633
(dp3634
g3091
F6
sg3092
S'You can certainly wear them down by repeating your party line over and over and over...if you want'
p3635
sg3094
F6
sg3095
F10
sg3096
F5
sg3097
S'Cunning'
p3636
sg3099
S'AllEnemy'
p3637
sg3101
F3
sg3102
I0
sg3103
(lp3638
sg3121
I1
sg3122
F10
sg3117
g3632
sg3123
S'Stay On Message'
p3639
sbsS'APPEALTOGOD'
p3640
g1
(g10
g3
NtRp3641
(dp3642
g3091
F10
sg3092
S'asdf'
p3643
sg3094
F3
sg3095
F5
sg3096
F2
sg3097
S'Wit'
p3644
sg3099
S'AllEnemy'
p3645
sg3101
F4
sg3102
F7
sg3103
(lp3646
sg3121
I4
sg3122
F13
sg3117
g3640
sg3123
S'Appeal To God'
p3647
sbssS'levels'
p3648
(lp3649
g1
(g10
g3
NtRp3650
(dp3651
S'votes'
p3652
F20
sS'level'
p3653
F1
sS'spin'
p3654
F5
sS'xp'
p3655
F0
sS'skill_points'
p3656
F0
sbag1
(g10
g3
NtRp3657
(dp3658
g3652
F12
sg3653
F2
sg3654
F5
sg3655
F100
sg3656
F2
sbag1
(g10
g3
NtRp3659
(dp3660
g3652
F15
sg3653
F3
sg3654
F6
sg3655
F200
sg3656
F2
sbag1
(g10
g3
NtRp3661
(dp3662
g3652
F20
sg3653
F4
sg3654
F6
sg3655
F500
sg3656
F2
sbag1
(g10
g3
NtRp3663
(dp3664
g3652
F25
sg3653
F5
sg3654
F7
sg3655
F1000
sg3656
F2
sbag1
(g10
g3
NtRp3665
(dp3666
g3652
F30
sg3653
F6
sg3654
F7
sg3655
F2000
sg3656
F2
sbag1
(g10
g3
NtRp3667
(dp3668
g3652
F35
sg3653
F7
sg3654
F8
sg3655
F5000
sg3656
F2
sbag1
(g10
g3
NtRp3669
(dp3670
g3652
F40
sg3653
F8
sg3654
F8
sg3655
F10000
sg3656
F2
sbag1
(g10
g3
NtRp3671
(dp3672
g3652
F45
sg3653
F9
sg3654
F9
sg3655
F15000
sg3656
F2
sbag1
(g10
g3
NtRp3673
(dp3674
g3652
F50
sg3653
F10
sg3654
F9
sg3655
F20000
sg3656
F2
sbag1
(g10
g3
NtRp3675
(dp3676
g3652
F55
sg3653
F11
sg3654
F10
sg3655
F40000
sg3656
F2
sbag1
(g10
g3
NtRp3677
(dp3678
g3652
S''
sg3653
F12
sg3654
S''
sg3655
S''
sg3656
S''
sbag1
(g10
g3
NtRp3679
(dp3680
g3652
S''
sg3653
F13
sg3654
S''
sg3655
S''
sg3656
S''
sbag1
(g10
g3
NtRp3681
(dp3682
g3652
S''
sg3653
F14
sg3654
S''
sg3655
S''
sg3656
S''
sbag1
(g10
g3
NtRp3683
(dp3684
g3652
S''
sg3653
F15
sg3654
S''
sg3655
S''
sg3656
S''
sbag1
(g10
g3
NtRp3685
(dp3686
g3652
S''
sg3653
F16
sg3654
S''
sg3655
S''
sg3656
S''
sbag1
(g10
g3
NtRp3687
(dp3688
g3652
S''
sg3653
F17
sg3654
S''
sg3655
S''
sg3656
S''
sbag1
(g10
g3
NtRp3689
(dp3690
g3652
S''
sg3653
F18
sg3654
S''
sg3655
S''
sg3656
S''
sbag1
(g10
g3
NtRp3691
(dp3692
g3652
S''
sg3653
F19
sg3654
S''
sg3655
S''
sg3656
S''
sbag1
(g10
g3
NtRp3693
(dp3694
g3652
S''
sg3653
F20
sg3654
S''
sg3655
S''
sg3656
S''
sbag1
(g10
g3
NtRp3695
(dp3696
g3652
S''
sg3653
F21
sg3654
S''
sg3655
S''
sg3656
S''
sbag1
(g10
g3
NtRp3697
(dp3698
g3652
S''
sg3653
F22
sg3654
S''
sg3655
S''
sg3656
S''
sbag1
(g10
g3
NtRp3699
(dp3700
g3652
S''
sg3653
F23
sg3654
S''
sg3655
S''
sg3656
S''
sbag1
(g10
g3
NtRp3701
(dp3702
g3652
S''
sg3653
F24
sg3654
S''
sg3655
S''
sg3656
S''
sbag1
(g10
g3
NtRp3703
(dp3704
g3652
S''
sg3653
F25
sg3654
S''
sg3655
S''
sg3656
S''
sbag1
(g10
g3
NtRp3705
(dp3706
g3652
S''
sg3653
F26
sg3654
S''
sg3655
S''
sg3656
S''
sbag1
(g10
g3
NtRp3707
(dp3708
g3652
S''
sg3653
F27
sg3654
S''
sg3655
S''
sg3656
S''
sbag1
(g10
g3
NtRp3709
(dp3710
g3652
S''
sg3653
F28
sg3654
S''
sg3655
S''
sg3656
S''
sbag1
(g10
g3
NtRp3711
(dp3712
g3652
S''
sg3653
F29
sg3654
S''
sg3655
S''
sg3656
S''
sbasg3103
(dp3713
g3118
g3106
sg3213
g3209
sg3299
g3295
sg3527
g3522
sg3372
g3368
sg3313
g3309
sg3492
g3488
sg3505
g3501
sg3433
g3429
sg3257
g3253
sg3571
g3568
sg3279
g3274
sg3327
g3322
sg3600
g3595
sg3144
g3140
sg3159
g3154
sg3630
g3626
ssS'characters'
p3714
(dp3715
S'Teacher001'
p3716
(lp3717
g1
(g10
g3
NtRp3718
(dp3719
S'flair_base'
p3720
F1
sS'spin_base'
p3721
F4
sS'flair_lvl'
p3722
F1.1499999999999999
sS'wit_base'
p3723
F1
sS'resistance'
p3724
(lp3725
sS'wit_lvl'
p3726
F1.0900000000000001
sS'cunning_base'
p3727
F1
sg3117
g3716
sS'votes_base'
p3728
F10
sS'speed_lvl'
p3729
F1.0800000000000001
sS'standard_attacks'
p3730
(lp3731
g3590
ag3338
asS'cunning_lvl'
p3732
F1.1000000000000001
sS'charisma_lvl'
p3733
F1.1499999999999999
sS'spin_attacks'
p3734
(lp3735
g3436
ag3423
asS'spin_lvl'
p3736
F1.0800000000000001
sS'charisma_base'
p3737
F1
sS'weaknesses'
p3738
(lp3739
sS'attack_group'
p3740
S'Teacher'
p3741
sS'votes_lvl'
p3742
F1.2
sg3123
S'Teacher'
p3743
sS'speed_base'
p3744
F1
sS'immunities'
p3745
(lp3746
sbasS'Politician001'
p3747
(lp3748
g1
(g10
g3
NtRp3749
(dp3750
g3720
F1
sg3721
F4
sg3722
F1.1499999999999999
sg3723
F1
sg3724
(lp3751
g3134
asg3726
F1.0900000000000001
sg3727
F1
sg3117
g3747
sg3728
F10
sg3729
F1.0800000000000001
sg3730
(lp3752
g3633
ag3444
ag3134
ag3547
ag3590
asg3732
F1.1000000000000001
sg3733
F1.1499999999999999
sg3734
(lp3753
g3475
ag3260
ag3563
asg3736
F1.0800000000000001
sg3737
F1
sg3738
(lp3754
g3216
asg3740
S'Politician'
p3755
sg3742
F1.2
sg3123
S'Politician'
p3756
sg3744
F1
sg3745
(lp3757
g3531
asbasS'SecretAgent'
p3758
(lp3759
g1
(g10
g3
NtRp3760
(dp3761
g3720
F1
sg3721
F4
sg3722
F1.1499999999999999
sg3723
F1
sg3724
(lp3762
sg3726
F1
sg3727
F1
sg3117
g3758
sg3728
F18
sg3729
F1
sg3730
(lp3763
g3612
ag3399
asg3732
F1
sg3733
F1
sg3734
(lp3764
g3574
ag3375
asg3736
F1
sg3737
F1
sg3738
(lp3765
sg3740
S'SecretAgent'
p3766
sg3742
F1.2
sg3123
S'Agent Kawalski'
p3767
sg3744
F1
sg3745
(lp3768
sbasS'Bumpkin001'
p3769
(lp3770
g1
(g10
g3
NtRp3771
(dp3772
g3720
F1
sg3721
F4
sg3722
F1.1499999999999999
sg3723
F1
sg3724
(lp3773
sg3726
F1.0900000000000001
sg3727
F1
sg3117
g3769
sg3728
F10
sg3729
F1.0800000000000001
sg3730
(lp3774
g3547
ag3282
asg3732
F1.1000000000000001
sg3733
F1.1499999999999999
sg3734
(lp3775
g3232
ag3346
asg3736
F1.0800000000000001
sg3737
F1
sg3738
(lp3776
g3134
ag3444
ag3330
asg3740
S'Bumpkin'
p3777
sg3742
F1.2
sg3123
S'Bumpkin'
p3778
sg3744
F1
sg3745
(lp3779
sbasS'WarVet001'
p3780
(lp3781
g1
(g10
g3
NtRp3782
(dp3783
g3720
F1
sg3721
F4
sg3722
F1.1499999999999999
sg3723
F1
sg3724
(lp3784
sg3726
F1.0900000000000001
sg3727
F1
sg3117
g3780
sg3728
F10
sg3729
F1.0800000000000001
sg3730
(lp3785
g3582
ag3590
asg3732
F1.1000000000000001
sg3733
F1.1499999999999999
sg3734
(lp3786
g3539
ag3423
asg3736
F1.0800000000000001
sg3737
F1
sg3738
(lp3787
sg3740
S'WarVet'
p3788
sg3742
F1.2
sg3123
S'War Veteran'
p3789
sg3744
F1
sg3745
(lp3790
sbasS'Receptionist001'
p3791
(lp3792
g1
(g10
g3
NtRp3793
(dp3794
g3720
F1
sg3721
F4
sg3722
F1.1499999999999999
sg3723
F1
sg3724
(lp3795
sg3726
F1.0900000000000001
sg3727
F1
sg3117
g3791
sg3728
F8
sg3729
F1.0800000000000001
sg3730
(lp3796
g3508
ag3452
asg3732
F1.1000000000000001
sg3733
F1.1499999999999999
sg3734
(lp3797
g3460
ag3203
asg3736
F1.0800000000000001
sg3737
F0
sg3738
(lp3798
sg3740
S'Receptionist'
p3799
sg3742
F1.2
sg3123
S'Receptionist'
p3800
sg3744
F1
sg3745
(lp3801
sbasS'DeepThroat'
p3802
(lp3803
g1
(g10
g3
NtRp3804
(dp3805
g3720
F1
sg3721
F4
sg3722
F1.1499999999999999
sg3723
F1
sg3724
(lp3806
sg3726
F1.0900000000000001
sg3727
F1
sg3117
g3802
sg3728
F10
sg3729
F1.0800000000000001
sg3730
(lp3807
g3444
ag3590
ag3582
asg3732
F1.1000000000000001
sg3733
F1.1499999999999999
sg3734
(lp3808
g3316
asg3736
F1.0800000000000001
sg3737
F1
sg3738
(lp3809
sg3740
S'DeepThroat'
p3810
sg3742
F1.2
sg3123
S'Mr Er...?'
p3811
sg3744
F1
sg3745
(lp3812
sbasS'Leo'
p3813
(lp3814
g1
(g10
g3
NtRp3815
(dp3816
g3720
F1
sg3721
F4
sg3722
F1.1499999999999999
sg3723
F1
sg3724
(lp3817
sg3726
F1
sg3727
F1
sg3117
g3813
sg3728
F14
sg3729
F1
sg3730
(lp3818
g3633
ag3444
ag3134
ag3547
ag3216
asg3732
F1
sg3733
F1
sg3734
(lp3819
g3475
ag3260
ag3531
ag3362
asg3736
F1
sg3737
F1
sg3738
(lp3820
sg3740
S'Theo'
p3821
sg3742
F1.2
sg3123
S'Theo'
p3822
sg3744
F1
sg3745
(lp3823
sbasS'HippyGirl001'
p3824
(lp3825
g1
(g10
g3
NtRp3826
(dp3827
g3720
F1
sg3721
F4
sg3722
F1.1499999999999999
sg3723
F1
sg3724
(lp3828
sg3726
F1.0900000000000001
sg3727
F1
sg3117
g3824
sg3728
F10
sg3729
F1.0800000000000001
sg3730
(lp3829
g3224
ag3338
ag3383
asg3732
F1.1000000000000001
sg3733
F1.1499999999999999
sg3734
(lp3830
g3407
ag3423
ag3563
asg3736
F1.0800000000000001
sg3737
F1
sg3738
(lp3831
g3547
asg3740
S'Hippy'
p3832
sg3742
F1.2
sg3123
S'Hippy Girl'
p3833
sg3744
F1
sg3745
(lp3834
sbasS'President'
p3835
(lp3836
g1
(g10
g3
NtRp3837
(dp3838
g3720
F1
sg3721
F4
sg3722
F1.1499999999999999
sg3723
F1
sg3724
(lp3839
sg3726
F1.0900000000000001
sg3727
F1
sg3117
g3835
sg3728
F10
sg3729
F1.0800000000000001
sg3730
(lp3840
g3633
ag3444
ag3134
ag3547
ag3590
asg3732
F1.1000000000000001
sg3733
F1.1499999999999999
sg3734
(lp3841
g3475
ag3260
ag3563
asg3736
F1.0800000000000001
sg3737
F1
sg3738
(lp3842
sg3740
S'Politician'
p3843
sg3742
F1.2
sg3123
S'President Allen'
p3844
sg3744
F1
sg3745
(lp3845
sbasS'Unionist001'
p3846
(lp3847
g1
(g10
g3
NtRp3848
(dp3849
g3720
F1
sg3721
F4
sg3722
F1.1499999999999999
sg3723
F1
sg3724
(lp3850
sg3726
F1.0900000000000001
sg3727
F1
sg3117
g3846
sg3728
F10
sg3729
F1.0800000000000001
sg3730
(lp3851
g3582
ag3590
ag3338
asg3732
F1.1000000000000001
sg3733
F1.1499999999999999
sg3734
(lp3852
g3436
asg3736
F1.0800000000000001
sg3737
F1
sg3738
(lp3853
sg3740
S'Unionist'
p3854
sg3742
F1.2
sg3123
S'Unionist'
p3855
sg3744
F1
sg3745
(lp3856
sbasS'Wife'
p3857
(lp3858
g1
(g10
g3
NtRp3859
(dp3860
g3720
F1
sg3721
F4
sg3722
F1.1499999999999999
sg3723
F3
sg3724
(lp3861
sg3726
F1
sg3727
F2
sg3117
g3857
sg3728
F12
sg3729
F1
sg3730
(lp3862
g3633
ag3134
ag3547
asg3732
F1
sg3733
F1
sg3734
(lp3863
g3620
ag3563
ag3268
asg3736
F1
sg3737
F1
sg3738
(lp3864
sg3740
S'Wife'
p3865
sg3742
F1.2
sg3123
S'Sarah Mossman'
p3866
sg3744
F3
sg3745
(lp3867
sbasS'PresidentAlien'
p3868
(lp3869
g1
(g10
g3
NtRp3870
(dp3871
g3720
F1
sg3721
F4
sg3722
F1.1499999999999999
sg3723
F1
sg3724
(lp3872
sg3726
F1.0900000000000001
sg3727
F1
sg3117
g3868
sg3728
F10
sg3729
F1.0800000000000001
sg3730
(lp3873
g3633
ag3444
ag3134
ag3547
ag3590
asg3732
F1.1000000000000001
sg3733
F1.1499999999999999
sg3734
(lp3874
g3475
ag3260
ag3563
asg3736
F1.0800000000000001
sg3737
F1
sg3738
(lp3875
sg3740
S'Politician'
p3876
sg3742
F1.2
sg3123
S'President Alien'
p3877
sg3744
F1
sg3745
(lp3878
sbasS'Governor'
p3879
(lp3880
g1
(g10
g3
NtRp3881
(dp3882
g3720
F1
sg3721
F4
sg3722
F1.1499999999999999
sg3723
F1
sg3724
(lp3883
sg3726
F1.0900000000000001
sg3727
F1
sg3117
g3879
sg3728
F10
sg3729
F1.0800000000000001
sg3730
(lp3884
g3633
ag3444
ag3134
ag3547
ag3590
asg3732
F1.1000000000000001
sg3733
F1.1499999999999999
sg3734
(lp3885
g3475
ag3260
ag3563
asg3736
F1.0800000000000001
sg3737
F1
sg3738
(lp3886
sg3740
S'Politician'
p3887
sg3742
F1.2
sg3123
g3879
sg3744
F1
sg3745
(lp3888
sbasS'Lobbyist001'
p3889
(lp3890
g1
(g10
g3
NtRp3891
(dp3892
g3720
F1
sg3721
F4
sg3722
F1.1499999999999999
sg3723
F1
sg3724
(lp3893
sg3726
F1.0900000000000001
sg3727
F1
sg3117
g3889
sg3728
F10
sg3729
F1.0800000000000001
sg3730
(lp3894
g3354
ag3582
asg3732
F1.1000000000000001
sg3733
F1.1499999999999999
sg3734
(lp3895
g3495
ag3316
asg3736
F1.0800000000000001
sg3737
F1
sg3738
(lp3896
g3531
asg3740
S'Lobbyist'
p3897
sg3742
F1.2
sg3123
S'Lobbyist'
p3898
sg3744
F1
sg3745
(lp3899
g3216
asbasS'Journalist001'
p3900
(lp3901
g1
(g10
g3
NtRp3902
(dp3903
g3720
F1
sg3721
F4
sg3722
F1.1499999999999999
sg3723
F2
sg3724
(lp3904
sg3726
F1.5
sg3727
F1
sg3117
g3900
sg3728
F16
sg3729
F1.5
sg3730
(lp3905
g3187
ag3604
asg3732
F1.1000000000000001
sg3733
F1.1499999999999999
sg3734
(lp3906
g3391
ag3089
ag3163
asg3736
F1.2
sg3737
F1
sg3738
(lp3907
sg3740
S'Journalist'
p3908
sg3742
F1.2
sg3123
S'Journalist'
p3909
sg3744
F1
sg3745
(lp3910
sbasS'ReligiousNut001'
p3911
(lp3912
g1
(g10
g3
NtRp3913
(dp3914
g3720
F1
sg3721
F4
sg3722
F1.1499999999999999
sg3723
F1
sg3724
(lp3915
sg3726
F1.0900000000000001
sg3727
F1
sg3117
g3911
sg3728
F10
sg3729
F1.0800000000000001
sg3730
(lp3916
g3171
ag3555
ag3590
asg3732
F1.1000000000000001
sg3733
F1.1499999999999999
sg3734
(lp3917
g3641
ag3303
asg3736
F1.0800000000000001
sg3737
F1
sg3738
(lp3918
sg3740
S'Religious'
p3919
sg3742
F1.2
sg3123
S'Religious Nut'
p3920
sg3744
F1
sg3745
(lp3921
g3547
asbasS'JointChief001'
p3922
(lp3923
g1
(g10
g3
NtRp3924
(dp3925
g3720
F1
sg3721
F4
sg3722
F1.1499999999999999
sg3723
F1
sg3724
(lp3926
sg3726
F1.0900000000000001
sg3727
F1
sg3117
g3922
sg3728
F10
sg3729
F1.0800000000000001
sg3730
(lp3927
g3582
ag3590
ag3612
ag3240
asg3732
F1.1000000000000001
sg3733
F1.1499999999999999
sg3734
(lp3928
g3375
asg3736
F1.0800000000000001
sg3737
F1
sg3738
(lp3929
sg3740
S'JointChief'
p3930
sg3742
F1.2
sg3123
S'Joint Chief'
p3931
sg3744
F1
sg3745
(lp3932
sbasS'Protester001'
p3933
(lp3934
g1
(g10
g3
NtRp3935
(dp3936
g3720
F0.5
sg3721
F4
sg3722
F1.1000000000000001
sg3723
F1
sg3724
(lp3937
g3547
asg3726
F1.01
sg3727
F1
sg3117
g3933
sg3728
F8
sg3729
F1.01
sg3730
(lp3938
g3338
ag3179
ag3224
asg3732
F1.01
sg3733
F1.1000000000000001
sg3734
(lp3939
g3423
asg3736
F1.01
sg3737
F1
sg3738
(lp3940
sg3740
S'Protestor'
p3941
sg3742
F1.01
sg3123
S'Protester'
p3942
sg3744
F1
sg3745
(lp3943
sbasS'TVPersonality001'
p3944
(lp3945
g1
(g10
g3
NtRp3946
(dp3947
g3720
F1
sg3721
F4
sg3722
F1.1499999999999999
sg3723
F1
sg3724
(lp3948
sg3726
F1.0900000000000001
sg3727
F1
sg3117
g3944
sg3728
F10
sg3729
F1.0800000000000001
sg3730
(lp3949
g3547
ag3187
asg3732
F1.1000000000000001
sg3733
F1.1499999999999999
sg3734
(lp3950
g3163
ag3148
asg3736
F1.0800000000000001
sg3737
F1
sg3738
(lp3951
sg3740
S'TVPersonality'
p3952
sg3742
F1.2
sg3123
S"Hecules O'Grady"
p3953
sg3744
F1
sg3745
(lp3954
sbasS'Player'
p3955
(lp3956
g1
(g10
g3
NtRp3957
(dp3958
g3720
F1
sg3721
F5
sg3722
F1.1499999999999999
sg3723
F1
sg3724
(lp3959
sg3726
F1.0900000000000001
sg3727
F1
sg3117
g3955
sg3728
F15
sg3729
F1.0800000000000001
sg3730
(lp3960
g3633
ag3134
ag3547
asg3732
F1.1000000000000001
sg3733
F1.1499999999999999
sg3734
(lp3961
g3260
asg3736
F1.0800000000000001
sg3737
F1
sg3738
(lp3962
sg3740
S'Player'
p3963
sg3742
F1.2
sg3123
S'Phillip Mossman'
p3964
sg3744
F2
sg3745
(lp3965
sbasS'Computer'
p3966
(lp3967
g1
(g10
g3
NtRp3968
(dp3969
g3720
F1
sg3721
F4
sg3722
F1.1499999999999999
sg3723
F1
sg3724
(lp3970
sg3726
F1.0900000000000001
sg3727
F1
sg3117
g3966
sg3728
F10
sg3729
F1.0800000000000001
sg3730
(lp3971
g3633
ag3444
ag3134
ag3547
ag3590
asg3732
F1.1000000000000001
sg3733
F1.1499999999999999
sg3734
(lp3972
g3475
ag3260
ag3563
asg3736
F1.0800000000000001
sg3737
F1
sg3738
(lp3973
sg3740
S'Politician'
p3974
sg3742
F1.2
sg3123
S'N.O.T.B.A.D'
p3975
sg3744
F1
sg3745
(lp3976
sbasS'CabinetPolitician001'
p3977
(lp3978
g1
(g10
g3
NtRp3979
(dp3980
g3720
F1
sg3721
F4
sg3722
F1.1499999999999999
sg3723
F1
sg3724
(lp3981
sg3726
F1.0900000000000001
sg3727
F1
sg3117
g3977
sg3728
F10
sg3729
F1.0800000000000001
sg3730
(lp3982
g3633
ag3444
ag3134
ag3547
ag3590
asg3732
F1.1000000000000001
sg3733
F1.1499999999999999
sg3734
(lp3983
g3475
ag3260
ag3563
asg3736
F1.0800000000000001
sg3737
F1
sg3738
(lp3984
sg3740
S'Politician'
p3985
sg3742
F1.2
sg3123
S'Cabinet Politician'
p3986
sg3744
F1
sg3745
(lp3987
sbasS'Constituent001'
p3988
(lp3989
g1
(g10
g3
NtRp3990
(dp3991
g3720
F1
sg3721
F4
sg3722
F1.1499999999999999
sg3723
F1
sg3724
(lp3992
sg3726
F1.0900000000000001
sg3727
F1
sg3117
g3988
sg3728
F12
sg3729
F1.5
sg3730
(lp3993
g3338
ag3354
ag3582
asg3732
F1.1000000000000001
sg3733
F1.1499999999999999
sg3734
(lp3994
g3563
asg3736
F1.0800000000000001
sg3737
F1
sg3738
(lp3995
sg3740
S'Constituent'
p3996
sg3742
F1.2
sg3123
S'Constituent'
p3997
sg3744
F2
sg3745
(lp3998
sbasS'Mayor'
p3999
(lp4000
g1
(g10
g3
NtRp4001
(dp4002
g3720
F1
sg3721
F4
sg3722
F1.1499999999999999
sg3723
F1
sg3724
(lp4003
sg3726
F1.0900000000000001
sg3727
F1
sg3117
g3999
sg3728
F10
sg3729
F1.0800000000000001
sg3730
(lp4004
g3633
ag3444
ag3134
ag3547
ag3590
asg3732
F1.1000000000000001
sg3733
F1.1499999999999999
sg3734
(lp4005
g3475
ag3260
ag3563
asg3736
F1.0800000000000001
sg3737
F1
sg3738
(lp4006
sg3740
S'Politician'
p4007
sg3742
F1.2
sg3123
S'Mayor Goodman'
p4008
sg3744
F1
sg3745
(lp4009
sbassS'quest_items'
p4010
(dp4011
S'SOUTHWINGDOORKEY'
p4012
g1
(g10
g3
NtRp4013
(dp4014
g3092
S'It looks old.'
p4015
sg3117
g4012
sg3123
S'Key to the South Wing'
p4016
sbsS'BILLOFRIGHTS'
p4017
g1
(g10
g3
NtRp4018
(dp4019
g3092
S''
sg3117
g4017
sg3123
S"Citizens' Bill of Rights"
p4020
sbsS'PEN'
p4021
g1
(g10
g3
NtRp4022
(dp4023
g3092
S'Ink flows freely... into your shirt pocket.'
p4024
sg3117
g4021
sg3123
S'A pen'
p4025
sbsS'INCRIMINATINGEVIDENCE'
p4026
g1
(g10
g3
NtRp4027
(dp4028
g3092
S'Very incriminating proof that something troubling is going on in the White House.'
p4029
sg3117
g4026
sg3123
S'Incriminating Evidence'
p4030
sbsS'WARVETROOMKEY'
p4031
g1
(g10
g3
NtRp4032
(dp4033
g3092
S'The key is imprinted with the seal of the President.'
p4034
sg3117
g4031
sg3123
S'Key to the West Room'
p4035
sbsS'CABINETROOMKEY'
p4036
g1
(g10
g3
NtRp4037
(dp4038
g3092
S'The key is imprinted with the seal of the President.'
p4039
sg3117
g4036
sg3123
S'Key to the Cabinet Room'
p4040
sbsS'TEACHERROOMKEY'
p4041
g1
(g10
g3
NtRp4042
(dp4043
g3092
S'The key is imprinted with the seal of the President.'
p4044
sg3117
g4041
sg3123
S'Key to the East Room'
p4045
sbssg3730
(dp4046
S'Theo'
p4047
(lp4048
g3633
ag3444
ag3134
ag3547
ag3216
ag3475
ag3260
ag3531
ag3362
asS'JointChief'
p4049
(lp4050
g3582
ag3590
ag3612
ag3375
ag3240
asS'Politician'
p4051
(lp4052
g3633
ag3444
ag3134
ag3547
ag3475
ag3260
ag3563
ag3590
asS'Bumpkin'
p4053
(lp4054
g3547
ag3232
ag3346
ag3282
asS'Wife'
p4055
(lp4056
g3633
ag3134
ag3547
ag3620
ag3563
ag3268
asS'Lobbyist'
p4057
(lp4058
g3354
ag3495
ag3316
ag3582
asS'DeepThroat'
p4059
(lp4060
g3444
ag3590
ag3316
ag3582
asS'Protestor'
p4061
(lp4062
g3423
ag3338
ag3179
ag3224
asS'SecretAgent'
p4063
(lp4064
g3574
ag3612
ag3375
ag3399
asS'Teacher'
p4065
(lp4066
g3436
ag3590
ag3338
ag3423
asS'Player'
p4067
(lp4068
g3633
ag3134
ag3547
ag3260
asS'Computer'
p4069
(lp4070
g3375
ag3612
ag3195
ag3316
ag3582
ag3444
asS'Receptionist'
p4071
(lp4072
g3508
ag3452
ag3460
ag3203
asS'Hippy'
p4073
(lp4074
g3224
ag3338
ag3383
ag3407
ag3423
ag3563
asS'Constituent'
p4075
(lp4076
g3338
ag3563
ag3354
ag3582
asS'TVPersonality'
p4077
(lp4078
g3547
ag3163
ag3187
ag3148
asS'WarVet'
p4079
(lp4080
g3582
ag3590
ag3539
ag3423
asS'Religious'
p4081
(lp4082
g3171
ag3641
ag3303
ag3555
ag3590
asS'Unionist'
p4083
(lp4084
g3582
ag3590
ag3338
ag3436
asS'Journalist'
p4085
(lp4086
g3187
ag3604
ag3391
ag3089
ag3163
assS'shops'
p4087
(dp4088
sS'encounters'
p4089
(dp4090
S'P-hard-14'
p4091
g1
(g10
g3
NtRp4092
(dp4093
S'item_attack_drops'
p4094
(lp4095
sS'item_attacks'
p4096
(lp4097
sg3123
S''
sS'money'
p4098
F50
sg3655
F135
sS'monster2_lvl'
p4099
S''
sS'bribe_cost'
p4100
F50
sS'monster3'
p4101
S''
sS'monster1_lvl'
p4102
F3
sS'monster3_lvl'
p4103
S''
sS'monster4_lvl'
p4104
S''
sS'monster4'
p4105
S''
sS'monster2'
p4106
S''
sg3117
g4091
sS'monster1'
p4107
S'Computer'
p4108
sbsS'P-hard-11'
p4109
g1
(g10
g3
NtRp4110
(dp4111
g4094
(lp4112
sg4096
(lp4113
sg3123
S''
sg4098
F50
sg3655
F135
sg4099
F3
sg4100
F50
sg4101
S'JointChief001'
p4114
sg4102
F3
sg4103
F3
sg4104
S''
sg4105
S''
sg4106
S'JointChief001'
p4115
sg3117
g4109
sg4107
S'JointChief001'
p4116
sbsS'P-hard-10'
p4117
g1
(g10
g3
NtRp4118
(dp4119
g4094
(lp4120
sg4096
(lp4121
sg3123
S''
sg4098
F50
sg3655
F135
sg4099
F3
sg4100
F50
sg4101
S'CabinetPolitician001'
p4122
sg4102
F3
sg4103
F3
sg4104
F2
sg4105
S'CabinetPolitician001'
p4123
sg4106
S'CabinetPolitician001'
p4124
sg3117
g4117
sg4107
S'CabinetPolitician001'
p4125
sbsS'P-hard-13'
p4126
g1
(g10
g3
NtRp4127
(dp4128
g4094
(lp4129
sg4096
(lp4130
sg3123
S''
sg4098
F50
sg3655
F135
sg4099
F3
sg4100
F50
sg4101
S'JointChief001'
p4131
sg4102
F3
sg4103
F3
sg4104
F3
sg4105
S'JointChief001'
p4132
sg4106
S'JointChief001'
p4133
sg3117
g4126
sg4107
S'JointChief001'
p4134
sbsS'P-hard-12'
p4135
g1
(g10
g3
NtRp4136
(dp4137
g4094
(lp4138
sg4096
(lp4139
sg3123
S''
sg4098
F50
sg3655
F135
sg4099
F3
sg4100
F50
sg4101
S'JointChief001'
p4140
sg4102
F3
sg4103
F3
sg4104
S''
sg4105
S''
sg4106
S'JointChief001'
p4141
sg3117
g4135
sg4107
S'JointChief001'
p4142
sbsS'P-easy-05'
p4143
g1
(g10
g3
NtRp4144
(dp4145
g4094
(lp4146
g1
(c__main__
ItemAttack
p4147
g3
NtRp4148
(dp4149
S'attack'
p4150
g3415
sS'quantity'
p4151
I1
sbasg4096
(lp4152
sg3123
S''
sg4098
F50
sg3655
F20
sg4099
S''
sg4100
F50
sg4101
S''
sg4102
F2
sg4103
S''
sg4104
S''
sg4105
S''
sg4106
S''
sg3117
g4143
sg4107
S'Journalist001'
p4153
sbsS'P-easy-04'
p4154
g1
(g10
g3
NtRp4155
(dp4156
g4094
(lp4157
g1
(g4147
g3
NtRp4158
(dp4159
g4150
g3290
sg4151
I1
sbasg4096
(lp4160
sg3123
S''
sg4098
F50
sg3655
F30
sg4099
F1
sg4100
F50
sg4101
S''
sg4102
F1
sg4103
S''
sg4104
S''
sg4105
S''
sg4106
S'Protester001'
p4161
sg3117
g4154
sg4107
S'Protester001'
p4162
sbsS'P-easy-07'
p4163
g1
(g10
g3
NtRp4164
(dp4165
g4094
(lp4166
g1
(g4147
g3
NtRp4167
(dp4168
g4150
g3290
sg4151
I1
sbasg4096
(lp4169
sg3123
S''
sg4098
F50
sg3655
F40
sg4099
F2
sg4100
F50
sg4101
S''
sg4102
F2
sg4103
S''
sg4104
S''
sg4105
S''
sg4106
S'Protester001'
p4170
sg3117
g4163
sg4107
S'Constituent001'
p4171
sbsS'P-easy-06'
p4172
g1
(g10
g3
NtRp4173
(dp4174
g4094
(lp4175
g1
(g4147
g3
NtRp4176
(dp4177
g4150
g3563
sg4151
I1
sbasg4096
(lp4178
sg3123
S''
sg4098
F50
sg3655
F40
sg4099
F2
sg4100
F50
sg4101
S''
sg4102
F2
sg4103
S''
sg4104
S''
sg4105
S''
sg4106
S'Lobbyist001'
p4179
sg3117
g4172
sg4107
S'Lobbyist001'
p4180
sbsS'P-easy-01'
p4181
g1
(g10
g3
NtRp4182
(dp4183
g4094
(lp4184
g1
(g4147
g3
NtRp4185
(dp4186
g4150
g3483
sg4151
I1
sbasg4096
(lp4187
g1
(g4147
g3
NtRp4188
(dp4189
g4150
g3415
sg4151
I1
sbasg3123
S'The quest for pen'
p4190
sg4098
F50
sg3655
F10
sg4099
S''
sg4100
F50
sg4101
S''
sg4102
F1
sg4103
S''
sg4104
S''
sg4105
S''
sg4106
S''
sg3117
g4181
sg4107
S'Receptionist001'
p4191
sbsS'P-easy-03'
p4192
g1
(g10
g3
NtRp4193
(dp4194
g4094
(lp4195
g1
(g4147
g3
NtRp4196
(dp4197
g4150
g3483
sg4151
I1
sbasg4096
(lp4198
g1
(g4147
g3
NtRp4199
(dp4200
g4150
g3415
sg4151
I1
sbasg3123
S''
sg4098
F50
sg3655
F30
sg4099
F1
sg4100
F50
sg4101
S''
sg4102
F1
sg4103
S''
sg4104
S''
sg4105
S''
sg4106
S'Protester001'
p4201
sg3117
g4192
sg4107
S'Protester001'
p4202
sbsS'P-easy-02'
p4203
g1
(g10
g3
NtRp4204
(dp4205
g4094
(lp4206
sg4096
(lp4207
sg3123
S''
sg4098
F50
sg3655
F30
sg4099
F1
sg4100
F50
sg4101
S''
sg4102
F1
sg4103
S''
sg4104
S''
sg4105
S''
sg4106
S'Protester001'
p4208
sg3117
g4203
sg4107
S'Protester001'
p4209
sbsS'P-easy-09'
p4210
g1
(g10
g3
NtRp4211
(dp4212
g4094
(lp4213
g1
(g4147
g3
NtRp4214
(dp4215
g4150
g3483
sg4151
I1
sbasg4096
(lp4216
sg3123
S''
sg4098
F50
sg3655
F60
sg4099
F2
sg4100
F50
sg4101
S''
sg4102
F2
sg4103
S''
sg4104
S''
sg4105
S''
sg4106
S'Constituent001'
p4217
sg3117
g4210
sg4107
S'Constituent001'
p4218
sbsS'P-easy-08'
p4219
g1
(g10
g3
NtRp4220
(dp4221
g4094
(lp4222
sg4096
(lp4223
sg3123
S''
sg4098
F50
sg3655
F40
sg4099
F2
sg4100
F50
sg4101
S'Constituent001'
p4224
sg4102
F2
sg4103
F2
sg4104
S''
sg4105
S''
sg4106
S'Constituent001'
p4225
sg3117
g4219
sg4107
S'Protester001'
p4226
sbsS'P-hard-08'
p4227
g1
(g10
g3
NtRp4228
(dp4229
g4094
(lp4230
sg4096
(lp4231
sg3123
S''
sg4098
F50
sg3655
F135
sg4099
F3
sg4100
F50
sg4101
S'CabinetPolitician001'
p4232
sg4102
F3
sg4103
F3
sg4104
S''
sg4105
S''
sg4106
S'CabinetPolitician001'
p4233
sg3117
g4227
sg4107
S'CabinetPolitician001'
p4234
sbsS'P-hard-09'
p4235
g1
(g10
g3
NtRp4236
(dp4237
g4094
(lp4238
sg4096
(lp4239
sg3123
S''
sg4098
F50
sg3655
F135
sg4099
F3
sg4100
F50
sg4101
S'CabinetPolitician001'
p4240
sg4102
F3
sg4103
F3
sg4104
F2
sg4105
S'CabinetPolitician001'
p4241
sg4106
S'CabinetPolitician001'
p4242
sg3117
g4235
sg4107
S'CabinetPolitician001'
p4243
sbsS'P-med-08'
p4244
g1
(g10
g3
NtRp4245
(dp4246
g4094
(lp4247
sg4096
(lp4248
sg3123
S''
sg4098
F50
sg3655
F135
sg4099
F3
sg4100
F50
sg4101
S'Politician001'
p4249
sg4102
F3
sg4103
F3
sg4104
S''
sg4105
S''
sg4106
S'Politician001'
p4250
sg3117
g4244
sg4107
S'Politician001'
p4251
sbsS'P-med-09'
p4252
g1
(g10
g3
NtRp4253
(dp4254
g4094
(lp4255
sg4096
(lp4256
sg3123
S''
sg4098
F50
sg3655
F135
sg4099
F3
sg4100
F50
sg4101
S'Politician001'
p4257
sg4102
F3
sg4103
F3
sg4104
S''
sg4105
S''
sg4106
S'ReligiousNut001'
p4258
sg3117
g4252
sg4107
S'Politician001'
p4259
sbsS'P-med-02'
p4260
g1
(g10
g3
NtRp4261
(dp4262
g4094
(lp4263
g1
(g4147
g3
NtRp4264
(dp4265
g4150
g3248
sg4151
I1
sbasg4096
(lp4266
sg3123
S''
sg4098
F50
sg3655
F90
sg4099
F3
sg4100
F50
sg4101
S''
sg4102
F3
sg4103
S''
sg4104
S''
sg4105
S''
sg4106
S'Politician001'
p4267
sg3117
g4260
sg4107
S'Politician001'
p4268
sbsS'P-med-03'
p4269
g1
(g10
g3
NtRp4270
(dp4271
g4094
(lp4272
sg4096
(lp4273
sg3123
S''
sg4098
F50
sg3655
F90
sg4099
F3
sg4100
F50
sg4101
S''
sg4102
F3
sg4103
S''
sg4104
S''
sg4105
S''
sg4106
S'Bumpkin001'
p4274
sg3117
g4269
sg4107
S'Bumpkin001'
p4275
sbsS'P-med-01'
p4276
g1
(g10
g3
NtRp4277
(dp4278
g4094
(lp4279
sg4096
(lp4280
sg3123
S''
sg4098
F50
sg3655
F90
sg4099
F3
sg4100
F50
sg4101
S''
sg4102
F3
sg4103
S''
sg4104
S''
sg4105
S''
sg4106
S'Politician001'
p4281
sg3117
g4276
sg4107
S'Politician001'
p4282
sbsS'P-med-06'
p4283
g1
(g10
g3
NtRp4284
(dp4285
g4094
(lp4286
sg4096
(lp4287
sg3123
S''
sg4098
F50
sg3655
F135
sg4099
F3
sg4100
F50
sg4101
S'Politician001'
p4288
sg4102
F3
sg4103
F3
sg4104
S''
sg4105
S''
sg4106
S'Governor'
p4289
sg3117
g4283
sg4107
S'Politician001'
p4290
sbsS'P-med-07'
p4291
g1
(g10
g3
NtRp4292
(dp4293
g4094
(lp4294
sg4096
(lp4295
sg3123
S''
sg4098
F50
sg3655
F90
sg4099
F3
sg4100
F50
sg4101
S''
sg4102
F3
sg4103
S''
sg4104
S''
sg4105
S''
sg4106
S'Journalist001'
p4296
sg3117
g4291
sg4107
S'Politician001'
p4297
sbsS'P-med-04'
p4298
g1
(g10
g3
NtRp4299
(dp4300
g4094
(lp4301
sg4096
(lp4302
sg3123
S''
sg4098
F50
sg3655
F135
sg4099
F3
sg4100
F50
sg4101
S'Protester001'
p4303
sg4102
F3
sg4103
F3
sg4104
S''
sg4105
S''
sg4106
S'Bumpkin001'
p4304
sg3117
g4298
sg4107
S'Constituent001'
p4305
sbsS'P-med-05'
p4306
g1
(g10
g3
NtRp4307
(dp4308
g4094
(lp4309
sg4096
(lp4310
sg3123
S''
sg4098
F50
sg3655
F135
sg4099
F3
sg4100
F50
sg4101
S'Politician001'
p4311
sg4102
F3
sg4103
F3
sg4104
S''
sg4105
S''
sg4106
S'Journalist001'
p4312
sg3117
g4306
sg4107
S'Journalist001'
p4313
sbsS'P-med-24'
p4314
g1
(g10
g3
NtRp4315
(dp4316
g4094
(lp4317
sg4096
(lp4318
sg3123
S''
sg4098
F50
sg3655
F135
sg4099
F3
sg4100
F50
sg4101
S'Politician001'
p4319
sg4102
F3
sg4103
F3
sg4104
S''
sg4105
S''
sg4106
S'PresidentAlien'
p4320
sg3117
g4314
sg4107
S'Politician001'
p4321
sbsS'P-med-20'
p4322
g1
(g10
g3
NtRp4323
(dp4324
g4094
(lp4325
sg4096
(lp4326
sg3123
S''
sg4098
F50
sg3655
F135
sg4099
F3
sg4100
F50
sg4101
S'Journalist001'
p4327
sg4102
F3
sg4103
F3
sg4104
S''
sg4105
S''
sg4106
S'TVPersonality001'
p4328
sg3117
g4322
sg4107
S'Journalist001'
p4329
sbsS'P-med-21'
p4330
g1
(g10
g3
NtRp4331
(dp4332
g4094
(lp4333
sg4096
(lp4334
sg3123
S''
sg4098
F50
sg3655
F135
sg4099
F3
sg4100
F50
sg4101
S'Politician001'
p4335
sg4102
F3
sg4103
F3
sg4104
S''
sg4105
S''
sg4106
S'President'
p4336
sg3117
g4330
sg4107
S'Politician001'
p4337
sbsS'P-med-22'
p4338
g1
(g10
g3
NtRp4339
(dp4340
g4094
(lp4341
sg4096
(lp4342
sg3123
S''
sg4098
F50
sg3655
F135
sg4099
F3
sg4100
F50
sg4101
S''
sg4102
F3
sg4103
S''
sg4104
S''
sg4105
S''
sg4106
S'DeepThroat'
p4343
sg3117
g4338
sg4107
S'DeepThroat'
p4344
sbsS'P-med-23'
p4345
g1
(g10
g3
NtRp4346
(dp4347
g4094
(lp4348
sg4096
(lp4349
sg3123
S''
sg4098
F50
sg3655
F135
sg4099
F3
sg4100
F50
sg4101
S'Politician001'
p4350
sg4102
F3
sg4103
F3
sg4104
F3
sg4105
S'Politician001'
p4351
sg4106
S'President'
p4352
sg3117
g4345
sg4107
S'Politician001'
p4353
sbsS'P-hard-06'
p4354
g1
(g10
g3
NtRp4355
(dp4356
g4094
(lp4357
sg4096
(lp4358
sg3123
S''
sg4098
F50
sg3655
F135
sg4099
F3
sg4100
F50
sg4101
S'Teacher001'
p4359
sg4102
F3
sg4103
F3
sg4104
S''
sg4105
S''
sg4106
S'Teacher001'
p4360
sg3117
g4354
sg4107
S'Teacher001'
p4361
sbsS'P-hard-07'
p4362
g1
(g10
g3
NtRp4363
(dp4364
g4094
(lp4365
sg4096
(lp4366
sg3123
S''
sg4098
F50
sg3655
F135
sg4099
F3
sg4100
F50
sg4101
S'Teacher001'
p4367
sg4102
F3
sg4103
F3
sg4104
F2
sg4105
S'Teacher001'
p4368
sg4106
S'Teacher001'
p4369
sg3117
g4362
sg4107
S'Teacher001'
p4370
sbsS'P-hard-04'
p4371
g1
(g10
g3
NtRp4372
(dp4373
g4094
(lp4374
sg4096
(lp4375
sg3123
S''
sg4098
F50
sg3655
F135
sg4099
F3
sg4100
F50
sg4101
S'WarVet001'
p4376
sg4102
F3
sg4103
F3
sg4104
S''
sg4105
S''
sg4106
S'WarVet001'
p4377
sg3117
g4371
sg4107
S'WarVet001'
p4378
sbsS'P-hard-05'
p4379
g1
(g10
g3
NtRp4380
(dp4381
g4094
(lp4382
sg4096
(lp4383
sg3123
S''
sg4098
F50
sg3655
F135
sg4099
F3
sg4100
F50
sg4101
S'WarVet001'
p4384
sg4102
F3
sg4103
F3
sg4104
F2
sg4105
S'WarVet001'
p4385
sg4106
S'WarVet001'
p4386
sg3117
g4379
sg4107
S'WarVet001'
p4387
sbsS'P-hard-02'
p4388
g1
(g10
g3
NtRp4389
(dp4390
g4094
(lp4391
sg4096
(lp4392
sg3123
S''
sg4098
F50
sg3655
F135
sg4099
F3
sg4100
F50
sg4101
S'Journalist001'
p4393
sg4102
F3
sg4103
F3
sg4104
S''
sg4105
S''
sg4106
S'TVPersonality001'
p4394
sg3117
g4388
sg4107
S'Journalist001'
p4395
sbsS'P-hard-03'
p4396
g1
(g10
g3
NtRp4397
(dp4398
g4094
(lp4399
sg4096
(lp4400
sg3123
S''
sg4098
F50
sg3655
F135
sg4099
F3
sg4100
F50
sg4101
S'Journalist001'
p4401
sg4102
F3
sg4103
F3
sg4104
S''
sg4105
S''
sg4106
S'Journalist001'
p4402
sg3117
g4396
sg4107
S'TVPersonality001'
p4403
sbsS'P-hard-01'
p4404
g1
(g10
g3
NtRp4405
(dp4406
g4094
(lp4407
sg4096
(lp4408
sg3123
S''
sg4098
F50
sg3655
F135
sg4099
F3
sg4100
F50
sg4101
S'Journalist001'
p4409
sg4102
F3
sg4103
F3
sg4104
S''
sg4105
S''
sg4106
S'Journalist001'
p4410
sg3117
g4404
sg4107
S'Journalist001'
p4411
sbsS'P-easy-10'
p4412
g1
(g10
g3
NtRp4413
(dp4414
g4094
(lp4415
sg4096
(lp4416
sg3123
S''
sg4098
F50
sg3655
F80
sg4099
F3
sg4100
F50
sg4101
S'Politician001'
p4417
sg4102
F2
sg4103
F3
sg4104
S''
sg4105
S''
sg4106
S'Mayor'
p4418
sg3117
g4412
sg4107
S'Politician001'
p4419
sbsS'P-med-19'
p4420
g1
(g10
g3
NtRp4421
(dp4422
g4094
(lp4423
sg4096
(lp4424
sg3123
S''
sg4098
F50
sg3655
F135
sg4099
F3
sg4100
F50
sg4101
S''
sg4102
F3
sg4103
S''
sg4104
S''
sg4105
S''
sg4106
S'DeepThroat'
p4425
sg3117
g4420
sg4107
S'DeepThroat'
p4426
sbsS'P-med-18'
p4427
g1
(g10
g3
NtRp4428
(dp4429
g4094
(lp4430
sg4096
(lp4431
sg3123
S''
sg4098
F50
sg3655
F135
sg4099
F3
sg4100
F50
sg4101
S'ReligiousNut001'
p4432
sg4102
F3
sg4103
F3
sg4104
F3
sg4105
S'ReligiousNut001'
p4433
sg4106
S'ReligiousNut001'
p4434
sg3117
g4427
sg4107
S'ReligiousNut001'
p4435
sbsS'P-med-15'
p4436
g1
(g10
g3
NtRp4437
(dp4438
g4094
(lp4439
sg4096
(lp4440
sg3123
S''
sg4098
F50
sg3655
F135
sg4099
F3
sg4100
F50
sg4101
S''
sg4102
F3
sg4103
S''
sg4104
S''
sg4105
S''
sg4106
S'ReligiousNut001'
p4441
sg3117
g4436
sg4107
S'ReligiousNut001'
p4442
sbsS'P-med-14'
p4443
g1
(g10
g3
NtRp4444
(dp4445
g4094
(lp4446
sg4096
(lp4447
sg3123
S''
sg4098
F50
sg3655
F135
sg4099
F3
sg4100
F50
sg4101
S'Lobbyist001'
p4448
sg4102
F3
sg4103
F3
sg4104
F3
sg4105
S'Lobbyist001'
p4449
sg4106
S'Lobbyist001'
p4450
sg3117
g4443
sg4107
S'Lobbyist001'
p4451
sbsS'P-med-17'
p4452
g1
(g10
g3
NtRp4453
(dp4454
g4094
(lp4455
sg4096
(lp4456
sg3123
S''
sg4098
F50
sg3655
F135
sg4099
F3
sg4100
F50
sg4101
S'ReligiousNut001'
p4457
sg4102
F3
sg4103
F3
sg4104
S''
sg4105
S''
sg4106
S'ReligiousNut001'
p4458
sg3117
g4452
sg4107
S'ReligiousNut001'
p4459
sbsS'P-med-16'
p4460
g1
(g10
g3
NtRp4461
(dp4462
g4094
(lp4463
sg4096
(lp4464
sg3123
S''
sg4098
F50
sg3655
F135
sg4099
F3
sg4100
F50
sg4101
S'ReligiousNut001'
p4465
sg4102
F3
sg4103
F3
sg4104
S''
sg4105
S''
sg4106
S'ReligiousNut001'
p4466
sg3117
g4460
sg4107
S'ReligiousNut001'
p4467
sbsS'P-med-11'
p4468
g1
(g10
g3
NtRp4469
(dp4470
g4094
(lp4471
sg4096
(lp4472
sg3123
S''
sg4098
F50
sg3655
F135
sg4099
F3
sg4100
F50
sg4101
S'Politician001'
p4473
sg4102
F3
sg4103
F3
sg4104
F3
sg4105
S'Politician001'
p4474
sg4106
S'Politician001'
p4475
sg3117
g4468
sg4107
S'Politician001'
p4476
sbsS'P-med-10'
p4477
g1
(g10
g3
NtRp4478
(dp4479
g4094
(lp4480
sg4096
(lp4481
sg3123
S''
sg4098
F50
sg3655
F135
sg4099
F3
sg4100
F50
sg4101
S'ReligiousNut001'
p4482
sg4102
F3
sg4103
F3
sg4104
S''
sg4105
S''
sg4106
S'Politician001'
p4483
sg3117
g4477
sg4107
S'Politician001'
p4484
sbsS'P-med-13'
p4485
g1
(g10
g3
NtRp4486
(dp4487
g4094
(lp4488
sg4096
(lp4489
sg3123
S''
sg4098
F50
sg3655
F135
sg4099
F3
sg4100
F50
sg4101
S'Lobbyist001'
p4490
sg4102
F3
sg4103
F3
sg4104
S''
sg4105
S''
sg4106
S'Lobbyist001'
p4491
sg3117
g4485
sg4107
S'Lobbyist001'
p4492
sbsS'P-med-12'
p4493
g1
(g10
g3
NtRp4494
(dp4495
g4094
(lp4496
sg4096
(lp4497
sg3123
S''
sg4098
F50
sg3655
F135
sg4099
F3
sg4100
F50
sg4101
S'Lobbyist001'
p4498
sg4102
F3
sg4103
F3
sg4104
S''
sg4105
S''
sg4106
S'Lobbyist001'
p4499
sg3117
g4493
sg4107
S'Lobbyist001'
p4500
sbssb.