ccopy_reg
_reconstructor
p1
(c__main__
GameData
p2
c__builtin__
object
p3
NtRp4
(dp5
S'attacks'
p6
(lp7
g1
(c__main__
TableRow
p8
g3
NtRp9
(dp10
S'base_damage_max'
p11
F5
sS'stat'
p12
S'Cunning'
p13
sS'name'
p14
S'Message'
p15
sS'crit_chance_max'
p16
F10
sS'crit_chance_min'
p17
F2
sS'base_damage_min'
p18
F2
sS'effects'
p19
S'None'
p20
sS'crit_base_damage'
p21
F8
sbag1
(g8
g3
NtRp22
(dp23
g11
F3
sg12
S'Cunning'
p24
sg14
S'Slander Opposition'
p25
sg16
F10
sg17
F2
sg18
F1
sg19
S'Drain Votes'
p26
sg21
F5
sbag1
(g8
g3
NtRp27
(dp28
g11
F8
sg12
S'Cunning'
p29
sg14
S'Lie'
p30
sg16
F10
sg17
F2
sg18
F0
sg19
S'Critical Fail'
p31
sg21
F15
sbag1
(g8
g3
NtRp32
(dp33
g11
F3
sg12
S'Wit'
p34
sg14
S'Joke'
p35
sg16
F10
sg17
F2
sg18
F1
sg19
S'Reduce Cunning'
p36
sg21
F6
sbasS'characters'
p37
(dp38
S'Hero'
p39
(lp40
g1
(g8
g3
NtRp41
(dp42
S'flair_base'
p43
F1
sS'charisma_lvl'
p44
F1.1499999999999999
sS'spin_lvl'
p45
F1.0800000000000001
sS'cunning_base'
p46
F2
sS'votes_lvl'
p47
F1.2
sS'charisma_base'
p48
F2
sS'wit_base'
p49
F2
sS'speed_base'
p50
F2
sS'votes_base'
p51
F10
sS'spin_base'
p52
F5
sS'wit_lvl'
p53
F1.0900000000000001
sS'speed_lvl'
p54
F1.0800000000000001
sS'cunning_lvl'
p55
F1.1000000000000001
sS'flair_lvl'
p56
F1.1499999999999999
sg14
g39
sbasS'Politician001'
p57
(lp58
g1
(g8
g3
NtRp59
(dp60
g43
F1
sg44
F1.1499999999999999
sg45
F1.0800000000000001
sg46
F1
sg47
F1.2
sg48
F1
sg49
F1
sg50
F1
sg51
F20
sg52
F4
sg53
F1.0900000000000001
sg54
F1.0800000000000001
sg55
F1.1000000000000001
sg56
F1.1499999999999999
sg14
g57
sbassb.