ccopy_reg
_reconstructor
p1
(c__main__
GameData
p2
c__builtin__
object
p3
NtRp4
(dp5
S'script'
p6
(dp7
S'#----------------------------------------------------------------------------------------ACT 3 ----------------------------------------------------------------------------------------------------------------------------------------------------------------------------------------'
p8
(lp9
g1
(c__main__
TableRow
p10
g3
NtRp11
(dp12
S'action'
p13
S''
sS'trigger'
p14
g8
sS'param'
p15
S''
sS'dialog'
p16
S''
sbasS'Hick1'
p17
(lp18
g1
(g10
g3
NtRp19
(dp20
g13
S'RequireFlag'
p21
sg14
g17
sg15
S'STARTHICKS'
p22
sg16
S"Look at this guy's fancy tie!"
p23
sbag1
(g10
g3
NtRp24
(dp25
g13
S'PlayerSay'
p26
sg14
S'Hick1'
p27
sg15
S''
sg16
S'What brings you to the office of the governor?'
p28
sbag1
(g10
g3
NtRp29
(dp30
g13
S'Say'
p31
sg14
S'Hick1'
p32
sg15
S''
sg16
S'The immigrants!'
p33
sbag1
(g10
g3
NtRp34
(dp35
g13
S'PlayerSay'
p36
sg14
S'Hick1'
p37
sg15
S''
sg16
S'What happened?'
p38
sbag1
(g10
g3
NtRp39
(dp40
g13
S'Say'
p41
sg14
S'Hick1'
p42
sg15
S'Hick2'
p43
sg16
S"They're coming!"
p44
sbag1
(g10
g3
NtRp45
(dp46
g13
S'PlayerSay'
p47
sg14
S'Hick1'
p48
sg15
S''
sg16
S'The...immigrants are coming?'
p49
sbag1
(g10
g3
NtRp50
(dp51
g13
S'Say'
p52
sg14
S'Hick1'
p53
sg15
S'Hick2'
p54
sg16
S'Yes, to steal our jobs and our wives!'
p55
sbag1
(g10
g3
NtRp56
(dp57
g13
S'Say'
p58
sg14
S'Hick1'
p59
sg15
S''
sg16
S'They have to be stopped!'
p60
sbag1
(g10
g3
NtRp61
(dp62
g13
S'PlayerSay'
p63
sg14
S'Hick1'
p64
sg15
S''
sg16
S"I don't think the immigrants are coming to steal your wives..."
p65
sbag1
(g10
g3
NtRp66
(dp67
g13
S'Say'
p68
sg14
S'Hick1'
p69
sg15
S'Journalist2'
p70
sg16
S'Mayor Mossman sides with the immigrants! I need to get this to print!'
p71
sbag1
(g10
g3
NtRp72
(dp73
g13
S'PlayerSay'
p74
sg14
S'Hick1'
p75
sg15
S''
sg16
S'Wait a second, let me explain.'
p76
sbag1
(g10
g3
NtRp77
(dp78
g13
S'Encounter'
p79
sg14
S'Hick1'
p80
sg15
S'P-med-03'
p81
sg16
S''
sbag1
(g10
g3
NtRp82
(dp83
g13
S'Say'
p84
sg14
S'Hick1'
p85
sg15
S''
sg16
S"You're a smart guy. I think I can trust you."
p86
sbag1
(g10
g3
NtRp87
(dp88
g13
S'SetFlag'
p89
sg14
S'Hick1'
p90
sg15
S'STARTHICKS2'
p91
sg16
S''
sbag1
(g10
g3
NtRp92
(dp93
g13
S'Increment'
p94
sg14
S'Hick1'
p95
sg15
S'DEALWITHHICKS'
p96
sg16
S''
sbag1
(g10
g3
NtRp97
(dp98
g13
S'Destroy'
p99
sg14
S'Hick1'
p100
sg15
S''
sg16
S''
sbasS'Hick2'
p101
(lp102
g1
(g10
g3
NtRp103
(dp104
g13
S'RequireFlag'
p105
sg14
g101
sg15
S'STARTHICKS2'
p106
sg16
S"Aw....I'm shy...talk to my buddy..."
p107
sbag1
(g10
g3
NtRp108
(dp109
g13
S'Encounter'
p110
sg14
S'Hick2'
p111
sg15
S'P-med-04'
p112
sg16
S''
sbag1
(g10
g3
NtRp113
(dp114
g13
S'Say'
p115
sg14
S'Hick2'
p116
sg15
S''
sg16
S"Wowee. We've been waiting for days and the governor has ignored us. If you ever run for governor, you'll have my vote!"
p117
sbag1
(g10
g3
NtRp118
(dp119
g13
S'Increment'
p120
sg14
S'Hick2'
p121
sg15
S'DEALWITHHICKS'
p122
sg16
S''
sbag1
(g10
g3
NtRp123
(dp124
g13
S'Destroy'
p125
sg14
S'Hick2'
p126
sg15
S''
sg16
S''
sbasS'Politician7'
p127
(lp128
g1
(g10
g3
NtRp129
(dp130
g13
S'RequireFlag'
p131
sg14
g127
sg15
S'STARTPOLITICIANSHAKEDOWN'
p132
sg16
S'Good morning, Governor Mossman. Your PA will know your schedule. He is waiting in your room.'
p133
sbag1
(g10
g3
NtRp134
(dp135
g13
S'Say'
p136
sg14
S'Politician7'
p137
sg15
S''
sg16
S"I believe in captialism. Let business sort itself out. They shouldn't need to rely on government handouts."
p138
sbag1
(g10
g3
NtRp139
(dp140
g13
S'Say'
p141
sg14
S'Politician7'
p142
sg15
S''
sg16
S'Also, I think politicians need a raise. Some more than others...oh and life-long retainers.'
p143
sbag1
(g10
g3
NtRp144
(dp145
g13
S'PlayerSay'
p146
sg14
S'Politician7'
p147
sg15
S''
sg16
S'So, no more hand-outs for business but more handouts for politicians?'
p148
sbag1
(g10
g3
NtRp149
(dp150
g13
S'Say'
p151
sg14
S'Politician7'
p152
sg15
S''
sg16
S'Yes!'
p153
sbag1
(g10
g3
NtRp154
(dp155
g13
S'PlayerSay'
p156
sg14
S'Politician7'
p157
sg15
S''
sg16
S'Does that serve your constituents?'
p158
sbag1
(g10
g3
NtRp159
(dp160
g13
S'Say'
p161
sg14
S'Politician7'
p162
sg15
S''
sg16
S'...It serves...some...'
p163
sbag1
(g10
g3
NtRp164
(dp165
g13
S'Encounter'
p166
sg14
S'Politician7'
p167
sg15
S'P-med-11'
p168
sg16
S''
sbag1
(g10
g3
NtRp169
(dp170
g13
S'Say'
p171
sg14
S'Politician7'
p172
sg15
S''
sg16
S'Right, I guess we need to handle the needs of our constituents, too.'
p173
sbag1
(g10
g3
NtRp174
(dp175
g13
S'Increment'
p176
sg14
S'Politician7'
p177
sg15
S'POLITICIANSHAKEDOWN'
p178
sg16
S''
sbag1
(g10
g3
NtRp179
(dp180
g13
S'Destroy'
p181
sg14
S'Politician7'
p182
sg15
S''
sg16
S''
sbasS'TVDebate'
p183
(lp184
g1
(g10
g3
NtRp185
(dp186
g13
S'RequireFlag'
p187
sg14
g183
sg15
S'STARTDEBATE'
p188
sg16
S"Hmmm? Oh, sorry, I'm on the phone to the studio."
p189
sbag1
(g10
g3
NtRp190
(dp191
g13
S'Say'
p192
sg14
S'TVDebate'
p193
sg15
S''
sg16
S"Good evening, Governor Mossman. If you'll follow me, I'll take you to the studio."
p194
sbag1
(g10
g3
NtRp195
(dp196
g13
S'Encounter'
p197
sg14
S'TVDebate'
p198
sg15
S'P-med-21'
p199
sg16
S''
sbag1
(g10
g3
NtRp200
(dp201
g13
S'Say'
p202
sg14
S'TVDebate'
p203
sg15
S''
sg16
S'Great work tonight, Governor Mossman and congratulations on the win!'
p204
sbag1
(g10
g3
NtRp205
(dp206
g13
S'SetFlag'
p207
sg14
S'TVDebate'
p208
sg15
S'DEBATECOMPLETE'
p209
sg16
S''
sbag1
(g10
g3
NtRp210
(dp211
g13
S'Destroy'
p212
sg14
S'TVDebate'
p213
sg15
S''
sg16
S''
sbasS'Lobbyist2'
p214
(lp215
g1
(g10
g3
NtRp216
(dp217
g13
S'RequireFlag'
p218
sg14
g214
sg15
S'STARTLOBBYISTS'
p219
sg16
S'Humph'
p220
sbag1
(g10
g3
NtRp221
(dp222
g13
S'Say'
p223
sg14
S'Lobbyist2'
p224
sg15
S''
sg16
S'I represent the Python Software Foundation. What will you do to promote, protect and advance the Python programming language.'
p225
sbag1
(g10
g3
NtRp226
(dp227
g13
S'PlayerSay'
p228
sg14
S'Lobbyist2'
p229
sg15
S''
sg16
S"Ah yes, the Python cause! I'm a big advocate of Python."
p230
sbag1
(g10
g3
NtRp231
(dp232
g13
S'Encounter'
p233
sg14
S'Lobbyist2'
p234
sg15
S'P-med-12'
p235
sg16
S''
sbag1
(g10
g3
NtRp236
(dp237
g13
S'Increment'
p238
sg14
S'Lobbyist2'
p239
sg15
S'LOBBYISTS'
p240
sg16
S''
sbag1
(g10
g3
NtRp241
(dp242
g13
S'Say'
p243
sg14
S'Lobbyist2'
p244
sg15
S''
sg16
S'I think we can help each other out.'
p245
sbag1
(g10
g3
NtRp246
(dp247
g13
S'Destroy'
p248
sg14
S'Lobbyist2'
p249
sg15
S''
sg16
S''
sbasS'CheatAct2'
p250
(lp251
g1
(g10
g3
NtRp252
(dp253
g13
S'AddAlly'
p254
sg14
g250
sg15
S'Wife:1'
p255
sg16
S''
sbag1
(g10
g3
NtRp256
(dp257
g13
S'LearnAttack'
p258
sg14
S'CheatAct2'
p259
sg15
S'BRIBE'
p260
sg16
S''
sbag1
(g10
g3
NtRp261
(dp262
g13
S'LearnAttack'
p263
sg14
S'CheatAct2'
p264
sg15
S'Wife:BRIBE'
p265
sg16
S''
sbag1
(g10
g3
NtRp266
(dp267
g13
S'LearnAttack'
p268
sg14
S'CheatAct2'
p269
sg15
S'SLANDER'
p270
sg16
S''
sbag1
(g10
g3
NtRp271
(dp272
g13
S'GotoMap'
p273
sg14
S'CheatAct2'
p274
sg15
S'act2'
p275
sg16
S''
sbasS'CheatAct3'
p276
(lp277
g1
(g10
g3
NtRp278
(dp279
g13
S'AddAlly'
p280
sg14
g276
sg15
S'Wife:1'
p281
sg16
S''
sbag1
(g10
g3
NtRp282
(dp283
g13
S'LearnAttack'
p284
sg14
S'CheatAct3'
p285
sg15
S'BRIBE'
p286
sg16
S''
sbag1
(g10
g3
NtRp287
(dp288
g13
S'LearnAttack'
p289
sg14
S'CheatAct3'
p290
sg15
S'Wife:BRIBE'
p291
sg16
S''
sbag1
(g10
g3
NtRp292
(dp293
g13
S'LearnAttack'
p294
sg14
S'CheatAct3'
p295
sg15
S'SLANDER'
p296
sg16
S''
sbag1
(g10
g3
NtRp297
(dp298
g13
S'AddAlly'
p299
sg14
S'CheatAct3'
p300
sg15
S'Leo:1'
p301
sg16
S''
sbag1
(g10
g3
NtRp302
(dp303
g13
S'GotoMap'
p304
sg14
S'CheatAct3'
p305
sg15
S'act3'
p306
sg16
S''
sbasS'WarVet2'
p307
(lp308
g1
(g10
g3
NtRp309
(dp310
g13
S'RequireFlag'
p311
sg14
g307
sg15
S'AFTERWILFRED'
p312
sg16
S'Eh? Speak up, boy.'
p313
sbag1
(g10
g3
NtRp314
(dp315
g13
S'Encounter'
p316
sg14
S'WarVet2'
p317
sg15
S'P-hard-05'
p318
sg16
S''
sbag1
(g10
g3
NtRp319
(dp320
g13
S'Say'
p321
sg14
S'WarVet2'
p322
sg15
S''
sg16
S"We'll head home, but you can expect us back if we see anything else suspicious ."
p323
sbag1
(g10
g3
NtRp324
(dp325
g13
S'Increment'
p326
sg14
S'WarVet2'
p327
sg15
S'WARVETS'
p328
sg16
S''
sbag1
(g10
g3
NtRp329
(dp330
g13
S'Destroy'
p331
sg14
S'WarVet2'
p332
sg15
S''
sg16
S''
sbasS'WarVet1'
p333
(lp334
g1
(g10
g3
NtRp335
(dp336
g13
S'Say'
p337
sg14
g333
sg15
S''
sg16
S"You think you can fool me? I wasn't born yesterday, you know."
p338
sbag1
(g10
g3
NtRp339
(dp340
g13
S'PlayerSay'
p341
sg14
S'WarVet1'
p342
sg15
S''
sg16
S"I'm sorry, sir, but what seems to be the problem."
p343
sbag1
(g10
g3
NtRp344
(dp345
g13
S'Say'
p346
sg14
S'WarVet1'
p347
sg15
S''
sg16
S"You think I don't know a mobilising army when I see one? You're clearly readying for war and you think you don't even need to mention it to the people."
p348
sbag1
(g10
g3
NtRp349
(dp350
g13
S'Say'
p351
sg14
S'WarVet1'
p352
sg15
S'WarVet2'
p353
sg16
S"And don't forget that he's barely a cadet, Wilfred."
p354
sbag1
(g10
g3
NtRp355
(dp356
g13
S'Say'
p357
sg14
S'WarVet1'
p358
sg15
S''
sg16
S"Right you are, Arnold, You've barely set foot in this building and you're already leading us to war. Who do you think you're dealing with? We won't stand."
p359
sbag1
(g10
g3
NtRp360
(dp361
g13
S'Encounter'
p362
sg14
S'WarVet1'
p363
sg15
S'P-hard-04'
p364
sg16
S''
sbag1
(g10
g3
NtRp365
(dp366
g13
S'Say'
p367
sg14
S'WarVet1'
p368
sg15
S''
sg16
S"Seems like a flimsy excuse, you didn't know. Better get your troops in line if you want 'em to march, boy."
p369
sbag1
(g10
g3
NtRp370
(dp371
g13
S'Increment'
p372
sg14
S'WarVet1'
p373
sg15
S'WARVETS'
p374
sg16
S''
sbag1
(g10
g3
NtRp375
(dp376
g13
S'SetFlag'
p377
sg14
S'WarVet1'
p378
sg15
S'AFTERWILFRED'
p379
sg16
S''
sbag1
(g10
g3
NtRp380
(dp381
g13
S'Destroy'
p382
sg14
S'WarVet1'
p383
sg15
S''
sg16
S''
sbasS'Kawalski'
p384
(lp385
g1
(g10
g3
NtRp386
(dp387
g13
S'Say'
p388
sg14
g384
sg15
S''
sg16
S'A pleasure to meet you, President Mossman. I am Agent Kawalski, your security detail.'
p389
sbag1
(g10
g3
NtRp390
(dp391
g13
S'PlayerSay'
p392
sg14
S'Kawalski'
p393
sg15
S''
sg16
S'Great to meet you, Agent Kawalski. What do I need to know?'
p394
sbag1
(g10
g3
NtRp395
(dp396
g13
S'Say'
p397
sg14
S'Kawalski'
p398
sg15
S''
sg16
S'Well actually, it does have to do with your security. Something terrible is happening at the White House.'
p399
sbag1
(g10
g3
NtRp400
(dp401
g13
S'PlayerSay'
p402
sg14
S'Kawalski'
p403
sg15
S''
sg16
S"If you're trying to warn me about the aliens, it's under control."
p404
sbag1
(g10
g3
NtRp405
(dp406
g13
S'Say'
p407
sg14
S'Kawalski'
p408
sg15
S''
sg16
S'No, no, this is different. I think somebody is trying to take over the White House.'
p409
sbag1
(g10
g3
NtRp410
(dp411
g13
S'PlayerSay'
p412
sg14
S'Kawalski'
p413
sg15
S''
sg16
S"Wouldn't we know?"
p414
sbag1
(g10
g3
NtRp415
(dp416
g13
S'Say'
p417
sg14
S'Kawalski'
p418
sg15
S''
sg16
S"It's too early for those kind of details. I just want you to keep your eyes open, Mr President."
p419
sbag1
(g10
g3
NtRp420
(dp421
g13
S'PlayerSay'
p422
sg14
S'Kawalski'
p423
sg15
S''
sg16
S'No problem.'
p424
sbag1
(g10
g3
NtRp425
(dp426
g13
S'Destroy'
p427
sg14
S'Kawalski'
p428
sg15
S''
sg16
S''
sbag1
(g10
g3
NtRp429
(dp430
g13
S'AddAlly'
p431
sg14
S'Kawalski'
p432
sg15
S'SecretAgent:1'
p433
sg16
S'Kawalski joins your political party!'
p434
sbag1
(g10
g3
NtRp435
(dp436
g13
S'SetFlag'
p437
sg14
S'Kawalski'
p438
sg15
S'KAWALSKIJOIN'
p439
sg16
S''
sbasS'Theo'
p440
(lp441
g1
(g10
g3
NtRp442
(dp443
g13
S'RequireFlag'
p444
sg14
g440
sg15
S'GOVERNORDEFEATED'
p445
sg16
S'The Governor is in the north wing.'
p446
sbag1
(g10
g3
NtRp447
(dp448
g13
S'Say'
p449
sg14
S'Theo'
p450
sg15
S''
sg16
S"You must be Governor Mossman. I am Theo. I've been looking for you, but I wanted to see how you handled Governor Badden"
p451
sbag1
(g10
g3
NtRp452
(dp453
g13
S'PlayerSay'
p454
sg14
S'Theo'
p455
sg15
S''
sg16
S'Hi Theo. Why have you been looking for me?'
p456
sbag1
(g10
g3
NtRp457
(dp458
g13
S'Say'
p459
sg14
S'Theo'
p460
sg15
S''
sg16
S"There's a lot going on in Ignited States politics and none of it is good. Somebody needs to get up there and find out what's going on."
p461
sbag1
(g10
g3
NtRp462
(dp463
g13
S'Say'
p464
sg14
S'Theo'
p465
sg15
S''
sg16
S"I couldn't be sure which side you were on, but your dealings with the Governor prove that you're not with them."
p466
sbag1
(g10
g3
NtRp467
(dp468
g13
S'PlayerSay'
p469
sg14
S'Theo'
p470
sg15
S''
sg16
S'It sounds like it goes all the way to the President of the Ignited States.'
p471
sbag1
(g10
g3
NtRp472
(dp473
g13
S'Say'
p474
sg14
S'Theo'
p475
sg15
S''
sg16
S"It does. That's why I've been looking for you. The only way to find out is to flush them out. There's only one way to flush out President Allen."
p476
sbag1
(g10
g3
NtRp477
(dp478
g13
S'PlayerSay'
p479
sg14
S'Theo'
p480
sg15
S''
sg16
S"How's that?"
p481
sbag1
(g10
g3
NtRp482
(dp483
g13
S'Say'
p484
sg14
S'Theo'
p485
sg15
S''
sg16
S"...I've been a campaign manager for 20 years and I've never seen a candidate as strong as you. I think you have what it takes to run for the presidency."
p486
sbag1
(g10
g3
NtRp487
(dp488
g13
S'Say'
p489
sg14
S'Theo'
p490
sg15
S''
sg16
S"That's why I was looking for you. I need somebody who has a shot at winning in order to get to President Allen. You have that shot."
p491
sbag1
(g10
g3
NtRp492
(dp493
g13
S'PlayerSay'
p494
sg14
S'Theo'
p495
sg15
S''
sg16
S"You really think I can win? Well...I want to follow this through to the end, so I'm in!"
p496
sbag1
(g10
g3
NtRp497
(dp498
g13
S'Say'
p499
sg14
S'Theo'
p500
sg15
S''
sg16
S"Great! There's a lot to get organised! We need to plan our election campaign!"
p501
sbag1
(g10
g3
NtRp502
(dp503
g13
S'Destroy'
p504
sg14
S'Theo'
p505
sg15
S''
sg16
S''
sbag1
(g10
g3
NtRp506
(dp507
g13
S'AddAlly'
p508
sg14
S'Theo'
p509
sg15
S'Leo:1'
p510
sg16
S''
sbag1
(g10
g3
NtRp511
(dp512
g13
S'Message'
p513
sg14
S'Theo'
p514
sg15
S''
sg16
S'Theo joins your political party!'
p515
sbasS'Religious4'
p516
(lp517
g1
(g10
g3
NtRp518
(dp519
g13
S'Say'
p520
sg14
g516
sg15
S''
sg16
S'Do not be swayed by the seductive powers of tea!'
p521
sbag1
(g10
g3
NtRp522
(dp523
g13
S'Encounter'
p524
sg14
S'Religious4'
p525
sg15
S'P-med-18'
p526
sg16
S''
sbag1
(g10
g3
NtRp527
(dp528
g13
S'Increment'
p529
sg14
S'Religious4'
p530
sg15
S'RELIGIOUSNUTS'
p531
sg16
S''
sbag1
(g10
g3
NtRp532
(dp533
g13
S'Say'
p534
sg14
S'Religious4'
p535
sg15
S''
sg16
S'The Battycan will be satisfied with this news.'
p536
sbag1
(g10
g3
NtRp537
(dp538
g13
S'Destroy'
p539
sg14
S'Religious4'
p540
sg15
S''
sg16
S''
sbasS'Religious1'
p541
(lp542
g1
(g10
g3
NtRp543
(dp544
g13
S'Say'
p545
sg14
g541
sg15
S''
sg16
S'Have you had your morning prayer?'
p546
sbag1
(g10
g3
NtRp547
(dp548
g13
S'Encounter'
p549
sg14
S'Religious1'
p550
sg15
S'P-med-16'
p551
sg16
S''
sbag1
(g10
g3
NtRp552
(dp553
g13
S'Increment'
p554
sg14
S'Religious1'
p555
sg15
S'RELIGIOUSNUTS'
p556
sg16
S''
sbag1
(g10
g3
NtRp557
(dp558
g13
S'Say'
p559
sg14
S'Religious1'
p560
sg15
S''
sg16
S'Some people pray upwards of 5 times a day, but this can cause hallucinations.'
p561
sbag1
(g10
g3
NtRp562
(dp563
g13
S'Destroy'
p564
sg14
S'Religious1'
p565
sg15
S''
sg16
S''
sbasS'Religious3'
p566
(lp567
g1
(g10
g3
NtRp568
(dp569
g13
S'Say'
p570
sg14
g566
sg15
S''
sg16
S'Mmmmmm...Coffee....ommmmm'
p571
sbag1
(g10
g3
NtRp572
(dp573
g13
S'Encounter'
p574
sg14
S'Religious3'
p575
sg15
S'P-med-17'
p576
sg16
S''
sbag1
(g10
g3
NtRp577
(dp578
g13
S'Increment'
p579
sg14
S'Religious3'
p580
sg15
S'RELIGIOUSNUTS'
p581
sg16
S''
sbag1
(g10
g3
NtRp582
(dp583
g13
S'Say'
p584
sg14
S'Religious3'
p585
sg15
S''
sg16
S'I must return to my meditation.'
p586
sbag1
(g10
g3
NtRp587
(dp588
g13
S'Destroy'
p589
sg14
S'Religious3'
p590
sg15
S''
sg16
S''
sbasS'Religious2'
p591
(lp592
g1
(g10
g3
NtRp593
(dp594
g13
S'Say'
p595
sg14
g591
sg15
S''
sg16
S'Welcome, my child. We have travelled here from Battycan City to be assured you are a man of faith before we endorse you.'
p596
sbag1
(g10
g3
NtRp597
(dp598
g13
S'PlayerSay'
p599
sg14
S'Religious2'
p600
sg15
S''
sg16
S'Er, what faith is that?'
p601
sbag1
(g10
g3
NtRp602
(dp603
g13
S'Say'
p604
sg14
S'Religious2'
p605
sg15
S''
sg16
S'Why, the one true god: Coffee.'
p606
sbag1
(g10
g3
NtRp607
(dp608
g13
S'PlayerSay'
p609
sg14
S'Religious2'
p610
sg15
S''
sg16
S'...Coffee?'
p611
sbag1
(g10
g3
NtRp612
(dp613
g13
S'Say'
p614
sg14
S'Religious2'
p615
sg15
S''
sg16
S"Yes of course. He who lifts you up when you're feeling low, who is your inspiration in the dark and who can achieve miraculous feats of effort with dedicated prayer."
p616
sbag1
(g10
g3
NtRp617
(dp618
g13
S'PlayerSay'
p619
sg14
S'Religious2'
p620
sg15
S''
sg16
S'This may be a religion I can get behind.'
p621
sbag1
(g10
g3
NtRp622
(dp623
g13
S'Encounter'
p624
sg14
S'Religious2'
p625
sg15
S'P-med-15'
p626
sg16
S''
sbag1
(g10
g3
NtRp627
(dp628
g13
S'Increment'
p629
sg14
S'Religious2'
p630
sg15
S'RELIGIOUSNUTS'
p631
sg16
S''
sbag1
(g10
g3
NtRp632
(dp633
g13
S'Say'
p634
sg14
S'Religious2'
p635
sg15
S''
sg16
S'Wonderful, the Battycan will be most pleased.'
p636
sbag1
(g10
g3
NtRp637
(dp638
g13
S'Destroy'
p639
sg14
S'Religious2'
p640
sg15
S''
sg16
S''
sbasS'Constituent2'
p641
(lp642
g1
(g10
g3
NtRp643
(dp644
g13
S'RequireFlag'
p645
sg14
g641
sg15
S'STARTCONSTITUENTS'
p646
sg16
S'What?'
p647
sbag1
(g10
g3
NtRp648
(dp649
g13
S'PlayerSay'
p650
sg14
S'Constituent2'
p651
sg15
S''
sg16
S'Vote Phillip Mossman for Mayor!'
p652
sbag1
(g10
g3
NtRp653
(dp654
g13
S'Say'
p655
sg14
S'Constituent2'
p656
sg15
S''
sg16
S'But Mayor Goodman has always taken care of me.'
p657
sbag1
(g10
g3
NtRp658
(dp659
g13
S'Encounter'
p660
sg14
S'Constituent2'
p661
sg15
S'P-easy-08'
p662
sg16
S''
sbag1
(g10
g3
NtRp663
(dp664
g13
S'Say'
p665
sg14
S'Constituent2'
p666
sg15
S''
sg16
S"I think it's time for a change!"
p667
sbag1
(g10
g3
NtRp668
(dp669
g13
S'Destroy'
p670
sg14
S'Constituent2'
p671
sg15
S''
sg16
S''
sbasS'Constituent3'
p672
(lp673
g1
(g10
g3
NtRp674
(dp675
g13
S'RequireFlag'
p676
sg14
g672
sg15
S'STARTCONSTITUENTS'
p677
sg16
S'What?'
p678
sbag1
(g10
g3
NtRp679
(dp680
g13
S'PlayerSay'
p681
sg14
S'Constituent3'
p682
sg15
S''
sg16
S'Vote Phillip Mossman for Mayor!'
p683
sbag1
(g10
g3
NtRp684
(dp685
g13
S'Say'
p686
sg14
S'Constituent3'
p687
sg15
S''
sg16
S'But Mayor Goodman has always taken care of me.'
p688
sbag1
(g10
g3
NtRp689
(dp690
g13
S'Encounter'
p691
sg14
S'Constituent3'
p692
sg15
S'P-easy-09'
p693
sg16
S''
sbag1
(g10
g3
NtRp694
(dp695
g13
S'Say'
p696
sg14
S'Constituent3'
p697
sg15
S''
sg16
S"I think it's time for a change!"
p698
sbag1
(g10
g3
NtRp699
(dp700
g13
S'PlayerSay'
p701
sg14
S'Constituent3'
p702
sg15
S''
sg16
S"I think I'm ready to take on Mayor Goodman now!"
p703
sbag1
(g10
g3
NtRp704
(dp705
g13
S'SetFlag'
p706
sg14
S'Constituent3'
p707
sg15
S'CONSTITUENTSWON'
p708
sg16
S''
sbag1
(g10
g3
NtRp709
(dp710
g13
S'Destroy'
p711
sg14
S'Constituent3'
p712
sg15
S''
sg16
S''
sbasS'DeepThroat'
p713
(lp714
g1
(g10
g3
NtRp715
(dp716
g13
S'Say'
p717
sg14
g713
sg15
S''
sg16
S'Finally, I thought you were going to be too late.'
p718
sbag1
(g10
g3
NtRp719
(dp720
g13
S'PlayerSay'
p721
sg14
S'DeepThroat'
p722
sg15
S''
sg16
S'What can I do for you Mr er...?'
p723
sbag1
(g10
g3
NtRp724
(dp725
g13
S'Say'
p726
sg14
S'DeepThroat'
p727
sg15
S''
sg16
S"No names! I have something I think you'll be interested in, but I'm not sure you can be trusted."
p728
sbag1
(g10
g3
NtRp729
(dp730
g13
S'PlayerSay'
p731
sg14
S'DeepThroat'
p732
sg15
S''
sg16
S"Look, Mr Er...I'm very busy, what is this about."
p733
sbag1
(g10
g3
NtRp734
(dp735
g13
S'Say'
p736
sg14
S'DeepThroat'
p737
sg15
S''
sg16
S"It's about the President, it's about national security, but I've got a bad feeling and I'm getting out of here."
p738
sbag1
(g10
g3
NtRp739
(dp740
g13
S'PlayerSay'
p741
sg14
S'DeepThroat'
p742
sg15
S''
sg16
S'No, wait!'
p743
sbag1
(g10
g3
NtRp744
(dp745
g13
S'Encounter'
p746
sg14
S'DeepThroat'
p747
sg15
S'P-med-19'
p748
sg16
S''
sbag1
(g10
g3
NtRp749
(dp750
g13
S'Say'
p751
sg14
S'DeepThroat'
p752
sg15
S''
sg16
S"You're right, I have every reason to trust you. I've found this Incriminating Evidence."
p753
sbag1
(g10
g3
NtRp754
(dp755
g13
S'GiveItem'
p756
sg14
S'DeepThroat'
p757
sg15
S'INCRIMINATINGEVIDENCE'
p758
sg16
S'You receive Incriminating Evidence'
p759
sbag1
(g10
g3
NtRp760
(dp761
g13
S'PlayerSay'
p762
sg14
S'DeepThroat'
p763
sg15
S''
sg16
S'This has to be stopped!'
p764
sbag1
(g10
g3
NtRp765
(dp766
g13
S'Say'
p767
sg14
S'DeepThroat'
p768
sg15
S''
sg16
S"Yes, but not by me. I've given you all I've got, now get out."
p769
sbag1
(g10
g3
NtRp770
(dp771
g13
S'RequireFlag'
p772
sg14
S'DeepThroat'
p773
sg15
S'DEEPTHROAT2'
p774
sg16
S'I said get out!'
p775
sbag1
(g10
g3
NtRp776
(dp777
g13
S'Say'
p778
sg14
S'DeepThroat'
p779
sg15
S''
sg16
S"It's a lot worse than I thought. I have more to tell you, but I don't think I should trust you. I think there's a leak in your operation somewhere."
p780
sbag1
(g10
g3
NtRp781
(dp782
g13
S'PlayerSay'
p783
sg14
S'DeepThroat'
p784
sg15
S''
sg16
S'Why do you say that?'
p785
sbag1
(g10
g3
NtRp786
(dp787
g13
S'Say'
p788
sg14
S'DeepThroat'
p789
sg15
S''
sg16
S'There was a lot of heat on me after we last spoke.'
p790
sbag1
(g10
g3
NtRp791
(dp792
g13
S'PlayerSay'
p793
sg14
S'DeepThroat'
p794
sg15
S''
sg16
S"It's getting close to the final election. It could just be that they're getting skittish."
p795
sbag1
(g10
g3
NtRp796
(dp797
g13
S'Say'
p798
sg14
S'DeepThroat'
p799
sg15
S''
sg16
S"I'm not so sure..."
p800
sbag1
(g10
g3
NtRp801
(dp802
g13
S'Encounter'
p803
sg14
S'DeepThroat'
p804
sg15
S'P-med-22'
p805
sg16
S''
sbag1
(g10
g3
NtRp806
(dp807
g13
S'Say'
p808
sg14
S'DeepThroat'
p809
sg15
S''
sg16
S"You're right, I'm just edgy. Look, I think you should be careful. I think the President is planning to KILL you in the final debate...politically."
p810
sbag1
(g10
g3
NtRp811
(dp812
g13
S'PlayerSay'
p813
sg14
S'DeepThroat'
p814
sg15
S''
sg16
S'You think he wants to silence me forever....on the political stage?'
p815
sbag1
(g10
g3
NtRp816
(dp817
g13
S'Say'
p818
sg14
S'DeepThroat'
p819
sg15
S''
sg16
S'Yes I do. This could get really messy...politically speaking. So be careful!'
p820
sbag1
(g10
g3
NtRp821
(dp822
g13
S'SetFlag'
p823
sg14
S'DeepThroat'
p824
sg15
S'FINISHEDDEEPTHROAT'
p825
sg16
S''
sbag1
(g10
g3
NtRp826
(dp827
g13
S'Destroy'
p828
sg14
S'DeepThroat'
p829
sg15
S''
sg16
S''
sbasS'Constituent1'
p830
(lp831
g1
(g10
g3
NtRp832
(dp833
g13
S'RequireFlag'
p834
sg14
g830
sg15
S'STARTCONSTITUENTS'
p835
sg16
S'Yes?'
p836
sbag1
(g10
g3
NtRp837
(dp838
g13
S'PlayerSay'
p839
sg14
S'Constituent1'
p840
sg15
S''
sg16
S'Vote Phillip Mossman for Mayor!'
p841
sbag1
(g10
g3
NtRp842
(dp843
g13
S'Say'
p844
sg14
S'Constituent1'
p845
sg15
S''
sg16
S'Who?'
p846
sbag1
(g10
g3
NtRp847
(dp848
g13
S'PlayerSay'
p849
sg14
S'Constituent1'
p850
sg15
S''
sg16
S'Er, me!'
p851
sbag1
(g10
g3
NtRp852
(dp853
g13
S'Say'
p854
sg14
S'Constituent1'
p855
sg15
S''
sg16
S'Why? How will you help local business?'
p856
sbag1
(g10
g3
NtRp857
(dp858
g13
S'Encounter'
p859
sg14
S'Constituent1'
p860
sg15
S'P-easy-07'
p861
sg16
S''
sbag1
(g10
g3
NtRp862
(dp863
g13
S'Say'
p864
sg14
S'Constituent1'
p865
sg15
S''
sg16
S'You make a good case!'
p866
sbag1
(g10
g3
NtRp867
(dp868
g13
S'Destroy'
p869
sg14
S'Constituent1'
p870
sg15
S''
sg16
S''
sbasS'PA'
p871
(lp872
g1
(g10
g3
NtRp873
(dp874
g13
S'Say'
p875
sg14
g871
sg15
S''
sg16
S'Good morning, Governor Mossman. I am your personal assistant, Sampson'
p876
sbag1
(g10
g3
NtRp877
(dp878
g13
S'Say'
p879
sg14
S'PA'
p880
sg15
S''
sg16
S"You've a busy schedule, so let's get going! We've called together our entire political party in order for you to get them all to agree on a platform. We had to keep them separated, so they're in the adjoining rooms."
p881
sbag1
(g10
g3
NtRp882
(dp883
g13
S'SetFlag'
p884
sg14
S'PA'
p885
sg15
S'STARTPOLITICIANSHAKEDOWN'
p886
sg16
S''
sbag1
(g10
g3
NtRp887
(dp888
g13
S'RequireCount'
p889
sg14
S'PA'
p890
sg15
S'POLITICIANSHAKEDOWN:5'
p891
sg16
S'Please try to stay on schedule. The politicians are in the adjoining rooms.'
p892
sbag1
(g10
g3
NtRp893
(dp894
g13
S'Say'
p895
sg14
S'PA'
p896
sg15
S''
sg16
S'Hmmm, falling behind already, Better get a move on! We need some funds for our war chest so you have a meeting now with some lobbyists to see if you can come to an agreement.'
p897
sbag1
(g10
g3
NtRp898
(dp899
g13
S'SetFlag'
p900
sg14
S'PA'
p901
sg15
S'STARTLOBBYISTS'
p902
sg16
S''
sbag1
(g10
g3
NtRp903
(dp904
g13
S'RequireCount'
p905
sg14
S'PA'
p906
sg15
S'LOBBYISTS:3'
p907
sg16
S'Go get those funds!'
p908
sbag1
(g10
g3
NtRp909
(dp910
g13
S'Say'
p911
sg14
S'PA'
p912
sg15
S''
sg16
S"No time for lunch! A flock of religious nuts has taken up residence in the room across the hall. You'll need to go in and...try to reason with them."
p913
sbag1
(g10
g3
NtRp914
(dp915
g13
S'RequireCount'
p916
sg14
S'PA'
p917
sg15
S'RELIGIOUSNUTS:4'
p918
sg16
S"Quick! Before the religious nuts inflict crazy on us! They're across the hall!"
p919
sbag1
(g10
g3
NtRp920
(dp921
g13
S'Say'
p922
sg14
S'PA'
p923
sg15
S''
sg16
S'Wow, you got those crazies to back us?'
p924
sbag1
(g10
g3
NtRp925
(dp926
g13
S'PlayerSay'
p927
sg14
S'PA'
p928
sg15
S''
sg16
S'And a lifetime supply of French Roast!'
p929
sbag1
(g10
g3
NtRp930
(dp931
g13
S'Say'
p932
sg14
S'PA'
p933
sg15
S''
sg16
S'Right...well, moving on, we received a very strange phonecall from the guy staying in the North East room. He was insistent that you see him today.'
p934
sbag1
(g10
g3
NtRp935
(dp936
g13
S'Say'
p937
sg14
S'PA'
p938
sg15
S''
sg16
S"OH MY GOD where have you been? We will NEVER get the schedule back on track now. Hurry, you're due to appear on the Hercules O'Grady show!"
p939
sbag1
(g10
g3
NtRp940
(dp941
g13
S'SetFlag'
p942
sg14
S'PA'
p943
sg15
S'STARTHERCULES'
p944
sg16
S''
sbag1
(g10
g3
NtRp945
(dp946
g13
S'RequireFlag'
p947
sg14
S'PA'
p948
sg15
S'BEATHERCULES'
p949
sg16
S"Look your best, get ready and don't say anything stupid! They're filming live in the south-east hotel room. Get over there, quick!"
p950
sbag1
(g10
g3
NtRp951
(dp952
g13
S'Say'
p953
sg14
S'PA'
p954
sg15
S''
sg16
S"This close to Super Tuesday, it's back-to-back TV appearances. It's time for your big debate with President Allen!"
p955
sbag1
(g10
g3
NtRp956
(dp957
g13
S'SetFlag'
p958
sg14
S'PA'
p959
sg15
S'STARTDEBATE'
p960
sg16
S''
sbag1
(g10
g3
NtRp961
(dp962
g13
S'RequireFlag'
p963
sg14
S'PA'
p964
sg15
S'DEBATECOMPLETE'
p965
sg16
S'The TV representative is waiting in the hall to take you to the studio.'
p966
sbag1
(g10
g3
NtRp967
(dp968
g13
S'Say'
p969
sg14
S'PA'
p970
sg15
S''
sg16
S'Ugh, that weird guy from the North-East room has been calling non-stop again. He insisted that you go and see him again before you do anything else.'
p971
sbag1
(g10
g3
NtRp972
(dp973
g13
S'SetFlag'
p974
sg14
S'PA'
p975
sg15
S'DEEPTHROAT2'
p976
sg16
S''
sbag1
(g10
g3
NtRp977
(dp978
g13
S'RequireFlag'
p979
sg14
S'PA'
p980
sg15
S'FINISHEDDEEPTHROAT'
p981
sg16
S"You'd best hurry! It's nearly time for the final debate. Go see that strange shady guy again."
p982
sbag1
(g10
g3
NtRp983
(dp984
g13
S'Say'
p985
sg14
S'PA'
p986
sg15
S''
sg16
S"There's nothing left to say except good luck, Governor Mossman!"
p987
sbag1
(g10
g3
NtRp988
(dp989
g13
S'Encounter'
p990
sg14
S'PA'
p991
sg15
S'P-med-23'
p992
sg16
S''
sbag1
(g10
g3
NtRp993
(dp994
g13
S'Encounter'
p995
sg14
S'PA'
p996
sg15
S'P-med-24'
p997
sg16
S''
sbag1
(g10
g3
NtRp998
(dp999
g13
S'GotoMap'
p1000
sg14
S'PA'
p1001
sg15
S'act3'
p1002
sg16
S''
sbasS'Receptionist'
p1003
(lp1004
g1
(g10
g3
NtRp1005
(dp1006
g13
S'RequireFlag'
p1007
sg14
g1003
sg15
S'PENQUEST'
p1008
sg16
S"You must be Mayor Goodman's new assistant. He's in his office."
p1009
sbag1
(g10
g3
NtRp1010
(dp1011
g13
S'PlayerSay'
p1012
sg14
S'Receptionist'
p1013
sg15
S''
sg16
S"The Mayor is looking for his pen. He seemed to think you'd know where it was."
p1014
sbag1
(g10
g3
NtRp1015
(dp1016
g13
S'Say'
p1017
sg14
S'Receptionist'
p1018
sg15
S''
sg16
S"Did that buffoon accuse me of stealing again? This is MY pen and he isn't having it."
p1019
sbag1
(g10
g3
NtRp1020
(dp1021
g13
S'Encounter'
p1022
sg14
S'Receptionist'
p1023
sg15
S'P-easy-01'
p1024
sg16
S''
sbag1
(g10
g3
NtRp1025
(dp1026
g13
S'GiveItem'
p1027
sg14
S'Receptionist'
p1028
sg15
S'PEN'
p1029
sg16
S'Receptionist sighs and hands over the pen.'
p1030
sbag1
(g10
g3
NtRp1031
(dp1032
g13
S'Destroy'
p1033
sg14
S'Receptionist'
p1034
sg15
S''
sg16
S''
sbasS'#P-med-23'
p1035
(lp1036
g1
(g10
g3
NtRp1037
(dp1038
g13
S'President'
p1039
sg14
g1035
sg15
S'You think you can take me?'
p1040
sg16
S''
sbag1
(g10
g3
NtRp1041
(dp1042
g13
S'Player'
p1043
sg14
S'#P-med-23'
p1044
sg15
S"I have to know what you're up to!"
p1045
sg16
S''
sbasS'Wife'
p1046
(lp1047
g1
(g10
g3
NtRp1048
(dp1049
g13
S'RequireFlag'
p1050
sg14
g1046
sg15
S'GOHOMETOWIFE'
p1051
sg16
S'What are you doing here, Phillip? You should be at work!'
p1052
sbag1
(g10
g3
NtRp1053
(dp1054
g13
S'Say'
p1055
sg14
S'Wife'
p1056
sg15
S''
sg16
S'Welcome home, Phillip! How was your workday?'
p1057
sbag1
(g10
g3
NtRp1058
(dp1059
g13
S'PlayerSay'
p1060
sg14
S'Wife'
p1061
sg15
S''
sg16
S'...'
p1062
sbag1
(g10
g3
NtRp1063
(dp1064
g13
S'Say'
p1065
sg14
S'Wife'
p1066
sg15
S''
sg16
S"That good, huh? You know this isn't what you want. Why don't you strike out on your own?"
p1067
sbag1
(g10
g3
NtRp1068
(dp1069
g13
S'PlayerSay'
p1070
sg14
S'Wife'
p1071
sg15
S''
sg16
S"I didn't think I knew where to start to be a Mayor, but Mayor Goodman makes it look easy."
p1072
sbag1
(g10
g3
NtRp1073
(dp1074
g13
S'Say'
p1075
sg14
S'Wife'
p1076
sg15
S''
sg16
S"That's the spirit! You can do it! All you need is some money and support."
p1077
sbag1
(g10
g3
NtRp1078
(dp1079
g13
S'PlayerSay'
p1080
sg14
S'Wife'
p1081
sg15
S''
sg16
S'Well...OK! Lets start with money. We need a sponsor.'
p1082
sbag1
(g10
g3
NtRp1083
(dp1084
g13
S'Say'
p1085
sg14
S'Wife'
p1086
sg15
S''
sg16
S'OK, lets go get one!'
p1087
sbag1
(g10
g3
NtRp1088
(dp1089
g13
S'AddAlly'
p1090
sg14
S'Wife'
p1091
sg15
S'Wife:1'
p1092
sg16
S'Sarah Mossman Joins Your Political Party!'
p1093
sbag1
(g10
g3
NtRp1094
(dp1095
g13
S'SetFlag'
p1096
sg14
S'Wife'
p1097
sg15
S'STARTSPONSOR'
p1098
sg16
S''
sbag1
(g10
g3
NtRp1099
(dp1100
g13
S'Destroy'
p1101
sg14
S'Wife'
p1102
sg15
S''
sg16
S''
sbasS'Journalist4'
p1103
(lp1104
g1
(g10
g3
NtRp1105
(dp1106
g13
S'Say'
p1107
sg14
g1103
sg15
S''
sg16
S"President Mossman, what do you believe was President Allen's failing strategy on the campaign trail. He looked like a strong platform."
p1108
sbag1
(g10
g3
NtRp1109
(dp1110
g13
S'PlayerSay'
p1111
sg14
S'Journalist4'
p1112
sg15
S''
sg16
S"Well, I'd say he went wrong when he decided to try to enslave the human race to mine the Earth's natural resources and ship them back to their home planet."
p1113
sbag1
(g10
g3
NtRp1114
(dp1115
g13
S'Say'
p1116
sg14
S'Journalist4'
p1117
sg15
S''
sg16
S'And how does that differ from your own strategy?'
p1118
sbag1
(g10
g3
NtRp1119
(dp1120
g13
S'PlayerSay'
p1121
sg14
S'Journalist4'
p1122
sg15
S''
sg16
S'I would say I disagree with the former President on all of those issues.'
p1123
sbag1
(g10
g3
NtRp1124
(dp1125
g13
S'Encounter'
p1126
sg14
S'Journalist4'
p1127
sg15
S'P-hard-02'
p1128
sg16
S''
sbag1
(g10
g3
NtRp1129
(dp1130
g13
S'Say'
p1131
sg14
S'Journalist4'
p1132
sg15
S''
sg16
S'No further questions, Mr President.'
p1133
sbag1
(g10
g3
NtRp1134
(dp1135
g13
S'Increment'
p1136
sg14
S'Journalist4'
p1137
sg15
S'PRESSCONF'
p1138
sg16
S''
sbag1
(g10
g3
NtRp1139
(dp1140
g13
S'Destroy'
p1141
sg14
S'Journalist4'
p1142
sg15
S''
sg16
S''
sbasS'Governor'
p1143
(lp1144
g1
(g10
g3
NtRp1145
(dp1146
g13
S'RequireFlag'
p1147
sg14
g1143
sg15
S'GOVPOLITICIANSFIRST'
p1148
sg16
S"I'm very busy. Please speak to the others."
p1149
sbag1
(g10
g3
NtRp1150
(dp1151
g13
S'Say'
p1152
sg14
S'Governor'
p1153
sg15
S''
sg16
S'You have quite a way with words, Mayor Mossman. Why are you here?'
p1154
sbag1
(g10
g3
NtRp1155
(dp1156
g13
S'PlayerSay'
p1157
sg14
S'Governor'
p1158
sg15
S''
sg16
S"Mayor Goodman said some troubling things, Governor Badden. I'm here to get to the bottom of it."
p1159
sbag1
(g10
g3
NtRp1160
(dp1161
g13
S'Say'
p1162
sg14
S'Governor'
p1163
sg15
S''
sg16
S"If I knew anything about what you're talking about, I wouldn't tell you. I don't trust you at all."
p1164
sbag1
(g10
g3
NtRp1165
(dp1166
g13
S'PlayerSay'
p1167
sg14
S'Governor'
p1168
sg15
S''
sg16
S'What can I do to convince you?'
p1169
sbag1
(g10
g3
NtRp1170
(dp1171
g13
S'Say'
p1172
sg14
S'Governor'
p1173
sg15
S''
sg16
S"Well...there's some hicks in the south wing that I've been dodging. They want to know about the recent funding cuts. Get rid of them."
p1174
sbag1
(g10
g3
NtRp1175
(dp1176
g13
S'SetFlag'
p1177
sg14
S'Governor'
p1178
sg15
S'STARTHICKS'
p1179
sg16
S''
sbag1
(g10
g3
NtRp1180
(dp1181
g13
S'RequireCount'
p1182
sg14
S'Governor'
p1183
sg15
S'DEALWITHHICKS:3'
p1184
sg16
S"I'm not saying another word until you get rid of the hicks in the south wing."
p1185
sbag1
(g10
g3
NtRp1186
(dp1187
g13
S'PlayerSay'
p1188
sg14
S'Governor'
p1189
sg15
S''
sg16
S"OK, I've taken care of your problem, now I want my answers."
p1190
sbag1
(g10
g3
NtRp1191
(dp1192
g13
S'Say'
p1193
sg14
S'Governor'
p1194
sg15
S''
sg16
S'No.'
p1195
sbag1
(g10
g3
NtRp1196
(dp1197
g13
S'PlayerSay'
p1198
sg14
S'Governor'
p1199
sg15
S''
sg16
S'No?'
p1200
sbag1
(g10
g3
NtRp1201
(dp1202
g13
S'Say'
p1203
sg14
S'Governor'
p1204
sg15
S''
sg16
S"No, word has come down from the top that due to the last Mayor's idiocy we're tightening the inner circle to Governors and above."
p1205
sbag1
(g10
g3
NtRp1206
(dp1207
g13
S'PlayerSay'
p1208
sg14
S'Governor'
p1209
sg15
S''
sg16
S"From the top...so you're saying the only way I'll find out what's going on is to be a governor myself?"
p1210
sbag1
(g10
g3
NtRp1211
(dp1212
g13
S'Say'
p1213
sg14
S'Governor'
p1214
sg15
S''
sg16
S"Wait...no...I said I wasn't going to tell you, I..."
p1215
sbag1
(g10
g3
NtRp1216
(dp1217
g13
S'PlayerSay'
p1218
sg14
S'Governor'
p1219
sg15
S''
sg16
S'This is it, governor. Prepare to fight for your office!'
p1220
sbag1
(g10
g3
NtRp1221
(dp1222
g13
S'Encounter'
p1223
sg14
S'Governor'
p1224
sg15
S'P-med-06'
p1225
sg16
S''
sbag1
(g10
g3
NtRp1226
(dp1227
g13
S'Say'
p1228
sg14
S'Governor'
p1229
sg15
S''
sg16
S"Nooo! President Allen doesn't deal well with defeat. What will happen to me?"
p1230
sbag1
(g10
g3
NtRp1231
(dp1232
g13
S'PlayerSay'
p1233
sg14
S'Governor'
p1234
sg15
S''
sg16
S'The President? What does he have to do with this?'
p1235
sbag1
(g10
g3
NtRp1236
(dp1237
g13
S'Say'
p1238
sg14
S'Governor'
p1239
sg15
S''
sg16
S"You really have no idea what you've gotten into, do you? Well, you've gotten all you're getting out of me. I'm getting out of here!"
p1240
sbag1
(g10
g3
NtRp1241
(dp1242
g13
S'SetFlag'
p1243
sg14
S'Governor'
p1244
sg15
S'GOVERNORDEFEATED'
p1245
sg16
S''
sbag1
(g10
g3
NtRp1246
(dp1247
g13
S'Destroy'
p1248
sg14
S'Governor'
p1249
sg15
S''
sg16
S''
sbasS'Politician1'
p1250
(lp1251
g1
(g10
g3
NtRp1252
(dp1253
g13
S'Say'
p1254
sg14
g1250
sg15
S''
sg16
S"I'm sorry Mayor Mossman, the Governor cannot see you now. He's very busy"
p1255
sbag1
(g10
g3
NtRp1256
(dp1257
g13
S'PlayerSay'
p1258
sg14
S'Politician1'
p1259
sg15
S''
sg16
S"It's very important. I need to understand what Mayor Goodman was talking about. It was clear there were other powers at play."
p1260
sbag1
(g10
g3
NtRp1261
(dp1262
g13
S'Say'
p1263
sg14
S'Politician1'
p1264
sg15
S''
sg16
S'Yes well, I fail to see how your country spat has anything to do with Governer Badden.'
p1265
sbag1
(g10
g3
NtRp1266
(dp1267
g13
S'Encounter'
p1268
sg14
S'Politician1'
p1269
sg15
S'P-med-01'
p1270
sg16
S''
sbag1
(g10
g3
NtRp1271
(dp1272
g13
S'Say'
p1273
sg14
S'Politician1'
p1274
sg15
S''
sg16
S'Fair point. The governor will see you now.'
p1275
sbag1
(g10
g3
NtRp1276
(dp1277
g13
S'Destroy'
p1278
sg14
S'Politician1'
p1279
sg15
S''
sg16
S''
sbasS'Lobbyist4'
p1280
(lp1281
g1
(g10
g3
NtRp1282
(dp1283
g13
S'RequireFlag'
p1284
sg14
g1280
sg15
S'STARTLOBBYISTS'
p1285
sg16
S'Please tend to your other meetings so that we can see you.'
p1286
sbag1
(g10
g3
NtRp1287
(dp1288
g13
S'Say'
p1289
sg14
S'Lobbyist4'
p1290
sg15
S''
sg16
S"Storyteller's Guild"
p1291
sbag1
(g10
g3
NtRp1292
(dp1293
g13
S'Encounter'
p1294
sg14
S'Lobbyist4'
p1295
sg15
S'P-med-14'
p1296
sg16
S''
sbag1
(g10
g3
NtRp1297
(dp1298
g13
S'Increment'
p1299
sg14
S'Lobbyist4'
p1300
sg15
S'LOBBYISTS'
p1301
sg16
S''
sbag1
(g10
g3
NtRp1302
(dp1303
g13
S'Say'
p1304
sg14
S'Lobbyist4'
p1305
sg15
S''
sg16
S"It's a start."
p1306
sbag1
(g10
g3
NtRp1307
(dp1308
g13
S'Destroy'
p1309
sg14
S'Lobbyist4'
p1310
sg15
S''
sg16
S''
sbasS'Politician3'
p1311
(lp1312
g1
(g10
g3
NtRp1313
(dp1314
g13
S'RequireFlag'
p1315
sg14
g1311
sg15
S'STARTPOLITICIANSHAKEDOWN'
p1316
sg16
S'Good morning, Governor Mossman. Your PA will know your schedule. He is waiting in your room.'
p1317
sbag1
(g10
g3
NtRp1318
(dp1319
g13
S'Say'
p1320
sg14
S'Politician3'
p1321
sg15
S''
sg16
S"We must all agree that the most important thing is science! If we're not for science, what's the point."
p1322
sbag1
(g10
g3
NtRp1323
(dp1324
g13
S'PlayerSay'
p1325
sg14
S'Politician3'
p1326
sg15
S''
sg16
S'Why science?'
p1327
sbag1
(g10
g3
NtRp1328
(dp1329
g13
S'Say'
p1330
sg14
S'Politician3'
p1331
sg15
S''
sg16
S'Science!'
p1332
sbag1
(g10
g3
NtRp1333
(dp1334
g13
S'PlayerSay'
p1335
sg14
S'Politician3'
p1336
sg15
S''
sg16
S"There's a lot of great things we can do for science but the funding will need to be shared with health and education and..."
p1337
sbag1
(g10
g3
NtRp1338
(dp1339
g13
S'Say'
p1340
sg14
S'Politician3'
p1341
sg15
S''
sg16
S'No! Science!!!'
p1342
sbag1
(g10
g3
NtRp1343
(dp1344
g13
S'Encounter'
p1345
sg14
S'Politician3'
p1346
sg15
S'P-med-07'
p1347
sg16
S''
sbag1
(g10
g3
NtRp1348
(dp1349
g13
S'Say'
p1350
sg14
S'Politician3'
p1351
sg15
S''
sg16
S'Alright, fine! A balanced platform (but mostly science).'
p1352
sbag1
(g10
g3
NtRp1353
(dp1354
g13
S'Increment'
p1355
sg14
S'Politician3'
p1356
sg15
S'POLITICIANSHAKEDOWN'
p1357
sg16
S''
sbag1
(g10
g3
NtRp1358
(dp1359
g13
S'Destroy'
p1360
sg14
S'Politician3'
p1361
sg15
S''
sg16
S''
sbasS'Politician2'
p1362
(lp1363
g1
(g10
g3
NtRp1364
(dp1365
g13
S'Say'
p1366
sg14
g1362
sg15
S''
sg16
S'What are you doing in here? Who are you? Some Mayor?'
p1367
sbag1
(g10
g3
NtRp1368
(dp1369
g13
S'PlayerSay'
p1370
sg14
S'Politician2'
p1371
sg15
S''
sg16
S"I am Mayor Phillip Mossman. I'm here to speak to the Governor."
p1372
sbag1
(g10
g3
NtRp1373
(dp1374
g13
S'Say'
p1375
sg14
S'Politician2'
p1376
sg15
S''
sg16
S"I'm afraid the Governor's schedule is very tight. Come back next month."
p1377
sbag1
(g10
g3
NtRp1378
(dp1379
g13
S'Encounter'
p1380
sg14
S'Politician2'
p1381
sg15
S'P-med-02'
p1382
sg16
S''
sbag1
(g10
g3
NtRp1383
(dp1384
g13
S'Say'
p1385
sg14
S'Politician2'
p1386
sg15
S''
sg16
S'I see. Well, maybe we can squeeze you in.'
p1387
sbag1
(g10
g3
NtRp1388
(dp1389
g13
S'SetFlag'
p1390
sg14
S'Politician2'
p1391
sg15
S'GOVPOLITICIANSFIRST'
p1392
sg16
S''
sbag1
(g10
g3
NtRp1393
(dp1394
g13
S'Destroy'
p1395
sg14
S'Politician2'
p1396
sg15
S''
sg16
S''
sbasS'Politician5'
p1397
(lp1398
g1
(g10
g3
NtRp1399
(dp1400
g13
S'RequireFlag'
p1401
sg14
g1397
sg15
S'STARTPOLITICIANSHAKEDOWN'
p1402
sg16
S'Good morning, Governor Mossman. Your PA will know your schedule. He is waiting in your room.'
p1403
sbag1
(g10
g3
NtRp1404
(dp1405
g13
S'Say'
p1406
sg14
S'Politician5'
p1407
sg15
S''
sg16
S'Big business!'
p1408
sbag1
(g10
g3
NtRp1409
(dp1410
g13
S'PlayerSay'
p1411
sg14
S'Politician5'
p1412
sg15
S''
sg16
S'What about big business.'
p1413
sbag1
(g10
g3
NtRp1414
(dp1415
g13
S'Say'
p1416
sg14
S'Politician5'
p1417
sg15
S''
sg16
S'...MORE big business!'
p1418
sbag1
(g10
g3
NtRp1419
(dp1420
g13
S'PlayerSay'
p1421
sg14
S'Politician5'
p1422
sg15
S''
sg16
S'You want to grow our business sector? Provide more jobs?'
p1423
sbag1
(g10
g3
NtRp1424
(dp1425
g13
S'Say'
p1426
sg14
S'Politician5'
p1427
sg15
S''
sg16
S'...Yeeeeh. Yes. Yes, that.'
p1428
sbag1
(g10
g3
NtRp1429
(dp1430
g13
S'PlayerSay'
p1431
sg14
S'Politician5'
p1432
sg15
S''
sg16
S'What about small business?'
p1433
sbag1
(g10
g3
NtRp1434
(dp1435
g13
S'Say'
p1436
sg14
S'Politician5'
p1437
sg15
S''
sg16
S'No! We need to make it BIGGER!'
p1438
sbag1
(g10
g3
NtRp1439
(dp1440
g13
S'Encounter'
p1441
sg14
S'Politician5'
p1442
sg15
S'P-med-09'
p1443
sg16
S''
sbag1
(g10
g3
NtRp1444
(dp1445
g13
S'Say'
p1446
sg14
S'Politician5'
p1447
sg15
S''
sg16
S"OK, I see what you're getting at. Lets help small business to grow."
p1448
sbag1
(g10
g3
NtRp1449
(dp1450
g13
S'Increment'
p1451
sg14
S'Politician5'
p1452
sg15
S'POLITICIANSHAKEDOWN'
p1453
sg16
S''
sbag1
(g10
g3
NtRp1454
(dp1455
g13
S'Destroy'
p1456
sg14
S'Politician5'
p1457
sg15
S''
sg16
S''
sbasS'Journalist'
p1458
(lp1459
g1
(g10
g3
NtRp1460
(dp1461
g13
S'RequireFlag'
p1462
sg14
g1458
sg15
S'INTERVIEWSTART'
p1463
sg16
S'Leave me alone, kid I need to get this done before my deadline!'
p1464
sbag1
(g10
g3
NtRp1465
(dp1466
g13
S'Say'
p1467
sg14
S'Journalist'
p1468
sg15
S''
sg16
S"Hey, where's the Mayor?"
p1469
sbag1
(g10
g3
NtRp1470
(dp1471
g13
S'PlayerSay'
p1472
sg14
S'Journalist'
p1473
sg15
S''
sg16
S"He couldn't make it. I'll be taking the interview."
p1474
sbag1
(g10
g3
NtRp1475
(dp1476
g13
S'Say'
p1477
sg14
S'Journalist'
p1478
sg15
S''
sg16
S'Great! Easy pickings! Lets go.'
p1479
sbag1
(g10
g3
NtRp1480
(dp1481
g13
S'Encounter'
p1482
sg14
S'Journalist'
p1483
sg15
S'P-easy-05'
p1484
sg16
S''
sbag1
(g10
g3
NtRp1485
(dp1486
g13
S'Say'
p1487
sg14
S'Journalist'
p1488
sg15
S''
sg16
S"SNORE! Fine, if I can't get anything juicy here I'll do another puff piece on my poodle Frank."
p1489
sbag1
(g10
g3
NtRp1490
(dp1491
g13
S'SetFlag'
p1492
sg14
S'Journalist'
p1493
sg15
S'JOURNALISTINTERVIEW'
p1494
sg16
S''
sbag1
(g10
g3
NtRp1495
(dp1496
g13
S'Destroy'
p1497
sg14
S'Journalist'
p1498
sg15
S''
sg16
S''
sbasS'#----------------------------------------------------------------------------------------ACT 2 \xe2\x80\x93 Part 2---------------------------------------------------------------------------------------------------------------------------------------------------'
p1499
(lp1500
g1
(g10
g3
NtRp1501
(dp1502
g13
S''
sg14
g1499
sg15
S''
sg16
S''
sbasS'Politician6'
p1503
(lp1504
g1
(g10
g3
NtRp1505
(dp1506
g13
S'RequireFlag'
p1507
sg14
g1503
sg15
S'STARTPOLITICIANSHAKEDOWN'
p1508
sg16
S'Good morning, Governor Mossman. Your PA will know your schedule. He is waiting in your room.'
p1509
sbag1
(g10
g3
NtRp1510
(dp1511
g13
S'Say'
p1512
sg14
S'Politician6'
p1513
sg15
S''
sg16
S'We should be all about not wasting money'
p1514
sbag1
(g10
g3
NtRp1515
(dp1516
g13
S'PlayerSay'
p1517
sg14
S'Politician6'
p1518
sg15
S''
sg16
S'Sounds fair. Wasting money on what?'
p1519
sbag1
(g10
g3
NtRp1520
(dp1521
g13
S'Say'
p1522
sg14
S'Politician6'
p1523
sg15
S''
sg16
S"You know, stuff that doesn't really help like artsy stuff."
p1524
sbag1
(g10
g3
NtRp1525
(dp1526
g13
S'PlayerSay'
p1527
sg14
S'Politician6'
p1528
sg15
S''
sg16
S"You don't think we should invest in our culture?"
p1529
sbag1
(g10
g3
NtRp1530
(dp1531
g13
S'Say'
p1532
sg14
S'Politician6'
p1533
sg15
S''
sg16
S'We have more important things to spend our money on. Like military.'
p1534
sbag1
(g10
g3
NtRp1535
(dp1536
g13
S'PlayerSay'
p1537
sg14
S'Politician6'
p1538
sg15
S''
sg16
S'What if people want to paint pictures about our military. Or write patriotic songs?'
p1539
sbag1
(g10
g3
NtRp1540
(dp1541
g13
S'Say'
p1542
sg14
S'Politician6'
p1543
sg15
S''
sg16
S"I hadn't thought of that..."
p1544
sbag1
(g10
g3
NtRp1545
(dp1546
g13
S'Encounter'
p1547
sg14
S'Politician6'
p1548
sg15
S'P-med-10'
p1549
sg16
S''
sbag1
(g10
g3
NtRp1550
(dp1551
g13
S'Say'
p1552
sg14
S'Politician6'
p1553
sg15
S''
sg16
S"So, militaristic march songs and battle scenes aren't the only sort of art? Wow."
p1554
sbag1
(g10
g3
NtRp1555
(dp1556
g13
S'Increment'
p1557
sg14
S'Politician6'
p1558
sg15
S'POLITICIANSHAKEDOWN'
p1559
sg16
S''
sbag1
(g10
g3
NtRp1560
(dp1561
g13
S'Destroy'
p1562
sg14
S'Politician6'
p1563
sg15
S''
sg16
S''
sbasS'Journalist3'
p1564
(lp1565
g1
(g10
g3
NtRp1566
(dp1567
g13
S'Say'
p1568
sg14
g1564
sg15
S''
sg16
S'Mr President, Cal from Daily LOL magazine. Can you explain the transformation that occurred during the presidential debate.'
p1569
sbag1
(g10
g3
NtRp1570
(dp1571
g13
S'PlayerSay'
p1572
sg14
S'Journalist3'
p1573
sg15
S''
sg16
S'Certainly, Cal. The President of the Ignited States turned into an alien.'
p1574
sbag1
(g10
g3
NtRp1575
(dp1576
g13
S'Say'
p1577
sg14
S'Journalist3'
p1578
sg15
S''
sg16
S"Ah, you mean to say he's out-of-touch with his people?"
p1579
sbag1
(g10
g3
NtRp1580
(dp1581
g13
S'PlayerSay'
p1582
sg14
S'Journalist3'
p1583
sg15
S''
sg16
S'Not exactly...'
p1584
sbag1
(g10
g3
NtRp1585
(dp1586
g13
S'Encounter'
p1587
sg14
S'Journalist3'
p1588
sg15
S'P-hard-01'
p1589
sg16
S''
sbag1
(g10
g3
NtRp1590
(dp1591
g13
S'Say'
p1592
sg14
S'Journalist3'
p1593
sg15
S''
sg16
S'I...see...'
p1594
sbag1
(g10
g3
NtRp1595
(dp1596
g13
S'Increment'
p1597
sg14
S'Journalist3'
p1598
sg15
S'PRESSCONF'
p1599
sg16
S''
sbag1
(g10
g3
NtRp1600
(dp1601
g13
S'Destroy'
p1602
sg14
S'Journalist3'
p1603
sg15
S''
sg16
S''
sbasS'PA2'
p1604
(lp1605
g1
(g10
g3
NtRp1606
(dp1607
g13
S'Say'
p1608
sg14
g1604
sg15
S''
sg16
S"Welcome to the White House, President Mossman. It was a long campaign trail with a very strange final debate, but we won and we're here."
p1609
sbag1
(g10
g3
NtRp1610
(dp1611
g13
S'Say'
p1612
sg14
S'PA2'
p1613
sg15
S''
sg16
S'Now is the real test where we see how well we can run a country.'
p1614
sbag1
(g10
g3
NtRp1615
(dp1616
g13
S'Say'
p1617
sg14
S'PA2'
p1618
sg15
S''
sg16
S'The first step is to give your first press conference as President to explain the...situation...with President Alien *cough* I mean Allen.'
p1619
sbag1
(g10
g3
NtRp1620
(dp1621
g13
S'RequireCount'
p1622
sg14
S'PA2'
p1623
sg15
S'PRESSCONF:3'
p1624
sg16
S"They're waiting for you in the Press Room, Mr President."
p1625
sbag1
(g10
g3
NtRp1626
(dp1627
g13
S'Say'
p1628
sg14
S'PA2'
p1629
sg15
S''
sg16
S'I think that went as well as could be expected.'
p1630
sbag1
(g10
g3
NtRp1631
(dp1632
g13
S'Say'
p1633
sg14
S'PA2'
p1634
sg15
S''
sg16
S'Your secret service detail is waiting over here in the corridor to have a word with you about security protocol.'
p1635
sbag1
(g10
g3
NtRp1636
(dp1637
g13
S'RequireFlag'
p1638
sg14
S'PA2'
p1639
sg15
S'KAWALSKIJOIN'
p1640
sg16
S"You'd better speak to the secret service agent. Your security is paramount."
p1641
sbag1
(g10
g3
NtRp1642
(dp1643
g13
S'Say'
p1644
sg14
S'PA2'
p1645
sg15
S''
sg16
S"Some war veterans would like to speak to you about some recent decisions you've made. I don't dare turn them away. You'd better speak to them."
p1646
sbag1
(g10
g3
NtRp1647
(dp1648
g13
S'PlayerSay'
p1649
sg14
S'PA2'
p1650
sg15
S''
sg16
S'Of course.'
p1651
sbag1
(g10
g3
NtRp1652
(dp1653
g13
S'RequireCount'
p1654
sg14
S'PA2'
p1655
sg15
S'WARVETS:2'
p1656
sg16
S''
sbag1
(g10
g3
NtRp1657
(dp1658
g13
S'Say'
p1659
sg14
S'PA2'
p1660
sg15
S''
sg16
S'What was that about?'
p1661
sbag1
(g10
g3
NtRp1662
(dp1663
g13
S'PlayerSay'
p1664
sg14
S'PA2'
p1665
sg15
S''
sg16
S"I'd like to know as well. Find me the documents that ordered troop movement today and get me a meeting with the Joint Chiefs."
p1666
sbasS'Journalist5'
p1667
(lp1668
g1
(g10
g3
NtRp1669
(dp1670
g13
S'Say'
p1671
sg14
g1667
sg15
S''
sg16
S'Do you feel that a bi-partisan relationship will be possible between your party and the opposition?'
p1672
sbag1
(g10
g3
NtRp1673
(dp1674
g13
S'PlayerSay'
p1675
sg14
S'Journalist5'
p1676
sg15
S''
sg16
S'I suppose once we find and remove all of the aliens and reverse the alien brainwashing, bi-partisanship will resume.'
p1677
sbag1
(g10
g3
NtRp1678
(dp1679
g13
S'Encounter'
p1680
sg14
S'Journalist5'
p1681
sg15
S'P-hard-03'
p1682
sg16
S''
sbag1
(g10
g3
NtRp1683
(dp1684
g13
S'Say'
p1685
sg14
S'Journalist5'
p1686
sg15
S''
sg16
S'Thankyou, President Mossman.'
p1687
sbag1
(g10
g3
NtRp1688
(dp1689
g13
S'Increment'
p1690
sg14
S'Journalist5'
p1691
sg15
S'PRESSCONF'
p1692
sg16
S''
sbag1
(g10
g3
NtRp1693
(dp1694
g13
S'Destroy'
p1695
sg14
S'Journalist5'
p1696
sg15
S''
sg16
S''
sbasS'Journalist2'
p1697
(lp1698
g1
(g10
g3
NtRp1699
(dp1700
g13
S'RequireFlag'
p1701
sg14
g1697
sg15
S'STARTHICKS2'
p1702
sg16
S'Governor Badden sends his Mayor lacky to do his dirty work \xe2\x80\x93 what a scoop!'
p1703
sbag1
(g10
g3
NtRp1704
(dp1705
g13
S'Encounter'
p1706
sg14
S'Journalist2'
p1707
sg15
S'P-med-05'
p1708
sg16
S''
sbag1
(g10
g3
NtRp1709
(dp1710
g13
S'Say'
p1711
sg14
S'Journalist2'
p1712
sg15
S''
sg16
S"I'm going back to write a comparison piece on you and Governor Badden. You should consider running for Governor."
p1713
sbag1
(g10
g3
NtRp1714
(dp1715
g13
S'Increment'
p1716
sg14
S'Journalist2'
p1717
sg15
S'DEALWITHHICKS'
p1718
sg16
S''
sbag1
(g10
g3
NtRp1719
(dp1720
g13
S'Destroy'
p1721
sg14
S'Journalist2'
p1722
sg15
S''
sg16
S''
sbasS'#P-med-24'
p1723
(lp1724
g1
(g10
g3
NtRp1725
(dp1726
g13
S'PresidentAlien'
p1727
sg14
g1723
sg15
S"You think you've beaten me, but now you're going to fight the real me!"
p1728
sg16
S''
sbag1
(g10
g3
NtRp1729
(dp1730
g13
S'Player'
p1731
sg14
S'#P-med-24'
p1732
sg15
S'I knew something was wrong, but this...?'
p1733
sg16
S''
sbag1
(g10
g3
NtRp1734
(dp1735
g13
S'PresidentAlien'
p1736
sg14
S'#P-med-24'
p1737
sg15
S"All you've done is caused me to expedite my plans to enslave the human race!"
p1738
sg16
S''
sbasS'TVPersonality'
p1739
(lp1740
g1
(g10
g3
NtRp1741
(dp1742
g13
S'RequireFlag'
p1743
sg14
g1739
sg15
S'STARTHERCULES'
p1744
sg16
S"Ooooh, sorry Mossman, baby! We're not ready for you yet."
p1745
sbag1
(g10
g3
NtRp1746
(dp1747
g13
S'Say'
p1748
sg14
S'TVPersonality'
p1749
sg15
S''
sg16
S"There's the man! Are you ready to cross wits with The Mighty Hercules!"
p1750
sbag1
(g10
g3
NtRp1751
(dp1752
g13
S'PlayerSay'
p1753
sg14
S'TVPersonality'
p1754
sg15
S''
sg16
S'I sure am!'
p1755
sbag1
(g10
g3
NtRp1756
(dp1757
g13
S'Say'
p1758
sg14
S'TVPersonality'
p1759
sg15
S''
sg16
S"Really...? You don't want to...see your make-up artist?"
p1760
sbag1
(g10
g3
NtRp1761
(dp1762
g13
S'PlayerSay'
p1763
sg14
S'TVPersonality'
p1764
sg15
S''
sg16
S"No, no, I'm really ready."
p1765
sbag1
(g10
g3
NtRp1766
(dp1767
g13
S'Say'
p1768
sg14
S'TVPersonality'
p1769
sg15
S''
sg16
S'Suit yourself...and from the looks of it, suiting yourself is exactly what you did...ew.'
p1770
sbag1
(g10
g3
NtRp1771
(dp1772
g13
S'Encounter'
p1773
sg14
S'TVPersonality'
p1774
sg15
S'P-med-20'
p1775
sg16
S''
sbag1
(g10
g3
NtRp1776
(dp1777
g13
S'Say'
p1778
sg14
S'TVPersonality'
p1779
sg15
S''
sg16
S"Good show, you sure gave me a run for my money, now beat it, you're making me look bad!"
p1780
sbag1
(g10
g3
NtRp1781
(dp1782
g13
S'SetFlag'
p1783
sg14
S'TVPersonality'
p1784
sg15
S'BEATHERCULES'
p1785
sg16
S''
sbag1
(g10
g3
NtRp1786
(dp1787
g13
S'Destroy'
p1788
sg14
S'TVPersonality'
p1789
sg15
S''
sg16
S''
sbasS'Protester2'
p1790
(lp1791
g1
(g10
g3
NtRp1792
(dp1793
g13
S'Say'
p1794
sg14
g1790
sg15
S''
sg16
S"Bees buzz, Mayors lie, who's this Phillip Mossman guy?"
p1795
sbag1
(g10
g3
NtRp1796
(dp1797
g13
S'RequireFlag'
p1798
sg14
S'Protester2'
p1799
sg15
S'PROTESTORS'
p1800
sg16
S''
sbag1
(g10
g3
NtRp1801
(dp1802
g13
S'Encounter'
p1803
sg14
S'Protester2'
p1804
sg15
S'P-easy-03'
p1805
sg16
S''
sbag1
(g10
g3
NtRp1806
(dp1807
g13
S'Destroy'
p1808
sg14
S'Protester2'
p1809
sg15
S''
sg16
S''
sbasS'Protester1'
p1810
(lp1811
g1
(g10
g3
NtRp1812
(dp1813
g13
S'Say'
p1814
sg14
g1810
sg15
S''
sg16
S"Fee Fi Fo Fum, we think Mayor Goodman's Dumb!"
p1815
sbag1
(g10
g3
NtRp1816
(dp1817
g13
S'RequireFlag'
p1818
sg14
S'Protester1'
p1819
sg15
S'PROTESTORS'
p1820
sg16
S''
sbag1
(g10
g3
NtRp1821
(dp1822
g13
S'Encounter'
p1823
sg14
S'Protester1'
p1824
sg15
S'P-easy-02'
p1825
sg16
S''
sbag1
(g10
g3
NtRp1826
(dp1827
g13
S'Destroy'
p1828
sg14
S'Protester1'
p1829
sg15
S''
sg16
S''
sbasS'#----------------------------------------------------------------------------------------ACT 2 \xe2\x80\x93 Part 1---------------------------------------------------------------------------------------------------------------------------------------------------'
p1830
(lp1831
g1
(g10
g3
NtRp1832
(dp1833
g13
S''
sg14
g1830
sg15
S''
sg16
S''
sbasS'Head Protester'
p1834
(lp1835
g1
(g10
g3
NtRp1836
(dp1837
g13
S'Say'
p1838
sg14
g1834
sg15
S''
sg16
S"I am the head protester. You'll never convince us to back down!"
p1839
sbag1
(g10
g3
NtRp1840
(dp1841
g13
S'RequireFlag'
p1842
sg14
S'Head Protester'
p1843
sg15
S'PROTESTORS'
p1844
sg16
S''
sbag1
(g10
g3
NtRp1845
(dp1846
g13
S'PlayerSay'
p1847
sg14
S'Head Protester'
p1848
sg15
S''
sg16
S'What are you protesting?'
p1849
sbag1
(g10
g3
NtRp1850
(dp1851
g13
S'Say'
p1852
sg14
S'Head Protester'
p1853
sg15
S''
sg16
S'Er...Injustice!'
p1854
sbag1
(g10
g3
NtRp1855
(dp1856
g13
S'PlayerSay'
p1857
sg14
S'Head Protester'
p1858
sg15
S''
sg16
S'Injustice against what?'
p1859
sbag1
(g10
g3
NtRp1860
(dp1861
g13
S'Say'
p1862
sg14
S'Head Protester'
p1863
sg15
S''
sg16
S'...'
p1864
sbag1
(g10
g3
NtRp1865
(dp1866
g13
S'Say'
p1867
sg14
S'Head Protester'
p1868
sg15
S''
sg16
S'The People!'
p1869
sbag1
(g10
g3
NtRp1870
(dp1871
g13
S'PlayerSay'
p1872
sg14
S'Head Protester'
p1873
sg15
S''
sg16
S'Yes, but which people?'
p1874
sbag1
(g10
g3
NtRp1875
(dp1876
g13
S'Say'
p1877
sg14
S'Head Protester'
p1878
sg15
S''
sg16
S'See? What a fascist, ALL people you slimey politician scum!'
p1879
sbag1
(g10
g3
NtRp1880
(dp1881
g13
S'Encounter'
p1882
sg14
S'Head Protester'
p1883
sg15
S'P-easy-04'
p1884
sg16
S''
sbag1
(g10
g3
NtRp1885
(dp1886
g13
S'Say'
p1887
sg14
S'Head Protester'
p1888
sg15
S''
sg16
S"Alright, fine! We'll stop protesting...whatever we were protesting."
p1889
sbag1
(g10
g3
NtRp1890
(dp1891
g13
S'SetFlag'
p1892
sg14
S'Head Protester'
p1893
sg15
S'PROTESTORSDEAD'
p1894
sg16
S''
sbag1
(g10
g3
NtRp1895
(dp1896
g13
S'Destroy'
p1897
sg14
S'Head Protester'
p1898
sg15
S''
sg16
S''
sbasS'Sponsor'
p1899
(lp1900
g1
(g10
g3
NtRp1901
(dp1902
g13
S'RequireFlag'
p1903
sg14
g1899
sg15
S'STARTSPONSOR'
p1904
sg16
S"Hmmm...Money, money, money. Sorry, what? I wasn't talking to you."
p1905
sbag1
(g10
g3
NtRp1906
(dp1907
g13
S'Say'
p1908
sg14
S'Sponsor'
p1909
sg15
S''
sg16
S"Hello, I'm investigating new investments today. How can I help you?"
p1910
sbag1
(g10
g3
NtRp1911
(dp1912
g13
S'PlayerSay'
p1913
sg14
S'Sponsor'
p1914
sg15
S''
sg16
S"Well, I've decided to run for Mayor! I could really use an investor."
p1915
sbag1
(g10
g3
NtRp1916
(dp1917
g13
S'Say'
p1918
sg14
S'Sponsor'
p1919
sg15
S''
sg16
S"I don't know. You seem a little young. I don't think I'm convinced."
p1920
sbag1
(g10
g3
NtRp1921
(dp1922
g13
S'Encounter'
p1923
sg14
S'Sponsor'
p1924
sg15
S'P-easy-06'
p1925
sg16
S''
sbag1
(g10
g3
NtRp1926
(dp1927
g13
S'Say'
p1928
sg14
S'Sponsor'
p1929
sg15
S''
sg16
S"Wow! You sure have what it takes! Alright, he's a pile of cash!"
p1930
sbag1
(g10
g3
NtRp1931
(dp1932
g13
S'Say'
p1933
sg14
S'Sponsor'
p1934
sg15
S''
sg16
S'Also, now that you have some funds, you might find it useful to...grease the wheels in some difficult situations.'
p1935
sbag1
(g10
g3
NtRp1936
(dp1937
g13
S'LearnAttack'
p1938
sg14
S'Sponsor'
p1939
sg15
S'BRIBE'
p1940
sg16
S'Phillip and Sarah learn to Bribe'
p1941
sbag1
(g10
g3
NtRp1942
(dp1943
g13
S'LearnAttack'
p1944
sg14
S'Sponsor'
p1945
sg15
S'Wife:BRIBE'
p1946
sg16
S''
sbag1
(g10
g3
NtRp1947
(dp1948
g13
S'SetFlag'
p1949
sg14
S'Sponsor'
p1950
sg15
S'STARTCONSTITUENTS'
p1951
sg16
S''
sbag1
(g10
g3
NtRp1952
(dp1953
g13
S'PlayerSay'
p1954
sg14
S'Sponsor'
p1955
sg15
S''
sg16
S'Er, thanks! I suppose we should go gather some support from our constituents now.'
p1956
sbag1
(g10
g3
NtRp1957
(dp1958
g13
S'Say'
p1959
sg14
S'Sponsor'
p1960
sg15
S''
sg16
S"Makes sense to me! I'm off, too. Money, money, money."
p1961
sbag1
(g10
g3
NtRp1962
(dp1963
g13
S'Destroy'
p1964
sg14
S'Sponsor'
p1965
sg15
S''
sg16
S''
sbasS'CheatAct2P2'
p1966
(lp1967
g1
(g10
g3
NtRp1968
(dp1969
g13
S'AddAlly'
p1970
sg14
g1966
sg15
S'Wife:1'
p1971
sg16
S''
sbag1
(g10
g3
NtRp1972
(dp1973
g13
S'LearnAttack'
p1974
sg14
S'CheatAct2P2'
p1975
sg15
S'BRIBE'
p1976
sg16
S''
sbag1
(g10
g3
NtRp1977
(dp1978
g13
S'LearnAttack'
p1979
sg14
S'CheatAct2P2'
p1980
sg15
S'Wife:BRIBE'
p1981
sg16
S''
sbag1
(g10
g3
NtRp1982
(dp1983
g13
S'LearnAttack'
p1984
sg14
S'CheatAct2P2'
p1985
sg15
S'SLANDER'
p1986
sg16
S''
sbag1
(g10
g3
NtRp1987
(dp1988
g13
S'AddAlly'
p1989
sg14
S'CheatAct2P2'
p1990
sg15
S'Leo:1'
p1991
sg16
S''
sbag1
(g10
g3
NtRp1992
(dp1993
g13
S'GotoMap'
p1994
sg14
S'CheatAct2P2'
p1995
sg15
S'act2campaign'
p1996
sg16
S''
sbasS'P-med-12'
p1997
(lp1998
g1
(g10
g3
NtRp1999
(dp2000
g13
S'Say'
p2001
sg14
g1997
sg15
S'Lobbyist001'
p2002
sg16
S'import combat'
p2003
sbasS'Lobbyist3'
p2004
(lp2005
g1
(g10
g3
NtRp2006
(dp2007
g13
S'RequireFlag'
p2008
sg14
g2004
sg15
S'STARTLOBBYISTS'
p2009
sg16
S'Mutter, mutter'
p2010
sbag1
(g10
g3
NtRp2011
(dp2012
g13
S'Say'
p2013
sg14
S'Lobbyist3'
p2014
sg15
S''
sg16
S'Protection of internet memes'
p2015
sbag1
(g10
g3
NtRp2016
(dp2017
g13
S'Encounter'
p2018
sg14
S'Lobbyist3'
p2019
sg15
S'P-med-13'
p2020
sg16
S''
sbag1
(g10
g3
NtRp2021
(dp2022
g13
S'Increment'
p2023
sg14
S'Lobbyist3'
p2024
sg15
S'LOBBYISTS'
p2025
sg16
S''
sbag1
(g10
g3
NtRp2026
(dp2027
g13
S'Say'
p2028
sg14
S'Lobbyist3'
p2029
sg15
S''
sg16
S"It's a start."
p2030
sbag1
(g10
g3
NtRp2031
(dp2032
g13
S'Destroy'
p2033
sg14
S'Lobbyist3'
p2034
sg15
S''
sg16
S''
sbasS'Mayor'
p2035
(lp2036
g1
(g10
g3
NtRp2037
(dp2038
g13
S'Say'
p2039
sg14
g2035
sg15
S''
sg16
S"Hello, I'm the Mayor!"
p2040
sbag1
(g10
g3
NtRp2041
(dp2042
g13
S'PlayerSay'
p2043
sg14
S'Mayor'
p2044
sg15
S''
sg16
S"Hello, Mayor Goodman, I'm Philip Mossman."
p2045
sbag1
(g10
g3
NtRp2046
(dp2047
g13
S'Say'
p2048
sg14
S'Mayor'
p2049
sg15
S''
sg16
S"Ah yes, you're my new assistant. A good thing, too."
p2050
sbag1
(g10
g3
NtRp2051
(dp2052
g13
S'Say'
p2053
sg14
S'Mayor'
p2054
sg15
S''
sg16
S"I've been searching for minutes and haven't been able to find my pen! I bet my receptionist stole it. She has sticky fingers."
p2055
sbag1
(g10
g3
NtRp2056
(dp2057
g13
S'Say'
p2058
sg14
S'Mayor'
p2059
sg15
S''
sg16
S"Well, don't just stand there, go and get it!"
p2060
sbag1
(g10
g3
NtRp2061
(dp2062
g13
S'SetFlag'
p2063
sg14
S'Mayor'
p2064
sg15
S'PENQUEST'
p2065
sg16
S''
sbag1
(g10
g3
NtRp2066
(dp2067
g13
S'RequireItem'
p2068
sg14
S'Mayor'
p2069
sg15
S'PEN'
p2070
sg16
S'Are you simple? Go and get my pen from that thieving receptionist.'
p2071
sbag1
(g10
g3
NtRp2072
(dp2073
g13
S'Say'
p2074
sg14
S'Mayor'
p2075
sg15
S''
sg16
S"Great! I know she can give you a bit of a tongue-lashing, but she's a fantastic receptionist."
p2076
sbag1
(g10
g3
NtRp2077
(dp2078
g13
S'Say'
p2079
sg14
S'Mayor'
p2080
sg15
S''
sg16
S"You seem a little down, don't take her to heart"
p2081
sbag1
(g10
g3
NtRp2082
(dp2083
g13
S'RestoreVotes'
p2084
sg14
S'Mayor'
p2085
sg15
S''
sg16
S'Mayor Goodman restores votes.'
p2086
sbag1
(g10
g3
NtRp2087
(dp2088
g13
S'Say'
p2089
sg14
S'Mayor'
p2090
sg15
S''
sg16
S"I'm sure you want to learn a thing or two about politics \xe2\x80\x93 who doesn't? - so lets get started"
p2091
sbag1
(g10
g3
NtRp2092
(dp2093
g13
S'SetFlag'
p2094
sg14
S'Mayor'
p2095
sg15
S'PROTESTORS'
p2096
sg16
S''
sbag1
(g10
g3
NtRp2097
(dp2098
g13
S'RequireFlag'
p2099
sg14
S'Mayor'
p2100
sg15
S'PROTESTORSDEAD'
p2101
sg16
S'Run outside and tell those protesters to scram, will you?'
p2102
sbag1
(g10
g3
NtRp2103
(dp2104
g13
S'Say'
p2105
sg14
S'Mayor'
p2106
sg15
S''
sg16
S"Hope they didn't give you too much trouble!"
p2107
sbag1
(g10
g3
NtRp2108
(dp2109
g13
S'Say'
p2110
sg14
S'Mayor'
p2111
sg15
S''
sg16
S"Now that's sorted, there's a journalist from the local newspaper coming for an interview."
p2112
sbag1
(g10
g3
NtRp2113
(dp2114
g13
S'Say'
p2115
sg14
S'Mayor'
p2116
sg15
S''
sg16
S"I certainly don't have time for it, so you can do the interview."
p2117
sbag1
(g10
g3
NtRp2118
(dp2119
g13
S'Say'
p2120
sg14
S'Mayor'
p2121
sg15
S''
sg16
S"Be careful not to give too much away and if you could throw a few punches at the opposition that'd help."
p2122
sbag1
(g10
g3
NtRp2123
(dp2124
g13
S'PlayerSay'
p2125
sg14
S'Mayor'
p2126
sg15
S''
sg16
S'You want me to...throw a punch?'
p2127
sbag1
(g10
g3
NtRp2128
(dp2129
g13
S'Say'
p2130
sg14
S'Mayor'
p2131
sg15
S''
sg16
S"You're in politics and don't know how to fight dirty? Sheesh! Here, let me show you."
p2132
sbag1
(g10
g3
NtRp2133
(dp2134
g13
S'LearnAttack'
p2135
sg14
S'Mayor'
p2136
sg15
S'SLANDER'
p2137
sg16
S'Mayor teaches Phillip to Slander Opposition'
p2138
sbag1
(g10
g3
NtRp2139
(dp2140
g13
S'Say'
p2141
sg14
S'Mayor'
p2142
sg15
S''
sg16
S"It's a pretty great tactic because it keeps eating away at them long after you've done it."
p2143
sbag1
(g10
g3
NtRp2144
(dp2145
g13
S'SetFlag'
p2146
sg14
S'Mayor'
p2147
sg15
S'INTERVIEWSTART'
p2148
sg16
S''
sbag1
(g10
g3
NtRp2149
(dp2150
g13
S'RequireFlag'
p2151
sg14
S'Mayor'
p2152
sg15
S'JOURNALISTINTERVIEW'
p2153
sg16
S'Go handle that interview and remember to slander the opposition.'
p2154
sbag1
(g10
g3
NtRp2155
(dp2156
g13
S'SetFlag'
p2157
sg14
S'Mayor'
p2158
sg15
S'GOHOMETOWIFE'
p2159
sg16
S''
sbag1
(g10
g3
NtRp2160
(dp2161
g13
S'Say'
p2162
sg14
S'Mayor'
p2163
sg15
S''
sg16
S'OK, fine, now could you buzz off for a while? I need to get some work done.'
p2164
sbag1
(g10
g3
NtRp2165
(dp2166
g13
S'RequireFlag'
p2167
sg14
S'Mayor'
p2168
sg15
S'CONSTITUENTSWON'
p2169
sg16
S"Go home to your family. I have things to do that don't involve you."
p2170
sbag1
(g10
g3
NtRp2171
(dp2172
g13
S'Say'
p2173
sg14
S'Mayor'
p2174
sg15
S''
sg16
S"What's this I hear about you campaigning for Mayor? After everything I've taught you!"
p2175
sbag1
(g10
g3
NtRp2176
(dp2177
g13
S'PlayerSay'
p2178
sg14
S'Mayor'
p2179
sg15
S''
sg16
S"I'm sorry Mayor Goodman, but it's time for someone who's ready to make a difference for our town."
p2180
sbag1
(g10
g3
NtRp2181
(dp2182
g13
S'Say'
p2183
sg14
S'Mayor'
p2184
sg15
S''
sg16
S"You really are a fool. Do you think He's going to allow that?"
p2185
sbag1
(g10
g3
NtRp2186
(dp2187
g13
S'Encounter'
p2188
sg14
S'Mayor'
p2189
sg15
S'P-easy-10'
p2190
sg16
S''
sbag1
(g10
g3
NtRp2191
(dp2192
g13
S'Say'
p2193
sg14
S'Mayor'
p2194
sg15
S''
sg16
S"Well, you've beaten me but you don't have a clue what you're in for. I hope you're up to this kid!"
p2195
sbag1
(g10
g3
NtRp2196
(dp2197
g13
S'Destroy'
p2198
sg14
S'Mayor'
p2199
sg15
S''
sg16
S''
sbasS'Politician4'
p2200
(lp2201
g1
(g10
g3
NtRp2202
(dp2203
g13
S'RequireFlag'
p2204
sg14
g2200
sg15
S'STARTPOLITICIANSHAKEDOWN'
p2205
sg16
S'Good morning, Governor Mossman. Your PA will know your schedule. He is waiting in your room.'
p2206
sbag1
(g10
g3
NtRp2207
(dp2208
g13
S'Say'
p2209
sg14
S'Politician4'
p2210
sg15
S''
sg16
S"I'm for culture! It's a glorious age we live in, we should further this great country's culture."
p2211
sbag1
(g10
g3
NtRp2212
(dp2213
g13
S'PlayerSay'
p2214
sg14
S'Politician4'
p2215
sg15
S''
sg16
S'That sounds fair, but what kind of culture would you like to focus on.'
p2216
sbag1
(g10
g3
NtRp2217
(dp2218
g13
S'Say'
p2219
sg14
S'Politician4'
p2220
sg15
S''
sg16
S"Oh...I don't know, I'm not really into art, can't really handle music. I'd rather not go to the theatre if I can get out of it. Don't really see the point of sport...hmmm. New culture?"
p2221
sbag1
(g10
g3
NtRp2222
(dp2223
g13
S'PlayerSay'
p2224
sg14
S'Politician4'
p2225
sg15
S''
sg16
S"You don't seem very in to improving culture really."
p2226
sbag1
(g10
g3
NtRp2227
(dp2228
g13
S'Say'
p2229
sg14
S'Politician4'
p2230
sg15
S''
sg16
S'Yeh, well...my wife said it would make me sound smart. I think sounding smart is important. Lets be for that!'
p2231
sbag1
(g10
g3
NtRp2232
(dp2233
g13
S'Encounter'
p2234
sg14
S'Politician4'
p2235
sg15
S'P-med-08'
p2236
sg16
S''
sbag1
(g10
g3
NtRp2237
(dp2238
g13
S'Say'
p2239
sg14
S'Politician4'
p2240
sg15
S''
sg16
S"Gee, you're a pretty smart guy. I think you've got this covered."
p2241
sbag1
(g10
g3
NtRp2242
(dp2243
g13
S'Increment'
p2244
sg14
S'Politician4'
p2245
sg15
S'POLITICIANSHAKEDOWN'
p2246
sg16
S''
sbag1
(g10
g3
NtRp2247
(dp2248
g13
S'Destroy'
p2249
sg14
S'Politician4'
p2250
sg15
S''
sg16
S''
sbassS'attacks'
p2251
(dp2252
S'GETEXCLUSIVE'
p2253
g1
(g10
g3
NtRp2254
(dp2255
S'base_damage_max'
p2256
F4
sS'description'
p2257
S'asdf'
p2258
sS'weight'
p2259
I1
sS'crit_chance_max'
p2260
F5
sS'crit_chance_min'
p2261
F2
sS'underlying_stat'
p2262
S'Wit'
p2263
sS'target_type'
p2264
S'AllFriendly'
p2265
sS'base_damage_min'
p2266
F2
sS'spin_cost'
p2267
F5
sS'effects'
p2268
(lp2269
g1
(c__main__
Effect
p2270
g3
NtRp2271
(dp2272
S'function'
p2273
S'add'
p2274
sS'abbrv'
p2275
S'(INCREASE)'
p2276
sS'attribute'
p2277
S'cunning'
p2278
sS'value'
p2279
F2
sS'rounds_min'
p2280
F1
sS'rounds_max'
p2281
F4
sS'id'
p2282
S'Increase Cunning'
p2283
sS'apply_to_source'
p2284
S'TRUE'
p2285
sbasS'target_count'
p2286
I1
sS'crit_base_damage'
p2287
F8
sg2282
g2253
sS'name'
p2288
S'Get Exclusive'
p2289
sbsS'LOSELOSE'
p2290
g1
(g10
g3
NtRp2291
(dp2292
g2256
F4
sg2257
S'Causes all politicians in the target radius to lose votes'
p2293
sg2259
I1
sg2260
F0
sg2261
F0
sg2262
S'Cunning'
p2294
sg2264
S'All'
p2295
sg2266
F4
sg2267
I0
sg2268
(lp2296
sg2286
I6
sg2287
F0
sg2282
g2290
sg2288
S'Lose/lose issue'
p2297
sbsS'LIE'
p2298
g1
(g10
g3
NtRp2299
(dp2300
g2256
F6
sg2257
S"It's only lying if they catch you. A strong attack with a danger of failing entirely and leaving you high and dry."
p2301
sg2259
F3
sg2260
F10
sg2261
F2
sg2262
S'Wit'
p2302
sg2264
S'AllEnemy'
p2303
sg2266
F0
sg2267
I0
sg2268
(lp2304
g1
(g2270
g3
NtRp2305
(dp2306
g2273
S'miss_turn'
p2307
sg2275
S'(MISS)'
p2308
sg2277
S''
sg2279
F0
sg2280
F1
sg2281
F1
sg2282
S'Critical Fail'
p2309
sg2284
S'TRUE'
p2310
sbasg2286
I1
sg2287
F10
sg2282
g2298
sg2288
S'Lie'
p2311
sbsS'HILARIOUSANECDOTE'
p2312
g1
(g10
g3
NtRp2313
(dp2314
g2256
F8
sg2257
S'asdf'
p2315
sg2259
I1
sg2260
F0
sg2261
F0
sg2262
S'Wit'
p2316
sg2264
S'AllFriendly'
p2317
sg2266
F4
sg2267
F5
sg2268
(lp2318
g1
(g2270
g3
NtRp2319
(dp2320
g2273
S'add'
p2321
sg2275
S'(INCREASE)'
p2322
sg2277
S'flair'
p2323
sg2279
F2
sg2280
F1
sg2281
F4
sg2282
S'Increase Flair'
p2324
sg2284
S'TRUE'
p2325
sbasg2286
I1
sg2287
F0
sg2282
g2312
sg2288
S'Hilarious Anecdote'
p2326
sbsS'SENSATIONALISE'
p2327
g1
(g10
g3
NtRp2328
(dp2329
g2256
F8
sg2257
S'asdf'
p2330
sg2259
I1
sg2260
F0
sg2261
F0
sg2262
S'Wit'
p2331
sg2264
S'AllEnemy'
p2332
sg2266
F4
sg2267
F3
sg2268
(lp2333
sg2286
I1
sg2287
F0
sg2282
g2327
sg2288
S'Sensationalise'
p2334
sbsS'DENOUNCE'
p2335
g1
(g10
g3
NtRp2336
(dp2337
g2256
F5
sg2257
S'asdf'
p2338
sg2259
F6
sg2260
F10
sg2261
F2
sg2262
S'Cunning'
p2339
sg2264
S'AllEnemy'
p2340
sg2266
F2
sg2267
I0
sg2268
(lp2341
sg2286
I1
sg2287
F8
sg2282
g2335
sg2288
S'Denounce'
p2342
sbsS'WHADOWEWANT'
p2343
g1
(g10
g3
NtRp2344
(dp2345
g2256
F6
sg2257
S'asdf'
p2346
sg2259
I1
sg2260
F0
sg2261
F0
sg2262
S'Cunning'
p2347
sg2264
S'AllEnemy'
p2348
sg2266
F3
sg2267
I0
sg2268
(lp2349
sg2286
I1
sg2287
F0
sg2282
g2343
sg2288
S'Whadowewant!'
p2350
sbsS'SCOOP'
p2351
g1
(g10
g3
NtRp2352
(dp2353
g2256
F5
sg2257
S'asdf'
p2354
sg2259
I1
sg2260
F10
sg2261
F5
sg2262
S'Cunning'
p2355
sg2264
S'AllEnemy'
p2356
sg2266
F2
sg2267
I0
sg2268
(lp2357
sg2286
I1
sg2287
F8
sg2282
g2351
sg2288
S'Scoop'
p2358
sbsS'CHOOSETARGETS'
p2359
g1
(g10
g3
NtRp2360
(dp2361
g2256
F7
sg2257
S'asdf'
p2362
sg2259
I1
sg2260
F10
sg2261
F5
sg2262
S'Cunning'
p2363
sg2264
S'AllEnemy'
p2364
sg2266
F2
sg2267
I0
sg2268
(lp2365
sg2286
I1
sg2287
F9
sg2282
g2359
sg2288
S'Choose Targets'
p2366
sbsS'FILENAILS'
p2367
g1
(g10
g3
NtRp2368
(dp2369
g2256
F0
sg2257
S'asdf'
p2370
sg2259
I1
sg2260
F0
sg2261
F0
sg2262
S'Wit'
p2371
sg2264
S'AllEnemy'
p2372
sg2266
F0
sg2267
F3
sg2268
(lp2373
g1
(g2270
g3
NtRp2374
(dp2375
g2273
S'add_permanent'
p2376
sg2275
S''
sg2277
S'votes'
p2377
sg2279
F5
sg2280
F1
sg2281
F1
sg2282
S'Votes Restore'
p2378
sg2284
S'TRUE'
p2379
sbasg2286
I1
sg2287
F0
sg2282
g2367
sg2288
S'File Nails'
p2380
sbsS'BRIBE'
p2381
g1
(g10
g3
NtRp2382
(dp2383
g2256
F1
sg2257
S'Is there anything more convincing than money? Buying loyalty gets expensive so be careful.'
p2384
sg2259
I1
sg2260
F1
sg2261
F1
sg2262
S'Money'
p2385
sg2264
S'AllEnemy'
p2386
sg2266
F2
sg2267
I0
sg2268
(lp2387
sg2286
I1
sg2287
F1
sg2282
g2381
sg2288
S'Bribe'
p2388
sbsS'SING'
p2389
g1
(g10
g3
NtRp2390
(dp2391
g2256
F-3
sg2257
S'Why bandy words with politicians when you can sing a catchy tune! Restores votes.'
p2392
sg2259
I1
sg2260
F0
sg2261
F0
sg2262
S'Wit'
p2393
sg2264
S'AllFriendly'
p2394
sg2266
F-5
sg2267
I0
sg2268
(lp2395
sg2286
I4
sg2287
F0
sg2282
g2389
sg2288
S'Rousing Song'
p2396
sbsS'FEAR'
p2397
g1
(g10
g3
NtRp2398
(dp2399
g2256
F0
sg2257
S'asdf'
p2400
sg2259
F2
sg2260
F0
sg2261
F0
sg2262
S'Wit'
p2401
sg2264
S'AllFriendly'
p2402
sg2266
F0
sg2267
F4
sg2268
(lp2403
g2271
asg2286
I1
sg2287
F0
sg2282
g2397
sg2288
S'Fear Change'
p2404
sbsS'RAISEDEFCON'
p2405
g1
(g10
g3
NtRp2406
(dp2407
g2256
F5
sg2257
S'asdf'
p2408
sg2259
I1
sg2260
F7
sg2261
F3
sg2262
S'Cunning'
p2409
sg2264
S'AllEnemy'
p2410
sg2266
F4
sg2267
I0
sg2268
(lp2411
sg2286
I1
sg2287
F8
sg2282
g2405
sg2288
S'Raise DEFCON'
p2412
sbsS'NEGATTACKAD'
p2413
g1
(g10
g3
NtRp2414
(dp2415
g2256
F8
sg2257
S"Take them all down. They're definitely all bad people. Not like you."
p2416
sg2259
I1
sg2260
F10
sg2261
F10
sg2262
S'Cunning'
p2417
sg2264
S'AllEnemy'
p2418
sg2266
F3
sg2267
F5
sg2268
(lp2419
sg2286
I1
sg2287
F10
sg2282
g2413
sg2288
S'Negative Attack Ad'
p2420
sbsS'DAZZLE'
p2421
g1
(g10
g3
NtRp2422
(dp2423
g2256
F3
sg2257
S'Being dazzling and admirable is a great way to take heat off politics'
p2424
sg2259
I1
sg2260
F8
sg2261
F5
sg2262
S'Wit'
p2425
sg2264
S'AllEnemy'
p2426
sg2266
F2
sg2267
F3
sg2268
(lp2427
g1
(g2270
g3
NtRp2428
(dp2429
g2273
S'reduce'
p2430
sg2275
S'(REDUCE)'
p2431
sg2277
S'cunning'
p2432
sg2279
F2
sg2280
F2
sg2281
F5
sg2282
S'Reduce Cunning'
p2433
sg2284
S''
sbasg2286
I4
sg2287
F8
sg2282
g2421
sg2288
S'Dazzle'
p2434
sbsS'BELIEVEMEDIA'
p2435
g1
(g10
g3
NtRp2436
(dp2437
g2256
F3
sg2257
S'asdf'
p2438
sg2259
I1
sg2260
F15
sg2261
F5
sg2262
S'Cunning'
p2439
sg2264
S'AllEnemy'
p2440
sg2266
F1
sg2267
I0
sg2268
(lp2441
sg2286
I1
sg2287
F12
sg2282
g2435
sg2288
S'Believe Media'
p2442
sbsS'PRPREP'
p2443
g1
(g10
g3
NtRp2444
(dp2445
g2256
F0
sg2257
S"If you're going to need some spin, best see a spin doctor! Adds spin points."
p2446
sg2259
I1
sg2260
F0
sg2261
F0
sg2262
S''
sg2264
S'AllFriendly'
p2447
sg2266
F0
sg2267
I0
sg2268
(lp2448
g1
(g2270
g3
NtRp2449
(dp2450
g2273
S'add_permanent'
p2451
sg2275
S''
sg2277
S'spin'
p2452
sg2279
F5
sg2280
F0
sg2281
F0
sg2282
S'Spin Restore'
p2453
sg2284
S'TRUE'
p2454
sbasg2286
I1
sg2287
F0
sg2282
g2443
sg2288
S'PR Prep'
p2455
sbsS'CALLVATICAN'
p2456
g1
(g10
g3
NtRp2457
(dp2458
g2256
F0
sg2257
S'Brings in 2 additional ReligousNuts at 2 levels lower than this one'
p2459
sg2259
I1
sg2260
F0
sg2261
F0
sg2262
S'Wit'
p2460
sg2264
S'None'
p2461
sg2266
F0
sg2267
F5
sg2268
(lp2462
g1
(g2270
g3
NtRp2463
(dp2464
g2273
S'call_friends'
p2465
sg2275
S''
sg2277
S'ReligiousNut001:1'
p2466
sg2279
F2
sg2280
F1
sg2281
F1
sg2282
S'Call Friends'
p2467
sg2284
S''
sbasg2286
I1
sg2287
F0
sg2282
g2456
sg2288
S'Call Battycan'
p2468
sbsS'BLACKMAIL'
p2469
g1
(g10
g3
NtRp2470
(dp2471
g2256
F6
sg2257
S'asdf'
p2472
sg2259
I1
sg2260
F10
sg2261
F2
sg2262
S'Wit'
p2473
sg2264
S'AllEnemy'
p2474
sg2266
F3
sg2267
F4
sg2268
(lp2475
g1
(g2270
g3
NtRp2476
(dp2477
g2273
S'drain'
p2478
sg2275
S'(DRAIN)'
p2479
sg2277
S'votes'
p2480
sg2279
F1
sg2280
F2
sg2281
F5
sg2282
S'Drain Votes'
p2481
sg2284
S''
sbasg2286
I1
sg2287
F2
sg2282
g2469
sg2288
S'Blackmail'
p2482
sbsS'RUNAD'
p2483
g1
(g10
g3
NtRp2484
(dp2485
g2256
F0
sg2257
S'Gets back some votes by running an ad'
p2486
sg2259
I1
sg2260
F0
sg2261
F0
sg2262
S''
sg2264
S'AllFriendly'
p2487
sg2266
F0
sg2267
I0
sg2268
(lp2488
g1
(g2270
g3
NtRp2489
(dp2490
g2273
S'add_permanent'
p2491
sg2275
S''
sg2277
S'votes'
p2492
sg2279
F10
sg2280
F1
sg2281
F1
sg2282
S'Votes Restore Ad'
p2493
sg2284
S'TRUE'
p2494
sbasg2286
I1
sg2287
F0
sg2282
g2483
sg2288
S'Run Advertisement'
p2495
sbsS'PROTEST'
p2496
g1
(g10
g3
NtRp2497
(dp2498
g2256
F5
sg2257
S'asdf'
p2499
sg2259
F6
sg2260
F10
sg2261
F2
sg2262
S'Cunning'
p2500
sg2264
S'AllEnemy'
p2501
sg2266
F2
sg2267
I0
sg2268
(lp2502
sg2286
I1
sg2287
F8
sg2282
g2496
sg2288
S'Protest'
p2503
sbsS'SPREADRUMOUR'
p2504
g1
(g10
g3
NtRp2505
(dp2506
g2256
F6
sg2257
S'asdf'
p2507
sg2259
I1
sg2260
F10
sg2261
F2
sg2262
S'Wit'
p2508
sg2264
S'AllEnemy'
p2509
sg2266
F2
sg2267
F3
sg2268
(lp2510
sg2286
I4
sg2287
F8
sg2282
g2504
sg2288
S'Spread Rumour'
p2511
sbsS'AGENDA'
p2512
g1
(g10
g3
NtRp2513
(dp2514
g2256
F5
sg2257
S'asdf'
p2515
sg2259
F6
sg2260
F10
sg2261
F2
sg2262
S'Cunning'
p2516
sg2264
S'AllEnemy'
p2517
sg2266
F2
sg2267
I0
sg2268
(lp2518
sg2286
I1
sg2287
F8
sg2282
g2512
sg2288
S'Push Agenda'
p2519
sbsS'FILIBUSTER'
p2520
g1
(g10
g3
NtRp2521
(dp2522
g2256
F0
sg2257
S"You're not moving until they give in. Cause all opposition to miss their turn"
p2523
sg2259
I1
sg2260
F0
sg2261
F0
sg2262
S'Wit'
p2524
sg2264
S'AllEnemy'
p2525
sg2266
F0
sg2267
F8
sg2268
(lp2526
g1
(g2270
g3
NtRp2527
(dp2528
g2273
S'miss_turn'
p2529
sg2275
S'(MISS)'
p2530
sg2277
S''
sg2279
F0
sg2280
F1
sg2281
F1
sg2282
S'Miss Turn'
p2531
sg2284
S''
sbasg2286
I1
sg2287
F0
sg2282
g2520
sg2288
S'Filibuster'
p2532
sbsS'GATHERINTEL'
p2533
g1
(g10
g3
NtRp2534
(dp2535
g2256
F0
sg2257
S'Increases Cunning.'
p2536
sg2259
I1
sg2260
F0
sg2261
F0
sg2262
S'Wit'
p2537
sg2264
S'AllFriendly'
p2538
sg2266
F0
sg2267
F3
sg2268
(lp2539
g2271
asg2286
I2
sg2287
F0
sg2282
g2533
sg2288
S'Gather Intelligence'
p2540
sbsS'LOVE'
p2541
g1
(g10
g3
NtRp2542
(dp2543
g2256
F6
sg2257
S'asdf'
p2544
sg2259
F2
sg2260
F8
sg2261
F2
sg2262
S'Cunning'
p2545
sg2264
S'AllEnemy'
p2546
sg2266
F1
sg2267
I0
sg2268
(lp2547
sg2286
I1
sg2287
F7
sg2282
g2541
sg2288
S'Love'
p2548
sbsS'OUTOFCONTEXT'
p2549
g1
(g10
g3
NtRp2550
(dp2551
g2256
F3
sg2257
S'asdf'
p2552
sg2259
I1
sg2260
F5
sg2261
F2
sg2262
S'Wit'
p2553
sg2264
S'AllEnemy'
p2554
sg2266
F2
sg2267
F2
sg2268
(lp2555
g2476
asg2286
I1
sg2287
F5
sg2282
g2549
sg2288
S'Take Out Of Context'
p2556
sbsS'GREATSUIT'
p2557
g1
(g10
g3
NtRp2558
(dp2559
g2256
F6
sg2257
S'Well, we could argue, but have you noticed how fabulous this suit is?'
p2560
sg2259
I1
sg2260
F11
sg2261
F6
sg2262
S'Cunning'
p2561
sg2264
S'AllEnemy'
p2562
sg2266
F3
sg2267
I0
sg2268
(lp2563
sg2286
I1
sg2287
F12
sg2282
g2557
sg2288
S'Look Great In Suit'
p2564
sbsS'PEACE'
p2565
g1
(g10
g3
NtRp2566
(dp2567
g2256
F0
sg2257
S'asdf'
p2568
sg2259
I1
sg2260
F0
sg2261
F0
sg2262
S'Wit'
p2569
sg2264
S'AllEnemy'
p2570
sg2266
F0
sg2267
F3
sg2268
(lp2571
g2428
asg2286
I4
sg2287
F0
sg2282
g2565
sg2288
S'Peace'
p2572
sbsS'INSPSPEECH'
p2573
g1
(g10
g3
NtRp2574
(dp2575
g2256
F-2
sg2257
S'Restore votes to all party members'
p2576
sg2259
I1
sg2260
F0
sg2261
F0
sg2262
S'Cunning'
p2577
sg2264
S'AllFriendly'
p2578
sg2266
F-2
sg2267
I0
sg2268
(lp2579
sg2286
I4
sg2287
F0
sg2282
g2573
sg2288
S'Inspirational Speech'
p2580
sbsS'STRIKE'
p2581
g1
(g10
g3
NtRp2582
(dp2583
g2256
F8
sg2257
S'asdf'
p2584
sg2259
I1
sg2260
F0
sg2261
F0
sg2262
S'Wit'
p2585
sg2264
S'AllEnemy'
p2586
sg2266
F0
sg2267
F3
sg2268
(lp2587
g2305
asg2286
I1
sg2287
F0
sg2282
g2581
sg2288
S'Call A Strike'
p2588
sbsS'SLANDER'
p2589
g1
(g10
g3
NtRp2590
(dp2591
g2256
F3
sg2257
S'Strong against polititians...careful with those voters, though!'
p2592
sg2259
F4
sg2260
F10
sg2261
F2
sg2262
S'Wit'
p2593
sg2264
S'AllEnemy'
p2594
sg2266
F2
sg2267
I0
sg2268
(lp2595
g2476
asg2286
I1
sg2287
F5
sg2282
g2589
sg2288
S'Slander Opposition'
p2596
sbsS'NATTER'
p2597
g1
(g10
g3
NtRp2598
(dp2599
g2256
F8
sg2257
S'asdf'
p2600
sg2259
I1
sg2260
F15
sg2261
F5
sg2262
S'Cunning'
p2601
sg2264
S'AllEnemy'
p2602
sg2266
F1
sg2267
I0
sg2268
(lp2603
sg2286
I1
sg2287
F10
sg2282
g2597
sg2288
S'Natter On'
p2604
sbsS'GOSSIP'
p2605
g1
(g10
g3
NtRp2606
(dp2607
g2256
F3
sg2257
S'asdf'
p2608
sg2259
I1
sg2260
F10
sg2261
F2
sg2262
S'Wit'
p2609
sg2264
S'AllEnemy'
p2610
sg2266
F1
sg2267
F2
sg2268
(lp2611
g2428
asg2286
I1
sg2287
F6
sg2282
g2605
sg2288
S'Gossip'
p2612
sbsS'MISSTURN'
p2613
g1
(g10
g3
NtRp2614
(dp2615
g2256
F0
sg2257
S'asdf'
p2616
sg2259
I1
sg2260
F0
sg2261
F0
sg2262
S''
sg2264
S'AllEnemy'
p2617
sg2266
F0
sg2267
I0
sg2268
(lp2618
sg2286
I1
sg2287
F0
sg2282
g2613
sg2288
S'Miss Turn'
p2619
sbsS'BIELECTION'
p2620
g1
(g10
g3
NtRp2621
(dp2622
g2256
F4
sg2257
S'Redistribute votes amongst targets'
p2623
sg2259
I1
sg2260
F0
sg2261
F0
sg2262
S'Cunning'
p2624
sg2264
S'All'
p2625
sg2266
F-4
sg2267
F4
sg2268
(lp2626
sg2286
I8
sg2287
F0
sg2282
g2620
sg2288
S'Bielection'
p2627
sbsS'SCARE'
p2628
g1
(g10
g3
NtRp2629
(dp2630
g2256
F7
sg2257
S'Nothing rattles the brains like fear.'
p2631
sg2259
I1
sg2260
F10
sg2261
F2
sg2262
S'Wit'
p2632
sg2264
S'AllEnemy'
p2633
sg2266
F2
sg2267
I0
sg2268
(lp2634
g2428
asg2286
I2
sg2287
F9
sg2282
g2628
sg2288
S'Scare Campaign'
p2635
sbsS'PAYOFF'
p2636
g1
(g10
g3
NtRp2637
(dp2638
g2256
F7
sg2257
S'causes them to miss a number of turns'
p2639
sg2259
I1
sg2260
F8
sg2261
F2
sg2262
S'Wit'
p2640
sg2264
S'AllEnemy'
p2641
sg2266
F2
sg2267
F4
sg2268
(lp2642
g1
(g2270
g3
NtRp2643
(dp2644
g2273
S'miss_turn'
p2645
sg2275
S'(MISS)'
p2646
sg2277
S''
sg2279
F0
sg2280
F1
sg2281
F3
sg2282
S'Miss Turn Pay Off'
p2647
sg2284
S''
sbasg2286
I1
sg2287
F9
sg2282
g2636
sg2288
S'Pay Off'
p2648
sbsS'BUREAUCRACY'
p2649
g1
(g10
g3
NtRp2650
(dp2651
g2256
F5
sg2257
S'asdf'
p2652
sg2259
F6
sg2260
F10
sg2261
F2
sg2262
S'Cunning'
p2653
sg2264
S'AllEnemy'
p2654
sg2266
F2
sg2267
I0
sg2268
(lp2655
sg2286
I1
sg2287
F8
sg2282
g2649
sg2288
S'Bureaucracy'
p2656
sbsS'RALLYAUDIENCE'
p2657
g1
(g10
g3
NtRp2658
(dp2659
g2256
F8
sg2257
S'asdf'
p2660
sg2259
I1
sg2260
F0
sg2261
F0
sg2262
S'Wit'
p2661
sg2264
S'AllFriendly'
p2662
sg2266
F4
sg2267
F3
sg2268
(lp2663
g1
(g2270
g3
NtRp2664
(dp2665
g2273
S'add'
p2666
sg2275
S'(INCREASE)'
p2667
sg2277
S'charisma'
p2668
sg2279
F2
sg2280
F1
sg2281
F4
sg2282
S'Increase Charisma'
p2669
sg2284
S'TRUE'
p2670
sbasg2286
I1
sg2287
F0
sg2282
g2657
sg2288
S'Rally Audience'
p2671
sbsS'PORKBARREL'
p2672
g1
(g10
g3
NtRp2673
(dp2674
g2256
F6
sg2257
S'Do something that benefits them specifically. Not advised against politicians.'
p2675
sg2259
I1
sg2260
F0
sg2261
F0
sg2262
S'Wit'
p2676
sg2264
S'AllEnemy'
p2677
sg2266
F2
sg2267
F2
sg2268
(lp2678
sg2286
I1
sg2287
F0
sg2282
g2672
sg2288
S'Pork Barrel'
p2679
sbsS'INSPIRE'
p2680
g1
(g10
g3
NtRp2681
(dp2682
g2256
F0
sg2257
S'asdf'
p2683
sg2259
I1
sg2260
F0
sg2261
F0
sg2262
S'Wit'
p2684
sg2264
S'AllFriendly'
p2685
sg2266
F0
sg2267
F3
sg2268
(lp2686
g2271
asg2286
I4
sg2287
F0
sg2282
g2680
sg2288
S'Inspire'
p2687
sbsS'JOKE'
p2688
g1
(g10
g3
NtRp2689
(dp2690
g2256
F3
sg2257
S"Ha, ha, ha...what were we talking about? Diffuse the situation with some humour. Not good if it falls flat, but if they get it, it'll knock 'em dead."
p2691
sg2259
F3
sg2260
F30
sg2261
F10
sg2262
S'Wit'
p2692
sg2264
S'AllEnemy'
p2693
sg2266
F2
sg2267
I0
sg2268
(lp2694
sg2286
I1
sg2287
F10
sg2282
g2688
sg2288
S'Joke'
p2695
sbsS'PRAYFORSOULS'
p2696
g1
(g10
g3
NtRp2697
(dp2698
g2256
F6
sg2257
S'asdf'
p2699
sg2259
F2
sg2260
F10
sg2261
F2
sg2262
S'Cunning'
p2700
sg2264
S'None'
p2701
sg2266
F3
sg2267
I0
sg2268
(lp2702
sg2286
I1
sg2287
F10
sg2282
g2696
sg2288
S'Pray'
p2703
sbsS'REVIVE'
p2704
g1
(g10
g3
NtRp2705
(dp2706
g2256
F0
sg2257
S'Revive a defeated comrade to half votes'
p2707
sg2259
I1
sg2260
F0
sg2261
F0
sg2262
S''
sg2264
S'DeadFriendly'
p2708
sg2266
F0
sg2267
F3
sg2268
(lp2709
g1
(g2270
g3
NtRp2710
(dp2711
g2273
S'revive'
p2712
sg2275
S''
sg2277
S''
sg2279
F0.5
sg2280
F0
sg2281
F0
sg2282
S'Revive'
p2713
sg2284
S''
sbasg2286
I1
sg2287
F0
sg2282
g2704
sg2288
S'Revive'
p2714
sbsS'HUMANSHIELD'
p2715
g1
(g10
g3
NtRp2716
(dp2717
g2256
F5
sg2257
S'No further questions. Step back, please.'
p2718
sg2259
I1
sg2260
F5
sg2261
F2
sg2262
S'Wit'
p2719
sg2264
S'AllEnemy'
p2720
sg2266
F2
sg2267
F4
sg2268
(lp2721
g2527
asg2286
I2
sg2287
F12
sg2282
g2715
sg2288
S'Human Shield'
p2722
sbsS'MAKEDEMANDS'
p2723
g1
(g10
g3
NtRp2724
(dp2725
g2256
F8
sg2257
S'asdf'
p2726
sg2259
I1
sg2260
F0
sg2261
F0
sg2262
S'Cunning'
p2727
sg2264
S'AllEnemy'
p2728
sg2266
F0
sg2267
I0
sg2268
(lp2729
g2305
asg2286
I1
sg2287
F0
sg2282
g2723
sg2288
S'Make Outrageous Demands'
p2730
sbsS'DEFENSE'
p2731
g1
(g10
g3
NtRp2732
(dp2733
g2256
F0
sg2257
S'Gather strenth; -50% to all incoming attacks'
p2734
sg2259
I1
sg2260
F0
sg2261
F0
sg2262
S''
sg2264
S'None'
p2735
sg2266
F0
sg2267
I0
sg2268
(lp2736
g1
(g2270
g3
NtRp2737
(dp2738
g2273
S'add'
p2739
sg2275
S'(DFND)'
p2740
sg2277
S'resistance'
p2741
sg2279
F0.5
sg2280
F1
sg2281
F1
sg2282
S'Defense'
p2742
sg2284
S'TRUE'
p2743
sbasg2286
I1
sg2287
F0
sg2282
g2731
sg2288
S'Defense'
p2744
sbsS'MISCONSTRUE'
p2745
g1
(g10
g3
NtRp2746
(dp2747
g2256
F8
sg2257
S'asdf'
p2748
sg2259
I1
sg2260
F0
sg2261
F0
sg2262
S'Cunning'
p2749
sg2264
S'AllEnemy'
p2750
sg2266
F0
sg2267
I0
sg2268
(lp2751
g2305
asg2286
I1
sg2287
F0
sg2282
g2745
sg2288
S'Misconstrue'
p2752
sbsS'NATIONALSECURITY'
p2753
g1
(g10
g3
NtRp2754
(dp2755
g2256
F7
sg2257
S"This is a matter of national security and they don't have codeword clearance"
p2756
sg2259
I1
sg2260
F10
sg2261
F2
sg2262
S'Cunning'
p2757
sg2264
S'AllEnemy'
p2758
sg2266
F2
sg2267
I0
sg2268
(lp2759
sg2286
I1
sg2287
F9
sg2282
g2753
sg2288
S'National Security'
p2760
sbsS'RALLY'
p2761
g1
(g10
g3
NtRp2762
(dp2763
g2256
F-2
sg2257
S'Get back some votes by rallying supporters'
p2764
sg2259
I1
sg2260
F0
sg2261
F0
sg2262
S'Wit'
p2765
sg2264
S'AllFriendly'
p2766
sg2266
F-4
sg2267
F2
sg2268
(lp2767
sg2286
I1
sg2287
F0
sg2282
g2761
sg2288
S'Rally Constituents'
p2768
sbsS'MESSAGE'
p2769
g1
(g10
g3
NtRp2770
(dp2771
g2256
F5
sg2257
S'You can certainly wear them down by repeating your party line over and over and over...if you want'
p2772
sg2259
F6
sg2260
F10
sg2261
F2
sg2262
S'Wit'
p2773
sg2264
S'AllEnemy'
p2774
sg2266
F2
sg2267
I0
sg2268
(lp2775
sg2286
I1
sg2287
F8
sg2282
g2769
sg2288
S'Stay On Message'
p2776
sbsS'APPEALTOGOD'
p2777
g1
(g10
g3
NtRp2778
(dp2779
g2256
F6
sg2257
S'asdf'
p2780
sg2259
F3
sg2260
F0
sg2261
F0
sg2262
S'Wit'
p2781
sg2264
S'AllEnemy'
p2782
sg2266
F4
sg2267
F7
sg2268
(lp2783
sg2286
I4
sg2287
F0
sg2282
g2777
sg2288
S'Appeal To God'
p2784
sbssS'levels'
p2785
(lp2786
g1
(g10
g3
NtRp2787
(dp2788
S'votes'
p2789
F10
sS'level'
p2790
F1
sS'spin'
p2791
F5
sS'xp'
p2792
F0
sS'skill_points'
p2793
F0
sbag1
(g10
g3
NtRp2794
(dp2795
g2789
F12
sg2790
F2
sg2791
F5
sg2792
F100
sg2793
F2
sbag1
(g10
g3
NtRp2796
(dp2797
g2789
F15
sg2790
F3
sg2791
F6
sg2792
F200
sg2793
F2
sbag1
(g10
g3
NtRp2798
(dp2799
g2789
F20
sg2790
F4
sg2791
F6
sg2792
F500
sg2793
F2
sbag1
(g10
g3
NtRp2800
(dp2801
g2789
F25
sg2790
F5
sg2791
F7
sg2792
F1000
sg2793
F2
sbag1
(g10
g3
NtRp2802
(dp2803
g2789
F30
sg2790
F6
sg2791
F7
sg2792
F2000
sg2793
F2
sbag1
(g10
g3
NtRp2804
(dp2805
g2789
F35
sg2790
F7
sg2791
F8
sg2792
F5000
sg2793
F2
sbag1
(g10
g3
NtRp2806
(dp2807
g2789
F40
sg2790
F8
sg2791
F8
sg2792
F10000
sg2793
F2
sbag1
(g10
g3
NtRp2808
(dp2809
g2789
F45
sg2790
F9
sg2791
F9
sg2792
F15000
sg2793
F2
sbag1
(g10
g3
NtRp2810
(dp2811
g2789
F50
sg2790
F10
sg2791
F9
sg2792
F20000
sg2793
F2
sbag1
(g10
g3
NtRp2812
(dp2813
g2789
F55
sg2790
F11
sg2791
F10
sg2792
F40000
sg2793
F2
sbag1
(g10
g3
NtRp2814
(dp2815
g2789
S''
sg2790
F12
sg2791
S''
sg2792
S''
sg2793
S''
sbag1
(g10
g3
NtRp2816
(dp2817
g2789
S''
sg2790
F13
sg2791
S''
sg2792
S''
sg2793
S''
sbag1
(g10
g3
NtRp2818
(dp2819
g2789
S''
sg2790
F14
sg2791
S''
sg2792
S''
sg2793
S''
sbag1
(g10
g3
NtRp2820
(dp2821
g2789
S''
sg2790
F15
sg2791
S''
sg2792
S''
sg2793
S''
sbag1
(g10
g3
NtRp2822
(dp2823
g2789
S''
sg2790
F16
sg2791
S''
sg2792
S''
sg2793
S''
sbag1
(g10
g3
NtRp2824
(dp2825
g2789
S''
sg2790
F17
sg2791
S''
sg2792
S''
sg2793
S''
sbag1
(g10
g3
NtRp2826
(dp2827
g2789
S''
sg2790
F18
sg2791
S''
sg2792
S''
sg2793
S''
sbag1
(g10
g3
NtRp2828
(dp2829
g2789
S''
sg2790
F19
sg2791
S''
sg2792
S''
sg2793
S''
sbag1
(g10
g3
NtRp2830
(dp2831
g2789
S''
sg2790
F20
sg2791
S''
sg2792
S''
sg2793
S''
sbag1
(g10
g3
NtRp2832
(dp2833
g2789
S''
sg2790
F21
sg2791
S''
sg2792
S''
sg2793
S''
sbag1
(g10
g3
NtRp2834
(dp2835
g2789
S''
sg2790
F22
sg2791
S''
sg2792
S''
sg2793
S''
sbag1
(g10
g3
NtRp2836
(dp2837
g2789
S''
sg2790
F23
sg2791
S''
sg2792
S''
sg2793
S''
sbag1
(g10
g3
NtRp2838
(dp2839
g2789
S''
sg2790
F24
sg2791
S''
sg2792
S''
sg2793
S''
sbag1
(g10
g3
NtRp2840
(dp2841
g2789
S''
sg2790
F25
sg2791
S''
sg2792
S''
sg2793
S''
sbag1
(g10
g3
NtRp2842
(dp2843
g2789
S''
sg2790
F26
sg2791
S''
sg2792
S''
sg2793
S''
sbag1
(g10
g3
NtRp2844
(dp2845
g2789
S''
sg2790
F27
sg2791
S''
sg2792
S''
sg2793
S''
sbag1
(g10
g3
NtRp2846
(dp2847
g2789
S''
sg2790
F28
sg2791
S''
sg2792
S''
sg2793
S''
sbag1
(g10
g3
NtRp2848
(dp2849
g2789
S''
sg2790
F29
sg2791
S''
sg2792
S''
sg2793
S''
sbasg2268
(dp2850
g2283
g2271
sg2378
g2374
sg2453
g2449
sg2669
g2664
sg2531
g2527
sg2467
g2463
sg2493
g2489
sg2647
g2643
sg2713
g2710
sg2433
g2428
sg2481
g2476
sg2742
g2737
sg2309
g2305
sg2324
g2319
ssS'characters'
p2851
(dp2852
S'Teacher001'
p2853
(lp2854
g1
(g10
g3
NtRp2855
(dp2856
S'flair_base'
p2857
F1
sS'spin_base'
p2858
F4
sS'flair_lvl'
p2859
F1.1499999999999999
sS'wit_base'
p2860
F1
sS'resistance'
p2861
(lp2862
sS'wit_lvl'
p2863
F1.0900000000000001
sS'cunning_base'
p2864
F1
sg2282
g2853
sS'votes_base'
p2865
F10
sS'speed_lvl'
p2866
F1.0800000000000001
sS'standard_attacks'
p2867
(lp2868
g2732
ag2497
asS'cunning_lvl'
p2869
F1.1000000000000001
sS'charisma_lvl'
p2870
F1.1499999999999999
sS'spin_attacks'
p2871
(lp2872
g2582
ag2762
asS'spin_lvl'
p2873
F1.0800000000000001
sS'charisma_base'
p2874
F1
sS'weaknesses'
p2875
(lp2876
sS'attack_group'
p2877
S'Teacher'
p2878
sS'votes_lvl'
p2879
F1.2
sg2288
S'Teacher'
p2880
sS'speed_base'
p2881
F1
sS'immunities'
p2882
(lp2883
sbasS'Politician001'
p2884
(lp2885
g1
(g10
g3
NtRp2886
(dp2887
g2857
F1
sg2858
F4
sg2859
F1.1499999999999999
sg2860
F1
sg2861
(lp2888
g2299
asg2863
F1.0900000000000001
sg2864
F1
sg2282
g2884
sg2865
F10
sg2866
F1.0800000000000001
sg2867
(lp2889
g2770
ag2590
ag2299
ag2689
ag2732
asg2869
F1.1000000000000001
sg2870
F1.1499999999999999
sg2871
(lp2890
g2621
ag2414
ag2705
asg2873
F1.0800000000000001
sg2874
F1
sg2875
(lp2891
g2382
asg2877
S'Politician'
p2892
sg2879
F1.2
sg2288
S'Politician'
p2893
sg2881
F1
sg2882
(lp2894
g2673
asbasS'SecretAgent'
p2895
(lp2896
g1
(g10
g3
NtRp2897
(dp2898
g2857
F1
sg2858
F4
sg2859
F1.1499999999999999
sg2860
F1
sg2861
(lp2899
sg2863
F1.0900000000000001
sg2864
F1
sg2282
g2895
sg2865
F18
sg2866
F1.0800000000000001
sg2867
(lp2900
g2732
ag2754
ag2558
asg2869
F1.1000000000000001
sg2870
F1.1499999999999999
sg2871
(lp2901
g2716
ag2534
asg2873
F1.0800000000000001
sg2874
F1
sg2875
(lp2902
sg2877
S'SecretAgent'
p2903
sg2879
F1.2
sg2288
S'Agent Kawalski'
p2904
sg2881
F1
sg2882
(lp2905
sbasS'Bumpkin001'
p2906
(lp2907
g1
(g10
g3
NtRp2908
(dp2909
g2857
F1
sg2858
F4
sg2859
F1.1499999999999999
sg2860
F1
sg2861
(lp2910
sg2863
F1.0900000000000001
sg2864
F1
sg2282
g2906
sg2865
F10
sg2866
F1.0800000000000001
sg2867
(lp2911
g2689
ag2436
asg2869
F1.1000000000000001
sg2870
F1.1499999999999999
sg2871
(lp2912
g2398
ag2505
asg2873
F1.0800000000000001
sg2874
F1
sg2875
(lp2913
g2299
ag2590
ag2629
asg2877
S'Bumpkin'
p2914
sg2879
F1.2
sg2288
S'Bumpkin'
p2915
sg2881
F1
sg2882
(lp2916
sbasS'WarVet001'
p2917
(lp2918
g1
(g10
g3
NtRp2919
(dp2920
g2857
F1
sg2858
F4
sg2859
F1.1499999999999999
sg2860
F1
sg2861
(lp2921
sg2863
F1.0900000000000001
sg2864
F1
sg2282
g2917
sg2865
F10
sg2866
F1.0800000000000001
sg2867
(lp2922
g2724
ag2732
asg2869
F1.1000000000000001
sg2870
F1.1499999999999999
sg2871
(lp2923
g2681
ag2762
asg2873
F1.0800000000000001
sg2874
F1
sg2875
(lp2924
sg2877
S'WarVet'
p2925
sg2879
F1.2
sg2288
S'War Veteran'
p2926
sg2881
F1
sg2882
(lp2927
sbasS'Receptionist001'
p2928
(lp2929
g1
(g10
g3
NtRp2930
(dp2931
g2857
F1
sg2858
F4
sg2859
F1.1499999999999999
sg2860
F1
sg2861
(lp2932
sg2863
F1.0900000000000001
sg2864
F1
sg2282
g2928
sg2865
F10
sg2866
F1.0800000000000001
sg2867
(lp2933
g2650
ag2598
asg2869
F1.1000000000000001
sg2870
F1.1499999999999999
sg2871
(lp2934
g2606
ag2368
asg2873
F1.0800000000000001
sg2874
F1
sg2875
(lp2935
sg2877
S'Receptionist'
p2936
sg2879
F1.2
sg2288
S'Receptionist'
p2937
sg2881
F1
sg2882
(lp2938
sbasS'DeepThroat'
p2939
(lp2940
g1
(g10
g3
NtRp2941
(dp2942
g2857
F1
sg2858
F4
sg2859
F1.1499999999999999
sg2860
F1
sg2861
(lp2943
sg2863
F1.0900000000000001
sg2864
F1
sg2282
g2939
sg2865
F10
sg2866
F1.0800000000000001
sg2867
(lp2944
g2590
ag2732
ag2724
asg2869
F1.1000000000000001
sg2870
F1.1499999999999999
sg2871
(lp2945
g2470
asg2873
F1.0800000000000001
sg2874
F1
sg2875
(lp2946
sg2877
S'DeepThroat'
p2947
sg2879
F1.2
sg2288
S'Mr Er...?'
p2948
sg2881
F1
sg2882
(lp2949
sbasS'Leo'
p2950
(lp2951
g1
(g10
g3
NtRp2952
(dp2953
g2857
F1
sg2858
F4
sg2859
F1.1499999999999999
sg2860
F1
sg2861
(lp2954
sg2863
F1.0900000000000001
sg2864
F1
sg2282
g2950
sg2865
F14
sg2866
F1.0800000000000001
sg2867
(lp2955
g2770
ag2590
ag2299
ag2689
ag2382
asg2869
F1.1000000000000001
sg2870
F1.1499999999999999
sg2871
(lp2956
g2621
ag2414
ag2673
ag2521
asg2873
F1.0800000000000001
sg2874
F1
sg2875
(lp2957
sg2877
S'Theo'
p2958
sg2879
F1.2
sg2288
S'Theo'
p2959
sg2881
F1
sg2882
(lp2960
sbasS'HippyGirl001'
p2961
(lp2962
g1
(g10
g3
NtRp2963
(dp2964
g2857
F1
sg2858
F4
sg2859
F1.1499999999999999
sg2860
F1
sg2861
(lp2965
sg2863
F1.0900000000000001
sg2864
F1
sg2282
g2961
sg2865
F10
sg2866
F1.0800000000000001
sg2867
(lp2966
g2390
ag2497
ag2542
asg2869
F1.1000000000000001
sg2870
F1.1499999999999999
sg2871
(lp2967
g2566
ag2762
ag2705
asg2873
F1.0800000000000001
sg2874
F1
sg2875
(lp2968
g2689
asg2877
S'Hippy'
p2969
sg2879
F1.2
sg2288
S'Hippy Girl'
p2970
sg2881
F1
sg2882
(lp2971
sbasS'President'
p2972
(lp2973
g1
(g10
g3
NtRp2974
(dp2975
g2857
F1
sg2858
F4
sg2859
F1.1499999999999999
sg2860
F1
sg2861
(lp2976
sg2863
F1.0900000000000001
sg2864
F1
sg2282
g2972
sg2865
F10
sg2866
F1.0800000000000001
sg2867
(lp2977
g2770
ag2590
ag2299
ag2689
ag2732
asg2869
F1.1000000000000001
sg2870
F1.1499999999999999
sg2871
(lp2978
g2621
ag2414
ag2705
asg2873
F1.0800000000000001
sg2874
F1
sg2875
(lp2979
sg2877
S'Politician'
p2980
sg2879
F1.2
sg2288
S'President Allen'
p2981
sg2881
F1
sg2882
(lp2982
sbasS'Unionist001'
p2983
(lp2984
g1
(g10
g3
NtRp2985
(dp2986
g2857
F1
sg2858
F4
sg2859
F1.1499999999999999
sg2860
F1
sg2861
(lp2987
sg2863
F1.0900000000000001
sg2864
F1
sg2282
g2983
sg2865
F10
sg2866
F1.0800000000000001
sg2867
(lp2988
g2724
ag2732
ag2497
asg2869
F1.1000000000000001
sg2870
F1.1499999999999999
sg2871
(lp2989
g2582
asg2873
F1.0800000000000001
sg2874
F1
sg2875
(lp2990
sg2877
S'Unionist'
p2991
sg2879
F1.2
sg2288
S'Unionist'
p2992
sg2881
F1
sg2882
(lp2993
sbasS'Wife'
p2994
(lp2995
g1
(g10
g3
NtRp2996
(dp2997
g2857
F1
sg2858
F4
sg2859
F1.1499999999999999
sg2860
F1
sg2861
(lp2998
sg2863
F1.0900000000000001
sg2864
F1
sg2282
g2994
sg2865
F12
sg2866
F1.0800000000000001
sg2867
(lp2999
g2732
ag2770
asg2869
F1.1000000000000001
sg2870
F1.1499999999999999
sg2871
(lp3000
g2762
ag2705
ag2422
asg2873
F1.0800000000000001
sg2874
F1
sg2875
(lp3001
sg2877
S'Wife'
p3002
sg2879
F1.2
sg2288
S'Sarah Mossman'
p3003
sg2881
F1
sg2882
(lp3004
sbasS'PresidentAlien'
p3005
(lp3006
g1
(g10
g3
NtRp3007
(dp3008
g2857
F1
sg2858
F4
sg2859
F1.1499999999999999
sg2860
F1
sg2861
(lp3009
sg2863
F1.0900000000000001
sg2864
F1
sg2282
g3005
sg2865
F10
sg2866
F1.0800000000000001
sg2867
(lp3010
g2770
ag2590
ag2299
ag2689
ag2732
asg2869
F1.1000000000000001
sg2870
F1.1499999999999999
sg2871
(lp3011
g2621
ag2414
ag2705
asg2873
F1.0800000000000001
sg2874
F1
sg2875
(lp3012
sg2877
S'Politician'
p3013
sg2879
F1.2
sg2288
S'President Alien'
p3014
sg2881
F1
sg2882
(lp3015
sbasS'Governor'
p3016
(lp3017
g1
(g10
g3
NtRp3018
(dp3019
g2857
F1
sg2858
F4
sg2859
F1.1499999999999999
sg2860
F1
sg2861
(lp3020
sg2863
F1.0900000000000001
sg2864
F1
sg2282
g3016
sg2865
F10
sg2866
F1.0800000000000001
sg2867
(lp3021
g2770
ag2590
ag2299
ag2689
ag2732
asg2869
F1.1000000000000001
sg2870
F1.1499999999999999
sg2871
(lp3022
g2621
ag2414
ag2705
asg2873
F1.0800000000000001
sg2874
F1
sg2875
(lp3023
sg2877
S'Politician'
p3024
sg2879
F1.2
sg2288
g3016
sg2881
F1
sg2882
(lp3025
sbasS'Lobbyist001'
p3026
(lp3027
g1
(g10
g3
NtRp3028
(dp3029
g2857
F1
sg2858
F4
sg2859
F1.1499999999999999
sg2860
F1
sg2861
(lp3030
sg2863
F1.0900000000000001
sg2864
F1
sg2282
g3026
sg2865
F10
sg2866
F1.0800000000000001
sg2867
(lp3031
g2513
ag2724
asg2869
F1.1000000000000001
sg2870
F1.1499999999999999
sg2871
(lp3032
g2637
ag2470
asg2873
F1.0800000000000001
sg2874
F1
sg2875
(lp3033
g2673
asg2877
S'Lobbyist'
p3034
sg2879
F1.2
sg2288
S'Lobbyist'
p3035
sg2881
F1
sg2882
(lp3036
g2382
asbasS'Journalist001'
p3037
(lp3038
g1
(g10
g3
NtRp3039
(dp3040
g2857
F1
sg2858
F4
sg2859
F1.1499999999999999
sg2860
F1
sg2861
(lp3041
sg2863
F1.0900000000000001
sg2864
F1
sg2282
g3037
sg2865
F10
sg2866
F1.0800000000000001
sg2867
(lp3042
g2352
ag2746
asg2869
F1.1000000000000001
sg2870
F1.1499999999999999
sg2871
(lp3043
g2550
ag2254
ag2328
asg2873
F1.0800000000000001
sg2874
F1
sg2875
(lp3044
sg2877
S'Journalist'
p3045
sg2879
F1.2
sg2288
S'Journalist'
p3046
sg2881
F1
sg2882
(lp3047
sbasS'ReligiousNut001'
p3048
(lp3049
g1
(g10
g3
NtRp3050
(dp3051
g2857
F1
sg2858
F4
sg2859
F1.1499999999999999
sg2860
F1
sg2861
(lp3052
sg2863
F1.0900000000000001
sg2864
F1
sg2282
g3048
sg2865
F10
sg2866
F1.0800000000000001
sg2867
(lp3053
g2336
ag2697
ag2732
asg2869
F1.1000000000000001
sg2870
F1.1499999999999999
sg2871
(lp3054
g2778
ag2457
asg2873
F1.0800000000000001
sg2874
F1
sg2875
(lp3055
sg2877
S'Religious'
p3056
sg2879
F1.2
sg2288
S'Religious Nut'
p3057
sg2881
F1
sg2882
(lp3058
g2689
asbasS'JointChief001'
p3059
(lp3060
g1
(g10
g3
NtRp3061
(dp3062
g2857
F1
sg2858
F4
sg2859
F1.1499999999999999
sg2860
F1
sg2861
(lp3063
sg2863
F1.0900000000000001
sg2864
F1
sg2282
g3059
sg2865
F10
sg2866
F1.0800000000000001
sg2867
(lp3064
g2724
ag2732
ag2754
ag2406
asg2869
F1.1000000000000001
sg2870
F1.1499999999999999
sg2871
(lp3065
g2534
asg2873
F1.0800000000000001
sg2874
F1
sg2875
(lp3066
sg2877
S'JointChief'
p3067
sg2879
F1.2
sg2288
S'Joint Chief'
p3068
sg2881
F1
sg2882
(lp3069
sbasS'Protester001'
p3070
(lp3071
g1
(g10
g3
NtRp3072
(dp3073
g2857
F1
sg2858
F4
sg2859
F1.1499999999999999
sg2860
F1
sg2861
(lp3074
sg2863
F1.0900000000000001
sg2864
F1
sg2282
g3070
sg2865
F10
sg2866
F1.0800000000000001
sg2867
(lp3075
g2497
ag2344
ag2390
asg2869
F1.1000000000000001
sg2870
F1.1499999999999999
sg2871
(lp3076
g2762
asg2873
F1.0800000000000001
sg2874
F1
sg2875
(lp3077
sg2877
S'Protestor'
p3078
sg2879
F1.2
sg2288
S'Protester'
p3079
sg2881
F1
sg2882
(lp3080
sbasS'TVPersonality001'
p3081
(lp3082
g1
(g10
g3
NtRp3083
(dp3084
g2857
F1
sg2858
F4
sg2859
F1.1499999999999999
sg2860
F1
sg2861
(lp3085
sg2863
F1.0900000000000001
sg2864
F1
sg2282
g3081
sg2865
F10
sg2866
F1.0800000000000001
sg2867
(lp3086
g2689
ag2352
asg2869
F1.1000000000000001
sg2870
F1.1499999999999999
sg2871
(lp3087
g2328
ag2313
asg2873
F1.0800000000000001
sg2874
F1
sg2875
(lp3088
sg2877
S'TVPersonality'
p3089
sg2879
F1.2
sg2288
S"Hecules O'Grady"
p3090
sg2881
F1
sg2882
(lp3091
sbasS'Player'
p3092
(lp3093
g1
(g10
g3
NtRp3094
(dp3095
g2857
F1
sg2858
F5
sg2859
F1.1499999999999999
sg2860
F1
sg2861
(lp3096
sg2863
F1.0900000000000001
sg2864
F1
sg2282
g3092
sg2865
F15
sg2866
F1.0800000000000001
sg2867
(lp3097
g2770
ag2299
ag2689
asg2869
F1.1000000000000001
sg2870
F1.1499999999999999
sg2871
(lp3098
g2621
ag2414
ag2762
asg2873
F1.0800000000000001
sg2874
F1
sg2875
(lp3099
sg2877
S'Player'
p3100
sg2879
F1.2
sg2288
S'Phillip Mossman'
p3101
sg2881
F2
sg2882
(lp3102
sbasS'Computer'
p3103
(lp3104
g1
(g10
g3
NtRp3105
(dp3106
g2857
F1
sg2858
F4
sg2859
F1.1499999999999999
sg2860
F1
sg2861
(lp3107
sg2863
F1.0900000000000001
sg2864
F1
sg2282
g3103
sg2865
F10
sg2866
F1.0800000000000001
sg2867
(lp3108
g2770
ag2590
ag2299
ag2689
ag2732
asg2869
F1.1000000000000001
sg2870
F1.1499999999999999
sg2871
(lp3109
g2621
ag2414
ag2705
asg2873
F1.0800000000000001
sg2874
F1
sg2875
(lp3110
sg2877
S'Politician'
p3111
sg2879
F1.2
sg2288
S'N.O.T.B.A.D'
p3112
sg2881
F1
sg2882
(lp3113
sbasS'CabinetPolitician001'
p3114
(lp3115
g1
(g10
g3
NtRp3116
(dp3117
g2857
F1
sg2858
F4
sg2859
F1.1499999999999999
sg2860
F1
sg2861
(lp3118
sg2863
F1.0900000000000001
sg2864
F1
sg2282
g3114
sg2865
F10
sg2866
F1.0800000000000001
sg2867
(lp3119
g2770
ag2590
ag2299
ag2689
ag2732
asg2869
F1.1000000000000001
sg2870
F1.1499999999999999
sg2871
(lp3120
g2621
ag2414
ag2705
asg2873
F1.0800000000000001
sg2874
F1
sg2875
(lp3121
sg2877
S'Politician'
p3122
sg2879
F1.2
sg2288
S'Cabinet Politician'
p3123
sg2881
F1
sg2882
(lp3124
sbasS'Constituent001'
p3125
(lp3126
g1
(g10
g3
NtRp3127
(dp3128
g2857
F1
sg2858
F4
sg2859
F1.1499999999999999
sg2860
F1
sg2861
(lp3129
sg2863
F1.0900000000000001
sg2864
F1
sg2282
g3125
sg2865
F10
sg2866
F1.0800000000000001
sg2867
(lp3130
g2497
ag2513
ag2724
asg2869
F1.1000000000000001
sg2870
F1.1499999999999999
sg2871
(lp3131
g2705
asg2873
F1.0800000000000001
sg2874
F1
sg2875
(lp3132
sg2877
S'Constituent'
p3133
sg2879
F1.2
sg2288
S'Constituent'
p3134
sg2881
F1
sg2882
(lp3135
sbasS'Mayor'
p3136
(lp3137
g1
(g10
g3
NtRp3138
(dp3139
g2857
F1
sg2858
F4
sg2859
F1.1499999999999999
sg2860
F1
sg2861
(lp3140
sg2863
F1.0900000000000001
sg2864
F1
sg2282
g3136
sg2865
F10
sg2866
F1.0800000000000001
sg2867
(lp3141
g2770
ag2590
ag2299
ag2689
ag2732
asg2869
F1.1000000000000001
sg2870
F1.1499999999999999
sg2871
(lp3142
g2621
ag2414
ag2705
asg2873
F1.0800000000000001
sg2874
F1
sg2875
(lp3143
sg2877
S'Politician'
p3144
sg2879
F1.2
sg2288
S'Mayor Goodman'
p3145
sg2881
F1
sg2882
(lp3146
sbassS'quest_items'
p3147
(dp3148
S'PEN'
p3149
g1
(g10
g3
NtRp3150
(dp3151
g2257
S''
sg2282
g3149
sg2288
S'A pen'
p3152
sbsS'INCRIMINATINGEVIDENCE'
p3153
g1
(g10
g3
NtRp3154
(dp3155
g2257
S''
sg2282
g3153
sg2288
S'Very incriminating proof that something troubling is going on in the White House.'
p3156
sbsS'BILLOFRIGHTS'
p3157
g1
(g10
g3
NtRp3158
(dp3159
g2257
S''
sg2282
g3157
sg2288
S"Citizens' Bill of Rights"
p3160
sbssg2867
(dp3161
S'Theo'
p3162
(lp3163
g2770
ag2590
ag2299
ag2689
ag2382
ag2621
ag2414
ag2673
ag2521
asS'JointChief'
p3164
(lp3165
g2724
ag2732
ag2754
ag2534
ag2406
asS'Politician'
p3166
(lp3167
g2770
ag2590
ag2299
ag2689
ag2621
ag2414
ag2705
ag2732
asS'Bumpkin'
p3168
(lp3169
g2689
ag2398
ag2505
ag2436
asS'TVPersonality'
p3170
(lp3171
g2689
ag2328
ag2352
ag2313
asS'SecretAgent'
p3172
(lp3173
g2732
ag2716
ag2754
ag2534
ag2558
asS'DeepThroat'
p3174
(lp3175
g2590
ag2732
ag2470
ag2724
asS'Protestor'
p3176
(lp3177
g2762
ag2497
ag2344
ag2390
asS'Lobbyist'
p3178
(lp3179
g2513
ag2637
ag2470
ag2724
asS'Teacher'
p3180
(lp3181
g2582
ag2732
ag2497
ag2762
asS'Player'
p3182
(lp3183
g2770
ag2299
ag2689
ag2621
ag2414
ag2762
asS'Computer'
p3184
(lp3185
g2534
ag2754
ag2360
ag2470
ag2724
ag2590
asS'Receptionist'
p3186
(lp3187
g2650
ag2598
ag2606
ag2368
asS'Hippy'
p3188
(lp3189
g2390
ag2497
ag2542
ag2566
ag2762
ag2705
asS'Constituent'
p3190
(lp3191
g2497
ag2705
ag2513
ag2724
asS'Wife'
p3192
(lp3193
g2762
ag2705
ag2732
ag2770
ag2422
asS'WarVet'
p3194
(lp3195
g2724
ag2732
ag2681
ag2762
asS'Religious'
p3196
(lp3197
g2336
ag2778
ag2457
ag2697
ag2732
asS'Unionist'
p3198
(lp3199
g2724
ag2732
ag2497
ag2582
asS'Journalist'
p3200
(lp3201
g2352
ag2746
ag2550
ag2254
ag2328
assS'shops'
p3202
(dp3203
sS'encounters'
p3204
(dp3205
S'P-easy-05'
p3206
g1
(g10
g3
NtRp3207
(dp3208
S'item_attack_drops'
p3209
(lp3210
g1
(c__main__
ItemAttack
p3211
g3
NtRp3212
(dp3213
S'attack'
p3214
g2574
sS'quantity'
p3215
I1
sbasS'item_attacks'
p3216
(lp3217
sg2288
S''
sg2792
F10
sS'monster2_lvl'
p3218
S''
sS'bribe_cost'
p3219
F50
sS'monster3'
p3220
S''
sS'monster1_lvl'
p3221
F1
sS'monster3_lvl'
p3222
S''
sS'monster4_lvl'
p3223
S''
sS'monster4'
p3224
S''
sS'monster2'
p3225
S''
sg2282
g3206
sS'monster1'
p3226
S'Journalist001'
p3227
sbsS'P-easy-04'
p3228
g1
(g10
g3
NtRp3229
(dp3230
g3209
(lp3231
g1
(g3211
g3
NtRp3232
(dp3233
g3214
g2444
sg3215
I1
sbasg3216
(lp3234
sg2288
S''
sg2792
F10
sg3218
F1
sg3219
F50
sg3220
S'Protester001'
p3235
sg3221
F1
sg3222
F1
sg3223
S''
sg3224
S''
sg3225
S'Protester001'
p3236
sg2282
g3228
sg3226
S'Protester001'
p3237
sbsS'P-easy-07'
p3238
g1
(g10
g3
NtRp3239
(dp3240
g3209
(lp3241
g1
(g3211
g3
NtRp3242
(dp3243
g3214
g2444
sg3215
I1
sbasg3216
(lp3244
sg2288
S''
sg2792
F10
sg3218
S''
sg3219
F50
sg3220
S''
sg3221
F1
sg3222
S''
sg3223
S''
sg3224
S''
sg3225
S''
sg2282
g3238
sg3226
S'Constituent001'
p3245
sbsS'P-easy-06'
p3246
g1
(g10
g3
NtRp3247
(dp3248
g3209
(lp3249
g1
(g3211
g3
NtRp3250
(dp3251
g3214
g2705
sg3215
I1
sbasg3216
(lp3252
sg2288
S''
sg2792
F10
sg3218
F1
sg3219
F50
sg3220
S''
sg3221
F1
sg3222
S''
sg3223
S''
sg3224
S''
sg3225
S'Lobbyist001'
p3253
sg2282
g3246
sg3226
S'Lobbyist001'
p3254
sbsS'P-easy-01'
p3255
g1
(g10
g3
NtRp3256
(dp3257
g3209
(lp3258
g1
(g3211
g3
NtRp3259
(dp3260
g3214
g2484
sg3215
I1
sbasg3216
(lp3261
g1
(g3211
g3
NtRp3262
(dp3263
g3214
g2574
sg3215
I1
sbasg2288
S'The quest for pen'
p3264
sg2792
F10
sg3218
S''
sg3219
F50
sg3220
S''
sg3221
F1
sg3222
S''
sg3223
S''
sg3224
S''
sg3225
S''
sg2282
g3255
sg3226
S'Receptionist001'
p3265
sbsS'P-easy-03'
p3266
g1
(g10
g3
NtRp3267
(dp3268
g3209
(lp3269
g1
(g3211
g3
NtRp3270
(dp3271
g3214
g2484
sg3215
I1
sbasg3216
(lp3272
sg2288
S''
sg2792
F10
sg3218
F1
sg3219
F50
sg3220
S''
sg3221
F1
sg3222
S''
sg3223
S''
sg3224
S''
sg3225
S'Protester001'
p3273
sg2282
g3266
sg3226
S'Protester001'
p3274
sbsS'P-easy-02'
p3275
g1
(g10
g3
NtRp3276
(dp3277
g3209
(lp3278
sg3216
(lp3279
sg2288
S''
sg2792
F10
sg3218
F1
sg3219
F50
sg3220
S''
sg3221
F1
sg3222
S''
sg3223
S''
sg3224
S''
sg3225
S'Protester001'
p3280
sg2282
g3275
sg3226
S'Protester001'
p3281
sbsS'P-easy-09'
p3282
g1
(g10
g3
NtRp3283
(dp3284
g3209
(lp3285
g1
(g3211
g3
NtRp3286
(dp3287
g3214
g2484
sg3215
I1
sbasg3216
(lp3288
sg2288
S''
sg2792
F10
sg3218
F1
sg3219
F50
sg3220
S'Constituent001'
p3289
sg3221
F1
sg3222
F1
sg3223
S''
sg3224
S''
sg3225
S'Constituent001'
p3290
sg2282
g3282
sg3226
S'Constituent001'
p3291
sbsS'P-easy-08'
p3292
g1
(g10
g3
NtRp3293
(dp3294
g3209
(lp3295
sg3216
(lp3296
sg2288
S''
sg2792
F10
sg3218
F1
sg3219
F50
sg3220
S''
sg3221
F1
sg3222
S''
sg3223
S''
sg3224
S''
sg3225
S'Constituent001'
p3297
sg2282
g3292
sg3226
S'Constituent001'
p3298
sbsS'P-med-08'
p3299
g1
(g10
g3
NtRp3300
(dp3301
g3209
(lp3302
sg3216
(lp3303
sg2288
S''
sg2792
F10
sg3218
F1
sg3219
F50
sg3220
S'Politician001'
p3304
sg3221
F1
sg3222
F1
sg3223
S''
sg3224
S''
sg3225
S'Politician001'
p3305
sg2282
g3299
sg3226
S'Politician001'
p3306
sbsS'P-med-09'
p3307
g1
(g10
g3
NtRp3308
(dp3309
g3209
(lp3310
sg3216
(lp3311
sg2288
S''
sg2792
F10
sg3218
F1
sg3219
F50
sg3220
S'Politician001'
p3312
sg3221
F1
sg3222
F1
sg3223
S''
sg3224
S''
sg3225
S'ReligiousNut001'
p3313
sg2282
g3307
sg3226
S'Politician001'
p3314
sbsS'P-med-02'
p3315
g1
(g10
g3
NtRp3316
(dp3317
g3209
(lp3318
sg3216
(lp3319
sg2288
S''
sg2792
F10
sg3218
F1
sg3219
F50
sg3220
S''
sg3221
F1
sg3222
S''
sg3223
S''
sg3224
S''
sg3225
S'Politician001'
p3320
sg2282
g3315
sg3226
S'Politician001'
p3321
sbsS'P-med-03'
p3322
g1
(g10
g3
NtRp3323
(dp3324
g3209
(lp3325
sg3216
(lp3326
sg2288
S''
sg2792
F10
sg3218
F1
sg3219
F50
sg3220
S''
sg3221
F1
sg3222
S''
sg3223
S''
sg3224
S''
sg3225
S'Bumpkin001'
p3327
sg2282
g3322
sg3226
S'Bumpkin001'
p3328
sbsS'P-med-01'
p3329
g1
(g10
g3
NtRp3330
(dp3331
g3209
(lp3332
sg3216
(lp3333
sg2288
S''
sg2792
F10
sg3218
F1
sg3219
F50
sg3220
S''
sg3221
F1
sg3222
S''
sg3223
S''
sg3224
S''
sg3225
S'Politician001'
p3334
sg2282
g3329
sg3226
S'Politician001'
p3335
sbsS'P-med-06'
p3336
g1
(g10
g3
NtRp3337
(dp3338
g3209
(lp3339
sg3216
(lp3340
sg2288
S''
sg2792
F10
sg3218
F1
sg3219
F50
sg3220
S'Politician001'
p3341
sg3221
F1
sg3222
F1
sg3223
S''
sg3224
S''
sg3225
S'Governor'
p3342
sg2282
g3336
sg3226
S'Politician001'
p3343
sbsS'P-med-07'
p3344
g1
(g10
g3
NtRp3345
(dp3346
g3209
(lp3347
sg3216
(lp3348
sg2288
S''
sg2792
F10
sg3218
F1
sg3219
F50
sg3220
S''
sg3221
F1
sg3222
S''
sg3223
S''
sg3224
S''
sg3225
S'Journalist001'
p3349
sg2282
g3344
sg3226
S'Politician001'
p3350
sbsS'P-med-04'
p3351
g1
(g10
g3
NtRp3352
(dp3353
g3209
(lp3354
sg3216
(lp3355
sg2288
S''
sg2792
F10
sg3218
F1
sg3219
F50
sg3220
S'Bumpkin001'
p3356
sg3221
F1
sg3222
F1
sg3223
S''
sg3224
S''
sg3225
S'Bumpkin001'
p3357
sg2282
g3351
sg3226
S'Bumpkin001'
p3358
sbsS'P-med-05'
p3359
g1
(g10
g3
NtRp3360
(dp3361
g3209
(lp3362
sg3216
(lp3363
sg2288
S''
sg2792
F10
sg3218
F1
sg3219
F50
sg3220
S'Politician001'
p3364
sg3221
F1
sg3222
F1
sg3223
S''
sg3224
S''
sg3225
S'Journalist001'
p3365
sg2282
g3359
sg3226
S'Journalist001'
p3366
sbsS'P-med-24'
p3367
g1
(g10
g3
NtRp3368
(dp3369
g3209
(lp3370
sg3216
(lp3371
sg2288
S''
sg2792
F10
sg3218
F1
sg3219
F50
sg3220
S'Politician001'
p3372
sg3221
F1
sg3222
F1
sg3223
S''
sg3224
S''
sg3225
S'PresidentAlien'
p3373
sg2282
g3367
sg3226
S'Politician001'
p3374
sbsS'P-med-20'
p3375
g1
(g10
g3
NtRp3376
(dp3377
g3209
(lp3378
sg3216
(lp3379
sg2288
S''
sg2792
F10
sg3218
F1
sg3219
F50
sg3220
S'Journalist001'
p3380
sg3221
F1
sg3222
F1
sg3223
S''
sg3224
S''
sg3225
S'TVPersonality001'
p3381
sg2282
g3375
sg3226
S'Journalist001'
p3382
sbsS'P-med-21'
p3383
g1
(g10
g3
NtRp3384
(dp3385
g3209
(lp3386
sg3216
(lp3387
sg2288
S''
sg2792
F10
sg3218
F1
sg3219
F50
sg3220
S'Politician001'
p3388
sg3221
F1
sg3222
F1
sg3223
S''
sg3224
S''
sg3225
S'President'
p3389
sg2282
g3383
sg3226
S'Politician001'
p3390
sbsS'P-med-22'
p3391
g1
(g10
g3
NtRp3392
(dp3393
g3209
(lp3394
sg3216
(lp3395
sg2288
S''
sg2792
F10
sg3218
F1
sg3219
F50
sg3220
S''
sg3221
F1
sg3222
S''
sg3223
S''
sg3224
S''
sg3225
S'DeepThroat'
p3396
sg2282
g3391
sg3226
S'DeepThroat'
p3397
sbsS'P-med-23'
p3398
g1
(g10
g3
NtRp3399
(dp3400
g3209
(lp3401
sg3216
(lp3402
sg2288
S''
sg2792
F10
sg3218
F1
sg3219
F50
sg3220
S'Politician001'
p3403
sg3221
F1
sg3222
F1
sg3223
F1
sg3224
S'Politician001'
p3404
sg3225
S'President'
p3405
sg2282
g3398
sg3226
S'Politician001'
p3406
sbsS'P-hard-04'
p3407
g1
(g10
g3
NtRp3408
(dp3409
g3209
(lp3410
sg3216
(lp3411
sg2288
S''
sg2792
F10
sg3218
F1
sg3219
F50
sg3220
S'WarVet001'
p3412
sg3221
F1
sg3222
F1
sg3223
S''
sg3224
S''
sg3225
S'WarVet001'
p3413
sg2282
g3407
sg3226
S'WarVet001'
p3414
sbsS'P-hard-05'
p3415
g1
(g10
g3
NtRp3416
(dp3417
g3209
(lp3418
sg3216
(lp3419
sg2288
S''
sg2792
F10
sg3218
F1
sg3219
F50
sg3220
S'WarVet001'
p3420
sg3221
F1
sg3222
F1
sg3223
F1
sg3224
S'WarVet001'
p3421
sg3225
S'WarVet001'
p3422
sg2282
g3415
sg3226
S'WarVet001'
p3423
sbsS'P-hard-02'
p3424
g1
(g10
g3
NtRp3425
(dp3426
g3209
(lp3427
sg3216
(lp3428
sg2288
S''
sg2792
F10
sg3218
F1
sg3219
F50
sg3220
S'Journalist001'
p3429
sg3221
F1
sg3222
F1
sg3223
S''
sg3224
S''
sg3225
S'TVPersonality001'
p3430
sg2282
g3424
sg3226
S'Journalist001'
p3431
sbsS'P-hard-03'
p3432
g1
(g10
g3
NtRp3433
(dp3434
g3209
(lp3435
sg3216
(lp3436
sg2288
S''
sg2792
F10
sg3218
F1
sg3219
F50
sg3220
S'Journalist001'
p3437
sg3221
F1
sg3222
F1
sg3223
S''
sg3224
S''
sg3225
S'Journalist001'
p3438
sg2282
g3432
sg3226
S'TVPersonality001'
p3439
sbsS'P-hard-01'
p3440
g1
(g10
g3
NtRp3441
(dp3442
g3209
(lp3443
sg3216
(lp3444
sg2288
S''
sg2792
F10
sg3218
F1
sg3219
F50
sg3220
S'Journalist001'
p3445
sg3221
F1
sg3222
F1
sg3223
S''
sg3224
S''
sg3225
S'Journalist001'
p3446
sg2282
g3440
sg3226
S'Journalist001'
p3447
sbsS'P-easy-10'
p3448
g1
(g10
g3
NtRp3449
(dp3450
g3209
(lp3451
sg3216
(lp3452
sg2288
S''
sg2792
F10
sg3218
F1
sg3219
F50
sg3220
S'Politician001'
p3453
sg3221
F1
sg3222
F1
sg3223
S''
sg3224
S''
sg3225
S'Mayor'
p3454
sg2282
g3448
sg3226
S'Politician001'
p3455
sbsS'P-med-19'
p3456
g1
(g10
g3
NtRp3457
(dp3458
g3209
(lp3459
sg3216
(lp3460
sg2288
S''
sg2792
F10
sg3218
F1
sg3219
F50
sg3220
S''
sg3221
F1
sg3222
S''
sg3223
S''
sg3224
S''
sg3225
S'DeepThroat'
p3461
sg2282
g3456
sg3226
S'DeepThroat'
p3462
sbsS'P-med-18'
p3463
g1
(g10
g3
NtRp3464
(dp3465
g3209
(lp3466
sg3216
(lp3467
sg2288
S''
sg2792
F10
sg3218
F1
sg3219
F50
sg3220
S'ReligiousNut001'
p3468
sg3221
F1
sg3222
F1
sg3223
F1
sg3224
S'ReligiousNut001'
p3469
sg3225
S'ReligiousNut001'
p3470
sg2282
g3463
sg3226
S'ReligiousNut001'
p3471
sbsS'P-med-15'
p3472
g1
(g10
g3
NtRp3473
(dp3474
g3209
(lp3475
sg3216
(lp3476
sg2288
S''
sg2792
F10
sg3218
F1
sg3219
F50
sg3220
S''
sg3221
F1
sg3222
S''
sg3223
S''
sg3224
S''
sg3225
S'ReligiousNut001'
p3477
sg2282
g3472
sg3226
S'ReligiousNut001'
p3478
sbsS'P-med-14'
p3479
g1
(g10
g3
NtRp3480
(dp3481
g3209
(lp3482
sg3216
(lp3483
sg2288
S''
sg2792
F10
sg3218
F1
sg3219
F50
sg3220
S'Lobbyist001'
p3484
sg3221
F1
sg3222
F1
sg3223
F1
sg3224
S'Lobbyist001'
p3485
sg3225
S'Lobbyist001'
p3486
sg2282
g3479
sg3226
S'Lobbyist001'
p3487
sbsS'P-med-17'
p3488
g1
(g10
g3
NtRp3489
(dp3490
g3209
(lp3491
sg3216
(lp3492
sg2288
S''
sg2792
F10
sg3218
F1
sg3219
F50
sg3220
S'ReligiousNut001'
p3493
sg3221
F1
sg3222
F1
sg3223
S''
sg3224
S''
sg3225
S'ReligiousNut001'
p3494
sg2282
g3488
sg3226
S'ReligiousNut001'
p3495
sbsS'P-med-16'
p3496
g1
(g10
g3
NtRp3497
(dp3498
g3209
(lp3499
sg3216
(lp3500
sg2288
S''
sg2792
F10
sg3218
F1
sg3219
F50
sg3220
S'ReligiousNut001'
p3501
sg3221
F1
sg3222
F1
sg3223
S''
sg3224
S''
sg3225
S'ReligiousNut001'
p3502
sg2282
g3496
sg3226
S'ReligiousNut001'
p3503
sbsS'P-med-11'
p3504
g1
(g10
g3
NtRp3505
(dp3506
g3209
(lp3507
sg3216
(lp3508
sg2288
S''
sg2792
F10
sg3218
F1
sg3219
F50
sg3220
S'Politician001'
p3509
sg3221
F1
sg3222
F1
sg3223
F1
sg3224
S'Politician001'
p3510
sg3225
S'Politician001'
p3511
sg2282
g3504
sg3226
S'Politician001'
p3512
sbsS'P-med-10'
p3513
g1
(g10
g3
NtRp3514
(dp3515
g3209
(lp3516
sg3216
(lp3517
sg2288
S''
sg2792
F10
sg3218
F1
sg3219
F50
sg3220
S'ReligiousNut001'
p3518
sg3221
F1
sg3222
F1
sg3223
S''
sg3224
S''
sg3225
S'Politician001'
p3519
sg2282
g3513
sg3226
S'Politician001'
p3520
sbsS'P-med-13'
p3521
g1
(g10
g3
NtRp3522
(dp3523
g3209
(lp3524
sg3216
(lp3525
sg2288
S''
sg2792
F10
sg3218
F1
sg3219
F50
sg3220
S'Lobbyist001'
p3526
sg3221
F1
sg3222
F1
sg3223
S''
sg3224
S''
sg3225
S'Lobbyist001'
p3527
sg2282
g3521
sg3226
S'Lobbyist001'
p3528
sbsS'P-med-12'
p3529
g1
(g10
g3
NtRp3530
(dp3531
g3209
(lp3532
sg3216
(lp3533
sg2288
S''
sg2792
F10
sg3218
F1
sg3219
F50
sg3220
S'Lobbyist001'
p3534
sg3221
F1
sg3222
F1
sg3223
S''
sg3224
S''
sg3225
S'Lobbyist001'
p3535
sg2282
g3529
sg3226
S'Lobbyist001'
p3536
sbssb.