ccopy_reg
_reconstructor
p1
(c__main__
GameData
p2
c__builtin__
object
p3
NtRp4
(dp5
S'script'
p6
(dp7
S'_Act2'
p8
(lp9
g1
(c__main__
TableRow
p10
g3
NtRp11
(dp12
S'action'
p13
S'GotoMap'
p14
sS'trigger'
p15
g8
sS'param'
p16
S'act2'
p17
sS'dialog'
p18
S''
sbasS'FlunkyTest'
p19
(lp20
g1
(g10
g3
NtRp21
(dp22
g13
S'LearnAttack'
p23
sg15
g19
sg16
S'SLANDER'
p24
sg18
S'...'
p25
sbag1
(g10
g3
NtRp26
(dp27
g13
S'GiveSpin'
p28
sg15
S'FlunkyTest'
p29
sg16
F2
sg18
S'Here is spin'
p30
sbag1
(g10
g3
NtRp31
(dp32
g13
S'GiveMoney'
p33
sg15
S'FlunkyTest'
p34
sg16
F100
sg18
S'Here is $100'
p35
sbag1
(g10
g3
NtRp36
(dp37
g13
S'RequireCount'
p38
sg15
S'FlunkyTest'
p39
sg16
S'FLUNKIES:3'
p40
sg18
S'Take out 3 flunkies'
p41
sbag1
(g10
g3
NtRp42
(dp43
g13
S'Say'
p44
sg15
S'FlunkyTest'
p45
sg16
S''
sg18
S'Thanks!'
p46
sbasS'Wife'
p47
(lp48
g1
(g10
g3
NtRp49
(dp50
g13
S'GotoMap'
p51
sg15
g47
sg16
S'act1'
p52
sg18
S''
sbag1
(g10
g3
NtRp53
(dp54
g13
S'_RequireFlag'
p55
sg15
S'Wife'
p56
sg16
S'GOHOMETOWIFE'
p57
sg18
S'What are you doing here, Phillip? You should be at work!'
p58
sbag1
(g10
g3
NtRp59
(dp60
g13
S'Say'
p61
sg15
S'Wife'
p62
sg16
S''
sg18
S'Welcome home, Phillip! How was your workday?'
p63
sbag1
(g10
g3
NtRp64
(dp65
g13
S'PlayerSay'
p66
sg15
S'Wife'
p67
sg16
S''
sg18
S'...'
p68
sbag1
(g10
g3
NtRp69
(dp70
g13
S'Say'
p71
sg15
S'Wife'
p72
sg16
S''
sg18
S"That good, huh? You know this isn't what you want. Why don't you strike out on your own?"
p73
sbag1
(g10
g3
NtRp74
(dp75
g13
S'PlayerSay'
p76
sg15
S'Wife'
p77
sg16
S''
sg18
S"I didn't think I knew where to start to be a Mayor, but Mayor Goodman makes it look easy."
p78
sbag1
(g10
g3
NtRp79
(dp80
g13
S'Say'
p81
sg15
S'Wife'
p82
sg16
S''
sg18
S"That's the spirit! You can do it! All you need is some money and support."
p83
sbag1
(g10
g3
NtRp84
(dp85
g13
S'PlayerSay'
p86
sg15
S'Wife'
p87
sg16
S''
sg18
S'Well...OK! Lets start with money. We need a sponsor.'
p88
sbag1
(g10
g3
NtRp89
(dp90
g13
S'Say'
p91
sg15
S'Wife'
p92
sg16
S''
sg18
S'OK, lets go get one!'
p93
sbag1
(g10
g3
NtRp94
(dp95
g13
S'AddAlly'
p96
sg15
S'Wife'
p97
sg16
S'Wife:1'
p98
sg18
S'Sarah Mossman Joins Your Political Party!'
p99
sbag1
(g10
g3
NtRp100
(dp101
g13
S'SetFlag'
p102
sg15
S'Wife'
p103
sg16
S'STARTSPONSOR'
p104
sg18
S''
sbag1
(g10
g3
NtRp105
(dp106
g13
S'Destroy'
p107
sg15
S'Wife'
p108
sg16
S''
sg18
S''
sbasS'Flunky2'
p109
(lp110
g1
(g10
g3
NtRp111
(dp112
g13
S'Increment'
p113
sg15
g109
sg16
S'FLUNKIES'
p114
sg18
S''
sbag1
(g10
g3
NtRp115
(dp116
g13
S'Say'
p117
sg15
S'Flunky2'
p118
sg16
S''
sg18
S'You talked to me'
p119
sbag1
(g10
g3
NtRp120
(dp121
g13
S'Destroy'
p122
sg15
S'Flunky2'
p123
sg16
S''
sg18
S''
sbasS'Flunky3'
p124
(lp125
g1
(g10
g3
NtRp126
(dp127
g13
S'LearnAttack'
p128
sg15
g124
sg16
S'SLANDER'
p129
sg18
S''
sbag1
(g10
g3
NtRp130
(dp131
g13
S'Encounter'
p132
sg15
S'Flunky3'
p133
sg16
S'P-easy-01'
p134
sg18
S''
sbag1
(g10
g3
NtRp135
(dp136
g13
S'Destroy'
p137
sg15
S'Flunky3'
p138
sg16
S''
sg18
S''
sbasS'Flunky1'
p139
(lp140
g1
(g10
g3
NtRp141
(dp142
g13
S'Increment'
p143
sg15
g139
sg16
S'FLUNKIES'
p144
sg18
S''
sbag1
(g10
g3
NtRp145
(dp146
g13
S'Say'
p147
sg15
S'Flunky1'
p148
sg16
S''
sg18
S'You talked to me'
p149
sbag1
(g10
g3
NtRp150
(dp151
g13
S'Destroy'
p152
sg15
S'Flunky1'
p153
sg16
S''
sg18
S''
sbasS'Protester2'
p154
(lp155
g1
(g10
g3
NtRp156
(dp157
g13
S'Say'
p158
sg15
g154
sg16
S''
sg18
S"Bees buzz, Mayors lie, who's this Phillip Mossman guy?"
p159
sbag1
(g10
g3
NtRp160
(dp161
g13
S'RequireFlag'
p162
sg15
S'Protester2'
p163
sg16
S'PROTESTORS'
p164
sg18
S''
sbag1
(g10
g3
NtRp165
(dp166
g13
S'Encounter'
p167
sg15
S'Protester2'
p168
sg16
S'P-easy-03'
p169
sg18
S''
sbag1
(g10
g3
NtRp170
(dp171
g13
S'Destroy'
p172
sg15
S'Protester2'
p173
sg16
S''
sg18
S''
sbasS'Protester1'
p174
(lp175
g1
(g10
g3
NtRp176
(dp177
g13
S'Say'
p178
sg15
g174
sg16
S''
sg18
S"Fee Fi Fo Fum, we think Mayor Goodman's Dumb!"
p179
sbag1
(g10
g3
NtRp180
(dp181
g13
S'RequireFlag'
p182
sg15
S'Protester1'
p183
sg16
S'PROTESTORS'
p184
sg18
S''
sbag1
(g10
g3
NtRp185
(dp186
g13
S'Encounter'
p187
sg15
S'Protester1'
p188
sg16
S'P-easy-02'
p189
sg18
S''
sbag1
(g10
g3
NtRp190
(dp191
g13
S'Destroy'
p192
sg15
S'Protester1'
p193
sg16
S''
sg18
S''
sbasS'Head Protester'
p194
(lp195
g1
(g10
g3
NtRp196
(dp197
g13
S'Say'
p198
sg15
g194
sg16
S''
sg18
S"I am the head protester. You'll never convince us to back down!"
p199
sbag1
(g10
g3
NtRp200
(dp201
g13
S'RequireFlag'
p202
sg15
S'Head Protester'
p203
sg16
S'PROTESTORS'
p204
sg18
S''
sbag1
(g10
g3
NtRp205
(dp206
g13
S'PlayerSay'
p207
sg15
S'Head Protester'
p208
sg16
S''
sg18
S'What are you protesting?'
p209
sbag1
(g10
g3
NtRp210
(dp211
g13
S'Say'
p212
sg15
S'Head Protester'
p213
sg16
S''
sg18
S'Er...Injustice!'
p214
sbag1
(g10
g3
NtRp215
(dp216
g13
S'PlayerSay'
p217
sg15
S'Head Protester'
p218
sg16
S''
sg18
S'Injustice against what?'
p219
sbag1
(g10
g3
NtRp220
(dp221
g13
S'Say'
p222
sg15
S'Head Protester'
p223
sg16
S''
sg18
S'...'
p224
sbag1
(g10
g3
NtRp225
(dp226
g13
S'Say'
p227
sg15
S'Head Protester'
p228
sg16
S''
sg18
S'The People!'
p229
sbag1
(g10
g3
NtRp230
(dp231
g13
S'PlayerSay'
p232
sg15
S'Head Protester'
p233
sg16
S''
sg18
S'Yes, but which people?'
p234
sbag1
(g10
g3
NtRp235
(dp236
g13
S'Say'
p237
sg15
S'Head Protester'
p238
sg16
S''
sg18
S'See? What a fascist, ALL people you slimey politician scum!'
p239
sbag1
(g10
g3
NtRp240
(dp241
g13
S'Encounter'
p242
sg15
S'Head Protester'
p243
sg16
S'P-easy-04'
p244
sg18
S''
sbag1
(g10
g3
NtRp245
(dp246
g13
S'Say'
p247
sg15
S'Head Protester'
p248
sg16
S''
sg18
S"Alright, fine! We'll stop protesting...whatever we were protesting."
p249
sbag1
(g10
g3
NtRp250
(dp251
g13
S'SetFlag'
p252
sg15
S'Head Protester'
p253
sg16
S'PROTESTORSDEAD'
p254
sg18
S''
sbag1
(g10
g3
NtRp255
(dp256
g13
S'Destroy'
p257
sg15
S'Head Protester'
p258
sg16
S''
sg18
S''
sbasS'Receptionist'
p259
(lp260
g1
(g10
g3
NtRp261
(dp262
g13
S'Encounter'
p263
sg15
g259
sg16
S'P-easy-01'
p264
sg18
S''
sbag1
(g10
g3
NtRp265
(dp266
g13
S'GiveItem'
p267
sg15
S'Receptionist'
p268
sg16
S'PEN'
p269
sg18
S'Receptionist sighs and hands over the pen.'
p270
sbag1
(g10
g3
NtRp271
(dp272
g13
S'Destroy'
p273
sg15
S'Receptionist'
p274
sg16
S''
sg18
S''
sbasS'Sponsor'
p275
(lp276
g1
(g10
g3
NtRp277
(dp278
g13
S'RequireFlag'
p279
sg15
g275
sg16
S'STARTSPONSOR'
p280
sg18
S"Hmmm...Money, money, money. Sorry, what? I wasn't talking to you."
p281
sbag1
(g10
g3
NtRp282
(dp283
g13
S'Say'
p284
sg15
S'Sponsor'
p285
sg16
S''
sg18
S"Hello, I'm investigating new investments today. How can I help you?"
p286
sbag1
(g10
g3
NtRp287
(dp288
g13
S'PlayerSay'
p289
sg15
S'Sponsor'
p290
sg16
S''
sg18
S"Well, I've decided to run for Mayor! I could really use an investor."
p291
sbag1
(g10
g3
NtRp292
(dp293
g13
S'Say'
p294
sg15
S'Sponsor'
p295
sg16
S''
sg18
S"I don't know. You seem a little young. I don't think I'm convinced."
p296
sbag1
(g10
g3
NtRp297
(dp298
g13
S'Encounter'
p299
sg15
S'Sponsor'
p300
sg16
S'P-easy-06'
p301
sg18
S''
sbag1
(g10
g3
NtRp302
(dp303
g13
S'Say'
p304
sg15
S'Sponsor'
p305
sg16
S''
sg18
S"Wow! You sure have what it takes! Alright, he's a pile of cash!"
p306
sbag1
(g10
g3
NtRp307
(dp308
g13
S'Say'
p309
sg15
S'Sponsor'
p310
sg16
S''
sg18
S'Also, now that you have some funds, you might find it useful to...grease the wheels in some difficult situations.'
p311
sbag1
(g10
g3
NtRp312
(dp313
g13
S'LearnAttack'
p314
sg15
S'Sponsor'
p315
sg16
S'BRIBE'
p316
sg18
S'Phillip and Sarah learn to Bribe'
p317
sbag1
(g10
g3
NtRp318
(dp319
g13
S'LearnAttack'
p320
sg15
S'Sponsor'
p321
sg16
S'Wife:BRIBE'
p322
sg18
S''
sbag1
(g10
g3
NtRp323
(dp324
g13
S'SetFlag'
p325
sg15
S'Sponsor'
p326
sg16
S'STARTCONSTITUENTS'
p327
sg18
S''
sbag1
(g10
g3
NtRp328
(dp329
g13
S'PlayerSay'
p330
sg15
S'Sponsor'
p331
sg16
S''
sg18
S'Er, thanks! I suppose we should go gather some support from our constituents now.'
p332
sbag1
(g10
g3
NtRp333
(dp334
g13
S'Say'
p335
sg15
S'Sponsor'
p336
sg16
S''
sg18
S"Makes sense to me! I'm off, too. Money, money, money."
p337
sbag1
(g10
g3
NtRp338
(dp339
g13
S'Destroy'
p340
sg15
S'Sponsor'
p341
sg16
S''
sg18
S''
sbasS'P-easy-01'
p342
(lp343
g1
(g10
g3
NtRp344
(dp345
g13
S'Say'
p346
sg15
g342
sg16
S'Player'
p347
sg18
S'Well now we are fighting'
p348
sbag1
(g10
g3
NtRp349
(dp350
g13
S'Say'
p351
sg15
S'P-easy-01'
p352
sg16
S'Receptionist001'
p353
sg18
S"Let's go!"
p354
sbag1
(g10
g3
NtRp355
(dp356
g13
S'BeginCombat'
p357
sg15
S'P-easy-01'
p358
sg16
S''
sg18
S''
sbag1
(g10
g3
NtRp359
(dp360
g13
S'Say'
p361
sg15
S'P-easy-01'
p362
sg16
S'Receptionist001'
p363
sg18
S'Alas, I am dead'
p364
sbasS'Mayor'
p365
(lp366
g1
(g10
g3
NtRp367
(dp368
g13
S'Say'
p369
sg15
g365
sg16
S''
sg18
S"Hello, I'm the Mayor!"
p370
sbag1
(g10
g3
NtRp371
(dp372
g13
S'PlayerSay'
p373
sg15
S'Mayor'
p374
sg16
S''
sg18
S"Hello, Mayor Goodman, I'm Philip Mossman."
p375
sbag1
(g10
g3
NtRp376
(dp377
g13
S'Say'
p378
sg15
S'Mayor'
p379
sg16
S''
sg18
S"Ah yes, you're my new assistant. A good thing, too."
p380
sbag1
(g10
g3
NtRp381
(dp382
g13
S'Say'
p383
sg15
S'Mayor'
p384
sg16
S''
sg18
S"I've been searching for minutes and haven't been able to find my pen! I bet my receptionist stole it. She has sticky fingers."
p385
sbag1
(g10
g3
NtRp386
(dp387
g13
S'Say'
p388
sg15
S'Mayor'
p389
sg16
S''
sg18
S"Well, don't just stand there, go and get it!"
p390
sbag1
(g10
g3
NtRp391
(dp392
g13
S'SetFlag'
p393
sg15
S'Mayor'
p394
sg16
S'PENQUEST'
p395
sg18
S''
sbag1
(g10
g3
NtRp396
(dp397
g13
S'RequireItem'
p398
sg15
S'Mayor'
p399
sg16
S'PEN'
p400
sg18
S'Are you simple? Go and get my pen from that thieving receptionist.'
p401
sbag1
(g10
g3
NtRp402
(dp403
g13
S'Say'
p404
sg15
S'Mayor'
p405
sg16
S''
sg18
S"Great! I know she can give you a bit of a tongue-lashing, but she's a fantastic receptionist."
p406
sbag1
(g10
g3
NtRp407
(dp408
g13
S'Say'
p409
sg15
S'Mayor'
p410
sg16
S''
sg18
S"I'm sure you want to learn a thing or two about politics \xe2\x80\x93 who doesn't? - so lets get started"
p411
sbag1
(g10
g3
NtRp412
(dp413
g13
S'SetFlag'
p414
sg15
S'Mayor'
p415
sg16
S'PROTESTORS'
p416
sg18
S''
sbag1
(g10
g3
NtRp417
(dp418
g13
S'RequireFlag'
p419
sg15
S'Mayor'
p420
sg16
S'PROTESTORSDEAD'
p421
sg18
S'Run outside and tell those protesters to scram, will you?'
p422
sbag1
(g10
g3
NtRp423
(dp424
g13
S'Say'
p425
sg15
S'Mayor'
p426
sg16
S''
sg18
S"Hope they didn't give you too much trouble!"
p427
sbag1
(g10
g3
NtRp428
(dp429
g13
S'Say'
p430
sg15
S'Mayor'
p431
sg16
S''
sg18
S"Now that's sorted, there's a journalist from the local newspaper coming for an interview."
p432
sbag1
(g10
g3
NtRp433
(dp434
g13
S'Say'
p435
sg15
S'Mayor'
p436
sg16
S''
sg18
S"I certainly don't have time for it, so you can do the interview."
p437
sbag1
(g10
g3
NtRp438
(dp439
g13
S'Say'
p440
sg15
S'Mayor'
p441
sg16
S''
sg18
S"Be careful not to give too much away and if you could throw a few punches at the opposition that'd help."
p442
sbag1
(g10
g3
NtRp443
(dp444
g13
S'PlayerSay'
p445
sg15
S'Mayor'
p446
sg16
S''
sg18
S'You want me to...throw a punch?'
p447
sbag1
(g10
g3
NtRp448
(dp449
g13
S'Say'
p450
sg15
S'Mayor'
p451
sg16
S''
sg18
S"You're in politics and don't know how to fight dirty? Sheesh! Here, let me show you."
p452
sbag1
(g10
g3
NtRp453
(dp454
g13
S'LearnAttack'
p455
sg15
S'Mayor'
p456
sg16
S'SLANDER'
p457
sg18
S'Mayor teaches Phillip to Slander Opposition'
p458
sbag1
(g10
g3
NtRp459
(dp460
g13
S'Say'
p461
sg15
S'Mayor'
p462
sg16
S''
sg18
S"It's a pretty great tactic because it keeps eating away at them long after you've done it."
p463
sbag1
(g10
g3
NtRp464
(dp465
g13
S'SetFlag'
p466
sg15
S'Mayor'
p467
sg16
S'INTERVIEWSTART'
p468
sg18
S''
sbag1
(g10
g3
NtRp469
(dp470
g13
S'RequireFlag'
p471
sg15
S'Mayor'
p472
sg16
S'JOURNALISTINTERVIEW'
p473
sg18
S'Go handle that interview and remember to slander the opposition.'
p474
sbag1
(g10
g3
NtRp475
(dp476
g13
S'SetFlag'
p477
sg15
S'Mayor'
p478
sg16
S'GOHOMETOWIFE'
p479
sg18
S''
sbag1
(g10
g3
NtRp480
(dp481
g13
S'Say'
p482
sg15
S'Mayor'
p483
sg16
S''
sg18
S'OK, fine, now could you buzz off for a while? I need to get some work done.'
p484
sbag1
(g10
g3
NtRp485
(dp486
g13
S'RequireFlag'
p487
sg15
S'Mayor'
p488
sg16
S'CONSTITUENTSWON'
p489
sg18
S"Go home to your family. I have things to do that don't involve you."
p490
sbasS'Journalist'
p491
(lp492
g1
(g10
g3
NtRp493
(dp494
g13
S'RequireFlag'
p495
sg15
g491
sg16
S'INTERVIEWSTART'
p496
sg18
S'Leave me alone, kid I need to get this done before my deadline!'
p497
sbag1
(g10
g3
NtRp498
(dp499
g13
S'Say'
p500
sg15
S'Journalist'
p501
sg16
S''
sg18
S"Hey, where's the Mayor?"
p502
sbag1
(g10
g3
NtRp503
(dp504
g13
S'PlayerSay'
p505
sg15
S'Journalist'
p506
sg16
S''
sg18
S"He couldn't make it. I'll be taking the interview."
p507
sbag1
(g10
g3
NtRp508
(dp509
g13
S'Say'
p510
sg15
S'Journalist'
p511
sg16
S''
sg18
S'Great! Easy pickings! Lets go.'
p512
sbag1
(g10
g3
NtRp513
(dp514
g13
S'Encounter'
p515
sg15
S'Journalist'
p516
sg16
S'P-easy-05'
p517
sg18
S''
sbag1
(g10
g3
NtRp518
(dp519
g13
S'Say'
p520
sg15
S'Journalist'
p521
sg16
S''
sg18
S"SNORE! Fine, if I can't get anything juicy here I'll do another puff piece on my poodle Frank."
p522
sbag1
(g10
g3
NtRp523
(dp524
g13
S'SetFlag'
p525
sg15
S'Journalist'
p526
sg16
S'JOURNALISTINTERVIEW'
p527
sg18
S''
sbag1
(g10
g3
NtRp528
(dp529
g13
S'Destroy'
p530
sg15
S'Journalist'
p531
sg16
S''
sg18
S''
sbassS'attacks'
p532
(dp533
S'GETEXCLUSIVE'
p534
g1
(g10
g3
NtRp535
(dp536
S'base_damage_max'
p537
F4
sS'description'
p538
S'asdf'
p539
sS'weight'
p540
I1
sS'crit_chance_max'
p541
F5
sS'crit_chance_min'
p542
F2
sS'underlying_stat'
p543
S'Wit'
p544
sS'target_type'
p545
S'AllFriendly'
p546
sS'base_damage_min'
p547
F2
sS'spin_cost'
p548
F5
sS'effects'
p549
(lp550
g1
(c__main__
Effect
p551
g3
NtRp552
(dp553
S'function'
p554
S'add'
p555
sS'abbrv'
p556
S'(INCREASE)'
p557
sS'attribute'
p558
S'cunning'
p559
sS'value'
p560
F2
sS'rounds_min'
p561
F1
sS'rounds_max'
p562
F4
sS'id'
p563
S'Increase Cunning'
p564
sS'apply_to_source'
p565
S'TRUE'
p566
sbasS'target_count'
p567
I1
sS'crit_base_damage'
p568
F8
sg563
g534
sS'name'
p569
S'Get Exclusive'
p570
sbsS'LOSELOSE'
p571
g1
(g10
g3
NtRp572
(dp573
g537
F4
sg538
S'Causes all politicians in the target radius to lose votes'
p574
sg540
I1
sg541
F0
sg542
F0
sg543
S'Cunning'
p575
sg545
S'All'
p576
sg547
F4
sg548
I0
sg549
(lp577
sg567
I6
sg568
F0
sg563
g571
sg569
S'Lose/lose issue'
p578
sbsS'LIE'
p579
g1
(g10
g3
NtRp580
(dp581
g537
F6
sg538
S"It's only lying if they catch you. A strong attack with a danger of failing entirely and leaving you high and dry."
p582
sg540
F3
sg541
F10
sg542
F2
sg543
S'Wit'
p583
sg545
S'AllEnemy'
p584
sg547
F0
sg548
I0
sg549
(lp585
g1
(g551
g3
NtRp586
(dp587
g554
S'miss_turn'
p588
sg556
S'(MISS)'
p589
sg558
S''
sg560
F0
sg561
F1
sg562
F1
sg563
S'Critical Fail'
p590
sg565
S'TRUE'
p591
sbasg567
I1
sg568
F10
sg563
g579
sg569
S'Lie'
p592
sbsS'HILARIOUSANECDOTE'
p593
g1
(g10
g3
NtRp594
(dp595
g537
F8
sg538
S'asdf'
p596
sg540
I1
sg541
F0
sg542
F0
sg543
S'Wit'
p597
sg545
S'AllFriendly'
p598
sg547
F4
sg548
F5
sg549
(lp599
g1
(g551
g3
NtRp600
(dp601
g554
S'add'
p602
sg556
S'(INCREASE)'
p603
sg558
S'flair'
p604
sg560
F2
sg561
F1
sg562
F4
sg563
S'Increase Flair'
p605
sg565
S'TRUE'
p606
sbasg567
I1
sg568
F0
sg563
g593
sg569
S'Hilarious Anecdote'
p607
sbsS'SENSATIONALISE'
p608
g1
(g10
g3
NtRp609
(dp610
g537
F8
sg538
S'asdf'
p611
sg540
I1
sg541
F0
sg542
F0
sg543
S'Wit'
p612
sg545
S'AllEnemy'
p613
sg547
F4
sg548
F3
sg549
(lp614
sg567
I1
sg568
F0
sg563
g608
sg569
S'Sensationalise'
p615
sbsS'DENOUNCE'
p616
g1
(g10
g3
NtRp617
(dp618
g537
F5
sg538
S'asdf'
p619
sg540
F6
sg541
F10
sg542
F2
sg543
S'Cunning'
p620
sg545
S'AllEnemy'
p621
sg547
F2
sg548
I0
sg549
(lp622
sg567
I1
sg568
F8
sg563
g616
sg569
S'Denounce'
p623
sbsS'WHADOWEWANT'
p624
g1
(g10
g3
NtRp625
(dp626
g537
F6
sg538
S'asdf'
p627
sg540
I1
sg541
F0
sg542
F0
sg543
S'Cunning'
p628
sg545
S'AllEnemy'
p629
sg547
F3
sg548
I0
sg549
(lp630
sg567
I1
sg568
F0
sg563
g624
sg569
S'Whadowewant!'
p631
sbsS'SCOOP'
p632
g1
(g10
g3
NtRp633
(dp634
g537
F5
sg538
S'asdf'
p635
sg540
I1
sg541
F10
sg542
F5
sg543
S'Cunning'
p636
sg545
S'AllEnemy'
p637
sg547
F2
sg548
I0
sg549
(lp638
sg567
I1
sg568
F8
sg563
g632
sg569
S'Scoop'
p639
sbsS'CHOOSETARGETS'
p640
g1
(g10
g3
NtRp641
(dp642
g537
F7
sg538
S'asdf'
p643
sg540
I1
sg541
F10
sg542
F5
sg543
S'Cunning'
p644
sg545
S'AllEnemy'
p645
sg547
F2
sg548
I0
sg549
(lp646
sg567
I1
sg568
F9
sg563
g640
sg569
S'Choose Targets'
p647
sbsS'FILENAILS'
p648
g1
(g10
g3
NtRp649
(dp650
g537
F0
sg538
S'asdf'
p651
sg540
F100
sg541
F0
sg542
F0
sg543
S'Wit'
p652
sg545
S'AllEnemy'
p653
sg547
F0
sg548
F3
sg549
(lp654
g1
(g551
g3
NtRp655
(dp656
g554
S'drain'
p657
sg556
S''
sg558
S'votes'
p658
sg560
F-5
sg561
F3
sg562
F3
sg563
S'Votes Restore'
p659
sg565
S'TRUE'
p660
sbasg567
I1
sg568
F0
sg563
g648
sg569
S'File Nails'
p661
sbsS'BRIBE'
p662
g1
(g10
g3
NtRp663
(dp664
g537
F1
sg538
S'Is there anything more convincing than money? Buying loyalty gets expensive so be careful.'
p665
sg540
I1
sg541
F1
sg542
F1
sg543
S'Money'
p666
sg545
S'AllEnemy'
p667
sg547
F2
sg548
I0
sg549
(lp668
sg567
I1
sg568
F1
sg563
g662
sg569
S'Bribe'
p669
sbsS'SING'
p670
g1
(g10
g3
NtRp671
(dp672
g537
F-3
sg538
S'Why bandy words with politicians when you can sing a catchy tune! Restores votes.'
p673
sg540
I1
sg541
F0
sg542
F0
sg543
S'Wit'
p674
sg545
S'AllFriendly'
p675
sg547
F-5
sg548
I0
sg549
(lp676
sg567
I4
sg568
F0
sg563
g670
sg569
S'Rousing Song'
p677
sbsS'FEAR'
p678
g1
(g10
g3
NtRp679
(dp680
g537
F0
sg538
S'asdf'
p681
sg540
F2
sg541
F0
sg542
F0
sg543
S'Wit'
p682
sg545
S'AllFriendly'
p683
sg547
F0
sg548
F4
sg549
(lp684
g552
asg567
I1
sg568
F0
sg563
g678
sg569
S'Fear Change'
p685
sbsS'RAISEDEFCON'
p686
g1
(g10
g3
NtRp687
(dp688
g537
F5
sg538
S'asdf'
p689
sg540
I1
sg541
F7
sg542
F3
sg543
S'Cunning'
p690
sg545
S'AllEnemy'
p691
sg547
F4
sg548
I0
sg549
(lp692
sg567
I1
sg568
F8
sg563
g686
sg569
S'Raise DEFCON'
p693
sbsS'NEGATTACKAD'
p694
g1
(g10
g3
NtRp695
(dp696
g537
F8
sg538
S"Take them all down. They're definitely all bad people. Not like you."
p697
sg540
I1
sg541
F10
sg542
F10
sg543
S'Cunning'
p698
sg545
S'AllEnemy'
p699
sg547
F3
sg548
F5
sg549
(lp700
sg567
I1
sg568
F10
sg563
g694
sg569
S'Negative Attack Ad'
p701
sbsS'DAZZLE'
p702
g1
(g10
g3
NtRp703
(dp704
g537
F3
sg538
S'Being dazzling and admirable is a great way to take heat off politics'
p705
sg540
I1
sg541
F8
sg542
F5
sg543
S'Wit'
p706
sg545
S'AllEnemy'
p707
sg547
F2
sg548
F3
sg549
(lp708
g1
(g551
g3
NtRp709
(dp710
g554
S'reduce'
p711
sg556
S'(REDUCE)'
p712
sg558
S'cunning'
p713
sg560
F2
sg561
F2
sg562
F5
sg563
S'Reduce Cunning'
p714
sg565
S''
sbasg567
I4
sg568
F8
sg563
g702
sg569
S'Dazzle'
p715
sbsS'BELIEVEMEDIA'
p716
g1
(g10
g3
NtRp717
(dp718
g537
F3
sg538
S'asdf'
p719
sg540
I1
sg541
F15
sg542
F5
sg543
S'Cunning'
p720
sg545
S'AllEnemy'
p721
sg547
F1
sg548
I0
sg549
(lp722
sg567
I1
sg568
F12
sg563
g716
sg569
S'Believe Media'
p723
sbsS'PRPREP'
p724
g1
(g10
g3
NtRp725
(dp726
g537
F0
sg538
S"If you're going to need some spin, best see a spin doctor! Adds spin points."
p727
sg540
I1
sg541
F0
sg542
F0
sg543
S''
sg545
S'AllFriendly'
p728
sg547
F0
sg548
I0
sg549
(lp729
g1
(g551
g3
NtRp730
(dp731
g554
S'add_permanent'
p732
sg556
S''
sg558
S'spin'
p733
sg560
F5
sg561
F0
sg562
F0
sg563
S'Spin Restore'
p734
sg565
S'TRUE'
p735
sbasg567
I1
sg568
F0
sg563
g724
sg569
S'PR Prep'
p736
sbsS'CALLVATICAN'
p737
g1
(g10
g3
NtRp738
(dp739
g537
F0
sg538
S'Brings in 2 additional ReligousNuts at 2 levels lower than this one'
p740
sg540
I1
sg541
F0
sg542
F0
sg543
S'Wit'
p741
sg545
S'None'
p742
sg547
F0
sg548
F5
sg549
(lp743
g1
(g551
g3
NtRp744
(dp745
g554
S'call_friends'
p746
sg556
S''
sg558
S''
sg560
F2
sg561
F1
sg562
F1
sg563
S'Call Friends'
p747
sg565
S''
sbasg567
I1
sg568
F0
sg563
g737
sg569
S'Call Vatican'
p748
sbsS'BLACKMAIL'
p749
g1
(g10
g3
NtRp750
(dp751
g537
F6
sg538
S'asdf'
p752
sg540
I1
sg541
F10
sg542
F2
sg543
S'Wit'
p753
sg545
S'AllEnemy'
p754
sg547
F3
sg548
F4
sg549
(lp755
g1
(g551
g3
NtRp756
(dp757
g554
S'drain'
p758
sg556
S'(DRAIN)'
p759
sg558
S'votes'
p760
sg560
F15
sg561
F2
sg562
F5
sg563
S'Drain Votes'
p761
sg565
S''
sbasg567
I1
sg568
F2
sg563
g749
sg569
S'Blackmail'
p762
sbsS'PROTEST'
p763
g1
(g10
g3
NtRp764
(dp765
g537
F5
sg538
S'asdf'
p766
sg540
F6
sg541
F10
sg542
F2
sg543
S'Cunning'
p767
sg545
S'AllEnemy'
p768
sg547
F2
sg548
I0
sg549
(lp769
sg567
I1
sg568
F8
sg563
g763
sg569
S'Protest'
p770
sbsS'SPREADRUMOUR'
p771
g1
(g10
g3
NtRp772
(dp773
g537
F6
sg538
S'asdf'
p774
sg540
I1
sg541
F10
sg542
F2
sg543
S'Wit'
p775
sg545
S'AllEnemy'
p776
sg547
F2
sg548
F3
sg549
(lp777
sg567
I4
sg568
F8
sg563
g771
sg569
S'Spread Rumour'
p778
sbsS'AGENDA'
p779
g1
(g10
g3
NtRp780
(dp781
g537
F5
sg538
S'asdf'
p782
sg540
F6
sg541
F10
sg542
F2
sg543
S'Cunning'
p783
sg545
S'AllEnemy'
p784
sg547
F2
sg548
I0
sg549
(lp785
sg567
I1
sg568
F8
sg563
g779
sg569
S'Push Agenda'
p786
sbsS'FILIBUSTER'
p787
g1
(g10
g3
NtRp788
(dp789
g537
F0
sg538
S"You're not moving until they give in. Cause all opposition to miss their turn"
p790
sg540
I1
sg541
F0
sg542
F0
sg543
S'Wit'
p791
sg545
S'AllEnemy'
p792
sg547
F0
sg548
F8
sg549
(lp793
g1
(g551
g3
NtRp794
(dp795
g554
S'miss_turn'
p796
sg556
S'(MISS)'
p797
sg558
S''
sg560
F0
sg561
F1
sg562
F1
sg563
S'Miss Turn'
p798
sg565
S''
sbasg567
I1
sg568
F0
sg563
g787
sg569
S'Filibuster'
p799
sbsS'GATHERINTEL'
p800
g1
(g10
g3
NtRp801
(dp802
g537
F0
sg538
S'Increases Cunning.'
p803
sg540
I1
sg541
F0
sg542
F0
sg543
S'Wit'
p804
sg545
S'AllFriendly'
p805
sg547
F0
sg548
F3
sg549
(lp806
g552
asg567
I2
sg568
F0
sg563
g800
sg569
S'Gather Intelligence'
p807
sbsS'LOVE'
p808
g1
(g10
g3
NtRp809
(dp810
g537
F6
sg538
S'asdf'
p811
sg540
F2
sg541
F8
sg542
F2
sg543
S'Cunning'
p812
sg545
S'AllEnemy'
p813
sg547
F1
sg548
I0
sg549
(lp814
sg567
I1
sg568
F7
sg563
g808
sg569
S'Love'
p815
sbsS'OUTOFCONTEXT'
p816
g1
(g10
g3
NtRp817
(dp818
g537
F3
sg538
S'asdf'
p819
sg540
I1
sg541
F5
sg542
F2
sg543
S'Wit'
p820
sg545
S'AllEnemy'
p821
sg547
F2
sg548
F2
sg549
(lp822
g756
asg567
I1
sg568
F5
sg563
g816
sg569
S'Take Out Of Context'
p823
sbsS'GREATSUIT'
p824
g1
(g10
g3
NtRp825
(dp826
g537
F6
sg538
S'Well, we could argue, but have you noticed how fabulous this suit is?'
p827
sg540
I1
sg541
F11
sg542
F6
sg543
S'Cunning'
p828
sg545
S'AllEnemy'
p829
sg547
F3
sg548
I0
sg549
(lp830
sg567
I1
sg568
F12
sg563
g824
sg569
S'Look Great In Suit'
p831
sbsS'PEACE'
p832
g1
(g10
g3
NtRp833
(dp834
g537
F0
sg538
S'asdf'
p835
sg540
I1
sg541
F0
sg542
F0
sg543
S'Wit'
p836
sg545
S'AllEnemy'
p837
sg547
F0
sg548
F3
sg549
(lp838
g709
asg567
I4
sg568
F0
sg563
g832
sg569
S'Peace'
p839
sbsS'INSPSPEECH'
p840
g1
(g10
g3
NtRp841
(dp842
g537
F-2
sg538
S'Restore votes to all party members'
p843
sg540
I1
sg541
F0
sg542
F0
sg543
S'Cunning'
p844
sg545
S'AllFriendly'
p845
sg547
F-2
sg548
I0
sg549
(lp846
sg567
I4
sg568
F0
sg563
g840
sg569
S'Inspirational Speech'
p847
sbsS'STRIKE'
p848
g1
(g10
g3
NtRp849
(dp850
g537
F8
sg538
S'asdf'
p851
sg540
I1
sg541
F0
sg542
F0
sg543
S'Wit'
p852
sg545
S'AllEnemy'
p853
sg547
F0
sg548
F3
sg549
(lp854
g586
asg567
I1
sg568
F0
sg563
g848
sg569
S'Call A Strike'
p855
sbsS'SLANDER'
p856
g1
(g10
g3
NtRp857
(dp858
g537
F3
sg538
S'Strong against polititians...careful with those voters, though!'
p859
sg540
F4
sg541
F10
sg542
F2
sg543
S'Wit'
p860
sg545
S'AllEnemy'
p861
sg547
F2
sg548
I0
sg549
(lp862
g756
asg567
I1
sg568
F5
sg563
g856
sg569
S'Slander Opposition'
p863
sbsS'NATTER'
p864
g1
(g10
g3
NtRp865
(dp866
g537
F8
sg538
S'asdf'
p867
sg540
I1
sg541
F15
sg542
F5
sg543
S'Cunning'
p868
sg545
S'AllEnemy'
p869
sg547
F1
sg548
I0
sg549
(lp870
sg567
I1
sg568
F10
sg563
g864
sg569
S'Natter On'
p871
sbsS'GOSSIP'
p872
g1
(g10
g3
NtRp873
(dp874
g537
F3
sg538
S'asdf'
p875
sg540
I1
sg541
F10
sg542
F2
sg543
S'Wit'
p876
sg545
S'AllEnemy'
p877
sg547
F1
sg548
F2
sg549
(lp878
g709
asg567
I1
sg568
F6
sg563
g872
sg569
S'Gossip'
p879
sbsS'MISSTURN'
p880
g1
(g10
g3
NtRp881
(dp882
g537
F0
sg538
S'asdf'
p883
sg540
I1
sg541
F0
sg542
F0
sg543
S''
sg545
S'AllEnemy'
p884
sg547
F0
sg548
I0
sg549
(lp885
sg567
I1
sg568
F0
sg563
g880
sg569
S'Miss Turn'
p886
sbsS'BIELECTION'
p887
g1
(g10
g3
NtRp888
(dp889
g537
F4
sg538
S'Redistribute votes amongst targets'
p890
sg540
I1
sg541
F0
sg542
F0
sg543
S'Cunning'
p891
sg545
S'All'
p892
sg547
F-4
sg548
F4
sg549
(lp893
sg567
I8
sg568
F0
sg563
g887
sg569
S'Bielection'
p894
sbsS'SCARE'
p895
g1
(g10
g3
NtRp896
(dp897
g537
F7
sg538
S'Nothing rattles the brains like fear.'
p898
sg540
I1
sg541
F10
sg542
F2
sg543
S'Wit'
p899
sg545
S'AllEnemy'
p900
sg547
F2
sg548
I0
sg549
(lp901
g709
asg567
I2
sg568
F9
sg563
g895
sg569
S'Scare Campaign'
p902
sbsS'PAYOFF'
p903
g1
(g10
g3
NtRp904
(dp905
g537
F7
sg538
S'causes them to miss a number of turns'
p906
sg540
I1
sg541
F8
sg542
F2
sg543
S'Wit'
p907
sg545
S'AllEnemy'
p908
sg547
F2
sg548
F4
sg549
(lp909
g1
(g551
g3
NtRp910
(dp911
g554
S'miss_turn'
p912
sg556
S'(MISS)'
p913
sg558
S''
sg560
F0
sg561
F1
sg562
F3
sg563
S'Miss Turn Pay Off'
p914
sg565
S''
sbasg567
I1
sg568
F9
sg563
g903
sg569
S'Pay Off'
p915
sbsS'BUREAUCRACY'
p916
g1
(g10
g3
NtRp917
(dp918
g537
F5
sg538
S'asdf'
p919
sg540
F6
sg541
F10
sg542
F2
sg543
S'Cunning'
p920
sg545
S'AllEnemy'
p921
sg547
F2
sg548
I0
sg549
(lp922
sg567
I1
sg568
F8
sg563
g916
sg569
S'Bureaucracy'
p923
sbsS'RALLYAUDIENCE'
p924
g1
(g10
g3
NtRp925
(dp926
g537
F8
sg538
S'asdf'
p927
sg540
I1
sg541
F0
sg542
F0
sg543
S'Wit'
p928
sg545
S'AllFriendly'
p929
sg547
F4
sg548
F3
sg549
(lp930
g1
(g551
g3
NtRp931
(dp932
g554
S'add'
p933
sg556
S'(INCREASE)'
p934
sg558
S'charisma'
p935
sg560
F2
sg561
F1
sg562
F4
sg563
S'Increase Charisma'
p936
sg565
S'TRUE'
p937
sbasg567
I1
sg568
F0
sg563
g924
sg569
S'Rally Audience'
p938
sbsS'PORKBARREL'
p939
g1
(g10
g3
NtRp940
(dp941
g537
F6
sg538
S'Do something that benefits them specifically. Not advised against politicians.'
p942
sg540
I1
sg541
F0
sg542
F0
sg543
S'Wit'
p943
sg545
S'AllEnemy'
p944
sg547
F2
sg548
F2
sg549
(lp945
sg567
I1
sg568
F0
sg563
g939
sg569
S'Pork Barrel'
p946
sbsS'INSPIRE'
p947
g1
(g10
g3
NtRp948
(dp949
g537
F0
sg538
S'asdf'
p950
sg540
I1
sg541
F0
sg542
F0
sg543
S'Wit'
p951
sg545
S'AllFriendly'
p952
sg547
F0
sg548
F3
sg549
(lp953
g552
asg567
I4
sg568
F0
sg563
g947
sg569
S'Inspire'
p954
sbsS'JOKE'
p955
g1
(g10
g3
NtRp956
(dp957
g537
F3
sg538
S"Ha, ha, ha...what were we talking about? Diffuse the situation with some humour. Not good if it falls flat, but if they get it, it'll knock 'em dead."
p958
sg540
F3
sg541
F30
sg542
F10
sg543
S'Wit'
p959
sg545
S'AllEnemy'
p960
sg547
F2
sg548
I0
sg549
(lp961
sg567
I1
sg568
F10
sg563
g955
sg569
S'Joke'
p962
sbsS'PRAYFORSOULS'
p963
g1
(g10
g3
NtRp964
(dp965
g537
F6
sg538
S'asdf'
p966
sg540
F2
sg541
F10
sg542
F2
sg543
S'Cunning'
p967
sg545
S'None'
p968
sg547
F3
sg548
I0
sg549
(lp969
sg567
I1
sg568
F10
sg563
g963
sg569
S'Pray'
p970
sbsS'REVIVE'
p971
g1
(g10
g3
NtRp972
(dp973
g537
F0
sg538
S'Revive a defeated comrade to half votes'
p974
sg540
I1
sg541
F0
sg542
F0
sg543
S''
sg545
S'DeadFriendly'
p975
sg547
F0
sg548
F3
sg549
(lp976
g1
(g551
g3
NtRp977
(dp978
g554
S'revive'
p979
sg556
S''
sg558
S''
sg560
F0.5
sg561
F0
sg562
F0
sg563
S'Revive'
p980
sg565
S''
sbasg567
I1
sg568
F0
sg563
g971
sg569
S'Revive'
p981
sbsS'HUMANSHIELD'
p982
g1
(g10
g3
NtRp983
(dp984
g537
F5
sg538
S'No further questions. Step back, please.'
p985
sg540
I1
sg541
F5
sg542
F2
sg543
S'Wit'
p986
sg545
S'AllEnemy'
p987
sg547
F2
sg548
F4
sg549
(lp988
g794
asg567
I2
sg568
F12
sg563
g982
sg569
S'Human Shield'
p989
sbsS'MAKEDEMANDS'
p990
g1
(g10
g3
NtRp991
(dp992
g537
F8
sg538
S'asdf'
p993
sg540
I1
sg541
F0
sg542
F0
sg543
S'Cunning'
p994
sg545
S'AllEnemy'
p995
sg547
F0
sg548
I0
sg549
(lp996
g586
asg567
I1
sg568
F0
sg563
g990
sg569
S'Make Outrageous Demands'
p997
sbsS'DEFENSE'
p998
g1
(g10
g3
NtRp999
(dp1000
g537
F0
sg538
S'Gather strenth; -50% to all incoming attacks'
p1001
sg540
I1
sg541
F0
sg542
F0
sg543
S''
sg545
S'None'
p1002
sg547
F0
sg548
I0
sg549
(lp1003
g1
(g551
g3
NtRp1004
(dp1005
g554
S'add'
p1006
sg556
S'(DFND)'
p1007
sg558
S'resistance'
p1008
sg560
F0.5
sg561
F1
sg562
F1
sg563
S'Defense'
p1009
sg565
S'TRUE'
p1010
sbasg567
I1
sg568
F0
sg563
g998
sg569
S'Defense'
p1011
sbsS'MISCONSTRUE'
p1012
g1
(g10
g3
NtRp1013
(dp1014
g537
F8
sg538
S'asdf'
p1015
sg540
I1
sg541
F0
sg542
F0
sg543
S'Cunning'
p1016
sg545
S'AllEnemy'
p1017
sg547
F0
sg548
I0
sg549
(lp1018
g586
asg567
I1
sg568
F0
sg563
g1012
sg569
S'Misconstrue'
p1019
sbsS'NATIONALSECURITY'
p1020
g1
(g10
g3
NtRp1021
(dp1022
g537
F7
sg538
S"This is a matter of national security and they don't have codeword clearance"
p1023
sg540
I1
sg541
F10
sg542
F2
sg543
S'Cunning'
p1024
sg545
S'AllEnemy'
p1025
sg547
F2
sg548
I0
sg549
(lp1026
sg567
I1
sg568
F9
sg563
g1020
sg569
S'National Security'
p1027
sbsS'RALLY'
p1028
g1
(g10
g3
NtRp1029
(dp1030
g537
F-2
sg538
S'Get back some votes by rallying supporters'
p1031
sg540
I1
sg541
F0
sg542
F0
sg543
S'Wit'
p1032
sg545
S'AllFriendly'
p1033
sg547
F-4
sg548
F2
sg549
(lp1034
sg567
I1
sg568
F0
sg563
g1028
sg569
S'Rally Constituents'
p1035
sbsS'MESSAGE'
p1036
g1
(g10
g3
NtRp1037
(dp1038
g537
F5
sg538
S'You can certainly wear them down by repeating your party line over and over and over...if you want'
p1039
sg540
F6
sg541
F10
sg542
F2
sg543
S'Wit'
p1040
sg545
S'AllEnemy'
p1041
sg547
F2
sg548
I0
sg549
(lp1042
sg567
I1
sg568
F8
sg563
g1036
sg569
S'Stay On Message'
p1043
sbsS'APPEALTOGOD'
p1044
g1
(g10
g3
NtRp1045
(dp1046
g537
F6
sg538
S'asdf'
p1047
sg540
F3
sg541
F0
sg542
F0
sg543
S'Wit'
p1048
sg545
S'AllEnemy'
p1049
sg547
F4
sg548
F7
sg549
(lp1050
sg567
I4
sg568
F0
sg563
g1044
sg569
S'Appeal To God'
p1051
sbssS'levels'
p1052
(lp1053
g1
(g10
g3
NtRp1054
(dp1055
S'votes'
p1056
F10
sS'level'
p1057
F1
sS'spin'
p1058
F5
sS'xp'
p1059
F0
sS'skill_points'
p1060
F0
sbag1
(g10
g3
NtRp1061
(dp1062
g1056
F12
sg1057
F2
sg1058
F5
sg1059
F5
sg1060
F2
sbag1
(g10
g3
NtRp1063
(dp1064
g1056
F15
sg1057
F3
sg1058
F6
sg1059
F200
sg1060
F2
sbag1
(g10
g3
NtRp1065
(dp1066
g1056
F20
sg1057
F4
sg1058
F6
sg1059
F500
sg1060
F2
sbag1
(g10
g3
NtRp1067
(dp1068
g1056
F25
sg1057
F5
sg1058
F7
sg1059
F1000
sg1060
F2
sbag1
(g10
g3
NtRp1069
(dp1070
g1056
F30
sg1057
F6
sg1058
F7
sg1059
F2000
sg1060
F2
sbag1
(g10
g3
NtRp1071
(dp1072
g1056
F35
sg1057
F7
sg1058
F8
sg1059
F5000
sg1060
F2
sbag1
(g10
g3
NtRp1073
(dp1074
g1056
F40
sg1057
F8
sg1058
F8
sg1059
F10000
sg1060
F2
sbag1
(g10
g3
NtRp1075
(dp1076
g1056
F45
sg1057
F9
sg1058
F9
sg1059
F15000
sg1060
F2
sbag1
(g10
g3
NtRp1077
(dp1078
g1056
F50
sg1057
F10
sg1058
F9
sg1059
F20000
sg1060
F2
sbag1
(g10
g3
NtRp1079
(dp1080
g1056
F55
sg1057
F11
sg1058
F10
sg1059
F40000
sg1060
F2
sbag1
(g10
g3
NtRp1081
(dp1082
g1056
S''
sg1057
F12
sg1058
S''
sg1059
S''
sg1060
S''
sbag1
(g10
g3
NtRp1083
(dp1084
g1056
S''
sg1057
F13
sg1058
S''
sg1059
S''
sg1060
S''
sbag1
(g10
g3
NtRp1085
(dp1086
g1056
S''
sg1057
F14
sg1058
S''
sg1059
S''
sg1060
S''
sbag1
(g10
g3
NtRp1087
(dp1088
g1056
S''
sg1057
F15
sg1058
S''
sg1059
S''
sg1060
S''
sbag1
(g10
g3
NtRp1089
(dp1090
g1056
S''
sg1057
F16
sg1058
S''
sg1059
S''
sg1060
S''
sbag1
(g10
g3
NtRp1091
(dp1092
g1056
S''
sg1057
F17
sg1058
S''
sg1059
S''
sg1060
S''
sbag1
(g10
g3
NtRp1093
(dp1094
g1056
S''
sg1057
F18
sg1058
S''
sg1059
S''
sg1060
S''
sbag1
(g10
g3
NtRp1095
(dp1096
g1056
S''
sg1057
F19
sg1058
S''
sg1059
S''
sg1060
S''
sbag1
(g10
g3
NtRp1097
(dp1098
g1056
S''
sg1057
F20
sg1058
S''
sg1059
S''
sg1060
S''
sbag1
(g10
g3
NtRp1099
(dp1100
g1056
S''
sg1057
F21
sg1058
S''
sg1059
S''
sg1060
S''
sbag1
(g10
g3
NtRp1101
(dp1102
g1056
S''
sg1057
F22
sg1058
S''
sg1059
S''
sg1060
S''
sbag1
(g10
g3
NtRp1103
(dp1104
g1056
S''
sg1057
F23
sg1058
S''
sg1059
S''
sg1060
S''
sbag1
(g10
g3
NtRp1105
(dp1106
g1056
S''
sg1057
F24
sg1058
S''
sg1059
S''
sg1060
S''
sbag1
(g10
g3
NtRp1107
(dp1108
g1056
S''
sg1057
F25
sg1058
S''
sg1059
S''
sg1060
S''
sbag1
(g10
g3
NtRp1109
(dp1110
g1056
S''
sg1057
F26
sg1058
S''
sg1059
S''
sg1060
S''
sbag1
(g10
g3
NtRp1111
(dp1112
g1056
S''
sg1057
F27
sg1058
S''
sg1059
S''
sg1060
S''
sbag1
(g10
g3
NtRp1113
(dp1114
g1056
S''
sg1057
F28
sg1058
S''
sg1059
S''
sg1060
S''
sbag1
(g10
g3
NtRp1115
(dp1116
g1056
S''
sg1057
F29
sg1058
S''
sg1059
S''
sg1060
S''
sbasg549
(dp1117
g564
g552
sg659
g655
sg734
g730
sg936
g931
sg798
g794
sg747
g744
sg914
g910
sg980
g977
sg714
g709
sg761
g756
sg1009
g1004
sg590
g586
sg605
g600
ssS'characters'
p1118
(dp1119
S'Teacher001'
p1120
(lp1121
g1
(g10
g3
NtRp1122
(dp1123
S'flair_base'
p1124
F1
sS'spin_base'
p1125
F4
sS'flair_lvl'
p1126
F1.1499999999999999
sS'wit_base'
p1127
F1
sS'resistance'
p1128
(lp1129
sS'wit_lvl'
p1130
F1.0900000000000001
sS'cunning_base'
p1131
F1
sg563
g1120
sS'votes_base'
p1132
F10
sS'speed_lvl'
p1133
F1.0800000000000001
sS'standard_attacks'
p1134
(lp1135
g999
ag764
asS'cunning_lvl'
p1136
F1.1000000000000001
sS'charisma_lvl'
p1137
F1.1499999999999999
sS'spin_attacks'
p1138
(lp1139
g849
ag1029
asS'spin_lvl'
p1140
F1.0800000000000001
sS'charisma_base'
p1141
F1
sS'weaknesses'
p1142
(lp1143
sS'attack_group'
p1144
S'Teacher'
p1145
sS'votes_lvl'
p1146
F1.2
sg569
S'Teacher'
p1147
sS'speed_base'
p1148
F1
sS'immunities'
p1149
(lp1150
sbasS'Politician001'
p1151
(lp1152
g1
(g10
g3
NtRp1153
(dp1154
g1124
F1
sg1125
F4
sg1126
F1.1499999999999999
sg1127
F1
sg1128
(lp1155
g580
asg1130
F1.0900000000000001
sg1131
F1
sg563
g1151
sg1132
F10
sg1133
F1.0800000000000001
sg1134
(lp1156
g1037
ag857
ag580
ag956
ag999
asg1136
F1.1000000000000001
sg1137
F1.1499999999999999
sg1138
(lp1157
g888
ag695
ag972
asg1140
F1.0800000000000001
sg1141
F1
sg1142
(lp1158
g663
asg1144
S'Politician'
p1159
sg1146
F1.2
sg569
S'Politician'
p1160
sg1148
F1
sg1149
(lp1161
g940
asbasS'SecretAgent'
p1162
(lp1163
g1
(g10
g3
NtRp1164
(dp1165
g1124
F1
sg1125
F4
sg1126
F1.1499999999999999
sg1127
F1
sg1128
(lp1166
sg1130
F1.0900000000000001
sg1131
F1
sg563
g1162
sg1132
F18
sg1133
F1.0800000000000001
sg1134
(lp1167
g999
ag1021
ag825
asg1136
F1.1000000000000001
sg1137
F1.1499999999999999
sg1138
(lp1168
g983
ag801
asg1140
F1.0800000000000001
sg1141
F1
sg1142
(lp1169
sg1144
S'SecretAgent'
p1170
sg1146
F1.2
sg569
S'Agent Kawalski'
p1171
sg1148
F1
sg1149
(lp1172
sbasS'Bumpkin001'
p1173
(lp1174
g1
(g10
g3
NtRp1175
(dp1176
g1124
F1
sg1125
F4
sg1126
F1.1499999999999999
sg1127
F1
sg1128
(lp1177
sg1130
F1.0900000000000001
sg1131
F1
sg563
g1173
sg1132
F10
sg1133
F1.0800000000000001
sg1134
(lp1178
g956
ag717
asg1136
F1.1000000000000001
sg1137
F1.1499999999999999
sg1138
(lp1179
g679
ag772
asg1140
F1.0800000000000001
sg1141
F1
sg1142
(lp1180
g580
ag857
ag896
asg1144
S'Bumpkin'
p1181
sg1146
F1.2
sg569
S'Bumpkin'
p1182
sg1148
F1
sg1149
(lp1183
sbasS'WarVet001'
p1184
(lp1185
g1
(g10
g3
NtRp1186
(dp1187
g1124
F1
sg1125
F4
sg1126
F1.1499999999999999
sg1127
F1
sg1128
(lp1188
sg1130
F1.0900000000000001
sg1131
F1
sg563
g1184
sg1132
F10
sg1133
F1.0800000000000001
sg1134
(lp1189
g991
ag999
asg1136
F1.1000000000000001
sg1137
F1.1499999999999999
sg1138
(lp1190
g948
ag1029
asg1140
F1.0800000000000001
sg1141
F1
sg1142
(lp1191
sg1144
S'WarVet'
p1192
sg1146
F1.2
sg569
S'War Veteran'
p1193
sg1148
F1
sg1149
(lp1194
sbasS'Receptionist001'
p1195
(lp1196
g1
(g10
g3
NtRp1197
(dp1198
g1124
F1
sg1125
F4
sg1126
F1.1499999999999999
sg1127
F1
sg1128
(lp1199
sg1130
F1.0900000000000001
sg1131
F1
sg563
g1195
sg1132
F10
sg1133
F1.0800000000000001
sg1134
(lp1200
g917
ag865
asg1136
F1.1000000000000001
sg1137
F1.1499999999999999
sg1138
(lp1201
g873
ag649
asg1140
F1.0800000000000001
sg1141
F1
sg1142
(lp1202
sg1144
S'Receptionist'
p1203
sg1146
F1.2
sg569
S'Receptionist'
p1204
sg1148
F1
sg1149
(lp1205
sbasS'DeepThroat'
p1206
(lp1207
g1
(g10
g3
NtRp1208
(dp1209
g1124
F1
sg1125
F4
sg1126
F1.1499999999999999
sg1127
F1
sg1128
(lp1210
sg1130
F1.0900000000000001
sg1131
F1
sg563
g1206
sg1132
F10
sg1133
F1.0800000000000001
sg1134
(lp1211
g857
ag999
ag991
asg1136
F1.1000000000000001
sg1137
F1.1499999999999999
sg1138
(lp1212
g750
asg1140
F1.0800000000000001
sg1141
F1
sg1142
(lp1213
sg1144
S'DeepThroat'
p1214
sg1146
F1.2
sg569
S'Deep Throat'
p1215
sg1148
F1
sg1149
(lp1216
sbasS'Leo'
p1217
(lp1218
g1
(g10
g3
NtRp1219
(dp1220
g1124
F1
sg1125
F4
sg1126
F1.1499999999999999
sg1127
F1
sg1128
(lp1221
sg1130
F1.0900000000000001
sg1131
F1
sg563
g1217
sg1132
F14
sg1133
F1.0800000000000001
sg1134
(lp1222
g1037
ag857
ag580
ag956
ag663
asg1136
F1.1000000000000001
sg1137
F1.1499999999999999
sg1138
(lp1223
g888
ag695
ag940
ag788
asg1140
F1.0800000000000001
sg1141
F1
sg1142
(lp1224
sg1144
S'Theo'
p1225
sg1146
F1.2
sg569
S'Theo'
p1226
sg1148
F1
sg1149
(lp1227
sbasS'HippyGirl001'
p1228
(lp1229
g1
(g10
g3
NtRp1230
(dp1231
g1124
F1
sg1125
F4
sg1126
F1.1499999999999999
sg1127
F1
sg1128
(lp1232
sg1130
F1.0900000000000001
sg1131
F1
sg563
g1228
sg1132
F10
sg1133
F1.0800000000000001
sg1134
(lp1233
g671
ag764
ag809
asg1136
F1.1000000000000001
sg1137
F1.1499999999999999
sg1138
(lp1234
g833
ag1029
ag972
asg1140
F1.0800000000000001
sg1141
F1
sg1142
(lp1235
g956
asg1144
S'Hippy'
p1236
sg1146
F1.2
sg569
S'Hippy Girl'
p1237
sg1148
F1
sg1149
(lp1238
sbasS'President'
p1239
(lp1240
g1
(g10
g3
NtRp1241
(dp1242
g1124
F1
sg1125
F4
sg1126
F1.1499999999999999
sg1127
F1
sg1128
(lp1243
sg1130
F1.0900000000000001
sg1131
F1
sg563
g1239
sg1132
F10
sg1133
F1.0800000000000001
sg1134
(lp1244
g1037
ag857
ag580
ag956
ag999
asg1136
F1.1000000000000001
sg1137
F1.1499999999999999
sg1138
(lp1245
g888
ag695
ag972
asg1140
F1.0800000000000001
sg1141
F1
sg1142
(lp1246
sg1144
S'Politician'
p1247
sg1146
F1.2
sg569
S'President Allen'
p1248
sg1148
F1
sg1149
(lp1249
sbasS'Unionist001'
p1250
(lp1251
g1
(g10
g3
NtRp1252
(dp1253
g1124
F1
sg1125
F4
sg1126
F1.1499999999999999
sg1127
F1
sg1128
(lp1254
sg1130
F1.0900000000000001
sg1131
F1
sg563
g1250
sg1132
F10
sg1133
F1.0800000000000001
sg1134
(lp1255
g991
ag999
ag764
asg1136
F1.1000000000000001
sg1137
F1.1499999999999999
sg1138
(lp1256
g849
asg1140
F1.0800000000000001
sg1141
F1
sg1142
(lp1257
sg1144
S'Unionist'
p1258
sg1146
F1.2
sg569
S'Unionist'
p1259
sg1148
F1
sg1149
(lp1260
sbasS'Wife'
p1261
(lp1262
g1
(g10
g3
NtRp1263
(dp1264
g1124
F1
sg1125
F4
sg1126
F1.1499999999999999
sg1127
F1
sg1128
(lp1265
sg1130
F1.0900000000000001
sg1131
F1
sg563
g1261
sg1132
F12
sg1133
F1.0800000000000001
sg1134
(lp1266
g999
ag1037
asg1136
F1.1000000000000001
sg1137
F1.1499999999999999
sg1138
(lp1267
g1029
ag972
ag703
asg1140
F1.0800000000000001
sg1141
F1
sg1142
(lp1268
sg1144
S'Wife'
p1269
sg1146
F1.2
sg569
S'Sarah Mossman'
p1270
sg1148
F1
sg1149
(lp1271
sbasS'PresidentAlien'
p1272
(lp1273
g1
(g10
g3
NtRp1274
(dp1275
g1124
F1
sg1125
F4
sg1126
F1.1499999999999999
sg1127
F1
sg1128
(lp1276
sg1130
F1.0900000000000001
sg1131
F1
sg563
g1272
sg1132
F10
sg1133
F1.0800000000000001
sg1134
(lp1277
g1037
ag857
ag580
ag956
ag999
asg1136
F1.1000000000000001
sg1137
F1.1499999999999999
sg1138
(lp1278
g888
ag695
ag972
asg1140
F1.0800000000000001
sg1141
F1
sg1142
(lp1279
sg1144
S'Politician'
p1280
sg1146
F1.2
sg569
S'President Alien'
p1281
sg1148
F1
sg1149
(lp1282
sbasS'Governor'
p1283
(lp1284
g1
(g10
g3
NtRp1285
(dp1286
g1124
F1
sg1125
F4
sg1126
F1.1499999999999999
sg1127
F1
sg1128
(lp1287
sg1130
F1.0900000000000001
sg1131
F1
sg563
g1283
sg1132
F10
sg1133
F1.0800000000000001
sg1134
(lp1288
g1037
ag857
ag580
ag956
ag999
asg1136
F1.1000000000000001
sg1137
F1.1499999999999999
sg1138
(lp1289
g888
ag695
ag972
asg1140
F1.0800000000000001
sg1141
F1
sg1142
(lp1290
sg1144
S'Politician'
p1291
sg1146
F1.2
sg569
g1283
sg1148
F1
sg1149
(lp1292
sbasS'Lobbyist001'
p1293
(lp1294
g1
(g10
g3
NtRp1295
(dp1296
g1124
F1
sg1125
F4
sg1126
F1.1499999999999999
sg1127
F1
sg1128
(lp1297
sg1130
F1.0900000000000001
sg1131
F1
sg563
g1293
sg1132
F10
sg1133
F1.0800000000000001
sg1134
(lp1298
g780
ag991
asg1136
F1.1000000000000001
sg1137
F1.1499999999999999
sg1138
(lp1299
g904
ag750
asg1140
F1.0800000000000001
sg1141
F1
sg1142
(lp1300
g940
asg1144
S'Lobbyist'
p1301
sg1146
F1.2
sg569
S'Lobbyist'
p1302
sg1148
F1
sg1149
(lp1303
g663
asbasS'Journalist001'
p1304
(lp1305
g1
(g10
g3
NtRp1306
(dp1307
g1124
F1
sg1125
F4
sg1126
F1.1499999999999999
sg1127
F1
sg1128
(lp1308
sg1130
F1.0900000000000001
sg1131
F1
sg563
g1304
sg1132
F10
sg1133
F1.0800000000000001
sg1134
(lp1309
g633
ag1013
asg1136
F1.1000000000000001
sg1137
F1.1499999999999999
sg1138
(lp1310
g817
ag535
ag609
asg1140
F1.0800000000000001
sg1141
F1
sg1142
(lp1311
sg1144
S'Journalist'
p1312
sg1146
F1.2
sg569
S'Journalist'
p1313
sg1148
F1
sg1149
(lp1314
sbasS'ReligiousNut001'
p1315
(lp1316
g1
(g10
g3
NtRp1317
(dp1318
g1124
F1
sg1125
F4
sg1126
F1.1499999999999999
sg1127
F1
sg1128
(lp1319
sg1130
F1.0900000000000001
sg1131
F1
sg563
g1315
sg1132
F10
sg1133
F1.0800000000000001
sg1134
(lp1320
g617
ag964
ag999
asg1136
F1.1000000000000001
sg1137
F1.1499999999999999
sg1138
(lp1321
g1045
ag738
asg1140
F1.0800000000000001
sg1141
F1
sg1142
(lp1322
sg1144
S'Religious'
p1323
sg1146
F1.2
sg569
S'Religious Nut'
p1324
sg1148
F1
sg1149
(lp1325
g956
asbasS'JointChief001'
p1326
(lp1327
g1
(g10
g3
NtRp1328
(dp1329
g1124
F1
sg1125
F4
sg1126
F1.1499999999999999
sg1127
F1
sg1128
(lp1330
sg1130
F1.0900000000000001
sg1131
F1
sg563
g1326
sg1132
F10
sg1133
F1.0800000000000001
sg1134
(lp1331
g991
ag999
ag1021
ag687
asg1136
F1.1000000000000001
sg1137
F1.1499999999999999
sg1138
(lp1332
g801
asg1140
F1.0800000000000001
sg1141
F1
sg1142
(lp1333
sg1144
S'JointChief'
p1334
sg1146
F1.2
sg569
S'Joint Chief'
p1335
sg1148
F1
sg1149
(lp1336
sbasS'Protester001'
p1337
(lp1338
g1
(g10
g3
NtRp1339
(dp1340
g1124
F1
sg1125
F4
sg1126
F1.1499999999999999
sg1127
F1
sg1128
(lp1341
sg1130
F1.0900000000000001
sg1131
F1
sg563
g1337
sg1132
F10
sg1133
F1.0800000000000001
sg1134
(lp1342
g764
ag625
ag671
asg1136
F1.1000000000000001
sg1137
F1.1499999999999999
sg1138
(lp1343
g1029
asg1140
F1.0800000000000001
sg1141
F1
sg1142
(lp1344
sg1144
S'Protestor'
p1345
sg1146
F1.2
sg569
S'Protester'
p1346
sg1148
F1
sg1149
(lp1347
sbasS'TVPersonality001'
p1348
(lp1349
g1
(g10
g3
NtRp1350
(dp1351
g1124
F1
sg1125
F4
sg1126
F1.1499999999999999
sg1127
F1
sg1128
(lp1352
sg1130
F1.0900000000000001
sg1131
F1
sg563
g1348
sg1132
F10
sg1133
F1.0800000000000001
sg1134
(lp1353
g956
ag633
asg1136
F1.1000000000000001
sg1137
F1.1499999999999999
sg1138
(lp1354
g609
ag594
asg1140
F1.0800000000000001
sg1141
F1
sg1142
(lp1355
sg1144
S'TVPersonality'
p1356
sg1146
F1.2
sg569
S"Hecules O'Grady"
p1357
sg1148
F1
sg1149
(lp1358
sbasS'Player'
p1359
(lp1360
g1
(g10
g3
NtRp1361
(dp1362
g1124
F1
sg1125
F5
sg1126
F1.1499999999999999
sg1127
F1
sg1128
(lp1363
sg1130
F1.0900000000000001
sg1131
F1
sg563
g1359
sg1132
F15
sg1133
F1.0800000000000001
sg1134
(lp1364
g1037
ag580
ag956
asg1136
F1.1000000000000001
sg1137
F1.1499999999999999
sg1138
(lp1365
g888
ag695
ag1029
asg1140
F1.0800000000000001
sg1141
F1
sg1142
(lp1366
sg1144
S'Player'
p1367
sg1146
F1.2
sg569
S'Phillip Mossman'
p1368
sg1148
F2
sg1149
(lp1369
sbasS'Computer'
p1370
(lp1371
g1
(g10
g3
NtRp1372
(dp1373
g1124
F1
sg1125
F4
sg1126
F1.1499999999999999
sg1127
F1
sg1128
(lp1374
sg1130
F1.0900000000000001
sg1131
F1
sg563
g1370
sg1132
F10
sg1133
F1.0800000000000001
sg1134
(lp1375
g1037
ag857
ag580
ag956
ag999
asg1136
F1.1000000000000001
sg1137
F1.1499999999999999
sg1138
(lp1376
g888
ag695
ag972
asg1140
F1.0800000000000001
sg1141
F1
sg1142
(lp1377
sg1144
S'Politician'
p1378
sg1146
F1.2
sg569
S'N.O.T.B.A.D'
p1379
sg1148
F1
sg1149
(lp1380
sbasS'CabinetPolitician001'
p1381
(lp1382
g1
(g10
g3
NtRp1383
(dp1384
g1124
F1
sg1125
F4
sg1126
F1.1499999999999999
sg1127
F1
sg1128
(lp1385
sg1130
F1.0900000000000001
sg1131
F1
sg563
g1381
sg1132
F10
sg1133
F1.0800000000000001
sg1134
(lp1386
g1037
ag857
ag580
ag956
ag999
asg1136
F1.1000000000000001
sg1137
F1.1499999999999999
sg1138
(lp1387
g888
ag695
ag972
asg1140
F1.0800000000000001
sg1141
F1
sg1142
(lp1388
sg1144
S'Politician'
p1389
sg1146
F1.2
sg569
S'Cabinet Politician'
p1390
sg1148
F1
sg1149
(lp1391
sbasS'Constituent001'
p1392
(lp1393
g1
(g10
g3
NtRp1394
(dp1395
g1124
F1
sg1125
F4
sg1126
F1.1499999999999999
sg1127
F1
sg1128
(lp1396
sg1130
F1.0900000000000001
sg1131
F1
sg563
g1392
sg1132
F10
sg1133
F1.0800000000000001
sg1134
(lp1397
g764
ag780
ag991
asg1136
F1.1000000000000001
sg1137
F1.1499999999999999
sg1138
(lp1398
g972
asg1140
F1.0800000000000001
sg1141
F1
sg1142
(lp1399
sg1144
S'Constituent'
p1400
sg1146
F1.2
sg569
S'Constituent'
p1401
sg1148
F1
sg1149
(lp1402
sbasS'Mayor'
p1403
(lp1404
g1
(g10
g3
NtRp1405
(dp1406
g1124
F1
sg1125
F4
sg1126
F1.1499999999999999
sg1127
F1
sg1128
(lp1407
sg1130
F1.0900000000000001
sg1131
F1
sg563
g1403
sg1132
F10
sg1133
F1.0800000000000001
sg1134
(lp1408
g1037
ag857
ag580
ag956
ag999
asg1136
F1.1000000000000001
sg1137
F1.1499999999999999
sg1138
(lp1409
g888
ag695
ag972
asg1140
F1.0800000000000001
sg1141
F1
sg1142
(lp1410
sg1144
S'Politician'
p1411
sg1146
F1.2
sg569
S'Mayor Goodman'
p1412
sg1148
F1
sg1149
(lp1413
sbassS'quest_items'
p1414
(dp1415
S'PEN'
p1416
g1
(g10
g3
NtRp1417
(dp1418
g569
S'A pen'
p1419
sg563
g1416
sbsS'BILLOFRIGHTS'
p1420
g1
(g10
g3
NtRp1421
(dp1422
g569
S"Citizens' Bill of Rights"
p1423
sg563
g1420
sbssg1134
(dp1424
S'Theo'
p1425
(lp1426
g1037
ag857
ag580
ag956
ag663
ag888
ag695
ag940
ag788
asS'JointChief'
p1427
(lp1428
g991
ag999
ag1021
ag801
ag687
asS'Politician'
p1429
(lp1430
g1037
ag857
ag580
ag956
ag888
ag695
ag972
ag999
asS'Bumpkin'
p1431
(lp1432
g956
ag679
ag772
ag717
asS'TVPersonality'
p1433
(lp1434
g956
ag609
ag633
ag594
asS'SecretAgent'
p1435
(lp1436
g999
ag983
ag1021
ag801
ag825
asS'DeepThroat'
p1437
(lp1438
g857
ag999
ag750
ag991
asS'Protestor'
p1439
(lp1440
g1029
ag764
ag625
ag671
asS'Lobbyist'
p1441
(lp1442
g780
ag904
ag750
ag991
asS'Teacher'
p1443
(lp1444
g849
ag999
ag764
ag1029
asS'Player'
p1445
(lp1446
g1037
ag580
ag956
ag888
ag695
ag1029
asS'Computer'
p1447
(lp1448
g801
ag1021
ag641
ag750
ag991
ag857
asS'Receptionist'
p1449
(lp1450
g917
ag865
ag873
ag649
asS'Hippy'
p1451
(lp1452
g671
ag764
ag809
ag833
ag1029
ag972
asS'Constituent'
p1453
(lp1454
g764
ag972
ag780
ag991
asS'Wife'
p1455
(lp1456
g1029
ag972
ag999
ag1037
ag703
asS'WarVet'
p1457
(lp1458
g991
ag999
ag948
ag1029
asS'Religious'
p1459
(lp1460
g617
ag1045
ag738
ag964
ag999
asS'Unionist'
p1461
(lp1462
g991
ag999
ag764
ag849
asS'Journalist'
p1463
(lp1464
g633
ag1013
ag817
ag535
ag609
assS'encounters'
p1465
(dp1466
S'P-easy-05'
p1467
g1
(g10
g3
NtRp1468
(dp1469
S'item_attack_drops'
p1470
(lp1471
sS'item_attacks'
p1472
(lp1473
sg1059
F10
sS'monster2_lvl'
p1474
S''
sS'monster3'
p1475
S''
sS'monster1_lvl'
p1476
F1
sS'monster3_lvl'
p1477
S''
sS'monster4_lvl'
p1478
S''
sS'monster4'
p1479
S''
sS'monster2'
p1480
S''
sg563
g1467
sS'monster1'
p1481
S'Journalist001'
p1482
sbsS'P-easy-04'
p1483
g1
(g10
g3
NtRp1484
(dp1485
g1470
(lp1486
sg1472
(lp1487
sg1059
F10
sg1474
F1
sg1475
S'Protester001'
p1488
sg1476
F1
sg1477
F1
sg1478
S''
sg1479
S''
sg1480
S'Protester001'
p1489
sg563
g1483
sg1481
S'Protester001'
p1490
sbsS'P-easy-06'
p1491
g1
(g10
g3
NtRp1492
(dp1493
g1470
(lp1494
sg1472
(lp1495
sg1059
F10
sg1474
F1
sg1475
S''
sg1476
F1
sg1477
S''
sg1478
S''
sg1479
S''
sg1480
S'Lobbyist001'
p1496
sg563
g1491
sg1481
S'Lobbyist001'
p1497
sbsS'P-easy-01'
p1498
g1
(g10
g3
NtRp1499
(dp1500
g1470
(lp1501
g1
(c__main__
ItemAttack
p1502
g3
NtRp1503
(dp1504
S'attack'
p1505
g572
sS'quantity'
p1506
I1
sbasg1472
(lp1507
g1
(g1502
g3
NtRp1508
(dp1509
g1505
g841
sg1506
I1
sbasg1059
F10
sg1474
S''
sg1475
S''
sg1476
F1
sg1477
S''
sg1478
S''
sg1479
S''
sg1480
S''
sg563
g1498
sg1481
S'Receptionist001'
p1510
sbsS'P-easy-03'
p1511
g1
(g10
g3
NtRp1512
(dp1513
g1470
(lp1514
sg1472
(lp1515
sg1059
F10
sg1474
F1
sg1475
S''
sg1476
F1
sg1477
S''
sg1478
S''
sg1479
S''
sg1480
S'Protester001'
p1516
sg563
g1511
sg1481
S'Protester001'
p1517
sbsS'P-easy-02'
p1518
g1
(g10
g3
NtRp1519
(dp1520
g1470
(lp1521
sg1472
(lp1522
sg1059
F10
sg1474
F1
sg1475
S''
sg1476
F1
sg1477
S''
sg1478
S''
sg1479
S''
sg1480
S'Protester001'
p1523
sg563
g1518
sg1481
S'Protester001'
p1524
sbssb.