ccopy_reg
_reconstructor
p1
(c__main__
GameData
p2
c__builtin__
object
p3
NtRp4
(dp5
S'script'
p6
(dp7
S'Theo'
p8
(lp9
g1
(c__main__
TableRow
p10
g3
NtRp11
(dp12
S'action'
p13
S'RequireFlag'
p14
sS'trigger'
p15
g8
sS'param'
p16
S'GOVERNORDEFEATED'
p17
sS'dialog'
p18
S'The Governor is in the north wing.'
p19
sbasS'Wife'
p20
(lp21
g1
(g10
g3
NtRp22
(dp23
g13
S'RequireFlag'
p24
sg15
g20
sg16
S'GOHOMETOWIFE'
p25
sg18
S'What are you doing here, Phillip? You should be at work!'
p26
sbag1
(g10
g3
NtRp27
(dp28
g13
S'Say'
p29
sg15
S'Wife'
p30
sg16
S''
sg18
S'Welcome home, Phillip! How was your workday?'
p31
sbag1
(g10
g3
NtRp32
(dp33
g13
S'PlayerSay'
p34
sg15
S'Wife'
p35
sg16
S''
sg18
S'...'
p36
sbag1
(g10
g3
NtRp37
(dp38
g13
S'Say'
p39
sg15
S'Wife'
p40
sg16
S''
sg18
S"That good, huh? You know this isn't what you want. Why don't you strike out on your own?"
p41
sbag1
(g10
g3
NtRp42
(dp43
g13
S'PlayerSay'
p44
sg15
S'Wife'
p45
sg16
S''
sg18
S"I didn't think I knew where to start to be a Mayor, but Mayor Goodman makes it look easy."
p46
sbag1
(g10
g3
NtRp47
(dp48
g13
S'Say'
p49
sg15
S'Wife'
p50
sg16
S''
sg18
S"That's the spirit! You can do it! All you need is some money and support."
p51
sbag1
(g10
g3
NtRp52
(dp53
g13
S'PlayerSay'
p54
sg15
S'Wife'
p55
sg16
S''
sg18
S'Well...OK! Lets start with money. We need a sponsor.'
p56
sbag1
(g10
g3
NtRp57
(dp58
g13
S'Say'
p59
sg15
S'Wife'
p60
sg16
S''
sg18
S'OK, lets go get one!'
p61
sbag1
(g10
g3
NtRp62
(dp63
g13
S'AddAlly'
p64
sg15
S'Wife'
p65
sg16
S'Wife:1'
p66
sg18
S'Sarah Mossman Joins Your Political Party!'
p67
sbag1
(g10
g3
NtRp68
(dp69
g13
S'SetFlag'
p70
sg15
S'Wife'
p71
sg16
S'STARTSPONSOR'
p72
sg18
S''
sbag1
(g10
g3
NtRp73
(dp74
g13
S'Destroy'
p75
sg15
S'Wife'
p76
sg16
S''
sg18
S''
sbasS'Constituent2'
p77
(lp78
g1
(g10
g3
NtRp79
(dp80
g13
S'RequireFlag'
p81
sg15
g77
sg16
S'STARTCONSTITUENTS'
p82
sg18
S'What?'
p83
sbag1
(g10
g3
NtRp84
(dp85
g13
S'PlayerSay'
p86
sg15
S'Constituent2'
p87
sg16
S''
sg18
S'Vote Phillip Mossman for Mayor!'
p88
sbag1
(g10
g3
NtRp89
(dp90
g13
S'Say'
p91
sg15
S'Constituent2'
p92
sg16
S''
sg18
S'But Mayor Goodman has always taken care of me.'
p93
sbag1
(g10
g3
NtRp94
(dp95
g13
S'Encounter'
p96
sg15
S'Constituent2'
p97
sg16
S'P-easy-08'
p98
sg18
S''
sbag1
(g10
g3
NtRp99
(dp100
g13
S'Say'
p101
sg15
S'Constituent2'
p102
sg16
S''
sg18
S"I think it's time for a change!"
p103
sbag1
(g10
g3
NtRp104
(dp105
g13
S'Destroy'
p106
sg15
S'Constituent2'
p107
sg16
S''
sg18
S''
sbasS'Constituent3'
p108
(lp109
g1
(g10
g3
NtRp110
(dp111
g13
S'RequireFlag'
p112
sg15
g108
sg16
S'STARTCONSTITUENTS'
p113
sg18
S'What?'
p114
sbag1
(g10
g3
NtRp115
(dp116
g13
S'PlayerSay'
p117
sg15
S'Constituent3'
p118
sg16
S''
sg18
S'Vote Phillip Mossman for Mayor!'
p119
sbag1
(g10
g3
NtRp120
(dp121
g13
S'Say'
p122
sg15
S'Constituent3'
p123
sg16
S''
sg18
S'But Mayor Goodman has always taken care of me.'
p124
sbag1
(g10
g3
NtRp125
(dp126
g13
S'Encounter'
p127
sg15
S'Constituent3'
p128
sg16
S'P-easy-09'
p129
sg18
S''
sbag1
(g10
g3
NtRp130
(dp131
g13
S'Say'
p132
sg15
S'Constituent3'
p133
sg16
S''
sg18
S"I think it's time for a change!"
p134
sbag1
(g10
g3
NtRp135
(dp136
g13
S'PlayerSay'
p137
sg15
S'Constituent3'
p138
sg16
S''
sg18
S"I think I'm ready to take on Mayor Goodman now!"
p139
sbag1
(g10
g3
NtRp140
(dp141
g13
S'SetFlag'
p142
sg15
S'Constituent3'
p143
sg16
S'CONSTITUENTSWON'
p144
sg18
S''
sbag1
(g10
g3
NtRp145
(dp146
g13
S'Destroy'
p147
sg15
S'Constituent3'
p148
sg16
S''
sg18
S''
sbasS'Constituent1'
p149
(lp150
g1
(g10
g3
NtRp151
(dp152
g13
S'RequireFlag'
p153
sg15
g149
sg16
S'STARTCONSTITUENTS'
p154
sg18
S'Yes?'
p155
sbag1
(g10
g3
NtRp156
(dp157
g13
S'PlayerSay'
p158
sg15
S'Constituent1'
p159
sg16
S''
sg18
S'Vote Phillip Mossman for Mayor!'
p160
sbag1
(g10
g3
NtRp161
(dp162
g13
S'Say'
p163
sg15
S'Constituent1'
p164
sg16
S''
sg18
S'Who?'
p165
sbag1
(g10
g3
NtRp166
(dp167
g13
S'PlayerSay'
p168
sg15
S'Constituent1'
p169
sg16
S''
sg18
S'Er, me!'
p170
sbag1
(g10
g3
NtRp171
(dp172
g13
S'Say'
p173
sg15
S'Constituent1'
p174
sg16
S''
sg18
S'Why? How will you help local business?'
p175
sbag1
(g10
g3
NtRp176
(dp177
g13
S'Encounter'
p178
sg15
S'Constituent1'
p179
sg16
S'P-easy-07'
p180
sg18
S''
sbag1
(g10
g3
NtRp181
(dp182
g13
S'Say'
p183
sg15
S'Constituent1'
p184
sg16
S''
sg18
S'You make a good case!'
p185
sbag1
(g10
g3
NtRp186
(dp187
g13
S'Destroy'
p188
sg15
S'Constituent1'
p189
sg16
S''
sg18
S''
sbasS'Protester2'
p190
(lp191
g1
(g10
g3
NtRp192
(dp193
g13
S'Say'
p194
sg15
g190
sg16
S''
sg18
S"Bees buzz, Mayors lie, who's this Phillip Mossman guy?"
p195
sbag1
(g10
g3
NtRp196
(dp197
g13
S'RequireFlag'
p198
sg15
S'Protester2'
p199
sg16
S'PROTESTORS'
p200
sg18
S''
sbag1
(g10
g3
NtRp201
(dp202
g13
S'Encounter'
p203
sg15
S'Protester2'
p204
sg16
S'P-easy-03'
p205
sg18
S''
sbag1
(g10
g3
NtRp206
(dp207
g13
S'Destroy'
p208
sg15
S'Protester2'
p209
sg16
S''
sg18
S''
sbasS'CheatAct2'
p210
(lp211
g1
(g10
g3
NtRp212
(dp213
g13
S'AddAlly'
p214
sg15
g210
sg16
S'Wife:1'
p215
sg18
S''
sbag1
(g10
g3
NtRp216
(dp217
g13
S'LearnAttack'
p218
sg15
S'CheatAct2'
p219
sg16
S'BRIBE'
p220
sg18
S''
sbag1
(g10
g3
NtRp221
(dp222
g13
S'LearnAttack'
p223
sg15
S'CheatAct2'
p224
sg16
S'Wife:BRIBE'
p225
sg18
S''
sbag1
(g10
g3
NtRp226
(dp227
g13
S'LearnAttack'
p228
sg15
S'CheatAct2'
p229
sg16
S'SLANDER'
p230
sg18
S''
sbag1
(g10
g3
NtRp231
(dp232
g13
S'GotoMap'
p233
sg15
S'CheatAct2'
p234
sg16
S'act2'
p235
sg18
S''
sbasS'Protester1'
p236
(lp237
g1
(g10
g3
NtRp238
(dp239
g13
S'LearnAttack'
p240
sg15
g236
sg16
S'RUNAD'
p241
sg18
S''
sbag1
(g10
g3
NtRp242
(dp243
g13
S'Say'
p244
sg15
S'Protester1'
p245
sg16
S''
sg18
S"Fee Fi Fo Fum, we think Mayor Goodman's Dumb!"
p246
sbag1
(g10
g3
NtRp247
(dp248
g13
S'Say'
p249
sg15
S'Protester1'
p250
sg16
S'Protester2'
p251
sg18
S"Bees buzz, Mayors lie, who's this Phillip Mossman guy?"
p252
sbag1
(g10
g3
NtRp253
(dp254
g13
S'Encounter'
p255
sg15
S'Protester1'
p256
sg16
S'P-easy-02'
p257
sg18
S''
sbag1
(g10
g3
NtRp258
(dp259
g13
S'Destroy'
p260
sg15
S'Protester1'
p261
sg16
S''
sg18
S''
sbasS'Politician1'
p262
(lp263
g1
(g10
g3
NtRp264
(dp265
g13
S'Say'
p266
sg15
g262
sg16
S''
sg18
S"I'm sorry Mayor Mossman, the Governor cannot see you now. He's very busy"
p267
sbag1
(g10
g3
NtRp268
(dp269
g13
S'PlayerSay'
p270
sg15
S'Politician1'
p271
sg16
S''
sg18
S"It's very important. I need to understand what Mayor Goodman was talking about. It was clear there were other powers at play."
p272
sbag1
(g10
g3
NtRp273
(dp274
g13
S'Say'
p275
sg15
S'Politician1'
p276
sg16
S''
sg18
S'Yes well, I fail to see how your country spat has anything to do with Governer Badden.'
p277
sbag1
(g10
g3
NtRp278
(dp279
g13
S'Encounter'
p280
sg15
S'Politician1'
p281
sg16
S'P-med-01'
p282
sg18
S''
sbag1
(g10
g3
NtRp283
(dp284
g13
S'Say'
p285
sg15
S'Politician1'
p286
sg16
S''
sg18
S'Fair point. The governor will see you now.'
p287
sbag1
(g10
g3
NtRp288
(dp289
g13
S'Destroy'
p290
sg15
S'Politician1'
p291
sg16
S''
sg18
S''
sbasS'Politician2'
p292
(lp293
g1
(g10
g3
NtRp294
(dp295
g13
S'Say'
p296
sg15
g292
sg16
S''
sg18
S'What are you doing in here? Who are you? Some Mayor?'
p297
sbag1
(g10
g3
NtRp298
(dp299
g13
S'PlayerSay'
p300
sg15
S'Politician2'
p301
sg16
S''
sg18
S"I am Mayor Phillip Mossman. I'm here to speak to the Governor."
p302
sbag1
(g10
g3
NtRp303
(dp304
g13
S'Say'
p305
sg15
S'Politician2'
p306
sg16
S''
sg18
S"I'm afraid the Governor's schedule is very tight. Come back next month."
p307
sbag1
(g10
g3
NtRp308
(dp309
g13
S'Encounter'
p310
sg15
S'Politician2'
p311
sg16
S'P-med-02'
p312
sg18
S''
sbag1
(g10
g3
NtRp313
(dp314
g13
S'Say'
p315
sg15
S'Politician2'
p316
sg16
S''
sg18
S'I see. Well, maybe we can squeeze you in.'
p317
sbag1
(g10
g3
NtRp318
(dp319
g13
S'SetFlag'
p320
sg15
S'Politician2'
p321
sg16
S'GOVPOLITICIANSFIRST'
p322
sg18
S''
sbag1
(g10
g3
NtRp323
(dp324
g13
S'Destroy'
p325
sg15
S'Politician2'
p326
sg16
S''
sg18
S''
sbasS'Head Protester'
p327
(lp328
g1
(g10
g3
NtRp329
(dp330
g13
S'Say'
p331
sg15
g327
sg16
S''
sg18
S"I am the head protester. You'll never convince us to back down!"
p332
sbag1
(g10
g3
NtRp333
(dp334
g13
S'RequireFlag'
p335
sg15
S'Head Protester'
p336
sg16
S'PROTESTORS'
p337
sg18
S''
sbag1
(g10
g3
NtRp338
(dp339
g13
S'PlayerSay'
p340
sg15
S'Head Protester'
p341
sg16
S''
sg18
S'What are you protesting?'
p342
sbag1
(g10
g3
NtRp343
(dp344
g13
S'Say'
p345
sg15
S'Head Protester'
p346
sg16
S''
sg18
S'Er...Injustice!'
p347
sbag1
(g10
g3
NtRp348
(dp349
g13
S'PlayerSay'
p350
sg15
S'Head Protester'
p351
sg16
S''
sg18
S'Injustice against what?'
p352
sbag1
(g10
g3
NtRp353
(dp354
g13
S'Say'
p355
sg15
S'Head Protester'
p356
sg16
S''
sg18
S'...'
p357
sbag1
(g10
g3
NtRp358
(dp359
g13
S'Say'
p360
sg15
S'Head Protester'
p361
sg16
S''
sg18
S'The People!'
p362
sbag1
(g10
g3
NtRp363
(dp364
g13
S'PlayerSay'
p365
sg15
S'Head Protester'
p366
sg16
S''
sg18
S'Yes, but which people?'
p367
sbag1
(g10
g3
NtRp368
(dp369
g13
S'Say'
p370
sg15
S'Head Protester'
p371
sg16
S''
sg18
S'See? What a fascist, ALL people you slimey politician scum!'
p372
sbag1
(g10
g3
NtRp373
(dp374
g13
S'Encounter'
p375
sg15
S'Head Protester'
p376
sg16
S'P-easy-04'
p377
sg18
S''
sbag1
(g10
g3
NtRp378
(dp379
g13
S'Say'
p380
sg15
S'Head Protester'
p381
sg16
S''
sg18
S"Alright, fine! We'll stop protesting...whatever we were protesting."
p382
sbag1
(g10
g3
NtRp383
(dp384
g13
S'SetFlag'
p385
sg15
S'Head Protester'
p386
sg16
S'PROTESTORSDEAD'
p387
sg18
S''
sbag1
(g10
g3
NtRp388
(dp389
g13
S'Destroy'
p390
sg15
S'Head Protester'
p391
sg16
S''
sg18
S''
sbasS'Journalist'
p392
(lp393
g1
(g10
g3
NtRp394
(dp395
g13
S'RequireFlag'
p396
sg15
g392
sg16
S'INTERVIEWSTART'
p397
sg18
S'Leave me alone, kid I need to get this done before my deadline!'
p398
sbag1
(g10
g3
NtRp399
(dp400
g13
S'Say'
p401
sg15
S'Journalist'
p402
sg16
S''
sg18
S"Hey, where's the Mayor?"
p403
sbag1
(g10
g3
NtRp404
(dp405
g13
S'PlayerSay'
p406
sg15
S'Journalist'
p407
sg16
S''
sg18
S"He couldn't make it. I'll be taking the interview."
p408
sbag1
(g10
g3
NtRp409
(dp410
g13
S'Say'
p411
sg15
S'Journalist'
p412
sg16
S''
sg18
S'Great! Easy pickings! Lets go.'
p413
sbag1
(g10
g3
NtRp414
(dp415
g13
S'Encounter'
p416
sg15
S'Journalist'
p417
sg16
S'P-easy-05'
p418
sg18
S''
sbag1
(g10
g3
NtRp419
(dp420
g13
S'Say'
p421
sg15
S'Journalist'
p422
sg16
S''
sg18
S"SNORE! Fine, if I can't get anything juicy here I'll do another puff piece on my poodle Frank."
p423
sbag1
(g10
g3
NtRp424
(dp425
g13
S'SetFlag'
p426
sg15
S'Journalist'
p427
sg16
S'JOURNALISTINTERVIEW'
p428
sg18
S''
sbag1
(g10
g3
NtRp429
(dp430
g13
S'Destroy'
p431
sg15
S'Journalist'
p432
sg16
S''
sg18
S''
sbasS'Sponsor'
p433
(lp434
g1
(g10
g3
NtRp435
(dp436
g13
S'RequireFlag'
p437
sg15
g433
sg16
S'STARTSPONSOR'
p438
sg18
S"Hmmm...Money, money, money. Sorry, what? I wasn't talking to you."
p439
sbag1
(g10
g3
NtRp440
(dp441
g13
S'Say'
p442
sg15
S'Sponsor'
p443
sg16
S''
sg18
S"Hello, I'm investigating new investments today. How can I help you?"
p444
sbag1
(g10
g3
NtRp445
(dp446
g13
S'PlayerSay'
p447
sg15
S'Sponsor'
p448
sg16
S''
sg18
S"Well, I've decided to run for Mayor! I could really use an investor."
p449
sbag1
(g10
g3
NtRp450
(dp451
g13
S'Say'
p452
sg15
S'Sponsor'
p453
sg16
S''
sg18
S"I don't know. You seem a little young. I don't think I'm convinced."
p454
sbag1
(g10
g3
NtRp455
(dp456
g13
S'Encounter'
p457
sg15
S'Sponsor'
p458
sg16
S'P-easy-06'
p459
sg18
S''
sbag1
(g10
g3
NtRp460
(dp461
g13
S'Say'
p462
sg15
S'Sponsor'
p463
sg16
S''
sg18
S"Wow! You sure have what it takes! Alright, he's a pile of cash!"
p464
sbag1
(g10
g3
NtRp465
(dp466
g13
S'Say'
p467
sg15
S'Sponsor'
p468
sg16
S''
sg18
S'Also, now that you have some funds, you might find it useful to...grease the wheels in some difficult situations.'
p469
sbag1
(g10
g3
NtRp470
(dp471
g13
S'LearnAttack'
p472
sg15
S'Sponsor'
p473
sg16
S'BRIBE'
p474
sg18
S'Phillip and Sarah learn to Bribe'
p475
sbag1
(g10
g3
NtRp476
(dp477
g13
S'LearnAttack'
p478
sg15
S'Sponsor'
p479
sg16
S'Wife:BRIBE'
p480
sg18
S''
sbag1
(g10
g3
NtRp481
(dp482
g13
S'SetFlag'
p483
sg15
S'Sponsor'
p484
sg16
S'STARTCONSTITUENTS'
p485
sg18
S''
sbag1
(g10
g3
NtRp486
(dp487
g13
S'PlayerSay'
p488
sg15
S'Sponsor'
p489
sg16
S''
sg18
S'Er, thanks! I suppose we should go gather some support from our constituents now.'
p490
sbag1
(g10
g3
NtRp491
(dp492
g13
S'Say'
p493
sg15
S'Sponsor'
p494
sg16
S''
sg18
S"Makes sense to me! I'm off, too. Money, money, money."
p495
sbag1
(g10
g3
NtRp496
(dp497
g13
S'Destroy'
p498
sg15
S'Sponsor'
p499
sg16
S''
sg18
S''
sbasS'Hick'
p500
(lp501
g1
(g10
g3
NtRp502
(dp503
g13
S'Say'
p504
sg15
g500
sg16
S''
sg18
S''
sbasS'Mayor'
p505
(lp506
g1
(g10
g3
NtRp507
(dp508
g13
S'Say'
p509
sg15
g505
sg16
S''
sg18
S"Hello, I'm the Mayor!"
p510
sbag1
(g10
g3
NtRp511
(dp512
g13
S'PlayerSay'
p513
sg15
S'Mayor'
p514
sg16
S''
sg18
S"Hello, Mayor Goodman, I'm Philip Mossman."
p515
sbag1
(g10
g3
NtRp516
(dp517
g13
S'Say'
p518
sg15
S'Mayor'
p519
sg16
S''
sg18
S"Ah yes, you're my new assistant. A good thing, too."
p520
sbag1
(g10
g3
NtRp521
(dp522
g13
S'Say'
p523
sg15
S'Mayor'
p524
sg16
S''
sg18
S"I've been searching for minutes and haven't been able to find my pen! I bet my receptionist stole it. She has sticky fingers."
p525
sbag1
(g10
g3
NtRp526
(dp527
g13
S'Say'
p528
sg15
S'Mayor'
p529
sg16
S''
sg18
S"Well, don't just stand there, go and get it!"
p530
sbag1
(g10
g3
NtRp531
(dp532
g13
S'SetFlag'
p533
sg15
S'Mayor'
p534
sg16
S'PENQUEST'
p535
sg18
S''
sbag1
(g10
g3
NtRp536
(dp537
g13
S'RequireItem'
p538
sg15
S'Mayor'
p539
sg16
S'PEN'
p540
sg18
S'Are you simple? Go and get my pen from that thieving receptionist.'
p541
sbag1
(g10
g3
NtRp542
(dp543
g13
S'Say'
p544
sg15
S'Mayor'
p545
sg16
S''
sg18
S"Great! I know she can give you a bit of a tongue-lashing, but she's a fantastic receptionist."
p546
sbag1
(g10
g3
NtRp547
(dp548
g13
S'Say'
p549
sg15
S'Mayor'
p550
sg16
S''
sg18
S"I'm sure you want to learn a thing or two about politics \xe2\x80\x93 who doesn't? - so lets get started"
p551
sbag1
(g10
g3
NtRp552
(dp553
g13
S'SetFlag'
p554
sg15
S'Mayor'
p555
sg16
S'PROTESTORS'
p556
sg18
S''
sbag1
(g10
g3
NtRp557
(dp558
g13
S'RequireFlag'
p559
sg15
S'Mayor'
p560
sg16
S'PROTESTORSDEAD'
p561
sg18
S'Run outside and tell those protesters to scram, will you?'
p562
sbag1
(g10
g3
NtRp563
(dp564
g13
S'Say'
p565
sg15
S'Mayor'
p566
sg16
S''
sg18
S"Hope they didn't give you too much trouble!"
p567
sbag1
(g10
g3
NtRp568
(dp569
g13
S'Say'
p570
sg15
S'Mayor'
p571
sg16
S''
sg18
S"Now that's sorted, there's a journalist from the local newspaper coming for an interview."
p572
sbag1
(g10
g3
NtRp573
(dp574
g13
S'Say'
p575
sg15
S'Mayor'
p576
sg16
S''
sg18
S"I certainly don't have time for it, so you can do the interview."
p577
sbag1
(g10
g3
NtRp578
(dp579
g13
S'Say'
p580
sg15
S'Mayor'
p581
sg16
S''
sg18
S"Be careful not to give too much away and if you could throw a few punches at the opposition that'd help."
p582
sbag1
(g10
g3
NtRp583
(dp584
g13
S'PlayerSay'
p585
sg15
S'Mayor'
p586
sg16
S''
sg18
S'You want me to...throw a punch?'
p587
sbag1
(g10
g3
NtRp588
(dp589
g13
S'Say'
p590
sg15
S'Mayor'
p591
sg16
S''
sg18
S"You're in politics and don't know how to fight dirty? Sheesh! Here, let me show you."
p592
sbag1
(g10
g3
NtRp593
(dp594
g13
S'LearnAttack'
p595
sg15
S'Mayor'
p596
sg16
S'SLANDER'
p597
sg18
S'Mayor teaches Phillip to Slander Opposition'
p598
sbag1
(g10
g3
NtRp599
(dp600
g13
S'Say'
p601
sg15
S'Mayor'
p602
sg16
S''
sg18
S"It's a pretty great tactic because it keeps eating away at them long after you've done it."
p603
sbag1
(g10
g3
NtRp604
(dp605
g13
S'SetFlag'
p606
sg15
S'Mayor'
p607
sg16
S'INTERVIEWSTART'
p608
sg18
S''
sbag1
(g10
g3
NtRp609
(dp610
g13
S'RequireFlag'
p611
sg15
S'Mayor'
p612
sg16
S'JOURNALISTINTERVIEW'
p613
sg18
S'Go handle that interview and remember to slander the opposition.'
p614
sbag1
(g10
g3
NtRp615
(dp616
g13
S'SetFlag'
p617
sg15
S'Mayor'
p618
sg16
S'GOHOMETOWIFE'
p619
sg18
S''
sbag1
(g10
g3
NtRp620
(dp621
g13
S'Say'
p622
sg15
S'Mayor'
p623
sg16
S''
sg18
S'OK, fine, now could you buzz off for a while? I need to get some work done.'
p624
sbag1
(g10
g3
NtRp625
(dp626
g13
S'RequireFlag'
p627
sg15
S'Mayor'
p628
sg16
S'CONSTITUENTSWON'
p629
sg18
S"Go home to your family. I have things to do that don't involve you."
p630
sbag1
(g10
g3
NtRp631
(dp632
g13
S'Say'
p633
sg15
S'Mayor'
p634
sg16
S''
sg18
S"What's this I hear about you campaigning for Mayor? After everything I've taught you!"
p635
sbag1
(g10
g3
NtRp636
(dp637
g13
S'PlayerSay'
p638
sg15
S'Mayor'
p639
sg16
S''
sg18
S"I'm sorry Mayor Goodman, but it's time for someone who's ready to make a difference for our town."
p640
sbag1
(g10
g3
NtRp641
(dp642
g13
S'Say'
p643
sg15
S'Mayor'
p644
sg16
S''
sg18
S"You really are a fool. Do you think He's going to allow that?"
p645
sbag1
(g10
g3
NtRp646
(dp647
g13
S'Encounter'
p648
sg15
S'Mayor'
p649
sg16
S'P-easy-10'
p650
sg18
S''
sbag1
(g10
g3
NtRp651
(dp652
g13
S'Say'
p653
sg15
S'Mayor'
p654
sg16
S''
sg18
S"Well, you've beaten me but you don't have a clue what you're in for. I hope you're up to this kid!"
p655
sbag1
(g10
g3
NtRp656
(dp657
g13
S'Destroy'
p658
sg15
S'Mayor'
p659
sg16
S''
sg18
S''
sbasS'Governor'
p660
(lp661
g1
(g10
g3
NtRp662
(dp663
g13
S'RequireFlag'
p664
sg15
g660
sg16
S'GOVPOLITICIANSFIRST'
p665
sg18
S"I'm very busy. Please speak to the others."
p666
sbag1
(g10
g3
NtRp667
(dp668
g13
S'Say'
p669
sg15
S'Governor'
p670
sg16
S''
sg18
S'You have quite a way with words, Mayor Mossman. Why are you here?'
p671
sbag1
(g10
g3
NtRp672
(dp673
g13
S'PlayerSay'
p674
sg15
S'Governor'
p675
sg16
S''
sg18
S"Mayor Goodman said some troubling things, Governor Badden. I'm here to get to the bottom of it."
p676
sbag1
(g10
g3
NtRp677
(dp678
g13
S'Say'
p679
sg15
S'Governor'
p680
sg16
S''
sg18
S"If I knew anything about what you're talking about, I wouldn't tell you. I don't trust you at all."
p681
sbag1
(g10
g3
NtRp682
(dp683
g13
S'PlayerSay'
p684
sg15
S'Governor'
p685
sg16
S''
sg18
S'What can I do to convince you?'
p686
sbag1
(g10
g3
NtRp687
(dp688
g13
S'Say'
p689
sg15
S'Governor'
p690
sg16
S''
sg18
S"Well...there's some hicks in the south wing that I've been dodging. They want to know about the recent funding cuts. Get rid of them."
p691
sbag1
(g10
g3
NtRp692
(dp693
g13
S'RequireFlag'
p694
sg15
S'Governor'
p695
sg16
S'DEALWITHHICKS'
p696
sg18
S"I'm not saying another word until you get rid of the hicks in the south wing."
p697
sbasS'Receptionist'
p698
(lp699
g1
(g10
g3
NtRp700
(dp701
g13
S'Encounter'
p702
sg15
g698
sg16
S'P-easy-01'
p703
sg18
S''
sbag1
(g10
g3
NtRp704
(dp705
g13
S'GiveItem'
p706
sg15
S'Receptionist'
p707
sg16
S'PEN'
p708
sg18
S'Receptionist sighs and hands over the pen.'
p709
sbag1
(g10
g3
NtRp710
(dp711
g13
S'Destroy'
p712
sg15
S'Receptionist'
p713
sg16
S''
sg18
S''
sbassS'attacks'
p714
(dp715
S'GETEXCLUSIVE'
p716
g1
(g10
g3
NtRp717
(dp718
S'base_damage_max'
p719
F4
sS'description'
p720
S'asdf'
p721
sS'weight'
p722
I1
sS'crit_chance_max'
p723
F5
sS'crit_chance_min'
p724
F2
sS'underlying_stat'
p725
S'Wit'
p726
sS'target_type'
p727
S'AllFriendly'
p728
sS'base_damage_min'
p729
F2
sS'spin_cost'
p730
F5
sS'effects'
p731
(lp732
g1
(c__main__
Effect
p733
g3
NtRp734
(dp735
S'function'
p736
S'add'
p737
sS'abbrv'
p738
S'(INCREASE)'
p739
sS'attribute'
p740
S'cunning'
p741
sS'value'
p742
F2
sS'rounds_min'
p743
F1
sS'rounds_max'
p744
F4
sS'id'
p745
S'Increase Cunning'
p746
sS'apply_to_source'
p747
S'TRUE'
p748
sbasS'target_count'
p749
I1
sS'crit_base_damage'
p750
F8
sg745
g716
sS'name'
p751
S'Get Exclusive'
p752
sbsS'LOSELOSE'
p753
g1
(g10
g3
NtRp754
(dp755
g719
F4
sg720
S'Causes all politicians in the target radius to lose votes'
p756
sg722
I1
sg723
F0
sg724
F0
sg725
S'Cunning'
p757
sg727
S'All'
p758
sg729
F4
sg730
I0
sg731
(lp759
sg749
I6
sg750
F0
sg745
g753
sg751
S'Lose/lose issue'
p760
sbsS'LIE'
p761
g1
(g10
g3
NtRp762
(dp763
g719
F6
sg720
S"It's only lying if they catch you. A strong attack with a danger of failing entirely and leaving you high and dry."
p764
sg722
F3
sg723
F10
sg724
F2
sg725
S'Wit'
p765
sg727
S'AllEnemy'
p766
sg729
F0
sg730
I0
sg731
(lp767
g1
(g733
g3
NtRp768
(dp769
g736
S'miss_turn'
p770
sg738
S'(MISS)'
p771
sg740
S''
sg742
F0
sg743
F1
sg744
F1
sg745
S'Critical Fail'
p772
sg747
S'TRUE'
p773
sbasg749
I1
sg750
F10
sg745
g761
sg751
S'Lie'
p774
sbsS'HILARIOUSANECDOTE'
p775
g1
(g10
g3
NtRp776
(dp777
g719
F8
sg720
S'asdf'
p778
sg722
I1
sg723
F0
sg724
F0
sg725
S'Wit'
p779
sg727
S'AllFriendly'
p780
sg729
F4
sg730
F5
sg731
(lp781
g1
(g733
g3
NtRp782
(dp783
g736
S'add'
p784
sg738
S'(INCREASE)'
p785
sg740
S'flair'
p786
sg742
F2
sg743
F1
sg744
F4
sg745
S'Increase Flair'
p787
sg747
S'TRUE'
p788
sbasg749
I1
sg750
F0
sg745
g775
sg751
S'Hilarious Anecdote'
p789
sbsS'SENSATIONALISE'
p790
g1
(g10
g3
NtRp791
(dp792
g719
F8
sg720
S'asdf'
p793
sg722
I1
sg723
F0
sg724
F0
sg725
S'Wit'
p794
sg727
S'AllEnemy'
p795
sg729
F4
sg730
F3
sg731
(lp796
sg749
I1
sg750
F0
sg745
g790
sg751
S'Sensationalise'
p797
sbsS'DENOUNCE'
p798
g1
(g10
g3
NtRp799
(dp800
g719
F5
sg720
S'asdf'
p801
sg722
F6
sg723
F10
sg724
F2
sg725
S'Cunning'
p802
sg727
S'AllEnemy'
p803
sg729
F2
sg730
I0
sg731
(lp804
sg749
I1
sg750
F8
sg745
g798
sg751
S'Denounce'
p805
sbsS'WHADOWEWANT'
p806
g1
(g10
g3
NtRp807
(dp808
g719
F6
sg720
S'asdf'
p809
sg722
I1
sg723
F0
sg724
F0
sg725
S'Cunning'
p810
sg727
S'AllEnemy'
p811
sg729
F3
sg730
I0
sg731
(lp812
sg749
I1
sg750
F0
sg745
g806
sg751
S'Whadowewant!'
p813
sbsS'SCOOP'
p814
g1
(g10
g3
NtRp815
(dp816
g719
F5
sg720
S'asdf'
p817
sg722
I1
sg723
F10
sg724
F5
sg725
S'Cunning'
p818
sg727
S'AllEnemy'
p819
sg729
F2
sg730
I0
sg731
(lp820
sg749
I1
sg750
F8
sg745
g814
sg751
S'Scoop'
p821
sbsS'CHOOSETARGETS'
p822
g1
(g10
g3
NtRp823
(dp824
g719
F7
sg720
S'asdf'
p825
sg722
I1
sg723
F10
sg724
F5
sg725
S'Cunning'
p826
sg727
S'AllEnemy'
p827
sg729
F2
sg730
I0
sg731
(lp828
sg749
I1
sg750
F9
sg745
g822
sg751
S'Choose Targets'
p829
sbsS'FILENAILS'
p830
g1
(g10
g3
NtRp831
(dp832
g719
F0
sg720
S'asdf'
p833
sg722
I1
sg723
F0
sg724
F0
sg725
S'Wit'
p834
sg727
S'AllEnemy'
p835
sg729
F0
sg730
F3
sg731
(lp836
g1
(g733
g3
NtRp837
(dp838
g736
S'add_permanent'
p839
sg738
S''
sg740
S'votes'
p840
sg742
F5
sg743
F1
sg744
F1
sg745
S'Votes Restore'
p841
sg747
S'TRUE'
p842
sbasg749
I1
sg750
F0
sg745
g830
sg751
S'File Nails'
p843
sbsS'BRIBE'
p844
g1
(g10
g3
NtRp845
(dp846
g719
F3
sg720
S'Is there anything more convincing than money? Buying loyalty gets expensive so be careful.'
p847
sg722
I1
sg723
F1
sg724
F1
sg725
S'Money'
p848
sg727
S'AllEnemy'
p849
sg729
F2
sg730
I0
sg731
(lp850
sg749
I1
sg750
F1
sg745
g844
sg751
S'Bribe'
p851
sbsS'SING'
p852
g1
(g10
g3
NtRp853
(dp854
g719
F-3
sg720
S'Why bandy words with politicians when you can sing a catchy tune! Restores votes.'
p855
sg722
I1
sg723
F0
sg724
F0
sg725
S'Wit'
p856
sg727
S'AllFriendly'
p857
sg729
F-5
sg730
I0
sg731
(lp858
sg749
I4
sg750
F0
sg745
g852
sg751
S'Rousing Song'
p859
sbsS'FEAR'
p860
g1
(g10
g3
NtRp861
(dp862
g719
F0
sg720
S'asdf'
p863
sg722
F2
sg723
F0
sg724
F0
sg725
S'Wit'
p864
sg727
S'AllFriendly'
p865
sg729
F0
sg730
F4
sg731
(lp866
g734
asg749
I1
sg750
F0
sg745
g860
sg751
S'Fear Change'
p867
sbsS'RAISEDEFCON'
p868
g1
(g10
g3
NtRp869
(dp870
g719
F5
sg720
S'asdf'
p871
sg722
I1
sg723
F7
sg724
F3
sg725
S'Cunning'
p872
sg727
S'AllEnemy'
p873
sg729
F4
sg730
I0
sg731
(lp874
sg749
I1
sg750
F8
sg745
g868
sg751
S'Raise DEFCON'
p875
sbsS'NEGATTACKAD'
p876
g1
(g10
g3
NtRp877
(dp878
g719
F8
sg720
S"Take them all down. They're definitely all bad people. Not like you."
p879
sg722
I1
sg723
F10
sg724
F10
sg725
S'Cunning'
p880
sg727
S'AllEnemy'
p881
sg729
F3
sg730
F5
sg731
(lp882
sg749
I1
sg750
F10
sg745
g876
sg751
S'Negative Attack Ad'
p883
sbsS'DAZZLE'
p884
g1
(g10
g3
NtRp885
(dp886
g719
F3
sg720
S'Being dazzling and admirable is a great way to take heat off politics'
p887
sg722
I1
sg723
F8
sg724
F5
sg725
S'Wit'
p888
sg727
S'AllEnemy'
p889
sg729
F2
sg730
F3
sg731
(lp890
g1
(g733
g3
NtRp891
(dp892
g736
S'reduce'
p893
sg738
S'(REDUCE)'
p894
sg740
S'cunning'
p895
sg742
F2
sg743
F2
sg744
F5
sg745
S'Reduce Cunning'
p896
sg747
S''
sbasg749
I4
sg750
F8
sg745
g884
sg751
S'Dazzle'
p897
sbsS'BELIEVEMEDIA'
p898
g1
(g10
g3
NtRp899
(dp900
g719
F3
sg720
S'asdf'
p901
sg722
I1
sg723
F15
sg724
F5
sg725
S'Cunning'
p902
sg727
S'AllEnemy'
p903
sg729
F1
sg730
I0
sg731
(lp904
sg749
I1
sg750
F12
sg745
g898
sg751
S'Believe Media'
p905
sbsS'PRPREP'
p906
g1
(g10
g3
NtRp907
(dp908
g719
F0
sg720
S"If you're going to need some spin, best see a spin doctor! Adds spin points."
p909
sg722
I1
sg723
F0
sg724
F0
sg725
S''
sg727
S'AllFriendly'
p910
sg729
F0
sg730
I0
sg731
(lp911
g1
(g733
g3
NtRp912
(dp913
g736
S'add_permanent'
p914
sg738
S''
sg740
S'spin'
p915
sg742
F5
sg743
F0
sg744
F0
sg745
S'Spin Restore'
p916
sg747
S'TRUE'
p917
sbasg749
I1
sg750
F0
sg745
g906
sg751
S'PR Prep'
p918
sbsS'CALLVATICAN'
p919
g1
(g10
g3
NtRp920
(dp921
g719
F0
sg720
S'Brings in 2 additional ReligousNuts at 2 levels lower than this one'
p922
sg722
I1
sg723
F0
sg724
F0
sg725
S'Wit'
p923
sg727
S'None'
p924
sg729
F0
sg730
F5
sg731
(lp925
g1
(g733
g3
NtRp926
(dp927
g736
S'call_friends'
p928
sg738
S''
sg740
S'ReligiousNut001:2'
p929
sg742
F2
sg743
F0
sg744
F0
sg745
S'Call Friends'
p930
sg747
S''
sbasg749
I1
sg750
F0
sg745
g919
sg751
S'Call Vatican'
p931
sbsS'BLACKMAIL'
p932
g1
(g10
g3
NtRp933
(dp934
g719
F6
sg720
S'asdf'
p935
sg722
I1
sg723
F10
sg724
F2
sg725
S'Wit'
p936
sg727
S'AllEnemy'
p937
sg729
F3
sg730
F4
sg731
(lp938
g1
(g733
g3
NtRp939
(dp940
g736
S'drain'
p941
sg738
S'(DRAIN)'
p942
sg740
S'votes'
p943
sg742
F1
sg743
F2
sg744
F5
sg745
S'Drain Votes'
p944
sg747
S''
sbasg749
I1
sg750
F2
sg745
g932
sg751
S'Blackmail'
p945
sbsS'RUNAD'
p946
g1
(g10
g3
NtRp947
(dp948
g719
F0
sg720
S'Gets back some votes by running an ad'
p949
sg722
I1
sg723
F0
sg724
F0
sg725
S''
sg727
S'AllFriendly'
p950
sg729
F0
sg730
I0
sg731
(lp951
g1
(g733
g3
NtRp952
(dp953
g736
S'add_permanent'
p954
sg738
S''
sg740
S'votes'
p955
sg742
F10
sg743
F1
sg744
F1
sg745
S'Votes Restore Ad'
p956
sg747
S'TRUE'
p957
sbasg749
I1
sg750
F0
sg745
g946
sg751
S'Run Advertisement'
p958
sbsS'PROTEST'
p959
g1
(g10
g3
NtRp960
(dp961
g719
F5
sg720
S'asdf'
p962
sg722
F6
sg723
F10
sg724
F2
sg725
S'Cunning'
p963
sg727
S'AllEnemy'
p964
sg729
F2
sg730
I0
sg731
(lp965
sg749
I1
sg750
F8
sg745
g959
sg751
S'Protest'
p966
sbsS'SPREADRUMOUR'
p967
g1
(g10
g3
NtRp968
(dp969
g719
F6
sg720
S'asdf'
p970
sg722
I1
sg723
F10
sg724
F2
sg725
S'Wit'
p971
sg727
S'AllEnemy'
p972
sg729
F2
sg730
F3
sg731
(lp973
sg749
I4
sg750
F8
sg745
g967
sg751
S'Spread Rumour'
p974
sbsS'AGENDA'
p975
g1
(g10
g3
NtRp976
(dp977
g719
F5
sg720
S'asdf'
p978
sg722
F6
sg723
F10
sg724
F2
sg725
S'Cunning'
p979
sg727
S'AllEnemy'
p980
sg729
F2
sg730
I0
sg731
(lp981
sg749
I1
sg750
F8
sg745
g975
sg751
S'Push Agenda'
p982
sbsS'FILIBUSTER'
p983
g1
(g10
g3
NtRp984
(dp985
g719
F0
sg720
S"You're not moving until they give in. Cause all opposition to miss their turn"
p986
sg722
I1
sg723
F0
sg724
F0
sg725
S'Wit'
p987
sg727
S'AllEnemy'
p988
sg729
F0
sg730
F8
sg731
(lp989
g1
(g733
g3
NtRp990
(dp991
g736
S'miss_turn'
p992
sg738
S'(MISS)'
p993
sg740
S''
sg742
F0
sg743
F1
sg744
F1
sg745
S'Miss Turn'
p994
sg747
S''
sbasg749
I1
sg750
F0
sg745
g983
sg751
S'Filibuster'
p995
sbsS'GATHERINTEL'
p996
g1
(g10
g3
NtRp997
(dp998
g719
F0
sg720
S'Increases Cunning.'
p999
sg722
I1
sg723
F0
sg724
F0
sg725
S'Wit'
p1000
sg727
S'AllFriendly'
p1001
sg729
F0
sg730
F3
sg731
(lp1002
g734
asg749
I2
sg750
F0
sg745
g996
sg751
S'Gather Intelligence'
p1003
sbsS'LOVE'
p1004
g1
(g10
g3
NtRp1005
(dp1006
g719
F6
sg720
S'asdf'
p1007
sg722
F2
sg723
F8
sg724
F2
sg725
S'Cunning'
p1008
sg727
S'AllEnemy'
p1009
sg729
F1
sg730
I0
sg731
(lp1010
sg749
I1
sg750
F7
sg745
g1004
sg751
S'Love'
p1011
sbsS'OUTOFCONTEXT'
p1012
g1
(g10
g3
NtRp1013
(dp1014
g719
F3
sg720
S'asdf'
p1015
sg722
I1
sg723
F5
sg724
F2
sg725
S'Wit'
p1016
sg727
S'AllEnemy'
p1017
sg729
F2
sg730
F2
sg731
(lp1018
g939
asg749
I1
sg750
F5
sg745
g1012
sg751
S'Take Out Of Context'
p1019
sbsS'GREATSUIT'
p1020
g1
(g10
g3
NtRp1021
(dp1022
g719
F6
sg720
S'Well, we could argue, but have you noticed how fabulous this suit is?'
p1023
sg722
I1
sg723
F11
sg724
F6
sg725
S'Cunning'
p1024
sg727
S'AllEnemy'
p1025
sg729
F3
sg730
I0
sg731
(lp1026
sg749
I1
sg750
F12
sg745
g1020
sg751
S'Look Great In Suit'
p1027
sbsS'PEACE'
p1028
g1
(g10
g3
NtRp1029
(dp1030
g719
F0
sg720
S'asdf'
p1031
sg722
I1
sg723
F0
sg724
F0
sg725
S'Wit'
p1032
sg727
S'AllEnemy'
p1033
sg729
F0
sg730
F3
sg731
(lp1034
g891
asg749
I4
sg750
F0
sg745
g1028
sg751
S'Peace'
p1035
sbsS'INSPSPEECH'
p1036
g1
(g10
g3
NtRp1037
(dp1038
g719
F-2
sg720
S'Restore votes to all party members'
p1039
sg722
I1
sg723
F0
sg724
F0
sg725
S'Cunning'
p1040
sg727
S'AllFriendly'
p1041
sg729
F-2
sg730
I0
sg731
(lp1042
sg749
I4
sg750
F0
sg745
g1036
sg751
S'Inspirational Speech'
p1043
sbsS'STRIKE'
p1044
g1
(g10
g3
NtRp1045
(dp1046
g719
F8
sg720
S'asdf'
p1047
sg722
I1
sg723
F0
sg724
F0
sg725
S'Wit'
p1048
sg727
S'AllEnemy'
p1049
sg729
F0
sg730
F3
sg731
(lp1050
g768
asg749
I1
sg750
F0
sg745
g1044
sg751
S'Call A Strike'
p1051
sbsS'SLANDER'
p1052
g1
(g10
g3
NtRp1053
(dp1054
g719
F3
sg720
S'Strong against polititians...careful with those voters, though!'
p1055
sg722
F4
sg723
F10
sg724
F2
sg725
S'Wit'
p1056
sg727
S'AllEnemy'
p1057
sg729
F2
sg730
I0
sg731
(lp1058
g939
asg749
I1
sg750
F5
sg745
g1052
sg751
S'Slander Opposition'
p1059
sbsS'NATTER'
p1060
g1
(g10
g3
NtRp1061
(dp1062
g719
F8
sg720
S'asdf'
p1063
sg722
I1
sg723
F15
sg724
F5
sg725
S'Cunning'
p1064
sg727
S'AllEnemy'
p1065
sg729
F1
sg730
I0
sg731
(lp1066
sg749
I1
sg750
F10
sg745
g1060
sg751
S'Natter On'
p1067
sbsS'GOSSIP'
p1068
g1
(g10
g3
NtRp1069
(dp1070
g719
F3
sg720
S'asdf'
p1071
sg722
I1
sg723
F10
sg724
F2
sg725
S'Wit'
p1072
sg727
S'AllEnemy'
p1073
sg729
F1
sg730
F2
sg731
(lp1074
g891
asg749
I1
sg750
F6
sg745
g1068
sg751
S'Gossip'
p1075
sbsS'MISSTURN'
p1076
g1
(g10
g3
NtRp1077
(dp1078
g719
F0
sg720
S'asdf'
p1079
sg722
I1
sg723
F0
sg724
F0
sg725
S''
sg727
S'AllEnemy'
p1080
sg729
F0
sg730
I0
sg731
(lp1081
sg749
I1
sg750
F0
sg745
g1076
sg751
S'Miss Turn'
p1082
sbsS'BIELECTION'
p1083
g1
(g10
g3
NtRp1084
(dp1085
g719
F4
sg720
S'Redistribute votes amongst targets'
p1086
sg722
I1
sg723
F0
sg724
F0
sg725
S'Cunning'
p1087
sg727
S'All'
p1088
sg729
F-4
sg730
F4
sg731
(lp1089
sg749
I8
sg750
F0
sg745
g1083
sg751
S'Bielection'
p1090
sbsS'SCARE'
p1091
g1
(g10
g3
NtRp1092
(dp1093
g719
F7
sg720
S'Nothing rattles the brains like fear.'
p1094
sg722
I1
sg723
F10
sg724
F2
sg725
S'Wit'
p1095
sg727
S'AllEnemy'
p1096
sg729
F2
sg730
I0
sg731
(lp1097
g891
asg749
I2
sg750
F9
sg745
g1091
sg751
S'Scare Campaign'
p1098
sbsS'PAYOFF'
p1099
g1
(g10
g3
NtRp1100
(dp1101
g719
F7
sg720
S'causes them to miss a number of turns'
p1102
sg722
I1
sg723
F8
sg724
F2
sg725
S'Wit'
p1103
sg727
S'AllEnemy'
p1104
sg729
F2
sg730
F4
sg731
(lp1105
g1
(g733
g3
NtRp1106
(dp1107
g736
S'miss_turn'
p1108
sg738
S'(MISS)'
p1109
sg740
S''
sg742
F0
sg743
F1
sg744
F3
sg745
S'Miss Turn Pay Off'
p1110
sg747
S''
sbasg749
I1
sg750
F9
sg745
g1099
sg751
S'Pay Off'
p1111
sbsS'BUREAUCRACY'
p1112
g1
(g10
g3
NtRp1113
(dp1114
g719
F5
sg720
S'asdf'
p1115
sg722
F6
sg723
F10
sg724
F2
sg725
S'Cunning'
p1116
sg727
S'AllEnemy'
p1117
sg729
F2
sg730
I0
sg731
(lp1118
sg749
I1
sg750
F8
sg745
g1112
sg751
S'Bureaucracy'
p1119
sbsS'RALLYAUDIENCE'
p1120
g1
(g10
g3
NtRp1121
(dp1122
g719
F8
sg720
S'asdf'
p1123
sg722
I1
sg723
F0
sg724
F0
sg725
S'Wit'
p1124
sg727
S'AllFriendly'
p1125
sg729
F4
sg730
F3
sg731
(lp1126
g1
(g733
g3
NtRp1127
(dp1128
g736
S'add'
p1129
sg738
S'(INCREASE)'
p1130
sg740
S'charisma'
p1131
sg742
F2
sg743
F1
sg744
F4
sg745
S'Increase Charisma'
p1132
sg747
S'TRUE'
p1133
sbasg749
I1
sg750
F0
sg745
g1120
sg751
S'Rally Audience'
p1134
sbsS'PORKBARREL'
p1135
g1
(g10
g3
NtRp1136
(dp1137
g719
F6
sg720
S'Do something that benefits them specifically. Not advised against politicians.'
p1138
sg722
I1
sg723
F0
sg724
F0
sg725
S'Wit'
p1139
sg727
S'AllEnemy'
p1140
sg729
F2
sg730
F2
sg731
(lp1141
sg749
I1
sg750
F0
sg745
g1135
sg751
S'Pork Barrel'
p1142
sbsS'INSPIRE'
p1143
g1
(g10
g3
NtRp1144
(dp1145
g719
F0
sg720
S'asdf'
p1146
sg722
I1
sg723
F0
sg724
F0
sg725
S'Wit'
p1147
sg727
S'AllFriendly'
p1148
sg729
F0
sg730
F3
sg731
(lp1149
g734
asg749
I4
sg750
F0
sg745
g1143
sg751
S'Inspire'
p1150
sbsS'JOKE'
p1151
g1
(g10
g3
NtRp1152
(dp1153
g719
F3
sg720
S"Ha, ha, ha...what were we talking about? Diffuse the situation with some humour. Not good if it falls flat, but if they get it, it'll knock 'em dead."
p1154
sg722
F3
sg723
F30
sg724
F10
sg725
S'Wit'
p1155
sg727
S'AllEnemy'
p1156
sg729
F2
sg730
I0
sg731
(lp1157
sg749
I1
sg750
F10
sg745
g1151
sg751
S'Joke'
p1158
sbsS'PRAYFORSOULS'
p1159
g1
(g10
g3
NtRp1160
(dp1161
g719
F6
sg720
S'asdf'
p1162
sg722
F2
sg723
F10
sg724
F2
sg725
S'Cunning'
p1163
sg727
S'None'
p1164
sg729
F3
sg730
I0
sg731
(lp1165
sg749
I1
sg750
F10
sg745
g1159
sg751
S'Pray'
p1166
sbsS'REVIVE'
p1167
g1
(g10
g3
NtRp1168
(dp1169
g719
F0
sg720
S'Revive a defeated comrade to half votes'
p1170
sg722
I1
sg723
F0
sg724
F0
sg725
S''
sg727
S'DeadFriendly'
p1171
sg729
F0
sg730
F3
sg731
(lp1172
g1
(g733
g3
NtRp1173
(dp1174
g736
S'revive'
p1175
sg738
S''
sg740
S''
sg742
F0.5
sg743
F0
sg744
F0
sg745
S'Revive'
p1176
sg747
S''
sbasg749
I1
sg750
F0
sg745
g1167
sg751
S'Revive'
p1177
sbsS'HUMANSHIELD'
p1178
g1
(g10
g3
NtRp1179
(dp1180
g719
F5
sg720
S'No further questions. Step back, please.'
p1181
sg722
I1
sg723
F5
sg724
F2
sg725
S'Wit'
p1182
sg727
S'AllEnemy'
p1183
sg729
F2
sg730
F4
sg731
(lp1184
g990
asg749
I2
sg750
F12
sg745
g1178
sg751
S'Human Shield'
p1185
sbsS'MAKEDEMANDS'
p1186
g1
(g10
g3
NtRp1187
(dp1188
g719
F8
sg720
S'asdf'
p1189
sg722
I1
sg723
F0
sg724
F0
sg725
S'Cunning'
p1190
sg727
S'AllEnemy'
p1191
sg729
F0
sg730
I0
sg731
(lp1192
g768
asg749
I1
sg750
F0
sg745
g1186
sg751
S'Make Outrageous Demands'
p1193
sbsS'DEFENSE'
p1194
g1
(g10
g3
NtRp1195
(dp1196
g719
F0
sg720
S'Gather strenth; -50% to all incoming attacks'
p1197
sg722
I1
sg723
F0
sg724
F0
sg725
S''
sg727
S'None'
p1198
sg729
F0
sg730
I0
sg731
(lp1199
g1
(g733
g3
NtRp1200
(dp1201
g736
S'add'
p1202
sg738
S'(DFND)'
p1203
sg740
S'resistance'
p1204
sg742
F0.5
sg743
F1
sg744
F1
sg745
S'Defense'
p1205
sg747
S'TRUE'
p1206
sbasg749
I1
sg750
F0
sg745
g1194
sg751
S'Defense'
p1207
sbsS'MISCONSTRUE'
p1208
g1
(g10
g3
NtRp1209
(dp1210
g719
F8
sg720
S'asdf'
p1211
sg722
I1
sg723
F0
sg724
F0
sg725
S'Cunning'
p1212
sg727
S'AllEnemy'
p1213
sg729
F0
sg730
I0
sg731
(lp1214
g768
asg749
I1
sg750
F0
sg745
g1208
sg751
S'Misconstrue'
p1215
sbsS'NATIONALSECURITY'
p1216
g1
(g10
g3
NtRp1217
(dp1218
g719
F7
sg720
S"This is a matter of national security and they don't have codeword clearance"
p1219
sg722
I1
sg723
F10
sg724
F2
sg725
S'Cunning'
p1220
sg727
S'AllEnemy'
p1221
sg729
F2
sg730
I0
sg731
(lp1222
sg749
I1
sg750
F9
sg745
g1216
sg751
S'National Security'
p1223
sbsS'RALLY'
p1224
g1
(g10
g3
NtRp1225
(dp1226
g719
F-2
sg720
S'Get back some votes by rallying supporters'
p1227
sg722
F5
sg723
F0
sg724
F0
sg725
S'Wit'
p1228
sg727
S'AllFriendly'
p1229
sg729
F-4
sg730
F2
sg731
(lp1230
g926
asg749
I1
sg750
F0
sg745
g1224
sg751
S'Rally Constituents'
p1231
sbsS'MESSAGE'
p1232
g1
(g10
g3
NtRp1233
(dp1234
g719
F5
sg720
S'You can certainly wear them down by repeating your party line over and over and over...if you want'
p1235
sg722
F6
sg723
F10
sg724
F2
sg725
S'Wit'
p1236
sg727
S'AllEnemy'
p1237
sg729
F2
sg730
I0
sg731
(lp1238
sg749
I1
sg750
F8
sg745
g1232
sg751
S'Stay On Message'
p1239
sbsS'APPEALTOGOD'
p1240
g1
(g10
g3
NtRp1241
(dp1242
g719
F6
sg720
S'asdf'
p1243
sg722
F3
sg723
F0
sg724
F0
sg725
S'Wit'
p1244
sg727
S'AllEnemy'
p1245
sg729
F4
sg730
F7
sg731
(lp1246
sg749
I4
sg750
F0
sg745
g1240
sg751
S'Appeal To God'
p1247
sbssS'levels'
p1248
(lp1249
g1
(g10
g3
NtRp1250
(dp1251
S'votes'
p1252
F10
sS'level'
p1253
F1
sS'spin'
p1254
F5
sS'xp'
p1255
F0
sS'skill_points'
p1256
F0
sbag1
(g10
g3
NtRp1257
(dp1258
g1252
F12
sg1253
F2
sg1254
F5
sg1255
F100
sg1256
F2
sbag1
(g10
g3
NtRp1259
(dp1260
g1252
F15
sg1253
F3
sg1254
F6
sg1255
F200
sg1256
F2
sbag1
(g10
g3
NtRp1261
(dp1262
g1252
F20
sg1253
F4
sg1254
F6
sg1255
F500
sg1256
F2
sbag1
(g10
g3
NtRp1263
(dp1264
g1252
F25
sg1253
F5
sg1254
F7
sg1255
F1000
sg1256
F2
sbag1
(g10
g3
NtRp1265
(dp1266
g1252
F30
sg1253
F6
sg1254
F7
sg1255
F2000
sg1256
F2
sbag1
(g10
g3
NtRp1267
(dp1268
g1252
F35
sg1253
F7
sg1254
F8
sg1255
F5000
sg1256
F2
sbag1
(g10
g3
NtRp1269
(dp1270
g1252
F40
sg1253
F8
sg1254
F8
sg1255
F10000
sg1256
F2
sbag1
(g10
g3
NtRp1271
(dp1272
g1252
F45
sg1253
F9
sg1254
F9
sg1255
F15000
sg1256
F2
sbag1
(g10
g3
NtRp1273
(dp1274
g1252
F50
sg1253
F10
sg1254
F9
sg1255
F20000
sg1256
F2
sbag1
(g10
g3
NtRp1275
(dp1276
g1252
F55
sg1253
F11
sg1254
F10
sg1255
F40000
sg1256
F2
sbag1
(g10
g3
NtRp1277
(dp1278
g1252
S''
sg1253
F12
sg1254
S''
sg1255
S''
sg1256
S''
sbag1
(g10
g3
NtRp1279
(dp1280
g1252
S''
sg1253
F13
sg1254
S''
sg1255
S''
sg1256
S''
sbag1
(g10
g3
NtRp1281
(dp1282
g1252
S''
sg1253
F14
sg1254
S''
sg1255
S''
sg1256
S''
sbag1
(g10
g3
NtRp1283
(dp1284
g1252
S''
sg1253
F15
sg1254
S''
sg1255
S''
sg1256
S''
sbag1
(g10
g3
NtRp1285
(dp1286
g1252
S''
sg1253
F16
sg1254
S''
sg1255
S''
sg1256
S''
sbag1
(g10
g3
NtRp1287
(dp1288
g1252
S''
sg1253
F17
sg1254
S''
sg1255
S''
sg1256
S''
sbag1
(g10
g3
NtRp1289
(dp1290
g1252
S''
sg1253
F18
sg1254
S''
sg1255
S''
sg1256
S''
sbag1
(g10
g3
NtRp1291
(dp1292
g1252
S''
sg1253
F19
sg1254
S''
sg1255
S''
sg1256
S''
sbag1
(g10
g3
NtRp1293
(dp1294
g1252
S''
sg1253
F20
sg1254
S''
sg1255
S''
sg1256
S''
sbag1
(g10
g3
NtRp1295
(dp1296
g1252
S''
sg1253
F21
sg1254
S''
sg1255
S''
sg1256
S''
sbag1
(g10
g3
NtRp1297
(dp1298
g1252
S''
sg1253
F22
sg1254
S''
sg1255
S''
sg1256
S''
sbag1
(g10
g3
NtRp1299
(dp1300
g1252
S''
sg1253
F23
sg1254
S''
sg1255
S''
sg1256
S''
sbag1
(g10
g3
NtRp1301
(dp1302
g1252
S''
sg1253
F24
sg1254
S''
sg1255
S''
sg1256
S''
sbag1
(g10
g3
NtRp1303
(dp1304
g1252
S''
sg1253
F25
sg1254
S''
sg1255
S''
sg1256
S''
sbag1
(g10
g3
NtRp1305
(dp1306
g1252
S''
sg1253
F26
sg1254
S''
sg1255
S''
sg1256
S''
sbag1
(g10
g3
NtRp1307
(dp1308
g1252
S''
sg1253
F27
sg1254
S''
sg1255
S''
sg1256
S''
sbag1
(g10
g3
NtRp1309
(dp1310
g1252
S''
sg1253
F28
sg1254
S''
sg1255
S''
sg1256
S''
sbag1
(g10
g3
NtRp1311
(dp1312
g1252
S''
sg1253
F29
sg1254
S''
sg1255
S''
sg1256
S''
sbasg731
(dp1313
g746
g734
sg841
g837
sg916
g912
sg1132
g1127
sg994
g990
sg930
g926
sg956
g952
sg1110
g1106
sg1176
g1173
sg896
g891
sg944
g939
sg1205
g1200
sg772
g768
sg787
g782
ssS'characters'
p1314
(dp1315
S'Teacher001'
p1316
(lp1317
g1
(g10
g3
NtRp1318
(dp1319
S'flair_base'
p1320
F1
sS'spin_base'
p1321
F4
sS'flair_lvl'
p1322
F1.1499999999999999
sS'wit_base'
p1323
F1
sS'resistance'
p1324
(lp1325
sS'wit_lvl'
p1326
F1.0900000000000001
sS'cunning_base'
p1327
F1
sg745
g1316
sS'votes_base'
p1328
F10
sS'speed_lvl'
p1329
F1.0800000000000001
sS'standard_attacks'
p1330
(lp1331
g1195
ag960
asS'cunning_lvl'
p1332
F1.1000000000000001
sS'charisma_lvl'
p1333
F1.1499999999999999
sS'spin_attacks'
p1334
(lp1335
g1045
ag1225
asS'spin_lvl'
p1336
F1.0800000000000001
sS'charisma_base'
p1337
F1
sS'weaknesses'
p1338
(lp1339
sS'attack_group'
p1340
S'Teacher'
p1341
sS'votes_lvl'
p1342
F1.2
sg751
S'Teacher'
p1343
sS'speed_base'
p1344
F1
sS'immunities'
p1345
(lp1346
sbasS'Politician001'
p1347
(lp1348
g1
(g10
g3
NtRp1349
(dp1350
g1320
F1
sg1321
F4
sg1322
F1.1499999999999999
sg1323
F1
sg1324
(lp1351
g762
asg1326
F1.0900000000000001
sg1327
F1
sg745
g1347
sg1328
F10
sg1329
F1.0800000000000001
sg1330
(lp1352
g1233
ag1053
ag762
ag1152
ag1195
asg1332
F1.1000000000000001
sg1333
F1.1499999999999999
sg1334
(lp1353
g1084
ag877
ag1168
asg1336
F1.0800000000000001
sg1337
F1
sg1338
(lp1354
g845
asg1340
S'Politician'
p1355
sg1342
F1.2
sg751
S'Politician'
p1356
sg1344
F1
sg1345
(lp1357
g1136
asbasS'SecretAgent'
p1358
(lp1359
g1
(g10
g3
NtRp1360
(dp1361
g1320
F1
sg1321
F4
sg1322
F1.1499999999999999
sg1323
F1
sg1324
(lp1362
sg1326
F1.0900000000000001
sg1327
F1
sg745
g1358
sg1328
F18
sg1329
F1.0800000000000001
sg1330
(lp1363
g1195
ag1217
ag1021
asg1332
F1.1000000000000001
sg1333
F1.1499999999999999
sg1334
(lp1364
g1179
ag997
asg1336
F1.0800000000000001
sg1337
F1
sg1338
(lp1365
sg1340
S'SecretAgent'
p1366
sg1342
F1.2
sg751
S'Agent Kawalski'
p1367
sg1344
F1
sg1345
(lp1368
sbasS'Bumpkin001'
p1369
(lp1370
g1
(g10
g3
NtRp1371
(dp1372
g1320
F1
sg1321
F4
sg1322
F1.1499999999999999
sg1323
F1
sg1324
(lp1373
sg1326
F1.0900000000000001
sg1327
F1
sg745
g1369
sg1328
F10
sg1329
F1.0800000000000001
sg1330
(lp1374
g1152
ag899
asg1332
F1.1000000000000001
sg1333
F1.1499999999999999
sg1334
(lp1375
g861
ag968
asg1336
F1.0800000000000001
sg1337
F1
sg1338
(lp1376
g762
ag1053
ag1092
asg1340
S'Bumpkin'
p1377
sg1342
F1.2
sg751
S'Bumpkin'
p1378
sg1344
F1
sg1345
(lp1379
sbasS'WarVet001'
p1380
(lp1381
g1
(g10
g3
NtRp1382
(dp1383
g1320
F1
sg1321
F4
sg1322
F1.1499999999999999
sg1323
F1
sg1324
(lp1384
sg1326
F1.0900000000000001
sg1327
F1
sg745
g1380
sg1328
F10
sg1329
F1.0800000000000001
sg1330
(lp1385
g1187
ag1195
asg1332
F1.1000000000000001
sg1333
F1.1499999999999999
sg1334
(lp1386
g1144
ag1225
asg1336
F1.0800000000000001
sg1337
F1
sg1338
(lp1387
sg1340
S'WarVet'
p1388
sg1342
F1.2
sg751
S'War Veteran'
p1389
sg1344
F1
sg1345
(lp1390
sbasS'Receptionist001'
p1391
(lp1392
g1
(g10
g3
NtRp1393
(dp1394
g1320
F1
sg1321
F4
sg1322
F1.1499999999999999
sg1323
F1
sg1324
(lp1395
sg1326
F1.0900000000000001
sg1327
F1
sg745
g1391
sg1328
F10
sg1329
F1.0800000000000001
sg1330
(lp1396
g1113
ag1061
asg1332
F1.1000000000000001
sg1333
F1.1499999999999999
sg1334
(lp1397
g1069
ag831
asg1336
F1.0800000000000001
sg1337
F1
sg1338
(lp1398
sg1340
S'Receptionist'
p1399
sg1342
F1.2
sg751
S'Receptionist'
p1400
sg1344
F1
sg1345
(lp1401
sbasS'DeepThroat'
p1402
(lp1403
g1
(g10
g3
NtRp1404
(dp1405
g1320
F1
sg1321
F4
sg1322
F1.1499999999999999
sg1323
F1
sg1324
(lp1406
sg1326
F1.0900000000000001
sg1327
F1
sg745
g1402
sg1328
F10
sg1329
F1.0800000000000001
sg1330
(lp1407
g1053
ag1195
ag1187
asg1332
F1.1000000000000001
sg1333
F1.1499999999999999
sg1334
(lp1408
g933
asg1336
F1.0800000000000001
sg1337
F1
sg1338
(lp1409
sg1340
S'DeepThroat'
p1410
sg1342
F1.2
sg751
S'Deep Throat'
p1411
sg1344
F1
sg1345
(lp1412
sbasS'Leo'
p1413
(lp1414
g1
(g10
g3
NtRp1415
(dp1416
g1320
F1
sg1321
F4
sg1322
F1.1499999999999999
sg1323
F1
sg1324
(lp1417
sg1326
F1.0900000000000001
sg1327
F1
sg745
g1413
sg1328
F14
sg1329
F1.0800000000000001
sg1330
(lp1418
g1233
ag1053
ag762
ag1152
ag845
asg1332
F1.1000000000000001
sg1333
F1.1499999999999999
sg1334
(lp1419
g1084
ag877
ag1136
ag984
asg1336
F1.0800000000000001
sg1337
F1
sg1338
(lp1420
sg1340
S'Theo'
p1421
sg1342
F1.2
sg751
S'Theo'
p1422
sg1344
F1
sg1345
(lp1423
sbasS'HippyGirl001'
p1424
(lp1425
g1
(g10
g3
NtRp1426
(dp1427
g1320
F1
sg1321
F4
sg1322
F1.1499999999999999
sg1323
F1
sg1324
(lp1428
sg1326
F1.0900000000000001
sg1327
F1
sg745
g1424
sg1328
F10
sg1329
F1.0800000000000001
sg1330
(lp1429
g853
ag960
ag1005
asg1332
F1.1000000000000001
sg1333
F1.1499999999999999
sg1334
(lp1430
g1029
ag1225
ag1168
asg1336
F1.0800000000000001
sg1337
F1
sg1338
(lp1431
g1152
asg1340
S'Hippy'
p1432
sg1342
F1.2
sg751
S'Hippy Girl'
p1433
sg1344
F1
sg1345
(lp1434
sbasS'President'
p1435
(lp1436
g1
(g10
g3
NtRp1437
(dp1438
g1320
F1
sg1321
F4
sg1322
F1.1499999999999999
sg1323
F1
sg1324
(lp1439
sg1326
F1.0900000000000001
sg1327
F1
sg745
g1435
sg1328
F10
sg1329
F1.0800000000000001
sg1330
(lp1440
g1233
ag1053
ag762
ag1152
ag1195
asg1332
F1.1000000000000001
sg1333
F1.1499999999999999
sg1334
(lp1441
g1084
ag877
ag1168
asg1336
F1.0800000000000001
sg1337
F1
sg1338
(lp1442
sg1340
S'Politician'
p1443
sg1342
F1.2
sg751
S'President Allen'
p1444
sg1344
F1
sg1345
(lp1445
sbasS'Unionist001'
p1446
(lp1447
g1
(g10
g3
NtRp1448
(dp1449
g1320
F1
sg1321
F4
sg1322
F1.1499999999999999
sg1323
F1
sg1324
(lp1450
sg1326
F1.0900000000000001
sg1327
F1
sg745
g1446
sg1328
F10
sg1329
F1.0800000000000001
sg1330
(lp1451
g1187
ag1195
ag960
asg1332
F1.1000000000000001
sg1333
F1.1499999999999999
sg1334
(lp1452
g1045
asg1336
F1.0800000000000001
sg1337
F1
sg1338
(lp1453
sg1340
S'Unionist'
p1454
sg1342
F1.2
sg751
S'Unionist'
p1455
sg1344
F1
sg1345
(lp1456
sbasS'Wife'
p1457
(lp1458
g1
(g10
g3
NtRp1459
(dp1460
g1320
F1
sg1321
F4
sg1322
F1.1499999999999999
sg1323
F1
sg1324
(lp1461
sg1326
F1.0900000000000001
sg1327
F1
sg745
g1457
sg1328
F12
sg1329
F1.0800000000000001
sg1330
(lp1462
g1195
ag1233
asg1332
F1.1000000000000001
sg1333
F1.1499999999999999
sg1334
(lp1463
g1225
ag1168
ag885
asg1336
F1.0800000000000001
sg1337
F1
sg1338
(lp1464
sg1340
S'Wife'
p1465
sg1342
F1.2
sg751
S'Sarah Mossman'
p1466
sg1344
F1
sg1345
(lp1467
sbasS'PresidentAlien'
p1468
(lp1469
g1
(g10
g3
NtRp1470
(dp1471
g1320
F1
sg1321
F4
sg1322
F1.1499999999999999
sg1323
F1
sg1324
(lp1472
sg1326
F1.0900000000000001
sg1327
F1
sg745
g1468
sg1328
F10
sg1329
F1.0800000000000001
sg1330
(lp1473
g1233
ag1053
ag762
ag1152
ag1195
asg1332
F1.1000000000000001
sg1333
F1.1499999999999999
sg1334
(lp1474
g1084
ag877
ag1168
asg1336
F1.0800000000000001
sg1337
F1
sg1338
(lp1475
sg1340
S'Politician'
p1476
sg1342
F1.2
sg751
S'President Alien'
p1477
sg1344
F1
sg1345
(lp1478
sbasS'Governor'
p1479
(lp1480
g1
(g10
g3
NtRp1481
(dp1482
g1320
F1
sg1321
F4
sg1322
F1.1499999999999999
sg1323
F1
sg1324
(lp1483
sg1326
F1.0900000000000001
sg1327
F1
sg745
g1479
sg1328
F10
sg1329
F1.0800000000000001
sg1330
(lp1484
g1233
ag1053
ag762
ag1152
ag1195
asg1332
F1.1000000000000001
sg1333
F1.1499999999999999
sg1334
(lp1485
g1084
ag877
ag1168
asg1336
F1.0800000000000001
sg1337
F1
sg1338
(lp1486
sg1340
S'Politician'
p1487
sg1342
F1.2
sg751
g1479
sg1344
F1
sg1345
(lp1488
sbasS'Lobbyist001'
p1489
(lp1490
g1
(g10
g3
NtRp1491
(dp1492
g1320
F1
sg1321
F4
sg1322
F1.1499999999999999
sg1323
F1
sg1324
(lp1493
sg1326
F1.0900000000000001
sg1327
F1
sg745
g1489
sg1328
F10
sg1329
F1.0800000000000001
sg1330
(lp1494
g976
ag1187
asg1332
F1.1000000000000001
sg1333
F1.1499999999999999
sg1334
(lp1495
g1100
ag933
asg1336
F1.0800000000000001
sg1337
F1
sg1338
(lp1496
g1136
asg1340
S'Lobbyist'
p1497
sg1342
F1.2
sg751
S'Lobbyist'
p1498
sg1344
F1
sg1345
(lp1499
g845
asbasS'Journalist001'
p1500
(lp1501
g1
(g10
g3
NtRp1502
(dp1503
g1320
F1
sg1321
F4
sg1322
F1.1499999999999999
sg1323
F1
sg1324
(lp1504
sg1326
F1.0900000000000001
sg1327
F1
sg745
g1500
sg1328
F10
sg1329
F1.0800000000000001
sg1330
(lp1505
g815
ag1209
asg1332
F1.1000000000000001
sg1333
F1.1499999999999999
sg1334
(lp1506
g1013
ag717
ag791
asg1336
F1.0800000000000001
sg1337
F1
sg1338
(lp1507
sg1340
S'Journalist'
p1508
sg1342
F1.2
sg751
S'Journalist'
p1509
sg1344
F1
sg1345
(lp1510
sbasS'ReligiousNut001'
p1511
(lp1512
g1
(g10
g3
NtRp1513
(dp1514
g1320
F1
sg1321
F4
sg1322
F1.1499999999999999
sg1323
F1
sg1324
(lp1515
sg1326
F1.0900000000000001
sg1327
F1
sg745
g1511
sg1328
F10
sg1329
F1.0800000000000001
sg1330
(lp1516
g799
ag1160
ag1195
asg1332
F1.1000000000000001
sg1333
F1.1499999999999999
sg1334
(lp1517
g1241
ag920
asg1336
F1.0800000000000001
sg1337
F1
sg1338
(lp1518
sg1340
S'Religious'
p1519
sg1342
F1.2
sg751
S'Religious Nut'
p1520
sg1344
F1
sg1345
(lp1521
g1152
asbasS'JointChief001'
p1522
(lp1523
g1
(g10
g3
NtRp1524
(dp1525
g1320
F1
sg1321
F4
sg1322
F1.1499999999999999
sg1323
F1
sg1324
(lp1526
sg1326
F1.0900000000000001
sg1327
F1
sg745
g1522
sg1328
F10
sg1329
F1.0800000000000001
sg1330
(lp1527
g1187
ag1195
ag1217
ag869
asg1332
F1.1000000000000001
sg1333
F1.1499999999999999
sg1334
(lp1528
g997
asg1336
F1.0800000000000001
sg1337
F1
sg1338
(lp1529
sg1340
S'JointChief'
p1530
sg1342
F1.2
sg751
S'Joint Chief'
p1531
sg1344
F1
sg1345
(lp1532
sbasS'Protester001'
p1533
(lp1534
g1
(g10
g3
NtRp1535
(dp1536
g1320
F1
sg1321
F4
sg1322
F1.1499999999999999
sg1323
F1
sg1324
(lp1537
sg1326
F1.0900000000000001
sg1327
F1
sg745
g1533
sg1328
F10
sg1329
F1.0800000000000001
sg1330
(lp1538
g960
asg1332
F1.1000000000000001
sg1333
F1.1499999999999999
sg1334
(lp1539
g1225
asg1336
F1.0800000000000001
sg1337
F1
sg1338
(lp1540
sg1340
S'Protestor'
p1541
sg1342
F1.2
sg751
S'Protester'
p1542
sg1344
F1
sg1345
(lp1543
sbasS'TVPersonality001'
p1544
(lp1545
g1
(g10
g3
NtRp1546
(dp1547
g1320
F1
sg1321
F4
sg1322
F1.1499999999999999
sg1323
F1
sg1324
(lp1548
sg1326
F1.0900000000000001
sg1327
F1
sg745
g1544
sg1328
F10
sg1329
F1.0800000000000001
sg1330
(lp1549
g1152
ag815
asg1332
F1.1000000000000001
sg1333
F1.1499999999999999
sg1334
(lp1550
g791
ag776
asg1336
F1.0800000000000001
sg1337
F1
sg1338
(lp1551
sg1340
S'TVPersonality'
p1552
sg1342
F1.2
sg751
S"Hecules O'Grady"
p1553
sg1344
F1
sg1345
(lp1554
sbasS'Player'
p1555
(lp1556
g1
(g10
g3
NtRp1557
(dp1558
g1320
F1
sg1321
F5
sg1322
F1.1499999999999999
sg1323
F1
sg1324
(lp1559
sg1326
F1.0900000000000001
sg1327
F1
sg745
g1555
sg1328
F15
sg1329
F1.0800000000000001
sg1330
(lp1560
g845
ag1233
ag762
ag1152
asg1332
F1.1000000000000001
sg1333
F1.1499999999999999
sg1334
(lp1561
g1084
ag877
ag1225
asg1336
F1.0800000000000001
sg1337
F1
sg1338
(lp1562
sg1340
S'Player'
p1563
sg1342
F1.2
sg751
S'Phillip Mossman'
p1564
sg1344
F2
sg1345
(lp1565
sbasS'Computer'
p1566
(lp1567
g1
(g10
g3
NtRp1568
(dp1569
g1320
F1
sg1321
F4
sg1322
F1.1499999999999999
sg1323
F1
sg1324
(lp1570
sg1326
F1.0900000000000001
sg1327
F1
sg745
g1566
sg1328
F10
sg1329
F1.0800000000000001
sg1330
(lp1571
g1233
ag1053
ag762
ag1152
ag1195
asg1332
F1.1000000000000001
sg1333
F1.1499999999999999
sg1334
(lp1572
g1084
ag877
ag1168
asg1336
F1.0800000000000001
sg1337
F1
sg1338
(lp1573
sg1340
S'Politician'
p1574
sg1342
F1.2
sg751
S'N.O.T.B.A.D'
p1575
sg1344
F1
sg1345
(lp1576
sbasS'CabinetPolitician001'
p1577
(lp1578
g1
(g10
g3
NtRp1579
(dp1580
g1320
F1
sg1321
F4
sg1322
F1.1499999999999999
sg1323
F1
sg1324
(lp1581
sg1326
F1.0900000000000001
sg1327
F1
sg745
g1577
sg1328
F10
sg1329
F1.0800000000000001
sg1330
(lp1582
g1233
ag1053
ag762
ag1152
ag1195
asg1332
F1.1000000000000001
sg1333
F1.1499999999999999
sg1334
(lp1583
g1084
ag877
ag1168
asg1336
F1.0800000000000001
sg1337
F1
sg1338
(lp1584
sg1340
S'Politician'
p1585
sg1342
F1.2
sg751
S'Cabinet Politician'
p1586
sg1344
F1
sg1345
(lp1587
sbasS'Constituent001'
p1588
(lp1589
g1
(g10
g3
NtRp1590
(dp1591
g1320
F1
sg1321
F4
sg1322
F1.1499999999999999
sg1323
F1
sg1324
(lp1592
sg1326
F1.0900000000000001
sg1327
F1
sg745
g1588
sg1328
F10
sg1329
F1.0800000000000001
sg1330
(lp1593
g960
ag976
ag1187
asg1332
F1.1000000000000001
sg1333
F1.1499999999999999
sg1334
(lp1594
g1168
asg1336
F1.0800000000000001
sg1337
F1
sg1338
(lp1595
sg1340
S'Constituent'
p1596
sg1342
F1.2
sg751
S'Constituent'
p1597
sg1344
F1
sg1345
(lp1598
sbasS'Mayor'
p1599
(lp1600
g1
(g10
g3
NtRp1601
(dp1602
g1320
F1
sg1321
F4
sg1322
F1.1499999999999999
sg1323
F1
sg1324
(lp1603
sg1326
F1.0900000000000001
sg1327
F1
sg745
g1599
sg1328
F10
sg1329
F1.0800000000000001
sg1330
(lp1604
g1233
ag1053
ag762
ag1152
ag1195
asg1332
F1.1000000000000001
sg1333
F1.1499999999999999
sg1334
(lp1605
g1084
ag877
ag1168
asg1336
F1.0800000000000001
sg1337
F1
sg1338
(lp1606
sg1340
S'Politician'
p1607
sg1342
F1.2
sg751
S'Mayor Goodman'
p1608
sg1344
F1
sg1345
(lp1609
sbassS'quest_items'
p1610
(dp1611
S'PEN'
p1612
g1
(g10
g3
NtRp1613
(dp1614
g720
S'Hairy.'
p1615
sg745
g1612
sg751
S'A pen'
p1616
sbsS'BILLOFRIGHTS'
p1617
g1
(g10
g3
NtRp1618
(dp1619
g720
S''
sg745
g1617
sg751
S"Citizens' Bill of Rights"
p1620
sbssg1330
(dp1621
S'Theo'
p1622
(lp1623
g1233
ag1053
ag762
ag1152
ag845
ag1084
ag877
ag1136
ag984
asS'JointChief'
p1624
(lp1625
g1187
ag1195
ag1217
ag997
ag869
asS'Politician'
p1626
(lp1627
g1233
ag1053
ag762
ag1152
ag1084
ag877
ag1168
ag1195
asS'Bumpkin'
p1628
(lp1629
g1152
ag861
ag968
ag899
asS'TVPersonality'
p1630
(lp1631
g1152
ag791
ag815
ag776
asS'SecretAgent'
p1632
(lp1633
g1195
ag1179
ag1217
ag997
ag1021
asS'DeepThroat'
p1634
(lp1635
g1053
ag1195
ag933
ag1187
asS'Protestor'
p1636
(lp1637
g1225
ag960
asS'Lobbyist'
p1638
(lp1639
g976
ag1100
ag933
ag1187
asS'Teacher'
p1640
(lp1641
g1045
ag1195
ag960
ag1225
asS'Player'
p1642
(lp1643
g845
ag1233
ag762
ag1152
ag1084
ag877
ag1225
asS'Computer'
p1644
(lp1645
g997
ag1217
ag823
ag933
ag1187
ag1053
asS'Receptionist'
p1646
(lp1647
g1113
ag1061
ag1069
ag831
asS'Hippy'
p1648
(lp1649
g853
ag960
ag1005
ag1029
ag1225
ag1168
asS'Constituent'
p1650
(lp1651
g960
ag1168
ag976
ag1187
asS'Wife'
p1652
(lp1653
g1225
ag1168
ag1195
ag1233
ag885
asS'WarVet'
p1654
(lp1655
g1187
ag1195
ag1144
ag1225
asS'Religious'
p1656
(lp1657
g799
ag1241
ag920
ag1160
ag1195
asS'Unionist'
p1658
(lp1659
g1187
ag1195
ag960
ag1045
asS'Journalist'
p1660
(lp1661
g815
ag1209
ag1013
ag717
ag791
assS'encounters'
p1662
(dp1663
S'P-easy-10'
p1664
g1
(g10
g3
NtRp1665
(dp1666
S'item_attack_drops'
p1667
(lp1668
sS'item_attacks'
p1669
(lp1670
sg751
S''
sg1255
F10
sS'monster2_lvl'
p1671
F1
sS'bribe_cost'
p1672
F109
sS'monster3'
p1673
S'Politician001'
p1674
sS'monster1_lvl'
p1675
F1
sS'monster3_lvl'
p1676
F1
sS'monster4_lvl'
p1677
S''
sS'monster4'
p1678
S''
sS'monster2'
p1679
S'Mayor'
p1680
sg745
g1664
sS'monster1'
p1681
S'Politician001'
p1682
sbsS'P-easy-05'
p1683
g1
(g10
g3
NtRp1684
(dp1685
g1667
(lp1686
g1
(c__main__
ItemAttack
p1687
g3
NtRp1688
(dp1689
S'attack'
p1690
g1037
sS'quantity'
p1691
I1
sbasg1669
(lp1692
sg751
S''
sg1255
F10
sg1671
S''
sg1672
F104
sg1673
S''
sg1675
F1
sg1676
S''
sg1677
S''
sg1678
S''
sg1679
S''
sg745
g1683
sg1681
S'Journalist001'
p1693
sbsS'P-easy-04'
p1694
g1
(g10
g3
NtRp1695
(dp1696
g1667
(lp1697
g1
(g1687
g3
NtRp1698
(dp1699
g1690
g907
sg1691
I1
sbasg1669
(lp1700
sg751
S''
sg1255
F10
sg1671
F1
sg1672
F103
sg1673
S'Protester001'
p1701
sg1675
F1
sg1676
F1
sg1677
S''
sg1678
S''
sg1679
S'Protester001'
p1702
sg745
g1694
sg1681
S'Protester001'
p1703
sbsS'P-easy-07'
p1704
g1
(g10
g3
NtRp1705
(dp1706
g1667
(lp1707
g1
(g1687
g3
NtRp1708
(dp1709
g1690
g907
sg1691
I1
sbasg1669
(lp1710
sg751
S''
sg1255
F10
sg1671
S''
sg1672
F106
sg1673
S''
sg1675
F1
sg1676
S''
sg1677
S''
sg1678
S''
sg1679
S''
sg745
g1704
sg1681
S'Constituent001'
p1711
sbsS'P-easy-06'
p1712
g1
(g10
g3
NtRp1713
(dp1714
g1667
(lp1715
g1
(g1687
g3
NtRp1716
(dp1717
g1690
g1168
sg1691
I1
sbasg1669
(lp1718
sg751
S''
sg1255
F10
sg1671
F1
sg1672
F105
sg1673
S''
sg1675
F1
sg1676
S''
sg1677
S''
sg1678
S''
sg1679
S'Lobbyist001'
p1719
sg745
g1712
sg1681
S'Lobbyist001'
p1720
sbsS'P-easy-01'
p1721
g1
(g10
g3
NtRp1722
(dp1723
g1667
(lp1724
g1
(g1687
g3
NtRp1725
(dp1726
g1690
g947
sg1691
I1
sbasg1669
(lp1727
g1
(g1687
g3
NtRp1728
(dp1729
g1690
g1037
sg1691
I1
sbasg751
S'The quest for pen'
p1730
sg1255
F10
sg1671
S''
sg1672
F100
sg1673
S''
sg1675
F1
sg1676
S''
sg1677
S''
sg1678
S''
sg1679
S''
sg745
g1721
sg1681
S'Receptionist001'
p1731
sbsS'P-easy-03'
p1732
g1
(g10
g3
NtRp1733
(dp1734
g1667
(lp1735
g1
(g1687
g3
NtRp1736
(dp1737
g1690
g947
sg1691
I1
sbasg1669
(lp1738
sg751
S''
sg1255
F10
sg1671
F1
sg1672
F102
sg1673
S''
sg1675
F1
sg1676
S''
sg1677
S''
sg1678
S''
sg1679
S'Protester001'
p1739
sg745
g1732
sg1681
S'Protester001'
p1740
sbsS'P-easy-02'
p1741
g1
(g10
g3
NtRp1742
(dp1743
g1667
(lp1744
sg1669
(lp1745
sg751
S''
sg1255
F10
sg1671
F1
sg1672
F101
sg1673
S''
sg1675
F1
sg1676
S''
sg1677
S''
sg1678
S''
sg1679
S'Protester001'
p1746
sg745
g1741
sg1681
S'Protester001'
p1747
sbsS'P-med-02'
p1748
g1
(g10
g3
NtRp1749
(dp1750
g1667
(lp1751
sg1669
(lp1752
sg751
S''
sg1255
F10
sg1671
F1
sg1672
F111
sg1673
S''
sg1675
F1
sg1676
S''
sg1677
S''
sg1678
S''
sg1679
S'Politician001'
p1753
sg745
g1748
sg1681
S'Politician001'
p1754
sbsS'P-med-01'
p1755
g1
(g10
g3
NtRp1756
(dp1757
g1667
(lp1758
sg1669
(lp1759
sg751
S''
sg1255
F10
sg1671
F1
sg1672
F110
sg1673
S''
sg1675
F1
sg1676
S''
sg1677
S''
sg1678
S''
sg1679
S'Politician001'
p1760
sg745
g1755
sg1681
S'Politician001'
p1761
sbsS'P-easy-09'
p1762
g1
(g10
g3
NtRp1763
(dp1764
g1667
(lp1765
g1
(g1687
g3
NtRp1766
(dp1767
g1690
g947
sg1691
I1
sbasg1669
(lp1768
sg751
S''
sg1255
F10
sg1671
F1
sg1672
F108
sg1673
S'Constituent001'
p1769
sg1675
F1
sg1676
F1
sg1677
S''
sg1678
S''
sg1679
S'Constituent001'
p1770
sg745
g1762
sg1681
S'Constituent001'
p1771
sbsS'P-easy-08'
p1772
g1
(g10
g3
NtRp1773
(dp1774
g1667
(lp1775
sg1669
(lp1776
sg751
S''
sg1255
F10
sg1671
F1
sg1672
F107
sg1673
S''
sg1675
F1
sg1676
S''
sg1677
S''
sg1678
S''
sg1679
S'Constituent001'
p1777
sg745
g1772
sg1681
S'Constituent001'
p1778
sbssb.