ccopy_reg
_reconstructor
p1
(c__main__
GameData
p2
c__builtin__
object
p3
NtRp4
(dp5
S'script'
p6
(dp7
S'Theo'
p8
(lp9
g1
(c__main__
TableRow
p10
g3
NtRp11
(dp12
S'action'
p13
S'RequireFlag'
p14
sS'trigger'
p15
g8
sS'param'
p16
S'GOVERNORDEFEATED'
p17
sS'dialog'
p18
S'The Governor is in the north wing.'
p19
sbasS'Wife'
p20
(lp21
g1
(g10
g3
NtRp22
(dp23
g13
S'RequireFlag'
p24
sg15
g20
sg16
S'GOHOMETOWIFE'
p25
sg18
S'What are you doing here, Phillip? You should be at work!'
p26
sbag1
(g10
g3
NtRp27
(dp28
g13
S'Say'
p29
sg15
S'Wife'
p30
sg16
S''
sg18
S'Welcome home, Phillip! How was your workday?'
p31
sbag1
(g10
g3
NtRp32
(dp33
g13
S'PlayerSay'
p34
sg15
S'Wife'
p35
sg16
S''
sg18
S'...'
p36
sbag1
(g10
g3
NtRp37
(dp38
g13
S'Say'
p39
sg15
S'Wife'
p40
sg16
S''
sg18
S"That good, huh? You know this isn't what you want. Why don't you strike out on your own?"
p41
sbag1
(g10
g3
NtRp42
(dp43
g13
S'PlayerSay'
p44
sg15
S'Wife'
p45
sg16
S''
sg18
S"I didn't think I knew where to start to be a Mayor, but Mayor Goodman makes it look easy."
p46
sbag1
(g10
g3
NtRp47
(dp48
g13
S'Say'
p49
sg15
S'Wife'
p50
sg16
S''
sg18
S"That's the spirit! You can do it! All you need is some money and support."
p51
sbag1
(g10
g3
NtRp52
(dp53
g13
S'PlayerSay'
p54
sg15
S'Wife'
p55
sg16
S''
sg18
S'Well...OK! Lets start with money. We need a sponsor.'
p56
sbag1
(g10
g3
NtRp57
(dp58
g13
S'Say'
p59
sg15
S'Wife'
p60
sg16
S''
sg18
S'OK, lets go get one!'
p61
sbag1
(g10
g3
NtRp62
(dp63
g13
S'AddAlly'
p64
sg15
S'Wife'
p65
sg16
S'Wife:1'
p66
sg18
S'Sarah Mossman Joins Your Political Party!'
p67
sbag1
(g10
g3
NtRp68
(dp69
g13
S'SetFlag'
p70
sg15
S'Wife'
p71
sg16
S'STARTSPONSOR'
p72
sg18
S''
sbag1
(g10
g3
NtRp73
(dp74
g13
S'Destroy'
p75
sg15
S'Wife'
p76
sg16
S''
sg18
S''
sbasS'Constituent2'
p77
(lp78
g1
(g10
g3
NtRp79
(dp80
g13
S'RequireFlag'
p81
sg15
g77
sg16
S'STARTCONSTITUENTS'
p82
sg18
S'What?'
p83
sbag1
(g10
g3
NtRp84
(dp85
g13
S'PlayerSay'
p86
sg15
S'Constituent2'
p87
sg16
S''
sg18
S'Vote Phillip Mossman for Mayor!'
p88
sbag1
(g10
g3
NtRp89
(dp90
g13
S'Say'
p91
sg15
S'Constituent2'
p92
sg16
S''
sg18
S'But Mayor Goodman has always taken care of me.'
p93
sbag1
(g10
g3
NtRp94
(dp95
g13
S'Encounter'
p96
sg15
S'Constituent2'
p97
sg16
S'P-easy-08'
p98
sg18
S''
sbag1
(g10
g3
NtRp99
(dp100
g13
S'Say'
p101
sg15
S'Constituent2'
p102
sg16
S''
sg18
S"I think it's time for a change!"
p103
sbag1
(g10
g3
NtRp104
(dp105
g13
S'Destroy'
p106
sg15
S'Constituent2'
p107
sg16
S''
sg18
S''
sbasS'Constituent3'
p108
(lp109
g1
(g10
g3
NtRp110
(dp111
g13
S'RequireFlag'
p112
sg15
g108
sg16
S'STARTCONSTITUENTS'
p113
sg18
S'What?'
p114
sbag1
(g10
g3
NtRp115
(dp116
g13
S'PlayerSay'
p117
sg15
S'Constituent3'
p118
sg16
S''
sg18
S'Vote Phillip Mossman for Mayor!'
p119
sbag1
(g10
g3
NtRp120
(dp121
g13
S'Say'
p122
sg15
S'Constituent3'
p123
sg16
S''
sg18
S'But Mayor Goodman has always taken care of me.'
p124
sbag1
(g10
g3
NtRp125
(dp126
g13
S'Encounter'
p127
sg15
S'Constituent3'
p128
sg16
S'P-easy-09'
p129
sg18
S''
sbag1
(g10
g3
NtRp130
(dp131
g13
S'Say'
p132
sg15
S'Constituent3'
p133
sg16
S''
sg18
S"I think it's time for a change!"
p134
sbag1
(g10
g3
NtRp135
(dp136
g13
S'PlayerSay'
p137
sg15
S'Constituent3'
p138
sg16
S''
sg18
S"I think I'm ready to take on Mayor Goodman now!"
p139
sbag1
(g10
g3
NtRp140
(dp141
g13
S'SetFlag'
p142
sg15
S'Constituent3'
p143
sg16
S'CONSTITUENTSWON'
p144
sg18
S''
sbag1
(g10
g3
NtRp145
(dp146
g13
S'Destroy'
p147
sg15
S'Constituent3'
p148
sg16
S''
sg18
S''
sbasS'Constituent1'
p149
(lp150
g1
(g10
g3
NtRp151
(dp152
g13
S'RequireFlag'
p153
sg15
g149
sg16
S'STARTCONSTITUENTS'
p154
sg18
S'Yes?'
p155
sbag1
(g10
g3
NtRp156
(dp157
g13
S'PlayerSay'
p158
sg15
S'Constituent1'
p159
sg16
S''
sg18
S'Vote Phillip Mossman for Mayor!'
p160
sbag1
(g10
g3
NtRp161
(dp162
g13
S'Say'
p163
sg15
S'Constituent1'
p164
sg16
S''
sg18
S'Who?'
p165
sbag1
(g10
g3
NtRp166
(dp167
g13
S'PlayerSay'
p168
sg15
S'Constituent1'
p169
sg16
S''
sg18
S'Er, me!'
p170
sbag1
(g10
g3
NtRp171
(dp172
g13
S'Say'
p173
sg15
S'Constituent1'
p174
sg16
S''
sg18
S'Why? How will you help local business?'
p175
sbag1
(g10
g3
NtRp176
(dp177
g13
S'Encounter'
p178
sg15
S'Constituent1'
p179
sg16
S'P-easy-07'
p180
sg18
S''
sbag1
(g10
g3
NtRp181
(dp182
g13
S'Say'
p183
sg15
S'Constituent1'
p184
sg16
S''
sg18
S'You make a good case!'
p185
sbag1
(g10
g3
NtRp186
(dp187
g13
S'Destroy'
p188
sg15
S'Constituent1'
p189
sg16
S''
sg18
S''
sbasS'Protester2'
p190
(lp191
g1
(g10
g3
NtRp192
(dp193
g13
S'Say'
p194
sg15
g190
sg16
S''
sg18
S"Bees buzz, Mayors lie, who's this Phillip Mossman guy?"
p195
sbag1
(g10
g3
NtRp196
(dp197
g13
S'RequireFlag'
p198
sg15
S'Protester2'
p199
sg16
S'PROTESTORS'
p200
sg18
S''
sbag1
(g10
g3
NtRp201
(dp202
g13
S'Encounter'
p203
sg15
S'Protester2'
p204
sg16
S'P-easy-03'
p205
sg18
S''
sbag1
(g10
g3
NtRp206
(dp207
g13
S'Destroy'
p208
sg15
S'Protester2'
p209
sg16
S''
sg18
S''
sbasS'CheatAct2'
p210
(lp211
g1
(g10
g3
NtRp212
(dp213
g13
S'AddAlly'
p214
sg15
g210
sg16
S'Wife:1'
p215
sg18
S''
sbag1
(g10
g3
NtRp216
(dp217
g13
S'LearnAttack'
p218
sg15
S'CheatAct2'
p219
sg16
S'BRIBE'
p220
sg18
S''
sbag1
(g10
g3
NtRp221
(dp222
g13
S'LearnAttack'
p223
sg15
S'CheatAct2'
p224
sg16
S'Wife:BRIBE'
p225
sg18
S''
sbag1
(g10
g3
NtRp226
(dp227
g13
S'LearnAttack'
p228
sg15
S'CheatAct2'
p229
sg16
S'SLANDER'
p230
sg18
S''
sbag1
(g10
g3
NtRp231
(dp232
g13
S'GotoMap'
p233
sg15
S'CheatAct2'
p234
sg16
S'act2'
p235
sg18
S''
sbasS'Protester1'
p236
(lp237
g1
(g10
g3
NtRp238
(dp239
g13
S'LearnAttack'
p240
sg15
g236
sg16
S'RUNAD'
p241
sg18
S''
sbag1
(g10
g3
NtRp242
(dp243
g13
S'Say'
p244
sg15
S'Protester1'
p245
sg16
S''
sg18
S"Fee Fi Fo Fum, we think Mayor Goodman's Dumb!"
p246
sbag1
(g10
g3
NtRp247
(dp248
g13
S'Say'
p249
sg15
S'Protester1'
p250
sg16
S'Protester2'
p251
sg18
S"Bees buzz, Mayors lie, who's this Phillip Mossman guy?"
p252
sbag1
(g10
g3
NtRp253
(dp254
g13
S'Encounter'
p255
sg15
S'Protester1'
p256
sg16
S'P-easy-02'
p257
sg18
S''
sbag1
(g10
g3
NtRp258
(dp259
g13
S'Destroy'
p260
sg15
S'Protester1'
p261
sg16
S''
sg18
S''
sbasS'Politician1'
p262
(lp263
g1
(g10
g3
NtRp264
(dp265
g13
S'Say'
p266
sg15
g262
sg16
S''
sg18
S"I'm sorry Mayor Mossman, the Governor cannot see you now. He's very busy"
p267
sbag1
(g10
g3
NtRp268
(dp269
g13
S'PlayerSay'
p270
sg15
S'Politician1'
p271
sg16
S''
sg18
S"It's very important. I need to understand what Mayor Goodman was talking about. It was clear there were other powers at play."
p272
sbag1
(g10
g3
NtRp273
(dp274
g13
S'Say'
p275
sg15
S'Politician1'
p276
sg16
S''
sg18
S'Yes well, I fail to see how your country spat has anything to do with Governer Badden.'
p277
sbag1
(g10
g3
NtRp278
(dp279
g13
S'Encounter'
p280
sg15
S'Politician1'
p281
sg16
S'P-med-01'
p282
sg18
S''
sbag1
(g10
g3
NtRp283
(dp284
g13
S'Say'
p285
sg15
S'Politician1'
p286
sg16
S''
sg18
S'Fair point. The governor will see you now.'
p287
sbag1
(g10
g3
NtRp288
(dp289
g13
S'Destroy'
p290
sg15
S'Politician1'
p291
sg16
S''
sg18
S''
sbasS'Politician2'
p292
(lp293
g1
(g10
g3
NtRp294
(dp295
g13
S'Say'
p296
sg15
g292
sg16
S''
sg18
S'What are you doing in here? Who are you? Some Mayor?'
p297
sbag1
(g10
g3
NtRp298
(dp299
g13
S'PlayerSay'
p300
sg15
S'Politician2'
p301
sg16
S''
sg18
S"I am Mayor Phillip Mossman. I'm here to speak to the Governor."
p302
sbag1
(g10
g3
NtRp303
(dp304
g13
S'Say'
p305
sg15
S'Politician2'
p306
sg16
S''
sg18
S"I'm afraid the Governor's schedule is very tight. Come back next month."
p307
sbag1
(g10
g3
NtRp308
(dp309
g13
S'Encounter'
p310
sg15
S'Politician2'
p311
sg16
S'P-med-02'
p312
sg18
S''
sbag1
(g10
g3
NtRp313
(dp314
g13
S'Say'
p315
sg15
S'Politician2'
p316
sg16
S''
sg18
S'I see. Well, maybe we can squeeze you in.'
p317
sbag1
(g10
g3
NtRp318
(dp319
g13
S'SetFlag'
p320
sg15
S'Politician2'
p321
sg16
S'GOVPOLITICIANSFIRST'
p322
sg18
S''
sbag1
(g10
g3
NtRp323
(dp324
g13
S'Destroy'
p325
sg15
S'Politician2'
p326
sg16
S''
sg18
S''
sbasS'Head Protester'
p327
(lp328
g1
(g10
g3
NtRp329
(dp330
g13
S'Say'
p331
sg15
g327
sg16
S''
sg18
S"I am the head protester. You'll never convince us to back down!"
p332
sbag1
(g10
g3
NtRp333
(dp334
g13
S'RequireFlag'
p335
sg15
S'Head Protester'
p336
sg16
S'PROTESTORS'
p337
sg18
S''
sbag1
(g10
g3
NtRp338
(dp339
g13
S'PlayerSay'
p340
sg15
S'Head Protester'
p341
sg16
S''
sg18
S'What are you protesting?'
p342
sbag1
(g10
g3
NtRp343
(dp344
g13
S'Say'
p345
sg15
S'Head Protester'
p346
sg16
S''
sg18
S'Er...Injustice!'
p347
sbag1
(g10
g3
NtRp348
(dp349
g13
S'PlayerSay'
p350
sg15
S'Head Protester'
p351
sg16
S''
sg18
S'Injustice against what?'
p352
sbag1
(g10
g3
NtRp353
(dp354
g13
S'Say'
p355
sg15
S'Head Protester'
p356
sg16
S''
sg18
S'...'
p357
sbag1
(g10
g3
NtRp358
(dp359
g13
S'Say'
p360
sg15
S'Head Protester'
p361
sg16
S''
sg18
S'The People!'
p362
sbag1
(g10
g3
NtRp363
(dp364
g13
S'PlayerSay'
p365
sg15
S'Head Protester'
p366
sg16
S''
sg18
S'Yes, but which people?'
p367
sbag1
(g10
g3
NtRp368
(dp369
g13
S'Say'
p370
sg15
S'Head Protester'
p371
sg16
S''
sg18
S'See? What a fascist, ALL people you slimey politician scum!'
p372
sbag1
(g10
g3
NtRp373
(dp374
g13
S'Encounter'
p375
sg15
S'Head Protester'
p376
sg16
S'P-easy-04'
p377
sg18
S''
sbag1
(g10
g3
NtRp378
(dp379
g13
S'Say'
p380
sg15
S'Head Protester'
p381
sg16
S''
sg18
S"Alright, fine! We'll stop protesting...whatever we were protesting."
p382
sbag1
(g10
g3
NtRp383
(dp384
g13
S'SetFlag'
p385
sg15
S'Head Protester'
p386
sg16
S'PROTESTORSDEAD'
p387
sg18
S''
sbag1
(g10
g3
NtRp388
(dp389
g13
S'Destroy'
p390
sg15
S'Head Protester'
p391
sg16
S''
sg18
S''
sbasS'Journalist'
p392
(lp393
g1
(g10
g3
NtRp394
(dp395
g13
S'RequireFlag'
p396
sg15
g392
sg16
S'INTERVIEWSTART'
p397
sg18
S'Leave me alone, kid I need to get this done before my deadline!'
p398
sbag1
(g10
g3
NtRp399
(dp400
g13
S'Say'
p401
sg15
S'Journalist'
p402
sg16
S''
sg18
S"Hey, where's the Mayor?"
p403
sbag1
(g10
g3
NtRp404
(dp405
g13
S'PlayerSay'
p406
sg15
S'Journalist'
p407
sg16
S''
sg18
S"He couldn't make it. I'll be taking the interview."
p408
sbag1
(g10
g3
NtRp409
(dp410
g13
S'Say'
p411
sg15
S'Journalist'
p412
sg16
S''
sg18
S'Great! Easy pickings! Lets go.'
p413
sbag1
(g10
g3
NtRp414
(dp415
g13
S'Encounter'
p416
sg15
S'Journalist'
p417
sg16
S'P-easy-05'
p418
sg18
S''
sbag1
(g10
g3
NtRp419
(dp420
g13
S'Say'
p421
sg15
S'Journalist'
p422
sg16
S''
sg18
S"SNORE! Fine, if I can't get anything juicy here I'll do another puff piece on my poodle Frank."
p423
sbag1
(g10
g3
NtRp424
(dp425
g13
S'SetFlag'
p426
sg15
S'Journalist'
p427
sg16
S'JOURNALISTINTERVIEW'
p428
sg18
S''
sbag1
(g10
g3
NtRp429
(dp430
g13
S'Destroy'
p431
sg15
S'Journalist'
p432
sg16
S''
sg18
S''
sbasS'Sponsor'
p433
(lp434
g1
(g10
g3
NtRp435
(dp436
g13
S'RequireFlag'
p437
sg15
g433
sg16
S'STARTSPONSOR'
p438
sg18
S"Hmmm...Money, money, money. Sorry, what? I wasn't talking to you."
p439
sbag1
(g10
g3
NtRp440
(dp441
g13
S'Say'
p442
sg15
S'Sponsor'
p443
sg16
S''
sg18
S"Hello, I'm investigating new investments today. How can I help you?"
p444
sbag1
(g10
g3
NtRp445
(dp446
g13
S'PlayerSay'
p447
sg15
S'Sponsor'
p448
sg16
S''
sg18
S"Well, I've decided to run for Mayor! I could really use an investor."
p449
sbag1
(g10
g3
NtRp450
(dp451
g13
S'Say'
p452
sg15
S'Sponsor'
p453
sg16
S''
sg18
S"I don't know. You seem a little young. I don't think I'm convinced."
p454
sbag1
(g10
g3
NtRp455
(dp456
g13
S'Encounter'
p457
sg15
S'Sponsor'
p458
sg16
S'P-easy-06'
p459
sg18
S''
sbag1
(g10
g3
NtRp460
(dp461
g13
S'Say'
p462
sg15
S'Sponsor'
p463
sg16
S''
sg18
S"Wow! You sure have what it takes! Alright, he's a pile of cash!"
p464
sbag1
(g10
g3
NtRp465
(dp466
g13
S'Say'
p467
sg15
S'Sponsor'
p468
sg16
S''
sg18
S'Also, now that you have some funds, you might find it useful to...grease the wheels in some difficult situations.'
p469
sbag1
(g10
g3
NtRp470
(dp471
g13
S'LearnAttack'
p472
sg15
S'Sponsor'
p473
sg16
S'BRIBE'
p474
sg18
S'Phillip and Sarah learn to Bribe'
p475
sbag1
(g10
g3
NtRp476
(dp477
g13
S'LearnAttack'
p478
sg15
S'Sponsor'
p479
sg16
S'Wife:BRIBE'
p480
sg18
S''
sbag1
(g10
g3
NtRp481
(dp482
g13
S'SetFlag'
p483
sg15
S'Sponsor'
p484
sg16
S'STARTCONSTITUENTS'
p485
sg18
S''
sbag1
(g10
g3
NtRp486
(dp487
g13
S'PlayerSay'
p488
sg15
S'Sponsor'
p489
sg16
S''
sg18
S'Er, thanks! I suppose we should go gather some support from our constituents now.'
p490
sbag1
(g10
g3
NtRp491
(dp492
g13
S'Say'
p493
sg15
S'Sponsor'
p494
sg16
S''
sg18
S"Makes sense to me! I'm off, too. Money, money, money."
p495
sbag1
(g10
g3
NtRp496
(dp497
g13
S'Destroy'
p498
sg15
S'Sponsor'
p499
sg16
S''
sg18
S''
sbasS'Hick'
p500
(lp501
g1
(g10
g3
NtRp502
(dp503
g13
S'Say'
p504
sg15
g500
sg16
S''
sg18
S''
sbasS'Mayor'
p505
(lp506
g1
(g10
g3
NtRp507
(dp508
g13
S'Say'
p509
sg15
g505
sg16
S''
sg18
S"Hello, I'm the Mayor!"
p510
sbag1
(g10
g3
NtRp511
(dp512
g13
S'PlayerSay'
p513
sg15
S'Mayor'
p514
sg16
S''
sg18
S"Hello, Mayor Goodman, I'm Philip Mossman."
p515
sbag1
(g10
g3
NtRp516
(dp517
g13
S'Say'
p518
sg15
S'Mayor'
p519
sg16
S''
sg18
S"Ah yes, you're my new assistant. A good thing, too."
p520
sbag1
(g10
g3
NtRp521
(dp522
g13
S'Say'
p523
sg15
S'Mayor'
p524
sg16
S''
sg18
S"I've been searching for minutes and haven't been able to find my pen! I bet my receptionist stole it. She has sticky fingers."
p525
sbag1
(g10
g3
NtRp526
(dp527
g13
S'Say'
p528
sg15
S'Mayor'
p529
sg16
S''
sg18
S"Well, don't just stand there, go and get it!"
p530
sbag1
(g10
g3
NtRp531
(dp532
g13
S'SetFlag'
p533
sg15
S'Mayor'
p534
sg16
S'PENQUEST'
p535
sg18
S''
sbag1
(g10
g3
NtRp536
(dp537
g13
S'RequireItem'
p538
sg15
S'Mayor'
p539
sg16
S'PEN'
p540
sg18
S'Are you simple? Go and get my pen from that thieving receptionist.'
p541
sbag1
(g10
g3
NtRp542
(dp543
g13
S'Say'
p544
sg15
S'Mayor'
p545
sg16
S''
sg18
S"Great! I know she can give you a bit of a tongue-lashing, but she's a fantastic receptionist."
p546
sbag1
(g10
g3
NtRp547
(dp548
g13
S'Say'
p549
sg15
S'Mayor'
p550
sg16
S''
sg18
S"I'm sure you want to learn a thing or two about politics \xe2\x80\x93 who doesn't? - so lets get started"
p551
sbag1
(g10
g3
NtRp552
(dp553
g13
S'SetFlag'
p554
sg15
S'Mayor'
p555
sg16
S'PROTESTORS'
p556
sg18
S''
sbag1
(g10
g3
NtRp557
(dp558
g13
S'RequireFlag'
p559
sg15
S'Mayor'
p560
sg16
S'PROTESTORSDEAD'
p561
sg18
S'Run outside and tell those protesters to scram, will you?'
p562
sbag1
(g10
g3
NtRp563
(dp564
g13
S'Say'
p565
sg15
S'Mayor'
p566
sg16
S''
sg18
S"Hope they didn't give you too much trouble!"
p567
sbag1
(g10
g3
NtRp568
(dp569
g13
S'Say'
p570
sg15
S'Mayor'
p571
sg16
S''
sg18
S"Now that's sorted, there's a journalist from the local newspaper coming for an interview."
p572
sbag1
(g10
g3
NtRp573
(dp574
g13
S'Say'
p575
sg15
S'Mayor'
p576
sg16
S''
sg18
S"I certainly don't have time for it, so you can do the interview."
p577
sbag1
(g10
g3
NtRp578
(dp579
g13
S'Say'
p580
sg15
S'Mayor'
p581
sg16
S''
sg18
S"Be careful not to give too much away and if you could throw a few punches at the opposition that'd help."
p582
sbag1
(g10
g3
NtRp583
(dp584
g13
S'PlayerSay'
p585
sg15
S'Mayor'
p586
sg16
S''
sg18
S'You want me to...throw a punch?'
p587
sbag1
(g10
g3
NtRp588
(dp589
g13
S'Say'
p590
sg15
S'Mayor'
p591
sg16
S''
sg18
S"You're in politics and don't know how to fight dirty? Sheesh! Here, let me show you."
p592
sbag1
(g10
g3
NtRp593
(dp594
g13
S'LearnAttack'
p595
sg15
S'Mayor'
p596
sg16
S'SLANDER'
p597
sg18
S'Mayor teaches Phillip to Slander Opposition'
p598
sbag1
(g10
g3
NtRp599
(dp600
g13
S'Say'
p601
sg15
S'Mayor'
p602
sg16
S''
sg18
S"It's a pretty great tactic because it keeps eating away at them long after you've done it."
p603
sbag1
(g10
g3
NtRp604
(dp605
g13
S'SetFlag'
p606
sg15
S'Mayor'
p607
sg16
S'INTERVIEWSTART'
p608
sg18
S''
sbag1
(g10
g3
NtRp609
(dp610
g13
S'RequireFlag'
p611
sg15
S'Mayor'
p612
sg16
S'JOURNALISTINTERVIEW'
p613
sg18
S'Go handle that interview and remember to slander the opposition.'
p614
sbag1
(g10
g3
NtRp615
(dp616
g13
S'SetFlag'
p617
sg15
S'Mayor'
p618
sg16
S'GOHOMETOWIFE'
p619
sg18
S''
sbag1
(g10
g3
NtRp620
(dp621
g13
S'Say'
p622
sg15
S'Mayor'
p623
sg16
S''
sg18
S'OK, fine, now could you buzz off for a while? I need to get some work done.'
p624
sbag1
(g10
g3
NtRp625
(dp626
g13
S'RequireFlag'
p627
sg15
S'Mayor'
p628
sg16
S'CONSTITUENTSWON'
p629
sg18
S"Go home to your family. I have things to do that don't involve you."
p630
sbag1
(g10
g3
NtRp631
(dp632
g13
S'Say'
p633
sg15
S'Mayor'
p634
sg16
S''
sg18
S"What's this I hear about you campaigning for Mayor? After everything I've taught you!"
p635
sbag1
(g10
g3
NtRp636
(dp637
g13
S'PlayerSay'
p638
sg15
S'Mayor'
p639
sg16
S''
sg18
S"I'm sorry Mayor Goodman, but it's time for someone who's ready to make a difference for our town."
p640
sbag1
(g10
g3
NtRp641
(dp642
g13
S'Say'
p643
sg15
S'Mayor'
p644
sg16
S''
sg18
S"You really are a fool. Do you think He's going to allow that?"
p645
sbag1
(g10
g3
NtRp646
(dp647
g13
S'Encounter'
p648
sg15
S'Mayor'
p649
sg16
S'P-easy-10'
p650
sg18
S''
sbag1
(g10
g3
NtRp651
(dp652
g13
S'Say'
p653
sg15
S'Mayor'
p654
sg16
S''
sg18
S"Well, you've beaten me but you don't have a clue what you're in for. I hope you're up to this kid!"
p655
sbag1
(g10
g3
NtRp656
(dp657
g13
S'Destroy'
p658
sg15
S'Mayor'
p659
sg16
S''
sg18
S''
sbasS'Governor'
p660
(lp661
g1
(g10
g3
NtRp662
(dp663
g13
S'RequireFlag'
p664
sg15
g660
sg16
S'GOVPOLITICIANSFIRST'
p665
sg18
S"I'm very busy. Please speak to the others."
p666
sbag1
(g10
g3
NtRp667
(dp668
g13
S'Say'
p669
sg15
S'Governor'
p670
sg16
S''
sg18
S'You have quite a way with words, Mayor Mossman. Why are you here?'
p671
sbag1
(g10
g3
NtRp672
(dp673
g13
S'PlayerSay'
p674
sg15
S'Governor'
p675
sg16
S''
sg18
S"Mayor Goodman said some troubling things, Governor Badden. I'm here to get to the bottom of it."
p676
sbag1
(g10
g3
NtRp677
(dp678
g13
S'Say'
p679
sg15
S'Governor'
p680
sg16
S''
sg18
S"If I knew anything about what you're talking about, I wouldn't tell you. I don't trust you at all."
p681
sbag1
(g10
g3
NtRp682
(dp683
g13
S'PlayerSay'
p684
sg15
S'Governor'
p685
sg16
S''
sg18
S'What can I do to convince you?'
p686
sbag1
(g10
g3
NtRp687
(dp688
g13
S'Say'
p689
sg15
S'Governor'
p690
sg16
S''
sg18
S"Well...there's some hicks in the south wing that I've been dodging. They want to know about the recent funding cuts. Get rid of them."
p691
sbag1
(g10
g3
NtRp692
(dp693
g13
S'RequireFlag'
p694
sg15
S'Governor'
p695
sg16
S'DEALWITHHICKS'
p696
sg18
S"I'm not saying another word until you get rid of the hicks in the south wing."
p697
sbasS'Receptionist'
p698
(lp699
g1
(g10
g3
NtRp700
(dp701
g13
S'RequireFlag'
p702
sg15
g698
sg16
S'PENQUEST'
p703
sg18
S"You must be Mayor Goodman's new assistant. He's in his office."
p704
sbag1
(g10
g3
NtRp705
(dp706
g13
S'PlayerSay'
p707
sg15
S'Receptionist'
p708
sg16
S''
sg18
S"The Mayor is looking for his pen. He seemed to think you'd know where it was."
p709
sbag1
(g10
g3
NtRp710
(dp711
g13
S'Say'
p712
sg15
S'Receptionist'
p713
sg16
S''
sg18
S"Did that buffoon accuse me of stealing again? This is MY pen and he isn't having it."
p714
sbag1
(g10
g3
NtRp715
(dp716
g13
S'Encounter'
p717
sg15
S'Receptionist'
p718
sg16
S'P-easy-01'
p719
sg18
S''
sbag1
(g10
g3
NtRp720
(dp721
g13
S'GiveItem'
p722
sg15
S'Receptionist'
p723
sg16
S'PEN'
p724
sg18
S'Receptionist sighs and hands over the pen.'
p725
sbag1
(g10
g3
NtRp726
(dp727
g13
S'Destroy'
p728
sg15
S'Receptionist'
p729
sg16
S''
sg18
S''
sbassS'attacks'
p730
(dp731
S'GETEXCLUSIVE'
p732
g1
(g10
g3
NtRp733
(dp734
S'base_damage_max'
p735
F4
sS'description'
p736
S'asdf'
p737
sS'weight'
p738
I1
sS'crit_chance_max'
p739
F5
sS'crit_chance_min'
p740
F2
sS'underlying_stat'
p741
S'Wit'
p742
sS'target_type'
p743
S'AllFriendly'
p744
sS'base_damage_min'
p745
F2
sS'spin_cost'
p746
F5
sS'effects'
p747
(lp748
g1
(c__main__
Effect
p749
g3
NtRp750
(dp751
S'function'
p752
S'add'
p753
sS'abbrv'
p754
S'(INCREASE)'
p755
sS'attribute'
p756
S'cunning'
p757
sS'value'
p758
F2
sS'rounds_min'
p759
F1
sS'rounds_max'
p760
F4
sS'id'
p761
S'Increase Cunning'
p762
sS'apply_to_source'
p763
S'TRUE'
p764
sbasS'target_count'
p765
I1
sS'crit_base_damage'
p766
F8
sg761
g732
sS'name'
p767
S'Get Exclusive'
p768
sbsS'LOSELOSE'
p769
g1
(g10
g3
NtRp770
(dp771
g735
F4
sg736
S'Causes all politicians in the target radius to lose votes'
p772
sg738
I1
sg739
F0
sg740
F0
sg741
S'Cunning'
p773
sg743
S'All'
p774
sg745
F4
sg746
I0
sg747
(lp775
sg765
I6
sg766
F0
sg761
g769
sg767
S'Lose/lose issue'
p776
sbsS'LIE'
p777
g1
(g10
g3
NtRp778
(dp779
g735
F6
sg736
S"It's only lying if they catch you. A strong attack with a danger of failing entirely and leaving you high and dry."
p780
sg738
F3
sg739
F10
sg740
F2
sg741
S'Wit'
p781
sg743
S'AllEnemy'
p782
sg745
F0
sg746
I0
sg747
(lp783
g1
(g749
g3
NtRp784
(dp785
g752
S'miss_turn'
p786
sg754
S'(MISS)'
p787
sg756
S''
sg758
F0
sg759
F1
sg760
F1
sg761
S'Critical Fail'
p788
sg763
S'TRUE'
p789
sbasg765
I1
sg766
F10
sg761
g777
sg767
S'Lie'
p790
sbsS'HILARIOUSANECDOTE'
p791
g1
(g10
g3
NtRp792
(dp793
g735
F8
sg736
S'asdf'
p794
sg738
I1
sg739
F0
sg740
F0
sg741
S'Wit'
p795
sg743
S'AllFriendly'
p796
sg745
F4
sg746
F5
sg747
(lp797
g1
(g749
g3
NtRp798
(dp799
g752
S'add'
p800
sg754
S'(INCREASE)'
p801
sg756
S'flair'
p802
sg758
F2
sg759
F1
sg760
F4
sg761
S'Increase Flair'
p803
sg763
S'TRUE'
p804
sbasg765
I1
sg766
F0
sg761
g791
sg767
S'Hilarious Anecdote'
p805
sbsS'SENSATIONALISE'
p806
g1
(g10
g3
NtRp807
(dp808
g735
F8
sg736
S'asdf'
p809
sg738
I1
sg739
F0
sg740
F0
sg741
S'Wit'
p810
sg743
S'AllEnemy'
p811
sg745
F4
sg746
F3
sg747
(lp812
sg765
I1
sg766
F0
sg761
g806
sg767
S'Sensationalise'
p813
sbsS'DENOUNCE'
p814
g1
(g10
g3
NtRp815
(dp816
g735
F5
sg736
S'asdf'
p817
sg738
F6
sg739
F10
sg740
F2
sg741
S'Cunning'
p818
sg743
S'AllEnemy'
p819
sg745
F2
sg746
I0
sg747
(lp820
sg765
I1
sg766
F8
sg761
g814
sg767
S'Denounce'
p821
sbsS'WHADOWEWANT'
p822
g1
(g10
g3
NtRp823
(dp824
g735
F6
sg736
S'asdf'
p825
sg738
I1
sg739
F0
sg740
F0
sg741
S'Cunning'
p826
sg743
S'AllEnemy'
p827
sg745
F3
sg746
I0
sg747
(lp828
sg765
I1
sg766
F0
sg761
g822
sg767
S'Whadowewant!'
p829
sbsS'SCOOP'
p830
g1
(g10
g3
NtRp831
(dp832
g735
F5
sg736
S'asdf'
p833
sg738
I1
sg739
F10
sg740
F5
sg741
S'Cunning'
p834
sg743
S'AllEnemy'
p835
sg745
F2
sg746
I0
sg747
(lp836
sg765
I1
sg766
F8
sg761
g830
sg767
S'Scoop'
p837
sbsS'CHOOSETARGETS'
p838
g1
(g10
g3
NtRp839
(dp840
g735
F7
sg736
S'asdf'
p841
sg738
I1
sg739
F10
sg740
F5
sg741
S'Cunning'
p842
sg743
S'AllEnemy'
p843
sg745
F2
sg746
I0
sg747
(lp844
sg765
I1
sg766
F9
sg761
g838
sg767
S'Choose Targets'
p845
sbsS'FILENAILS'
p846
g1
(g10
g3
NtRp847
(dp848
g735
F0
sg736
S'asdf'
p849
sg738
I1
sg739
F0
sg740
F0
sg741
S'Wit'
p850
sg743
S'AllEnemy'
p851
sg745
F0
sg746
F3
sg747
(lp852
g1
(g749
g3
NtRp853
(dp854
g752
S'add_permanent'
p855
sg754
S''
sg756
S'votes'
p856
sg758
F5
sg759
F1
sg760
F1
sg761
S'Votes Restore'
p857
sg763
S'TRUE'
p858
sbasg765
I1
sg766
F0
sg761
g846
sg767
S'File Nails'
p859
sbsS'BRIBE'
p860
g1
(g10
g3
NtRp861
(dp862
g735
F3
sg736
S'Is there anything more convincing than money? Buying loyalty gets expensive so be careful.'
p863
sg738
I1
sg739
F1
sg740
F1
sg741
S'Money'
p864
sg743
S'AllEnemy'
p865
sg745
F2
sg746
I0
sg747
(lp866
sg765
I1
sg766
F1
sg761
g860
sg767
S'Bribe'
p867
sbsS'SING'
p868
g1
(g10
g3
NtRp869
(dp870
g735
F-3
sg736
S'Why bandy words with politicians when you can sing a catchy tune! Restores votes.'
p871
sg738
I1
sg739
F0
sg740
F0
sg741
S'Wit'
p872
sg743
S'AllFriendly'
p873
sg745
F-5
sg746
I0
sg747
(lp874
sg765
I4
sg766
F0
sg761
g868
sg767
S'Rousing Song'
p875
sbsS'FEAR'
p876
g1
(g10
g3
NtRp877
(dp878
g735
F0
sg736
S'asdf'
p879
sg738
F2
sg739
F0
sg740
F0
sg741
S'Wit'
p880
sg743
S'AllFriendly'
p881
sg745
F0
sg746
F4
sg747
(lp882
g750
asg765
I1
sg766
F0
sg761
g876
sg767
S'Fear Change'
p883
sbsS'RAISEDEFCON'
p884
g1
(g10
g3
NtRp885
(dp886
g735
F5
sg736
S'asdf'
p887
sg738
I1
sg739
F7
sg740
F3
sg741
S'Cunning'
p888
sg743
S'AllEnemy'
p889
sg745
F4
sg746
I0
sg747
(lp890
sg765
I1
sg766
F8
sg761
g884
sg767
S'Raise DEFCON'
p891
sbsS'NEGATTACKAD'
p892
g1
(g10
g3
NtRp893
(dp894
g735
F8
sg736
S"Take them all down. They're definitely all bad people. Not like you."
p895
sg738
I1
sg739
F10
sg740
F10
sg741
S'Cunning'
p896
sg743
S'AllEnemy'
p897
sg745
F3
sg746
F5
sg747
(lp898
sg765
I1
sg766
F10
sg761
g892
sg767
S'Negative Attack Ad'
p899
sbsS'DAZZLE'
p900
g1
(g10
g3
NtRp901
(dp902
g735
F3
sg736
S'Being dazzling and admirable is a great way to take heat off politics'
p903
sg738
I1
sg739
F8
sg740
F5
sg741
S'Wit'
p904
sg743
S'AllEnemy'
p905
sg745
F2
sg746
F3
sg747
(lp906
g1
(g749
g3
NtRp907
(dp908
g752
S'reduce'
p909
sg754
S'(REDUCE)'
p910
sg756
S'cunning'
p911
sg758
F2
sg759
F2
sg760
F5
sg761
S'Reduce Cunning'
p912
sg763
S''
sbasg765
I4
sg766
F8
sg761
g900
sg767
S'Dazzle'
p913
sbsS'BELIEVEMEDIA'
p914
g1
(g10
g3
NtRp915
(dp916
g735
F3
sg736
S'asdf'
p917
sg738
I1
sg739
F15
sg740
F5
sg741
S'Cunning'
p918
sg743
S'AllEnemy'
p919
sg745
F1
sg746
I0
sg747
(lp920
sg765
I1
sg766
F12
sg761
g914
sg767
S'Believe Media'
p921
sbsS'PRPREP'
p922
g1
(g10
g3
NtRp923
(dp924
g735
F0
sg736
S"If you're going to need some spin, best see a spin doctor! Adds spin points."
p925
sg738
I1
sg739
F0
sg740
F0
sg741
S''
sg743
S'AllFriendly'
p926
sg745
F0
sg746
I0
sg747
(lp927
g1
(g749
g3
NtRp928
(dp929
g752
S'add_permanent'
p930
sg754
S''
sg756
S'spin'
p931
sg758
F5
sg759
F0
sg760
F0
sg761
S'Spin Restore'
p932
sg763
S'TRUE'
p933
sbasg765
I1
sg766
F0
sg761
g922
sg767
S'PR Prep'
p934
sbsS'CALLVATICAN'
p935
g1
(g10
g3
NtRp936
(dp937
g735
F0
sg736
S'Brings in 2 additional ReligousNuts at 2 levels lower than this one'
p938
sg738
I1
sg739
F0
sg740
F0
sg741
S'Wit'
p939
sg743
S'None'
p940
sg745
F0
sg746
F5
sg747
(lp941
g1
(g749
g3
NtRp942
(dp943
g752
S'call_friends'
p944
sg754
S''
sg756
S'ReligiousNut001:2'
p945
sg758
F2
sg759
F0
sg760
F0
sg761
S'Call Friends'
p946
sg763
S''
sbasg765
I1
sg766
F0
sg761
g935
sg767
S'Call Vatican'
p947
sbsS'BLACKMAIL'
p948
g1
(g10
g3
NtRp949
(dp950
g735
F6
sg736
S'asdf'
p951
sg738
I1
sg739
F10
sg740
F2
sg741
S'Wit'
p952
sg743
S'AllEnemy'
p953
sg745
F3
sg746
F4
sg747
(lp954
g1
(g749
g3
NtRp955
(dp956
g752
S'drain'
p957
sg754
S'(DRAIN)'
p958
sg756
S'votes'
p959
sg758
F1
sg759
F2
sg760
F5
sg761
S'Drain Votes'
p960
sg763
S''
sbasg765
I1
sg766
F2
sg761
g948
sg767
S'Blackmail'
p961
sbsS'RUNAD'
p962
g1
(g10
g3
NtRp963
(dp964
g735
F0
sg736
S'Gets back some votes by running an ad'
p965
sg738
I1
sg739
F0
sg740
F0
sg741
S''
sg743
S'AllFriendly'
p966
sg745
F0
sg746
I0
sg747
(lp967
g1
(g749
g3
NtRp968
(dp969
g752
S'add_permanent'
p970
sg754
S''
sg756
S'votes'
p971
sg758
F10
sg759
F1
sg760
F1
sg761
S'Votes Restore Ad'
p972
sg763
S'TRUE'
p973
sbasg765
I1
sg766
F0
sg761
g962
sg767
S'Run Advertisement'
p974
sbsS'PROTEST'
p975
g1
(g10
g3
NtRp976
(dp977
g735
F5
sg736
S'asdf'
p978
sg738
F6
sg739
F10
sg740
F2
sg741
S'Cunning'
p979
sg743
S'AllEnemy'
p980
sg745
F2
sg746
I0
sg747
(lp981
sg765
I1
sg766
F8
sg761
g975
sg767
S'Protest'
p982
sbsS'SPREADRUMOUR'
p983
g1
(g10
g3
NtRp984
(dp985
g735
F6
sg736
S'asdf'
p986
sg738
I1
sg739
F10
sg740
F2
sg741
S'Wit'
p987
sg743
S'AllEnemy'
p988
sg745
F2
sg746
F3
sg747
(lp989
sg765
I4
sg766
F8
sg761
g983
sg767
S'Spread Rumour'
p990
sbsS'AGENDA'
p991
g1
(g10
g3
NtRp992
(dp993
g735
F5
sg736
S'asdf'
p994
sg738
F6
sg739
F10
sg740
F2
sg741
S'Cunning'
p995
sg743
S'AllEnemy'
p996
sg745
F2
sg746
I0
sg747
(lp997
sg765
I1
sg766
F8
sg761
g991
sg767
S'Push Agenda'
p998
sbsS'FILIBUSTER'
p999
g1
(g10
g3
NtRp1000
(dp1001
g735
F0
sg736
S"You're not moving until they give in. Cause all opposition to miss their turn"
p1002
sg738
I1
sg739
F0
sg740
F0
sg741
S'Wit'
p1003
sg743
S'AllEnemy'
p1004
sg745
F0
sg746
F8
sg747
(lp1005
g1
(g749
g3
NtRp1006
(dp1007
g752
S'miss_turn'
p1008
sg754
S'(MISS)'
p1009
sg756
S''
sg758
F0
sg759
F1
sg760
F1
sg761
S'Miss Turn'
p1010
sg763
S''
sbasg765
I1
sg766
F0
sg761
g999
sg767
S'Filibuster'
p1011
sbsS'GATHERINTEL'
p1012
g1
(g10
g3
NtRp1013
(dp1014
g735
F0
sg736
S'Increases Cunning.'
p1015
sg738
I1
sg739
F0
sg740
F0
sg741
S'Wit'
p1016
sg743
S'AllFriendly'
p1017
sg745
F0
sg746
F3
sg747
(lp1018
g750
asg765
I2
sg766
F0
sg761
g1012
sg767
S'Gather Intelligence'
p1019
sbsS'LOVE'
p1020
g1
(g10
g3
NtRp1021
(dp1022
g735
F6
sg736
S'asdf'
p1023
sg738
F2
sg739
F8
sg740
F2
sg741
S'Cunning'
p1024
sg743
S'AllEnemy'
p1025
sg745
F1
sg746
I0
sg747
(lp1026
sg765
I1
sg766
F7
sg761
g1020
sg767
S'Love'
p1027
sbsS'OUTOFCONTEXT'
p1028
g1
(g10
g3
NtRp1029
(dp1030
g735
F3
sg736
S'asdf'
p1031
sg738
I1
sg739
F5
sg740
F2
sg741
S'Wit'
p1032
sg743
S'AllEnemy'
p1033
sg745
F2
sg746
F2
sg747
(lp1034
g955
asg765
I1
sg766
F5
sg761
g1028
sg767
S'Take Out Of Context'
p1035
sbsS'GREATSUIT'
p1036
g1
(g10
g3
NtRp1037
(dp1038
g735
F6
sg736
S'Well, we could argue, but have you noticed how fabulous this suit is?'
p1039
sg738
I1
sg739
F11
sg740
F6
sg741
S'Cunning'
p1040
sg743
S'AllEnemy'
p1041
sg745
F3
sg746
I0
sg747
(lp1042
sg765
I1
sg766
F12
sg761
g1036
sg767
S'Look Great In Suit'
p1043
sbsS'PEACE'
p1044
g1
(g10
g3
NtRp1045
(dp1046
g735
F0
sg736
S'asdf'
p1047
sg738
I1
sg739
F0
sg740
F0
sg741
S'Wit'
p1048
sg743
S'AllEnemy'
p1049
sg745
F0
sg746
F3
sg747
(lp1050
g907
asg765
I4
sg766
F0
sg761
g1044
sg767
S'Peace'
p1051
sbsS'INSPSPEECH'
p1052
g1
(g10
g3
NtRp1053
(dp1054
g735
F-2
sg736
S'Restore votes to all party members'
p1055
sg738
I1
sg739
F0
sg740
F0
sg741
S'Cunning'
p1056
sg743
S'AllFriendly'
p1057
sg745
F-2
sg746
I0
sg747
(lp1058
sg765
I4
sg766
F0
sg761
g1052
sg767
S'Inspirational Speech'
p1059
sbsS'STRIKE'
p1060
g1
(g10
g3
NtRp1061
(dp1062
g735
F8
sg736
S'asdf'
p1063
sg738
I1
sg739
F0
sg740
F0
sg741
S'Wit'
p1064
sg743
S'AllEnemy'
p1065
sg745
F0
sg746
F3
sg747
(lp1066
g784
asg765
I1
sg766
F0
sg761
g1060
sg767
S'Call A Strike'
p1067
sbsS'SLANDER'
p1068
g1
(g10
g3
NtRp1069
(dp1070
g735
F3
sg736
S'Strong against polititians...careful with those voters, though!'
p1071
sg738
F4
sg739
F10
sg740
F2
sg741
S'Wit'
p1072
sg743
S'AllEnemy'
p1073
sg745
F2
sg746
I0
sg747
(lp1074
g955
asg765
I1
sg766
F5
sg761
g1068
sg767
S'Slander Opposition'
p1075
sbsS'NATTER'
p1076
g1
(g10
g3
NtRp1077
(dp1078
g735
F8
sg736
S'asdf'
p1079
sg738
I1
sg739
F15
sg740
F5
sg741
S'Cunning'
p1080
sg743
S'AllEnemy'
p1081
sg745
F1
sg746
I0
sg747
(lp1082
sg765
I1
sg766
F10
sg761
g1076
sg767
S'Natter On'
p1083
sbsS'GOSSIP'
p1084
g1
(g10
g3
NtRp1085
(dp1086
g735
F3
sg736
S'asdf'
p1087
sg738
I1
sg739
F10
sg740
F2
sg741
S'Wit'
p1088
sg743
S'AllEnemy'
p1089
sg745
F1
sg746
F2
sg747
(lp1090
g907
asg765
I1
sg766
F6
sg761
g1084
sg767
S'Gossip'
p1091
sbsS'MISSTURN'
p1092
g1
(g10
g3
NtRp1093
(dp1094
g735
F0
sg736
S'asdf'
p1095
sg738
I1
sg739
F0
sg740
F0
sg741
S''
sg743
S'AllEnemy'
p1096
sg745
F0
sg746
I0
sg747
(lp1097
sg765
I1
sg766
F0
sg761
g1092
sg767
S'Miss Turn'
p1098
sbsS'BIELECTION'
p1099
g1
(g10
g3
NtRp1100
(dp1101
g735
F4
sg736
S'Redistribute votes amongst targets'
p1102
sg738
I1
sg739
F0
sg740
F0
sg741
S'Cunning'
p1103
sg743
S'All'
p1104
sg745
F-4
sg746
F4
sg747
(lp1105
sg765
I8
sg766
F0
sg761
g1099
sg767
S'Bielection'
p1106
sbsS'SCARE'
p1107
g1
(g10
g3
NtRp1108
(dp1109
g735
F7
sg736
S'Nothing rattles the brains like fear.'
p1110
sg738
I1
sg739
F10
sg740
F2
sg741
S'Wit'
p1111
sg743
S'AllEnemy'
p1112
sg745
F2
sg746
I0
sg747
(lp1113
g907
asg765
I2
sg766
F9
sg761
g1107
sg767
S'Scare Campaign'
p1114
sbsS'PAYOFF'
p1115
g1
(g10
g3
NtRp1116
(dp1117
g735
F7
sg736
S'causes them to miss a number of turns'
p1118
sg738
I1
sg739
F8
sg740
F2
sg741
S'Wit'
p1119
sg743
S'AllEnemy'
p1120
sg745
F2
sg746
F4
sg747
(lp1121
g1
(g749
g3
NtRp1122
(dp1123
g752
S'miss_turn'
p1124
sg754
S'(MISS)'
p1125
sg756
S''
sg758
F0
sg759
F1
sg760
F3
sg761
S'Miss Turn Pay Off'
p1126
sg763
S''
sbasg765
I1
sg766
F9
sg761
g1115
sg767
S'Pay Off'
p1127
sbsS'BUREAUCRACY'
p1128
g1
(g10
g3
NtRp1129
(dp1130
g735
F5
sg736
S'asdf'
p1131
sg738
F6
sg739
F10
sg740
F2
sg741
S'Cunning'
p1132
sg743
S'AllEnemy'
p1133
sg745
F2
sg746
I0
sg747
(lp1134
sg765
I1
sg766
F8
sg761
g1128
sg767
S'Bureaucracy'
p1135
sbsS'RALLYAUDIENCE'
p1136
g1
(g10
g3
NtRp1137
(dp1138
g735
F8
sg736
S'asdf'
p1139
sg738
I1
sg739
F0
sg740
F0
sg741
S'Wit'
p1140
sg743
S'AllFriendly'
p1141
sg745
F4
sg746
F3
sg747
(lp1142
g1
(g749
g3
NtRp1143
(dp1144
g752
S'add'
p1145
sg754
S'(INCREASE)'
p1146
sg756
S'charisma'
p1147
sg758
F2
sg759
F1
sg760
F4
sg761
S'Increase Charisma'
p1148
sg763
S'TRUE'
p1149
sbasg765
I1
sg766
F0
sg761
g1136
sg767
S'Rally Audience'
p1150
sbsS'PORKBARREL'
p1151
g1
(g10
g3
NtRp1152
(dp1153
g735
F6
sg736
S'Do something that benefits them specifically. Not advised against politicians.'
p1154
sg738
I1
sg739
F0
sg740
F0
sg741
S'Wit'
p1155
sg743
S'AllEnemy'
p1156
sg745
F2
sg746
F2
sg747
(lp1157
sg765
I1
sg766
F0
sg761
g1151
sg767
S'Pork Barrel'
p1158
sbsS'INSPIRE'
p1159
g1
(g10
g3
NtRp1160
(dp1161
g735
F0
sg736
S'asdf'
p1162
sg738
I1
sg739
F0
sg740
F0
sg741
S'Wit'
p1163
sg743
S'AllFriendly'
p1164
sg745
F0
sg746
F3
sg747
(lp1165
g750
asg765
I4
sg766
F0
sg761
g1159
sg767
S'Inspire'
p1166
sbsS'JOKE'
p1167
g1
(g10
g3
NtRp1168
(dp1169
g735
F3
sg736
S"Ha, ha, ha...what were we talking about? Diffuse the situation with some humour. Not good if it falls flat, but if they get it, it'll knock 'em dead."
p1170
sg738
F3
sg739
F30
sg740
F10
sg741
S'Wit'
p1171
sg743
S'AllEnemy'
p1172
sg745
F2
sg746
I0
sg747
(lp1173
sg765
I1
sg766
F10
sg761
g1167
sg767
S'Joke'
p1174
sbsS'PRAYFORSOULS'
p1175
g1
(g10
g3
NtRp1176
(dp1177
g735
F6
sg736
S'asdf'
p1178
sg738
F2
sg739
F10
sg740
F2
sg741
S'Cunning'
p1179
sg743
S'None'
p1180
sg745
F3
sg746
I0
sg747
(lp1181
sg765
I1
sg766
F10
sg761
g1175
sg767
S'Pray'
p1182
sbsS'REVIVE'
p1183
g1
(g10
g3
NtRp1184
(dp1185
g735
F0
sg736
S'Revive a defeated comrade to half votes'
p1186
sg738
I1
sg739
F0
sg740
F0
sg741
S''
sg743
S'DeadFriendly'
p1187
sg745
F0
sg746
F3
sg747
(lp1188
g1
(g749
g3
NtRp1189
(dp1190
g752
S'revive'
p1191
sg754
S''
sg756
S''
sg758
F0.5
sg759
F0
sg760
F0
sg761
S'Revive'
p1192
sg763
S''
sbasg765
I1
sg766
F0
sg761
g1183
sg767
S'Revive'
p1193
sbsS'HUMANSHIELD'
p1194
g1
(g10
g3
NtRp1195
(dp1196
g735
F5
sg736
S'No further questions. Step back, please.'
p1197
sg738
I1
sg739
F5
sg740
F2
sg741
S'Wit'
p1198
sg743
S'AllEnemy'
p1199
sg745
F2
sg746
F4
sg747
(lp1200
g1006
asg765
I2
sg766
F12
sg761
g1194
sg767
S'Human Shield'
p1201
sbsS'MAKEDEMANDS'
p1202
g1
(g10
g3
NtRp1203
(dp1204
g735
F8
sg736
S'asdf'
p1205
sg738
I1
sg739
F0
sg740
F0
sg741
S'Cunning'
p1206
sg743
S'AllEnemy'
p1207
sg745
F0
sg746
I0
sg747
(lp1208
g784
asg765
I1
sg766
F0
sg761
g1202
sg767
S'Make Outrageous Demands'
p1209
sbsS'DEFENSE'
p1210
g1
(g10
g3
NtRp1211
(dp1212
g735
F0
sg736
S'Gather strenth; -50% to all incoming attacks'
p1213
sg738
I1
sg739
F0
sg740
F0
sg741
S''
sg743
S'None'
p1214
sg745
F0
sg746
I0
sg747
(lp1215
g1
(g749
g3
NtRp1216
(dp1217
g752
S'add'
p1218
sg754
S'(DFND)'
p1219
sg756
S'resistance'
p1220
sg758
F0.5
sg759
F1
sg760
F1
sg761
S'Defense'
p1221
sg763
S'TRUE'
p1222
sbasg765
I1
sg766
F0
sg761
g1210
sg767
S'Defense'
p1223
sbsS'MISCONSTRUE'
p1224
g1
(g10
g3
NtRp1225
(dp1226
g735
F8
sg736
S'asdf'
p1227
sg738
I1
sg739
F0
sg740
F0
sg741
S'Cunning'
p1228
sg743
S'AllEnemy'
p1229
sg745
F0
sg746
I0
sg747
(lp1230
g784
asg765
I1
sg766
F0
sg761
g1224
sg767
S'Misconstrue'
p1231
sbsS'NATIONALSECURITY'
p1232
g1
(g10
g3
NtRp1233
(dp1234
g735
F7
sg736
S"This is a matter of national security and they don't have codeword clearance"
p1235
sg738
I1
sg739
F10
sg740
F2
sg741
S'Cunning'
p1236
sg743
S'AllEnemy'
p1237
sg745
F2
sg746
I0
sg747
(lp1238
sg765
I1
sg766
F9
sg761
g1232
sg767
S'National Security'
p1239
sbsS'RALLY'
p1240
g1
(g10
g3
NtRp1241
(dp1242
g735
F-2
sg736
S'Get back some votes by rallying supporters'
p1243
sg738
F5
sg739
F0
sg740
F0
sg741
S'Wit'
p1244
sg743
S'AllFriendly'
p1245
sg745
F-4
sg746
F2
sg747
(lp1246
g942
asg765
I1
sg766
F0
sg761
g1240
sg767
S'Rally Constituents'
p1247
sbsS'MESSAGE'
p1248
g1
(g10
g3
NtRp1249
(dp1250
g735
F5
sg736
S'You can certainly wear them down by repeating your party line over and over and over...if you want'
p1251
sg738
F6
sg739
F10
sg740
F2
sg741
S'Wit'
p1252
sg743
S'AllEnemy'
p1253
sg745
F2
sg746
I0
sg747
(lp1254
sg765
I1
sg766
F8
sg761
g1248
sg767
S'Stay On Message'
p1255
sbsS'APPEALTOGOD'
p1256
g1
(g10
g3
NtRp1257
(dp1258
g735
F6
sg736
S'asdf'
p1259
sg738
F3
sg739
F0
sg740
F0
sg741
S'Wit'
p1260
sg743
S'AllEnemy'
p1261
sg745
F4
sg746
F7
sg747
(lp1262
sg765
I4
sg766
F0
sg761
g1256
sg767
S'Appeal To God'
p1263
sbssS'levels'
p1264
(lp1265
g1
(g10
g3
NtRp1266
(dp1267
S'votes'
p1268
F10
sS'level'
p1269
F1
sS'spin'
p1270
F5
sS'xp'
p1271
F0
sS'skill_points'
p1272
F0
sbag1
(g10
g3
NtRp1273
(dp1274
g1268
F12
sg1269
F2
sg1270
F5
sg1271
F100
sg1272
F2
sbag1
(g10
g3
NtRp1275
(dp1276
g1268
F15
sg1269
F3
sg1270
F6
sg1271
F200
sg1272
F2
sbag1
(g10
g3
NtRp1277
(dp1278
g1268
F20
sg1269
F4
sg1270
F6
sg1271
F500
sg1272
F2
sbag1
(g10
g3
NtRp1279
(dp1280
g1268
F25
sg1269
F5
sg1270
F7
sg1271
F1000
sg1272
F2
sbag1
(g10
g3
NtRp1281
(dp1282
g1268
F30
sg1269
F6
sg1270
F7
sg1271
F2000
sg1272
F2
sbag1
(g10
g3
NtRp1283
(dp1284
g1268
F35
sg1269
F7
sg1270
F8
sg1271
F5000
sg1272
F2
sbag1
(g10
g3
NtRp1285
(dp1286
g1268
F40
sg1269
F8
sg1270
F8
sg1271
F10000
sg1272
F2
sbag1
(g10
g3
NtRp1287
(dp1288
g1268
F45
sg1269
F9
sg1270
F9
sg1271
F15000
sg1272
F2
sbag1
(g10
g3
NtRp1289
(dp1290
g1268
F50
sg1269
F10
sg1270
F9
sg1271
F20000
sg1272
F2
sbag1
(g10
g3
NtRp1291
(dp1292
g1268
F55
sg1269
F11
sg1270
F10
sg1271
F40000
sg1272
F2
sbag1
(g10
g3
NtRp1293
(dp1294
g1268
S''
sg1269
F12
sg1270
S''
sg1271
S''
sg1272
S''
sbag1
(g10
g3
NtRp1295
(dp1296
g1268
S''
sg1269
F13
sg1270
S''
sg1271
S''
sg1272
S''
sbag1
(g10
g3
NtRp1297
(dp1298
g1268
S''
sg1269
F14
sg1270
S''
sg1271
S''
sg1272
S''
sbag1
(g10
g3
NtRp1299
(dp1300
g1268
S''
sg1269
F15
sg1270
S''
sg1271
S''
sg1272
S''
sbag1
(g10
g3
NtRp1301
(dp1302
g1268
S''
sg1269
F16
sg1270
S''
sg1271
S''
sg1272
S''
sbag1
(g10
g3
NtRp1303
(dp1304
g1268
S''
sg1269
F17
sg1270
S''
sg1271
S''
sg1272
S''
sbag1
(g10
g3
NtRp1305
(dp1306
g1268
S''
sg1269
F18
sg1270
S''
sg1271
S''
sg1272
S''
sbag1
(g10
g3
NtRp1307
(dp1308
g1268
S''
sg1269
F19
sg1270
S''
sg1271
S''
sg1272
S''
sbag1
(g10
g3
NtRp1309
(dp1310
g1268
S''
sg1269
F20
sg1270
S''
sg1271
S''
sg1272
S''
sbag1
(g10
g3
NtRp1311
(dp1312
g1268
S''
sg1269
F21
sg1270
S''
sg1271
S''
sg1272
S''
sbag1
(g10
g3
NtRp1313
(dp1314
g1268
S''
sg1269
F22
sg1270
S''
sg1271
S''
sg1272
S''
sbag1
(g10
g3
NtRp1315
(dp1316
g1268
S''
sg1269
F23
sg1270
S''
sg1271
S''
sg1272
S''
sbag1
(g10
g3
NtRp1317
(dp1318
g1268
S''
sg1269
F24
sg1270
S''
sg1271
S''
sg1272
S''
sbag1
(g10
g3
NtRp1319
(dp1320
g1268
S''
sg1269
F25
sg1270
S''
sg1271
S''
sg1272
S''
sbag1
(g10
g3
NtRp1321
(dp1322
g1268
S''
sg1269
F26
sg1270
S''
sg1271
S''
sg1272
S''
sbag1
(g10
g3
NtRp1323
(dp1324
g1268
S''
sg1269
F27
sg1270
S''
sg1271
S''
sg1272
S''
sbag1
(g10
g3
NtRp1325
(dp1326
g1268
S''
sg1269
F28
sg1270
S''
sg1271
S''
sg1272
S''
sbag1
(g10
g3
NtRp1327
(dp1328
g1268
S''
sg1269
F29
sg1270
S''
sg1271
S''
sg1272
S''
sbasg747
(dp1329
g762
g750
sg857
g853
sg932
g928
sg1148
g1143
sg1010
g1006
sg946
g942
sg972
g968
sg1126
g1122
sg1192
g1189
sg912
g907
sg960
g955
sg1221
g1216
sg788
g784
sg803
g798
ssS'characters'
p1330
(dp1331
S'Teacher001'
p1332
(lp1333
g1
(g10
g3
NtRp1334
(dp1335
S'flair_base'
p1336
F1
sS'spin_base'
p1337
F4
sS'flair_lvl'
p1338
F1.1499999999999999
sS'wit_base'
p1339
F1
sS'resistance'
p1340
(lp1341
sS'wit_lvl'
p1342
F1.0900000000000001
sS'cunning_base'
p1343
F1
sg761
g1332
sS'votes_base'
p1344
F10
sS'speed_lvl'
p1345
F1.0800000000000001
sS'standard_attacks'
p1346
(lp1347
g1211
ag976
asS'cunning_lvl'
p1348
F1.1000000000000001
sS'charisma_lvl'
p1349
F1.1499999999999999
sS'spin_attacks'
p1350
(lp1351
g1061
ag1241
asS'spin_lvl'
p1352
F1.0800000000000001
sS'charisma_base'
p1353
F1
sS'weaknesses'
p1354
(lp1355
sS'attack_group'
p1356
S'Teacher'
p1357
sS'votes_lvl'
p1358
F1.2
sg767
S'Teacher'
p1359
sS'speed_base'
p1360
F1
sS'immunities'
p1361
(lp1362
sbasS'Politician001'
p1363
(lp1364
g1
(g10
g3
NtRp1365
(dp1366
g1336
F1
sg1337
F4
sg1338
F1.1499999999999999
sg1339
F1
sg1340
(lp1367
g778
asg1342
F1.0900000000000001
sg1343
F1
sg761
g1363
sg1344
F10
sg1345
F1.0800000000000001
sg1346
(lp1368
g1249
ag1069
ag778
ag1168
ag1211
asg1348
F1.1000000000000001
sg1349
F1.1499999999999999
sg1350
(lp1369
g1100
ag893
ag1184
asg1352
F1.0800000000000001
sg1353
F1
sg1354
(lp1370
g861
asg1356
S'Politician'
p1371
sg1358
F1.2
sg767
S'Politician'
p1372
sg1360
F1
sg1361
(lp1373
g1152
asbasS'SecretAgent'
p1374
(lp1375
g1
(g10
g3
NtRp1376
(dp1377
g1336
F1
sg1337
F4
sg1338
F1.1499999999999999
sg1339
F1
sg1340
(lp1378
sg1342
F1.0900000000000001
sg1343
F1
sg761
g1374
sg1344
F18
sg1345
F1.0800000000000001
sg1346
(lp1379
g1211
ag1233
ag1037
asg1348
F1.1000000000000001
sg1349
F1.1499999999999999
sg1350
(lp1380
g1195
ag1013
asg1352
F1.0800000000000001
sg1353
F1
sg1354
(lp1381
sg1356
S'SecretAgent'
p1382
sg1358
F1.2
sg767
S'Agent Kawalski'
p1383
sg1360
F1
sg1361
(lp1384
sbasS'Bumpkin001'
p1385
(lp1386
g1
(g10
g3
NtRp1387
(dp1388
g1336
F1
sg1337
F4
sg1338
F1.1499999999999999
sg1339
F1
sg1340
(lp1389
sg1342
F1.0900000000000001
sg1343
F1
sg761
g1385
sg1344
F10
sg1345
F1.0800000000000001
sg1346
(lp1390
g1168
ag915
asg1348
F1.1000000000000001
sg1349
F1.1499999999999999
sg1350
(lp1391
g877
ag984
asg1352
F1.0800000000000001
sg1353
F1
sg1354
(lp1392
g778
ag1069
ag1108
asg1356
S'Bumpkin'
p1393
sg1358
F1.2
sg767
S'Bumpkin'
p1394
sg1360
F1
sg1361
(lp1395
sbasS'WarVet001'
p1396
(lp1397
g1
(g10
g3
NtRp1398
(dp1399
g1336
F1
sg1337
F4
sg1338
F1.1499999999999999
sg1339
F1
sg1340
(lp1400
sg1342
F1.0900000000000001
sg1343
F1
sg761
g1396
sg1344
F10
sg1345
F1.0800000000000001
sg1346
(lp1401
g1203
ag1211
asg1348
F1.1000000000000001
sg1349
F1.1499999999999999
sg1350
(lp1402
g1160
ag1241
asg1352
F1.0800000000000001
sg1353
F1
sg1354
(lp1403
sg1356
S'WarVet'
p1404
sg1358
F1.2
sg767
S'War Veteran'
p1405
sg1360
F1
sg1361
(lp1406
sbasS'Receptionist001'
p1407
(lp1408
g1
(g10
g3
NtRp1409
(dp1410
g1336
F1
sg1337
F4
sg1338
F1.1499999999999999
sg1339
F1
sg1340
(lp1411
sg1342
F1.0900000000000001
sg1343
F1
sg761
g1407
sg1344
F10
sg1345
F1.0800000000000001
sg1346
(lp1412
g1129
ag1077
asg1348
F1.1000000000000001
sg1349
F1.1499999999999999
sg1350
(lp1413
g1085
ag847
asg1352
F1.0800000000000001
sg1353
F1
sg1354
(lp1414
sg1356
S'Receptionist'
p1415
sg1358
F1.2
sg767
S'Receptionist'
p1416
sg1360
F1
sg1361
(lp1417
sbasS'DeepThroat'
p1418
(lp1419
g1
(g10
g3
NtRp1420
(dp1421
g1336
F1
sg1337
F4
sg1338
F1.1499999999999999
sg1339
F1
sg1340
(lp1422
sg1342
F1.0900000000000001
sg1343
F1
sg761
g1418
sg1344
F10
sg1345
F1.0800000000000001
sg1346
(lp1423
g1069
ag1211
ag1203
asg1348
F1.1000000000000001
sg1349
F1.1499999999999999
sg1350
(lp1424
g949
asg1352
F1.0800000000000001
sg1353
F1
sg1354
(lp1425
sg1356
S'DeepThroat'
p1426
sg1358
F1.2
sg767
S'Deep Throat'
p1427
sg1360
F1
sg1361
(lp1428
sbasS'Leo'
p1429
(lp1430
g1
(g10
g3
NtRp1431
(dp1432
g1336
F1
sg1337
F4
sg1338
F1.1499999999999999
sg1339
F1
sg1340
(lp1433
sg1342
F1.0900000000000001
sg1343
F1
sg761
g1429
sg1344
F14
sg1345
F1.0800000000000001
sg1346
(lp1434
g1249
ag1069
ag778
ag1168
ag861
asg1348
F1.1000000000000001
sg1349
F1.1499999999999999
sg1350
(lp1435
g1100
ag893
ag1152
ag1000
asg1352
F1.0800000000000001
sg1353
F1
sg1354
(lp1436
sg1356
S'Theo'
p1437
sg1358
F1.2
sg767
S'Theo'
p1438
sg1360
F1
sg1361
(lp1439
sbasS'HippyGirl001'
p1440
(lp1441
g1
(g10
g3
NtRp1442
(dp1443
g1336
F1
sg1337
F4
sg1338
F1.1499999999999999
sg1339
F1
sg1340
(lp1444
sg1342
F1.0900000000000001
sg1343
F1
sg761
g1440
sg1344
F10
sg1345
F1.0800000000000001
sg1346
(lp1445
g869
ag976
ag1021
asg1348
F1.1000000000000001
sg1349
F1.1499999999999999
sg1350
(lp1446
g1045
ag1241
ag1184
asg1352
F1.0800000000000001
sg1353
F1
sg1354
(lp1447
g1168
asg1356
S'Hippy'
p1448
sg1358
F1.2
sg767
S'Hippy Girl'
p1449
sg1360
F1
sg1361
(lp1450
sbasS'President'
p1451
(lp1452
g1
(g10
g3
NtRp1453
(dp1454
g1336
F1
sg1337
F4
sg1338
F1.1499999999999999
sg1339
F1
sg1340
(lp1455
sg1342
F1.0900000000000001
sg1343
F1
sg761
g1451
sg1344
F10
sg1345
F1.0800000000000001
sg1346
(lp1456
g1249
ag1069
ag778
ag1168
ag1211
asg1348
F1.1000000000000001
sg1349
F1.1499999999999999
sg1350
(lp1457
g1100
ag893
ag1184
asg1352
F1.0800000000000001
sg1353
F1
sg1354
(lp1458
sg1356
S'Politician'
p1459
sg1358
F1.2
sg767
S'President Allen'
p1460
sg1360
F1
sg1361
(lp1461
sbasS'Unionist001'
p1462
(lp1463
g1
(g10
g3
NtRp1464
(dp1465
g1336
F1
sg1337
F4
sg1338
F1.1499999999999999
sg1339
F1
sg1340
(lp1466
sg1342
F1.0900000000000001
sg1343
F1
sg761
g1462
sg1344
F10
sg1345
F1.0800000000000001
sg1346
(lp1467
g1203
ag1211
ag976
asg1348
F1.1000000000000001
sg1349
F1.1499999999999999
sg1350
(lp1468
g1061
asg1352
F1.0800000000000001
sg1353
F1
sg1354
(lp1469
sg1356
S'Unionist'
p1470
sg1358
F1.2
sg767
S'Unionist'
p1471
sg1360
F1
sg1361
(lp1472
sbasS'Wife'
p1473
(lp1474
g1
(g10
g3
NtRp1475
(dp1476
g1336
F1
sg1337
F4
sg1338
F1.1499999999999999
sg1339
F1
sg1340
(lp1477
sg1342
F1.0900000000000001
sg1343
F1
sg761
g1473
sg1344
F12
sg1345
F1.0800000000000001
sg1346
(lp1478
g1211
ag1249
asg1348
F1.1000000000000001
sg1349
F1.1499999999999999
sg1350
(lp1479
g1241
ag1184
ag901
asg1352
F1.0800000000000001
sg1353
F1
sg1354
(lp1480
sg1356
S'Wife'
p1481
sg1358
F1.2
sg767
S'Sarah Mossman'
p1482
sg1360
F1
sg1361
(lp1483
sbasS'PresidentAlien'
p1484
(lp1485
g1
(g10
g3
NtRp1486
(dp1487
g1336
F1
sg1337
F4
sg1338
F1.1499999999999999
sg1339
F1
sg1340
(lp1488
sg1342
F1.0900000000000001
sg1343
F1
sg761
g1484
sg1344
F10
sg1345
F1.0800000000000001
sg1346
(lp1489
g1249
ag1069
ag778
ag1168
ag1211
asg1348
F1.1000000000000001
sg1349
F1.1499999999999999
sg1350
(lp1490
g1100
ag893
ag1184
asg1352
F1.0800000000000001
sg1353
F1
sg1354
(lp1491
sg1356
S'Politician'
p1492
sg1358
F1.2
sg767
S'President Alien'
p1493
sg1360
F1
sg1361
(lp1494
sbasS'Governor'
p1495
(lp1496
g1
(g10
g3
NtRp1497
(dp1498
g1336
F1
sg1337
F4
sg1338
F1.1499999999999999
sg1339
F1
sg1340
(lp1499
sg1342
F1.0900000000000001
sg1343
F1
sg761
g1495
sg1344
F10
sg1345
F1.0800000000000001
sg1346
(lp1500
g1249
ag1069
ag778
ag1168
ag1211
asg1348
F1.1000000000000001
sg1349
F1.1499999999999999
sg1350
(lp1501
g1100
ag893
ag1184
asg1352
F1.0800000000000001
sg1353
F1
sg1354
(lp1502
sg1356
S'Politician'
p1503
sg1358
F1.2
sg767
g1495
sg1360
F1
sg1361
(lp1504
sbasS'Lobbyist001'
p1505
(lp1506
g1
(g10
g3
NtRp1507
(dp1508
g1336
F1
sg1337
F4
sg1338
F1.1499999999999999
sg1339
F1
sg1340
(lp1509
sg1342
F1.0900000000000001
sg1343
F1
sg761
g1505
sg1344
F10
sg1345
F1.0800000000000001
sg1346
(lp1510
g992
ag1203
asg1348
F1.1000000000000001
sg1349
F1.1499999999999999
sg1350
(lp1511
g1116
ag949
asg1352
F1.0800000000000001
sg1353
F1
sg1354
(lp1512
g1152
asg1356
S'Lobbyist'
p1513
sg1358
F1.2
sg767
S'Lobbyist'
p1514
sg1360
F1
sg1361
(lp1515
g861
asbasS'Journalist001'
p1516
(lp1517
g1
(g10
g3
NtRp1518
(dp1519
g1336
F1
sg1337
F4
sg1338
F1.1499999999999999
sg1339
F1
sg1340
(lp1520
sg1342
F1.0900000000000001
sg1343
F1
sg761
g1516
sg1344
F10
sg1345
F1.0800000000000001
sg1346
(lp1521
g831
ag1225
asg1348
F1.1000000000000001
sg1349
F1.1499999999999999
sg1350
(lp1522
g1029
ag733
ag807
asg1352
F1.0800000000000001
sg1353
F1
sg1354
(lp1523
sg1356
S'Journalist'
p1524
sg1358
F1.2
sg767
S'Journalist'
p1525
sg1360
F1
sg1361
(lp1526
sbasS'ReligiousNut001'
p1527
(lp1528
g1
(g10
g3
NtRp1529
(dp1530
g1336
F1
sg1337
F4
sg1338
F1.1499999999999999
sg1339
F1
sg1340
(lp1531
sg1342
F1.0900000000000001
sg1343
F1
sg761
g1527
sg1344
F10
sg1345
F1.0800000000000001
sg1346
(lp1532
g815
ag1176
ag1211
asg1348
F1.1000000000000001
sg1349
F1.1499999999999999
sg1350
(lp1533
g1257
ag936
asg1352
F1.0800000000000001
sg1353
F1
sg1354
(lp1534
sg1356
S'Religious'
p1535
sg1358
F1.2
sg767
S'Religious Nut'
p1536
sg1360
F1
sg1361
(lp1537
g1168
asbasS'JointChief001'
p1538
(lp1539
g1
(g10
g3
NtRp1540
(dp1541
g1336
F1
sg1337
F4
sg1338
F1.1499999999999999
sg1339
F1
sg1340
(lp1542
sg1342
F1.0900000000000001
sg1343
F1
sg761
g1538
sg1344
F10
sg1345
F1.0800000000000001
sg1346
(lp1543
g1203
ag1211
ag1233
ag885
asg1348
F1.1000000000000001
sg1349
F1.1499999999999999
sg1350
(lp1544
g1013
asg1352
F1.0800000000000001
sg1353
F1
sg1354
(lp1545
sg1356
S'JointChief'
p1546
sg1358
F1.2
sg767
S'Joint Chief'
p1547
sg1360
F1
sg1361
(lp1548
sbasS'Protester001'
p1549
(lp1550
g1
(g10
g3
NtRp1551
(dp1552
g1336
F1
sg1337
F4
sg1338
F1.1499999999999999
sg1339
F1
sg1340
(lp1553
sg1342
F1.0900000000000001
sg1343
F1
sg761
g1549
sg1344
F10
sg1345
F1.0800000000000001
sg1346
(lp1554
g976
asg1348
F1.1000000000000001
sg1349
F1.1499999999999999
sg1350
(lp1555
g1241
asg1352
F1.0800000000000001
sg1353
F1
sg1354
(lp1556
sg1356
S'Protestor'
p1557
sg1358
F1.2
sg767
S'Protester'
p1558
sg1360
F1
sg1361
(lp1559
sbasS'TVPersonality001'
p1560
(lp1561
g1
(g10
g3
NtRp1562
(dp1563
g1336
F1
sg1337
F4
sg1338
F1.1499999999999999
sg1339
F1
sg1340
(lp1564
sg1342
F1.0900000000000001
sg1343
F1
sg761
g1560
sg1344
F10
sg1345
F1.0800000000000001
sg1346
(lp1565
g1168
ag831
asg1348
F1.1000000000000001
sg1349
F1.1499999999999999
sg1350
(lp1566
g807
ag792
asg1352
F1.0800000000000001
sg1353
F1
sg1354
(lp1567
sg1356
S'TVPersonality'
p1568
sg1358
F1.2
sg767
S"Hecules O'Grady"
p1569
sg1360
F1
sg1361
(lp1570
sbasS'Player'
p1571
(lp1572
g1
(g10
g3
NtRp1573
(dp1574
g1336
F1
sg1337
F5
sg1338
F1.1499999999999999
sg1339
F1
sg1340
(lp1575
sg1342
F1.0900000000000001
sg1343
F1
sg761
g1571
sg1344
F15
sg1345
F1.0800000000000001
sg1346
(lp1576
g861
ag1249
ag778
ag1168
asg1348
F1.1000000000000001
sg1349
F1.1499999999999999
sg1350
(lp1577
g1100
ag893
ag1241
asg1352
F1.0800000000000001
sg1353
F1
sg1354
(lp1578
sg1356
S'Player'
p1579
sg1358
F1.2
sg767
S'Phillip Mossman'
p1580
sg1360
F2
sg1361
(lp1581
sbasS'Computer'
p1582
(lp1583
g1
(g10
g3
NtRp1584
(dp1585
g1336
F1
sg1337
F4
sg1338
F1.1499999999999999
sg1339
F1
sg1340
(lp1586
sg1342
F1.0900000000000001
sg1343
F1
sg761
g1582
sg1344
F10
sg1345
F1.0800000000000001
sg1346
(lp1587
g1249
ag1069
ag778
ag1168
ag1211
asg1348
F1.1000000000000001
sg1349
F1.1499999999999999
sg1350
(lp1588
g1100
ag893
ag1184
asg1352
F1.0800000000000001
sg1353
F1
sg1354
(lp1589
sg1356
S'Politician'
p1590
sg1358
F1.2
sg767
S'N.O.T.B.A.D'
p1591
sg1360
F1
sg1361
(lp1592
sbasS'CabinetPolitician001'
p1593
(lp1594
g1
(g10
g3
NtRp1595
(dp1596
g1336
F1
sg1337
F4
sg1338
F1.1499999999999999
sg1339
F1
sg1340
(lp1597
sg1342
F1.0900000000000001
sg1343
F1
sg761
g1593
sg1344
F10
sg1345
F1.0800000000000001
sg1346
(lp1598
g1249
ag1069
ag778
ag1168
ag1211
asg1348
F1.1000000000000001
sg1349
F1.1499999999999999
sg1350
(lp1599
g1100
ag893
ag1184
asg1352
F1.0800000000000001
sg1353
F1
sg1354
(lp1600
sg1356
S'Politician'
p1601
sg1358
F1.2
sg767
S'Cabinet Politician'
p1602
sg1360
F1
sg1361
(lp1603
sbasS'Constituent001'
p1604
(lp1605
g1
(g10
g3
NtRp1606
(dp1607
g1336
F1
sg1337
F4
sg1338
F1.1499999999999999
sg1339
F1
sg1340
(lp1608
sg1342
F1.0900000000000001
sg1343
F1
sg761
g1604
sg1344
F10
sg1345
F1.0800000000000001
sg1346
(lp1609
g976
ag992
ag1203
asg1348
F1.1000000000000001
sg1349
F1.1499999999999999
sg1350
(lp1610
g1184
asg1352
F1.0800000000000001
sg1353
F1
sg1354
(lp1611
sg1356
S'Constituent'
p1612
sg1358
F1.2
sg767
S'Constituent'
p1613
sg1360
F1
sg1361
(lp1614
sbasS'Mayor'
p1615
(lp1616
g1
(g10
g3
NtRp1617
(dp1618
g1336
F1
sg1337
F4
sg1338
F1.1499999999999999
sg1339
F1
sg1340
(lp1619
sg1342
F1.0900000000000001
sg1343
F1
sg761
g1615
sg1344
F10
sg1345
F1.0800000000000001
sg1346
(lp1620
g1249
ag1069
ag778
ag1168
ag1211
asg1348
F1.1000000000000001
sg1349
F1.1499999999999999
sg1350
(lp1621
g1100
ag893
ag1184
asg1352
F1.0800000000000001
sg1353
F1
sg1354
(lp1622
sg1356
S'Politician'
p1623
sg1358
F1.2
sg767
S'Mayor Goodman'
p1624
sg1360
F1
sg1361
(lp1625
sbassS'quest_items'
p1626
(dp1627
S'PEN'
p1628
g1
(g10
g3
NtRp1629
(dp1630
g767
S'A pen'
p1631
sg761
g1628
sbsS'BILLOFRIGHTS'
p1632
g1
(g10
g3
NtRp1633
(dp1634
g767
S"Citizens' Bill of Rights"
p1635
sg761
g1632
sbssg1346
(dp1636
S'Theo'
p1637
(lp1638
g1249
ag1069
ag778
ag1168
ag861
ag1100
ag893
ag1152
ag1000
asS'JointChief'
p1639
(lp1640
g1203
ag1211
ag1233
ag1013
ag885
asS'Politician'
p1641
(lp1642
g1249
ag1069
ag778
ag1168
ag1100
ag893
ag1184
ag1211
asS'Bumpkin'
p1643
(lp1644
g1168
ag877
ag984
ag915
asS'TVPersonality'
p1645
(lp1646
g1168
ag807
ag831
ag792
asS'SecretAgent'
p1647
(lp1648
g1211
ag1195
ag1233
ag1013
ag1037
asS'DeepThroat'
p1649
(lp1650
g1069
ag1211
ag949
ag1203
asS'Protestor'
p1651
(lp1652
g1241
ag976
asS'Lobbyist'
p1653
(lp1654
g992
ag1116
ag949
ag1203
asS'Teacher'
p1655
(lp1656
g1061
ag1211
ag976
ag1241
asS'Player'
p1657
(lp1658
g861
ag1249
ag778
ag1168
ag1100
ag893
ag1241
asS'Computer'
p1659
(lp1660
g1013
ag1233
ag839
ag949
ag1203
ag1069
asS'Receptionist'
p1661
(lp1662
g1129
ag1077
ag1085
ag847
asS'Hippy'
p1663
(lp1664
g869
ag976
ag1021
ag1045
ag1241
ag1184
asS'Constituent'
p1665
(lp1666
g976
ag1184
ag992
ag1203
asS'Wife'
p1667
(lp1668
g1241
ag1184
ag1211
ag1249
ag901
asS'WarVet'
p1669
(lp1670
g1203
ag1211
ag1160
ag1241
asS'Religious'
p1671
(lp1672
g815
ag1257
ag936
ag1176
ag1211
asS'Unionist'
p1673
(lp1674
g1203
ag1211
ag976
ag1061
asS'Journalist'
p1675
(lp1676
g831
ag1225
ag1029
ag733
ag807
assS'encounters'
p1677
(dp1678
S'P-easy-10'
p1679
g1
(g10
g3
NtRp1680
(dp1681
S'item_attack_drops'
p1682
(lp1683
sS'item_attacks'
p1684
(lp1685
sg767
S''
sg1271
F10
sS'monster2_lvl'
p1686
F1
sS'bribe_cost'
p1687
F109
sS'monster3'
p1688
S'Politician001'
p1689
sS'monster1_lvl'
p1690
F1
sS'monster3_lvl'
p1691
F1
sS'monster4_lvl'
p1692
S''
sS'monster4'
p1693
S''
sS'monster2'
p1694
S'Mayor'
p1695
sg761
g1679
sS'monster1'
p1696
S'Politician001'
p1697
sbsS'P-easy-05'
p1698
g1
(g10
g3
NtRp1699
(dp1700
g1682
(lp1701
g1
(c__main__
ItemAttack
p1702
g3
NtRp1703
(dp1704
S'attack'
p1705
g1053
sS'quantity'
p1706
I1
sbasg1684
(lp1707
sg767
S''
sg1271
F10
sg1686
S''
sg1687
F104
sg1688
S''
sg1690
F1
sg1691
S''
sg1692
S''
sg1693
S''
sg1694
S''
sg761
g1698
sg1696
S'Journalist001'
p1708
sbsS'P-easy-04'
p1709
g1
(g10
g3
NtRp1710
(dp1711
g1682
(lp1712
g1
(g1702
g3
NtRp1713
(dp1714
g1705
g923
sg1706
I1
sbasg1684
(lp1715
sg767
S''
sg1271
F10
sg1686
F1
sg1687
F103
sg1688
S'Protester001'
p1716
sg1690
F1
sg1691
F1
sg1692
S''
sg1693
S''
sg1694
S'Protester001'
p1717
sg761
g1709
sg1696
S'Protester001'
p1718
sbsS'P-easy-07'
p1719
g1
(g10
g3
NtRp1720
(dp1721
g1682
(lp1722
g1
(g1702
g3
NtRp1723
(dp1724
g1705
g923
sg1706
I1
sbasg1684
(lp1725
sg767
S''
sg1271
F10
sg1686
S''
sg1687
F106
sg1688
S''
sg1690
F1
sg1691
S''
sg1692
S''
sg1693
S''
sg1694
S''
sg761
g1719
sg1696
S'Constituent001'
p1726
sbsS'P-easy-06'
p1727
g1
(g10
g3
NtRp1728
(dp1729
g1682
(lp1730
g1
(g1702
g3
NtRp1731
(dp1732
g1705
g1184
sg1706
I1
sbasg1684
(lp1733
sg767
S''
sg1271
F10
sg1686
F1
sg1687
F105
sg1688
S''
sg1690
F1
sg1691
S''
sg1692
S''
sg1693
S''
sg1694
S'Lobbyist001'
p1734
sg761
g1727
sg1696
S'Lobbyist001'
p1735
sbsS'P-easy-01'
p1736
g1
(g10
g3
NtRp1737
(dp1738
g1682
(lp1739
g1
(g1702
g3
NtRp1740
(dp1741
g1705
g963
sg1706
I1
sbasg1684
(lp1742
g1
(g1702
g3
NtRp1743
(dp1744
g1705
g1053
sg1706
I1
sbasg767
S'The quest for pen'
p1745
sg1271
F10
sg1686
S''
sg1687
F100
sg1688
S''
sg1690
F1
sg1691
S''
sg1692
S''
sg1693
S''
sg1694
S''
sg761
g1736
sg1696
S'Receptionist001'
p1746
sbsS'P-easy-03'
p1747
g1
(g10
g3
NtRp1748
(dp1749
g1682
(lp1750
g1
(g1702
g3
NtRp1751
(dp1752
g1705
g963
sg1706
I1
sbasg1684
(lp1753
sg767
S''
sg1271
F10
sg1686
F1
sg1687
F102
sg1688
S''
sg1690
F1
sg1691
S''
sg1692
S''
sg1693
S''
sg1694
S'Protester001'
p1754
sg761
g1747
sg1696
S'Protester001'
p1755
sbsS'P-easy-02'
p1756
g1
(g10
g3
NtRp1757
(dp1758
g1682
(lp1759
sg1684
(lp1760
sg767
S''
sg1271
F10
sg1686
F1
sg1687
F101
sg1688
S''
sg1690
F1
sg1691
S''
sg1692
S''
sg1693
S''
sg1694
S'Protester001'
p1761
sg761
g1756
sg1696
S'Protester001'
p1762
sbsS'P-med-02'
p1763
g1
(g10
g3
NtRp1764
(dp1765
g1682
(lp1766
sg1684
(lp1767
sg767
S''
sg1271
F10
sg1686
F1
sg1687
F111
sg1688
S''
sg1690
F1
sg1691
S''
sg1692
S''
sg1693
S''
sg1694
S'Politician001'
p1768
sg761
g1763
sg1696
S'Politician001'
p1769
sbsS'P-med-01'
p1770
g1
(g10
g3
NtRp1771
(dp1772
g1682
(lp1773
sg1684
(lp1774
sg767
S''
sg1271
F10
sg1686
F1
sg1687
F110
sg1688
S''
sg1690
F1
sg1691
S''
sg1692
S''
sg1693
S''
sg1694
S'Politician001'
p1775
sg761
g1770
sg1696
S'Politician001'
p1776
sbsS'P-easy-09'
p1777
g1
(g10
g3
NtRp1778
(dp1779
g1682
(lp1780
g1
(g1702
g3
NtRp1781
(dp1782
g1705
g963
sg1706
I1
sbasg1684
(lp1783
sg767
S''
sg1271
F10
sg1686
F1
sg1687
F108
sg1688
S'Constituent001'
p1784
sg1690
F1
sg1691
F1
sg1692
S''
sg1693
S''
sg1694
S'Constituent001'
p1785
sg761
g1777
sg1696
S'Constituent001'
p1786
sbsS'P-easy-08'
p1787
g1
(g10
g3
NtRp1788
(dp1789
g1682
(lp1790
sg1684
(lp1791
sg767
S''
sg1271
F10
sg1686
F1
sg1687
F107
sg1688
S''
sg1690
F1
sg1691
S''
sg1692
S''
sg1693
S''
sg1694
S'Constituent001'
p1792
sg761
g1787
sg1696
S'Constituent001'
p1793
sbssb.