ccopy_reg
_reconstructor
p1
(c__main__
GameData
p2
c__builtin__
object
p3
NtRp4
(dp5
S'script'
p6
(dp7
S'_Receptionist'
p8
(lp9
g1
(c__main__
TableRow
p10
g3
NtRp11
(dp12
S'action'
p13
S'RequireFlag'
p14
sS'trigger'
p15
g8
sS'param'
p16
S'PENQUEST'
p17
sS'dialog'
p18
S"You must be Mayor Goodman's new assistant. He's in his office."
p19
sbag1
(g10
g3
NtRp20
(dp21
g13
S'PlayerSay'
p22
sg15
S'_Receptionist'
p23
sg16
S''
sg18
S"The Mayor is looking for his pen. He seemed to think you'd know where it was."
p24
sbag1
(g10
g3
NtRp25
(dp26
g13
S'Say'
p27
sg15
S'_Receptionist'
p28
sg16
S''
sg18
S"Did that buffoon accuse me of stealing again? This is MY pen and he isn't having it."
p29
sbasS'Wife'
p30
(lp31
g1
(g10
g3
NtRp32
(dp33
g13
S'_RequireFlag'
p34
sg15
g30
sg16
S'GOHOMETOWIFE'
p35
sg18
S'What are you doing here, Phillip? You should be at work!'
p36
sbag1
(g10
g3
NtRp37
(dp38
g13
S'Say'
p39
sg15
S'Wife'
p40
sg16
S''
sg18
S'Welcome home, Phillip! How was your workday?'
p41
sbag1
(g10
g3
NtRp42
(dp43
g13
S'PlayerSay'
p44
sg15
S'Wife'
p45
sg16
S''
sg18
S'\xe2\x80\xa6'
p46
sbag1
(g10
g3
NtRp47
(dp48
g13
S'Say'
p49
sg15
S'Wife'
p50
sg16
S''
sg18
S"That good, huh? You know this isn't what you want. Why don't you strike out on your own?"
p51
sbag1
(g10
g3
NtRp52
(dp53
g13
S'PlayerSay'
p54
sg15
S'Wife'
p55
sg16
S''
sg18
S"I didn't think I knew where to start to be a Mayor, but Mayor Goodman makes it look easy."
p56
sbag1
(g10
g3
NtRp57
(dp58
g13
S'Say'
p59
sg15
S'Wife'
p60
sg16
S''
sg18
S"That's the spirit! You can do it! All you need is some money and support."
p61
sbag1
(g10
g3
NtRp62
(dp63
g13
S'PlayerSay'
p64
sg15
S'Wife'
p65
sg16
S''
sg18
S'Well...OK! Lets start with money. We need a sponsor.'
p66
sbag1
(g10
g3
NtRp67
(dp68
g13
S'Say'
p69
sg15
S'Wife'
p70
sg16
S''
sg18
S'OK, lets go get one!'
p71
sbag1
(g10
g3
NtRp72
(dp73
g13
S'AddAlly'
p74
sg15
S'Wife'
p75
sg16
S'Wife:1'
p76
sg18
S'Sarah Mossman Joins Your Political Party!'
p77
sbag1
(g10
g3
NtRp78
(dp79
g13
S'SetFlag'
p80
sg15
S'Wife'
p81
sg16
S'STARTSPONSOR'
p82
sg18
S''
sbag1
(g10
g3
NtRp83
(dp84
g13
S'Destroy'
p85
sg15
S'Wife'
p86
sg16
S''
sg18
S''
sbasS'Protester2'
p87
(lp88
g1
(g10
g3
NtRp89
(dp90
g13
S'Say'
p91
sg15
g87
sg16
S''
sg18
S"Bees buzz, Mayors lie, who's this Phillip Mossman guy?"
p92
sbag1
(g10
g3
NtRp93
(dp94
g13
S'RequireFlag'
p95
sg15
S'Protester2'
p96
sg16
S'PROTESTORS'
p97
sg18
S''
sbag1
(g10
g3
NtRp98
(dp99
g13
S'Encounter'
p100
sg15
S'Protester2'
p101
sg16
S'P-easy-03'
p102
sg18
S''
sbag1
(g10
g3
NtRp103
(dp104
g13
S'Destroy'
p105
sg15
S'Protester2'
p106
sg16
S''
sg18
S''
sbasS'Protester1'
p107
(lp108
g1
(g10
g3
NtRp109
(dp110
g13
S'Say'
p111
sg15
g107
sg16
S''
sg18
S"Fee Fi Fo Fum, we think Mayor Goodman's Dumb!"
p112
sbag1
(g10
g3
NtRp113
(dp114
g13
S'RequireFlag'
p115
sg15
S'Protester1'
p116
sg16
S'PROTESTORS'
p117
sg18
S''
sbag1
(g10
g3
NtRp118
(dp119
g13
S'Encounter'
p120
sg15
S'Protester1'
p121
sg16
S'P-easy-02'
p122
sg18
S''
sbag1
(g10
g3
NtRp123
(dp124
g13
S'Destroy'
p125
sg15
S'Protester1'
p126
sg16
S''
sg18
S''
sbasS'Head Protester'
p127
(lp128
g1
(g10
g3
NtRp129
(dp130
g13
S'Say'
p131
sg15
g127
sg16
S''
sg18
S"I am the head protester. You'll never convince us to back down!"
p132
sbag1
(g10
g3
NtRp133
(dp134
g13
S'RequireFlag'
p135
sg15
S'Head Protester'
p136
sg16
S'PROTESTORS'
p137
sg18
S''
sbag1
(g10
g3
NtRp138
(dp139
g13
S'PlayerSay'
p140
sg15
S'Head Protester'
p141
sg16
S''
sg18
S'What are you protesting?'
p142
sbag1
(g10
g3
NtRp143
(dp144
g13
S'Say'
p145
sg15
S'Head Protester'
p146
sg16
S''
sg18
S'Er...Injustice!'
p147
sbag1
(g10
g3
NtRp148
(dp149
g13
S'PlayerSay'
p150
sg15
S'Head Protester'
p151
sg16
S''
sg18
S'Injustice against what?'
p152
sbag1
(g10
g3
NtRp153
(dp154
g13
S'Say'
p155
sg15
S'Head Protester'
p156
sg16
S''
sg18
S'\xe2\x80\xa6'
p157
sbag1
(g10
g3
NtRp158
(dp159
g13
S'Say'
p160
sg15
S'Head Protester'
p161
sg16
S''
sg18
S'The People!'
p162
sbag1
(g10
g3
NtRp163
(dp164
g13
S'PlayerSay'
p165
sg15
S'Head Protester'
p166
sg16
S''
sg18
S'Yes, but which people?'
p167
sbag1
(g10
g3
NtRp168
(dp169
g13
S'Say'
p170
sg15
S'Head Protester'
p171
sg16
S''
sg18
S'See? What a fascist, ALL people you slimey politician scum!'
p172
sbag1
(g10
g3
NtRp173
(dp174
g13
S'Encounter'
p175
sg15
S'Head Protester'
p176
sg16
S'P-easy-04'
p177
sg18
S''
sbag1
(g10
g3
NtRp178
(dp179
g13
S'Say'
p180
sg15
S'Head Protester'
p181
sg16
S''
sg18
S"Alright, fine! We'll stop protesting...whatever we were protesting."
p182
sbag1
(g10
g3
NtRp183
(dp184
g13
S'SetFlag'
p185
sg15
S'Head Protester'
p186
sg16
S'PROTESTORSDEAD'
p187
sg18
S''
sbag1
(g10
g3
NtRp188
(dp189
g13
S'Destroy'
p190
sg15
S'Head Protester'
p191
sg16
S''
sg18
S''
sbasS'Receptionist'
p192
(lp193
g1
(g10
g3
NtRp194
(dp195
g13
S'Encounter'
p196
sg15
g192
sg16
S'P-easy-01'
p197
sg18
S''
sbag1
(g10
g3
NtRp198
(dp199
g13
S'GiveItem'
p200
sg15
S'Receptionist'
p201
sg16
S'PEN'
p202
sg18
S'Receptionist sighs and hands over the pen.'
p203
sbag1
(g10
g3
NtRp204
(dp205
g13
S'Destroy'
p206
sg15
S'Receptionist'
p207
sg16
S''
sg18
S''
sbasS'Sponsor'
p208
(lp209
g1
(g10
g3
NtRp210
(dp211
g13
S'RequireFlag'
p212
sg15
g208
sg16
S'STARTSPONSOR'
p213
sg18
S"Hmmm...Money, money, money. Sorry, what? I wasn't talking to you."
p214
sbag1
(g10
g3
NtRp215
(dp216
g13
S'Say'
p217
sg15
S'Sponsor'
p218
sg16
S''
sg18
S"Hello, I'm investigating new investments today. How can I help you?"
p219
sbag1
(g10
g3
NtRp220
(dp221
g13
S'PlayerSay'
p222
sg15
S'Sponsor'
p223
sg16
S''
sg18
S"Well, I've decided to run for Mayor! I could really use an investor."
p224
sbag1
(g10
g3
NtRp225
(dp226
g13
S'Say'
p227
sg15
S'Sponsor'
p228
sg16
S''
sg18
S"I don't know. You seem a little young. I don't think I'm convinced."
p229
sbag1
(g10
g3
NtRp230
(dp231
g13
S'Encounter'
p232
sg15
S'Sponsor'
p233
sg16
S'P-easy-06'
p234
sg18
S''
sbag1
(g10
g3
NtRp235
(dp236
g13
S'Say'
p237
sg15
S'Sponsor'
p238
sg16
S''
sg18
S"Wow! You sure have what it takes! Alright, he's a pile of cash!"
p239
sbag1
(g10
g3
NtRp240
(dp241
g13
S'Say'
p242
sg15
S'Sponsor'
p243
sg16
S''
sg18
S'Also, now that you have some funds, you might find it useful to...grease the wheels in some difficult situations.'
p244
sbag1
(g10
g3
NtRp245
(dp246
g13
S'LearnAttack'
p247
sg15
S'Sponsor'
p248
sg16
S'BRIBE'
p249
sg18
S'Phillip and Sarah learn to Bribe'
p250
sbag1
(g10
g3
NtRp251
(dp252
g13
S'LearnAttack'
p253
sg15
S'Sponsor'
p254
sg16
S'Wife:BRIBE'
p255
sg18
S''
sbag1
(g10
g3
NtRp256
(dp257
g13
S'SetFlag'
p258
sg15
S'Sponsor'
p259
sg16
S'STARTCONSTITUENTS'
p260
sg18
S''
sbag1
(g10
g3
NtRp261
(dp262
g13
S'PlayerSay'
p263
sg15
S'Sponsor'
p264
sg16
S''
sg18
S'Er, thanks! I suppose we should go gather some support from our constituents now.'
p265
sbag1
(g10
g3
NtRp266
(dp267
g13
S'Say'
p268
sg15
S'Sponsor'
p269
sg16
S''
sg18
S"Makes sense to me! I'm off, too. Money, money, money."
p270
sbag1
(g10
g3
NtRp271
(dp272
g13
S'Destroy'
p273
sg15
S'Sponsor'
p274
sg16
S''
sg18
S''
sbasS'Mayor'
p275
(lp276
g1
(g10
g3
NtRp277
(dp278
g13
S'Say'
p279
sg15
g275
sg16
S''
sg18
S"Hello, I'm the Mayor!"
p280
sbag1
(g10
g3
NtRp281
(dp282
g13
S'PlayerSay'
p283
sg15
S'Mayor'
p284
sg16
S''
sg18
S"Hello, Mayor Goodman, I'm Philip Mossman."
p285
sbag1
(g10
g3
NtRp286
(dp287
g13
S'Say'
p288
sg15
S'Mayor'
p289
sg16
S''
sg18
S"Ah yes, you're my new assistant. A good thing, too."
p290
sbag1
(g10
g3
NtRp291
(dp292
g13
S'Say'
p293
sg15
S'Mayor'
p294
sg16
S''
sg18
S"I've been searching for minutes and haven't been able to find my pen! I bet my receptionist stole it. She has sticky fingers."
p295
sbag1
(g10
g3
NtRp296
(dp297
g13
S'Say'
p298
sg15
S'Mayor'
p299
sg16
S''
sg18
S"Well, don't just stand there, go and get it!"
p300
sbag1
(g10
g3
NtRp301
(dp302
g13
S'SetFlag'
p303
sg15
S'Mayor'
p304
sg16
S'PENQUEST'
p305
sg18
S''
sbag1
(g10
g3
NtRp306
(dp307
g13
S'RequireItem'
p308
sg15
S'Mayor'
p309
sg16
S'PEN'
p310
sg18
S'Are you simple? Go and get my pen from that thieving receptionist.'
p311
sbag1
(g10
g3
NtRp312
(dp313
g13
S'Say'
p314
sg15
S'Mayor'
p315
sg16
S''
sg18
S"Great! I know she can give you a bit of a tongue-lashing, but she's a fantastic receptionist."
p316
sbag1
(g10
g3
NtRp317
(dp318
g13
S'Say'
p319
sg15
S'Mayor'
p320
sg16
S''
sg18
S"I'm sure you want to learn a thing or two about politics \xe2\x80\x93 who doesn't? - so lets get started"
p321
sbag1
(g10
g3
NtRp322
(dp323
g13
S'SetFlag'
p324
sg15
S'Mayor'
p325
sg16
S'PROTESTORS'
p326
sg18
S''
sbag1
(g10
g3
NtRp327
(dp328
g13
S'RequireFlag'
p329
sg15
S'Mayor'
p330
sg16
S'PROTESTORSDEAD'
p331
sg18
S'Run outside and tell those protesters to scram, will you?'
p332
sbag1
(g10
g3
NtRp333
(dp334
g13
S'Say'
p335
sg15
S'Mayor'
p336
sg16
S''
sg18
S"Hope they didn't give you too much trouble!"
p337
sbag1
(g10
g3
NtRp338
(dp339
g13
S'Say'
p340
sg15
S'Mayor'
p341
sg16
S''
sg18
S"Now that's sorted, there's a journalist from the local newspaper coming for an interview."
p342
sbag1
(g10
g3
NtRp343
(dp344
g13
S'Say'
p345
sg15
S'Mayor'
p346
sg16
S''
sg18
S"I certainly don't have time for it, so you can do the interview."
p347
sbag1
(g10
g3
NtRp348
(dp349
g13
S'Say'
p350
sg15
S'Mayor'
p351
sg16
S''
sg18
S"Be careful not to give too much away and if you could throw a few punches at the opposition that'd help."
p352
sbag1
(g10
g3
NtRp353
(dp354
g13
S'PlayerSay'
p355
sg15
S'Mayor'
p356
sg16
S''
sg18
S'You want me to...throw a punch?'
p357
sbag1
(g10
g3
NtRp358
(dp359
g13
S'Say'
p360
sg15
S'Mayor'
p361
sg16
S''
sg18
S"You're in politics and don't know how to fight dirty? Sheesh! Here, let me show you."
p362
sbag1
(g10
g3
NtRp363
(dp364
g13
S'LearnAttack'
p365
sg15
S'Mayor'
p366
sg16
S'SLANDER'
p367
sg18
S'Mayor teaches Phillip to Slander Opposition'
p368
sbag1
(g10
g3
NtRp369
(dp370
g13
S'Say'
p371
sg15
S'Mayor'
p372
sg16
S''
sg18
S"It's a pretty great tactic because it keeps eating away at them long after you've done it."
p373
sbag1
(g10
g3
NtRp374
(dp375
g13
S'SetFlag'
p376
sg15
S'Mayor'
p377
sg16
S'INTERVIEWSTART'
p378
sg18
S''
sbag1
(g10
g3
NtRp379
(dp380
g13
S'RequireFlag'
p381
sg15
S'Mayor'
p382
sg16
S'JOURNALISTINTERVIEW'
p383
sg18
S'Go handle that interview and remember to slander the opposition.'
p384
sbag1
(g10
g3
NtRp385
(dp386
g13
S'SetFlag'
p387
sg15
S'Mayor'
p388
sg16
S'GOHOMETOWIFE'
p389
sg18
S''
sbag1
(g10
g3
NtRp390
(dp391
g13
S'Say'
p392
sg15
S'Mayor'
p393
sg16
S''
sg18
S'OK, fine, now could you buzz off for a while? I need to get some work done.'
p394
sbag1
(g10
g3
NtRp395
(dp396
g13
S'RequireFlag'
p397
sg15
S'Mayor'
p398
sg16
S'CONSTITUENTSWON'
p399
sg18
S"Go home to your family. I have things to do that don't involve you."
p400
sbasS'Journalist'
p401
(lp402
g1
(g10
g3
NtRp403
(dp404
g13
S'RequireFlag'
p405
sg15
g401
sg16
S'INTERVIEWSTART'
p406
sg18
S'Leave me alone, kid I need to get this done before my deadline!'
p407
sbag1
(g10
g3
NtRp408
(dp409
g13
S'Say'
p410
sg15
S'Journalist'
p411
sg16
S''
sg18
S"Hey, where's the Mayor?"
p412
sbag1
(g10
g3
NtRp413
(dp414
g13
S'PlayerSay'
p415
sg15
S'Journalist'
p416
sg16
S''
sg18
S"He couldn't make it. I'll be taking the interview."
p417
sbag1
(g10
g3
NtRp418
(dp419
g13
S'Say'
p420
sg15
S'Journalist'
p421
sg16
S''
sg18
S'Great! Easy pickings! Lets go.'
p422
sbag1
(g10
g3
NtRp423
(dp424
g13
S'Encounter'
p425
sg15
S'Journalist'
p426
sg16
S'P-easy-05'
p427
sg18
S''
sbag1
(g10
g3
NtRp428
(dp429
g13
S'Say'
p430
sg15
S'Journalist'
p431
sg16
S''
sg18
S"SNORE! Fine, if I can't get anything juicy here I'll do another puff piece on my poodle Frank."
p432
sbag1
(g10
g3
NtRp433
(dp434
g13
S'SetFlag'
p435
sg15
S'Journalist'
p436
sg16
S'JOURNALISTINTERVIEW'
p437
sg18
S''
sbag1
(g10
g3
NtRp438
(dp439
g13
S'Destroy'
p440
sg15
S'Journalist'
p441
sg16
S''
sg18
S''
sbassS'attacks'
p442
(dp443
S'GETEXCLUSIVE'
p444
g1
(g10
g3
NtRp445
(dp446
S'base_damage_max'
p447
F4
sS'description'
p448
S'asdf'
p449
sS'weight'
p450
I1
sS'crit_chance_max'
p451
F5
sS'crit_chance_min'
p452
F2
sS'underlying_stat'
p453
S'Wit'
p454
sS'target_type'
p455
S'AllFriendly'
p456
sS'base_damage_min'
p457
F2
sS'spin_cost'
p458
F5
sS'effects'
p459
(lp460
g1
(c__main__
Effect
p461
g3
NtRp462
(dp463
S'function'
p464
S'add'
p465
sS'abbrv'
p466
S'(INCREASE)'
p467
sS'attribute'
p468
S'cunning'
p469
sS'value'
p470
F2
sS'rounds_min'
p471
F1
sS'rounds_max'
p472
F4
sS'id'
p473
S'Increase Cunning'
p474
sS'apply_to_source'
p475
S'TRUE'
p476
sbasS'target_count'
p477
I1
sS'crit_base_damage'
p478
F8
sg473
g444
sS'name'
p479
S'Get Exclusive'
p480
sbsS'LOSELOSE'
p481
g1
(g10
g3
NtRp482
(dp483
g447
F4
sg448
S'Causes all politicians in the target radius to lose votes'
p484
sg450
I1
sg451
F0
sg452
F0
sg453
S'Cunning'
p485
sg455
S'All'
p486
sg457
F4
sg458
I0
sg459
(lp487
sg477
I6
sg478
F0
sg473
g481
sg479
S'Lose/lose issue'
p488
sbsS'LIE'
p489
g1
(g10
g3
NtRp490
(dp491
g447
F6
sg448
S"It's only lying if they catch you. A strong attack with a danger of failing entirely and leaving you high and dry."
p492
sg450
F3
sg451
F10
sg452
F2
sg453
S'Wit'
p493
sg455
S'AllEnemy'
p494
sg457
F0
sg458
I0
sg459
(lp495
g1
(g461
g3
NtRp496
(dp497
g464
S'miss_turn'
p498
sg466
S'(MISS)'
p499
sg468
S''
sg470
F0
sg471
F1
sg472
F1
sg473
S'Critical Fail'
p500
sg475
S'TRUE'
p501
sbasg477
I1
sg478
F10
sg473
g489
sg479
S'Lie'
p502
sbsS'HILARIOUSANECDOTE'
p503
g1
(g10
g3
NtRp504
(dp505
g447
F8
sg448
S'asdf'
p506
sg450
I1
sg451
F0
sg452
F0
sg453
S'Wit'
p507
sg455
S'AllFriendly'
p508
sg457
F4
sg458
F5
sg459
(lp509
g1
(g461
g3
NtRp510
(dp511
g464
S'add'
p512
sg466
S'(INCREASE)'
p513
sg468
S'flair'
p514
sg470
F2
sg471
F1
sg472
F4
sg473
S'Increase Flair'
p515
sg475
S'TRUE'
p516
sbasg477
I1
sg478
F0
sg473
g503
sg479
S'Hilarious Anecdote'
p517
sbsS'SENSATIONALISE'
p518
g1
(g10
g3
NtRp519
(dp520
g447
F8
sg448
S'asdf'
p521
sg450
I1
sg451
F0
sg452
F0
sg453
S'Wit'
p522
sg455
S'AllEnemy'
p523
sg457
F4
sg458
F3
sg459
(lp524
sg477
I1
sg478
F0
sg473
g518
sg479
S'Sensationalise'
p525
sbsS'DENOUNCE'
p526
g1
(g10
g3
NtRp527
(dp528
g447
F5
sg448
S'asdf'
p529
sg450
F6
sg451
F10
sg452
F2
sg453
S'Cunning'
p530
sg455
S'AllEnemy'
p531
sg457
F2
sg458
I0
sg459
(lp532
sg477
I1
sg478
F8
sg473
g526
sg479
S'Denounce'
p533
sbsS'WHADOWEWANT'
p534
g1
(g10
g3
NtRp535
(dp536
g447
F6
sg448
S'asdf'
p537
sg450
I1
sg451
F0
sg452
F0
sg453
S'Cunning'
p538
sg455
S'AllEnemy'
p539
sg457
F3
sg458
I0
sg459
(lp540
sg477
I1
sg478
F0
sg473
g534
sg479
S'Whadowewant!'
p541
sbsS'SCOOP'
p542
g1
(g10
g3
NtRp543
(dp544
g447
F5
sg448
S'asdf'
p545
sg450
I1
sg451
F10
sg452
F5
sg453
S'Cunning'
p546
sg455
S'AllEnemy'
p547
sg457
F2
sg458
I0
sg459
(lp548
sg477
I1
sg478
F8
sg473
g542
sg479
S'Scoop'
p549
sbsS'CHOOSETARGETS'
p550
g1
(g10
g3
NtRp551
(dp552
g447
F7
sg448
S'asdf'
p553
sg450
I1
sg451
F10
sg452
F5
sg453
S'Cunning'
p554
sg455
S'AllEnemy'
p555
sg457
F2
sg458
I0
sg459
(lp556
sg477
I1
sg478
F9
sg473
g550
sg479
S'Choose Targets'
p557
sbsS'FILENAILS'
p558
g1
(g10
g3
NtRp559
(dp560
g447
F0
sg448
S'asdf'
p561
sg450
I1
sg451
F0
sg452
F0
sg453
S'Wit'
p562
sg455
S'AllEnemy'
p563
sg457
F0
sg458
F3
sg459
(lp564
g1
(g461
g3
NtRp565
(dp566
g464
S'add_permanent'
p567
sg466
S''
sg468
S'votes'
p568
sg470
F5
sg471
F1
sg472
F1
sg473
S'Votes Restore'
p569
sg475
S'TRUE'
p570
sbasg477
I1
sg478
F0
sg473
g558
sg479
S'File Nails'
p571
sbsS'BRIBE'
p572
g1
(g10
g3
NtRp573
(dp574
g447
F1
sg448
S'Is there anything more convincing than money? Buying loyalty gets expensive so be careful.'
p575
sg450
I1
sg451
F1
sg452
F1
sg453
S'Money'
p576
sg455
S'AllEnemy'
p577
sg457
F2
sg458
I0
sg459
(lp578
sg477
I1
sg478
F1
sg473
g572
sg479
S'Bribe'
p579
sbsS'SING'
p580
g1
(g10
g3
NtRp581
(dp582
g447
F-3
sg448
S'Why bandy words with politicians when you can sing a catchy tune! Restores votes.'
p583
sg450
I1
sg451
F0
sg452
F0
sg453
S'Wit'
p584
sg455
S'AllFriendly'
p585
sg457
F-5
sg458
I0
sg459
(lp586
sg477
I4
sg478
F0
sg473
g580
sg479
S'Rousing Song'
p587
sbsS'FEAR'
p588
g1
(g10
g3
NtRp589
(dp590
g447
F0
sg448
S'asdf'
p591
sg450
F2
sg451
F0
sg452
F0
sg453
S'Wit'
p592
sg455
S'AllFriendly'
p593
sg457
F0
sg458
F4
sg459
(lp594
g462
asg477
I1
sg478
F0
sg473
g588
sg479
S'Fear Change'
p595
sbsS'RAISEDEFCON'
p596
g1
(g10
g3
NtRp597
(dp598
g447
F5
sg448
S'asdf'
p599
sg450
I1
sg451
F7
sg452
F3
sg453
S'Cunning'
p600
sg455
S'AllEnemy'
p601
sg457
F4
sg458
I0
sg459
(lp602
sg477
I1
sg478
F8
sg473
g596
sg479
S'Raise DEFCON'
p603
sbsS'NEGATTACKAD'
p604
g1
(g10
g3
NtRp605
(dp606
g447
F8
sg448
S"Take them all down. They're definitely all bad people. Not like you."
p607
sg450
I1
sg451
F10
sg452
F10
sg453
S'Cunning'
p608
sg455
S'AllEnemy'
p609
sg457
F3
sg458
F5
sg459
(lp610
sg477
I1
sg478
F10
sg473
g604
sg479
S'Negative Attack Ad'
p611
sbsS'DAZZLE'
p612
g1
(g10
g3
NtRp613
(dp614
g447
F3
sg448
S'Being dazzling and admirable is a great way to take heat off politics'
p615
sg450
I1
sg451
F8
sg452
F5
sg453
S'Wit'
p616
sg455
S'AllEnemy'
p617
sg457
F2
sg458
F3
sg459
(lp618
g1
(g461
g3
NtRp619
(dp620
g464
S'reduce'
p621
sg466
S'(REDUCE)'
p622
sg468
S'cunning'
p623
sg470
F2
sg471
F2
sg472
F5
sg473
S'Reduce Cunning'
p624
sg475
S''
sbasg477
I4
sg478
F8
sg473
g612
sg479
S'Dazzle'
p625
sbsS'BELIEVEMEDIA'
p626
g1
(g10
g3
NtRp627
(dp628
g447
F3
sg448
S'asdf'
p629
sg450
I1
sg451
F15
sg452
F5
sg453
S'Cunning'
p630
sg455
S'AllEnemy'
p631
sg457
F1
sg458
I0
sg459
(lp632
sg477
I1
sg478
F12
sg473
g626
sg479
S'Believe Media'
p633
sbsS'PRPREP'
p634
g1
(g10
g3
NtRp635
(dp636
g447
F0
sg448
S"If you're going to need some spin, best see a spin doctor! Adds spin points."
p637
sg450
I1
sg451
F0
sg452
F0
sg453
S''
sg455
S'AllFriendly'
p638
sg457
F0
sg458
I0
sg459
(lp639
g1
(g461
g3
NtRp640
(dp641
g464
S'add_permanent'
p642
sg466
S''
sg468
S'spin'
p643
sg470
F5
sg471
F0
sg472
F0
sg473
S'Spin Restore'
p644
sg475
S'TRUE'
p645
sbasg477
I1
sg478
F0
sg473
g634
sg479
S'PR Prep'
p646
sbsS'CALLVATICAN'
p647
g1
(g10
g3
NtRp648
(dp649
g447
F0
sg448
S'Brings in 2 additional ReligousNuts at 2 levels lower than this one'
p650
sg450
I1
sg451
F0
sg452
F0
sg453
S'Wit'
p651
sg455
S'None'
p652
sg457
F0
sg458
F5
sg459
(lp653
g1
(g461
g3
NtRp654
(dp655
g464
S'call_friends'
p656
sg466
S''
sg468
S''
sg470
F2
sg471
F1
sg472
F1
sg473
S'Call Friends'
p657
sg475
S''
sbasg477
I1
sg478
F0
sg473
g647
sg479
S'Call Vatican'
p658
sbsS'BLACKMAIL'
p659
g1
(g10
g3
NtRp660
(dp661
g447
F6
sg448
S'asdf'
p662
sg450
I1
sg451
F10
sg452
F2
sg453
S'Wit'
p663
sg455
S'AllEnemy'
p664
sg457
F3
sg458
F4
sg459
(lp665
g1
(g461
g3
NtRp666
(dp667
g464
S'drain'
p668
sg466
S'(DRAIN)'
p669
sg468
S'votes'
p670
sg470
F1
sg471
F2
sg472
F5
sg473
S'Drain Votes'
p671
sg475
S''
sbasg477
I1
sg478
F2
sg473
g659
sg479
S'Blackmail'
p672
sbsS'PROTEST'
p673
g1
(g10
g3
NtRp674
(dp675
g447
F5
sg448
S'asdf'
p676
sg450
F6
sg451
F10
sg452
F2
sg453
S'Cunning'
p677
sg455
S'AllEnemy'
p678
sg457
F2
sg458
I0
sg459
(lp679
sg477
I1
sg478
F8
sg473
g673
sg479
S'Protest'
p680
sbsS'SPREADRUMOUR'
p681
g1
(g10
g3
NtRp682
(dp683
g447
F6
sg448
S'asdf'
p684
sg450
I1
sg451
F10
sg452
F2
sg453
S'Wit'
p685
sg455
S'AllEnemy'
p686
sg457
F2
sg458
F3
sg459
(lp687
sg477
I4
sg478
F8
sg473
g681
sg479
S'Spread Rumour'
p688
sbsS'AGENDA'
p689
g1
(g10
g3
NtRp690
(dp691
g447
F5
sg448
S'asdf'
p692
sg450
F6
sg451
F10
sg452
F2
sg453
S'Cunning'
p693
sg455
S'AllEnemy'
p694
sg457
F2
sg458
I0
sg459
(lp695
sg477
I1
sg478
F8
sg473
g689
sg479
S'Push Agenda'
p696
sbsS'FILIBUSTER'
p697
g1
(g10
g3
NtRp698
(dp699
g447
F0
sg448
S"You're not moving until they give in. Cause all opposition to miss their turn"
p700
sg450
I1
sg451
F0
sg452
F0
sg453
S'Wit'
p701
sg455
S'AllEnemy'
p702
sg457
F0
sg458
F8
sg459
(lp703
g1
(g461
g3
NtRp704
(dp705
g464
S'miss_turn'
p706
sg466
S'(MISS)'
p707
sg468
S''
sg470
F0
sg471
F1
sg472
F1
sg473
S'Miss Turn'
p708
sg475
S''
sbasg477
I1
sg478
F0
sg473
g697
sg479
S'Filibuster'
p709
sbsS'GATHERINTEL'
p710
g1
(g10
g3
NtRp711
(dp712
g447
F0
sg448
S'Increases Cunning.'
p713
sg450
I1
sg451
F0
sg452
F0
sg453
S'Wit'
p714
sg455
S'AllFriendly'
p715
sg457
F0
sg458
F3
sg459
(lp716
g462
asg477
I2
sg478
F0
sg473
g710
sg479
S'Gather Intelligence'
p717
sbsS'LOVE'
p718
g1
(g10
g3
NtRp719
(dp720
g447
F6
sg448
S'asdf'
p721
sg450
F2
sg451
F8
sg452
F2
sg453
S'Cunning'
p722
sg455
S'AllEnemy'
p723
sg457
F1
sg458
I0
sg459
(lp724
sg477
I1
sg478
F7
sg473
g718
sg479
S'Love'
p725
sbsS'OUTOFCONTEXT'
p726
g1
(g10
g3
NtRp727
(dp728
g447
F3
sg448
S'asdf'
p729
sg450
I1
sg451
F5
sg452
F2
sg453
S'Wit'
p730
sg455
S'AllEnemy'
p731
sg457
F2
sg458
F2
sg459
(lp732
g666
asg477
I1
sg478
F5
sg473
g726
sg479
S'Take Out Of Context'
p733
sbsS'GREATSUIT'
p734
g1
(g10
g3
NtRp735
(dp736
g447
F6
sg448
S'Well, we could argue, but have you noticed how fabulous this suit is?'
p737
sg450
I1
sg451
F11
sg452
F6
sg453
S'Cunning'
p738
sg455
S'AllEnemy'
p739
sg457
F3
sg458
I0
sg459
(lp740
sg477
I1
sg478
F12
sg473
g734
sg479
S'Look Great In Suit'
p741
sbsS'PEACE'
p742
g1
(g10
g3
NtRp743
(dp744
g447
F0
sg448
S'asdf'
p745
sg450
I1
sg451
F0
sg452
F0
sg453
S'Wit'
p746
sg455
S'AllEnemy'
p747
sg457
F0
sg458
F3
sg459
(lp748
g619
asg477
I4
sg478
F0
sg473
g742
sg479
S'Peace'
p749
sbsS'INSPSPEECH'
p750
g1
(g10
g3
NtRp751
(dp752
g447
F-2
sg448
S'Restore votes to all party members'
p753
sg450
I1
sg451
F0
sg452
F0
sg453
S'Cunning'
p754
sg455
S'AllFriendly'
p755
sg457
F-2
sg458
I0
sg459
(lp756
sg477
I4
sg478
F0
sg473
g750
sg479
S'Inspirational Speech'
p757
sbsS'STRIKE'
p758
g1
(g10
g3
NtRp759
(dp760
g447
F8
sg448
S'asdf'
p761
sg450
I1
sg451
F0
sg452
F0
sg453
S'Wit'
p762
sg455
S'AllEnemy'
p763
sg457
F0
sg458
F3
sg459
(lp764
g496
asg477
I1
sg478
F0
sg473
g758
sg479
S'Call A Strike'
p765
sbsS'SLANDER'
p766
g1
(g10
g3
NtRp767
(dp768
g447
F3
sg448
S'Strong against polititians...careful with those voters, though!'
p769
sg450
F4
sg451
F10
sg452
F2
sg453
S'Wit'
p770
sg455
S'AllEnemy'
p771
sg457
F2
sg458
I0
sg459
(lp772
g666
asg477
I1
sg478
F5
sg473
g766
sg479
S'Slander Opposition'
p773
sbsS'NATTER'
p774
g1
(g10
g3
NtRp775
(dp776
g447
F8
sg448
S'asdf'
p777
sg450
I1
sg451
F15
sg452
F5
sg453
S'Cunning'
p778
sg455
S'AllEnemy'
p779
sg457
F1
sg458
I0
sg459
(lp780
sg477
I1
sg478
F10
sg473
g774
sg479
S'Natter On'
p781
sbsS'GOSSIP'
p782
g1
(g10
g3
NtRp783
(dp784
g447
F3
sg448
S'asdf'
p785
sg450
I1
sg451
F10
sg452
F2
sg453
S'Wit'
p786
sg455
S'AllEnemy'
p787
sg457
F1
sg458
F2
sg459
(lp788
g619
asg477
I1
sg478
F6
sg473
g782
sg479
S'Gossip'
p789
sbsS'MISSTURN'
p790
g1
(g10
g3
NtRp791
(dp792
g447
F0
sg448
S'asdf'
p793
sg450
I1
sg451
F0
sg452
F0
sg453
S''
sg455
S'AllEnemy'
p794
sg457
F0
sg458
I0
sg459
(lp795
sg477
I1
sg478
F0
sg473
g790
sg479
S'Miss Turn'
p796
sbsS'BIELECTION'
p797
g1
(g10
g3
NtRp798
(dp799
g447
F4
sg448
S'Redistribute votes amongst targets'
p800
sg450
I1
sg451
F0
sg452
F0
sg453
S'Cunning'
p801
sg455
S'All'
p802
sg457
F-4
sg458
F4
sg459
(lp803
sg477
I8
sg478
F0
sg473
g797
sg479
S'Bielection'
p804
sbsS'SCARE'
p805
g1
(g10
g3
NtRp806
(dp807
g447
F7
sg448
S'Nothing rattles the brains like fear.'
p808
sg450
I1
sg451
F10
sg452
F2
sg453
S'Wit'
p809
sg455
S'AllEnemy'
p810
sg457
F2
sg458
I0
sg459
(lp811
g619
asg477
I2
sg478
F9
sg473
g805
sg479
S'Scare Campaign'
p812
sbsS'PAYOFF'
p813
g1
(g10
g3
NtRp814
(dp815
g447
F7
sg448
S'causes them to miss a number of turns'
p816
sg450
I1
sg451
F8
sg452
F2
sg453
S'Wit'
p817
sg455
S'AllEnemy'
p818
sg457
F2
sg458
F4
sg459
(lp819
g1
(g461
g3
NtRp820
(dp821
g464
S'miss_turn'
p822
sg466
S'(MISS)'
p823
sg468
S''
sg470
F0
sg471
F1
sg472
F3
sg473
S'Miss Turn Pay Off'
p824
sg475
S''
sbasg477
I1
sg478
F9
sg473
g813
sg479
S'Pay Off'
p825
sbsS'BUREAUCRACY'
p826
g1
(g10
g3
NtRp827
(dp828
g447
F5
sg448
S'asdf'
p829
sg450
F6
sg451
F10
sg452
F2
sg453
S'Cunning'
p830
sg455
S'AllEnemy'
p831
sg457
F2
sg458
I0
sg459
(lp832
sg477
I1
sg478
F8
sg473
g826
sg479
S'Bureaucracy'
p833
sbsS'RALLYAUDIENCE'
p834
g1
(g10
g3
NtRp835
(dp836
g447
F8
sg448
S'asdf'
p837
sg450
I1
sg451
F0
sg452
F0
sg453
S'Wit'
p838
sg455
S'AllFriendly'
p839
sg457
F4
sg458
F3
sg459
(lp840
g1
(g461
g3
NtRp841
(dp842
g464
S'add'
p843
sg466
S'(INCREASE)'
p844
sg468
S'charisma'
p845
sg470
F2
sg471
F1
sg472
F4
sg473
S'Increase Charisma'
p846
sg475
S'TRUE'
p847
sbasg477
I1
sg478
F0
sg473
g834
sg479
S'Rally Audience'
p848
sbsS'PORKBARREL'
p849
g1
(g10
g3
NtRp850
(dp851
g447
F6
sg448
S'Do something that benefits them specifically. Not advised against politicians.'
p852
sg450
I1
sg451
F0
sg452
F0
sg453
S'Wit'
p853
sg455
S'AllEnemy'
p854
sg457
F2
sg458
F2
sg459
(lp855
sg477
I1
sg478
F0
sg473
g849
sg479
S'Pork Barrel'
p856
sbsS'INSPIRE'
p857
g1
(g10
g3
NtRp858
(dp859
g447
F0
sg448
S'asdf'
p860
sg450
I1
sg451
F0
sg452
F0
sg453
S'Wit'
p861
sg455
S'AllFriendly'
p862
sg457
F0
sg458
F3
sg459
(lp863
g462
asg477
I4
sg478
F0
sg473
g857
sg479
S'Inspire'
p864
sbsS'JOKE'
p865
g1
(g10
g3
NtRp866
(dp867
g447
F3
sg448
S"Ha, ha, ha...what were we talking about? Diffuse the situation with some humour. Not good if it falls flat, but if they get it, it'll knock 'em dead."
p868
sg450
F3
sg451
F30
sg452
F10
sg453
S'Wit'
p869
sg455
S'AllEnemy'
p870
sg457
F2
sg458
I0
sg459
(lp871
sg477
I1
sg478
F10
sg473
g865
sg479
S'Joke'
p872
sbsS'PRAYFORSOULS'
p873
g1
(g10
g3
NtRp874
(dp875
g447
F6
sg448
S'asdf'
p876
sg450
F2
sg451
F10
sg452
F2
sg453
S'Cunning'
p877
sg455
S'None'
p878
sg457
F3
sg458
I0
sg459
(lp879
sg477
I1
sg478
F10
sg473
g873
sg479
S'Pray'
p880
sbsS'REVIVE'
p881
g1
(g10
g3
NtRp882
(dp883
g447
F0
sg448
S'Revive a defeated comrade to half votes'
p884
sg450
I1
sg451
F0
sg452
F0
sg453
S''
sg455
S'DeadFriendly'
p885
sg457
F0
sg458
F3
sg459
(lp886
g1
(g461
g3
NtRp887
(dp888
g464
S'revive'
p889
sg466
S''
sg468
S''
sg470
F0.5
sg471
F0
sg472
F0
sg473
S'Revive'
p890
sg475
S''
sbasg477
I1
sg478
F0
sg473
g881
sg479
S'Revive'
p891
sbsS'HUMANSHIELD'
p892
g1
(g10
g3
NtRp893
(dp894
g447
F5
sg448
S'No further questions. Step back, please.'
p895
sg450
I1
sg451
F5
sg452
F2
sg453
S'Wit'
p896
sg455
S'AllEnemy'
p897
sg457
F2
sg458
F4
sg459
(lp898
g704
asg477
I2
sg478
F12
sg473
g892
sg479
S'Human Shield'
p899
sbsS'MAKEDEMANDS'
p900
g1
(g10
g3
NtRp901
(dp902
g447
F8
sg448
S'asdf'
p903
sg450
I1
sg451
F0
sg452
F0
sg453
S'Cunning'
p904
sg455
S'AllEnemy'
p905
sg457
F0
sg458
I0
sg459
(lp906
g496
asg477
I1
sg478
F0
sg473
g900
sg479
S'Make Outrageous Demands'
p907
sbsS'DEFENSE'
p908
g1
(g10
g3
NtRp909
(dp910
g447
F0
sg448
S'Gather strenth; -50% to all incoming attacks'
p911
sg450
I1
sg451
F0
sg452
F0
sg453
S''
sg455
S'None'
p912
sg457
F0
sg458
I0
sg459
(lp913
g1
(g461
g3
NtRp914
(dp915
g464
S'add'
p916
sg466
S'(DFND)'
p917
sg468
S'resistance'
p918
sg470
F0.5
sg471
F1
sg472
F1
sg473
S'Defense'
p919
sg475
S'TRUE'
p920
sbasg477
I1
sg478
F0
sg473
g908
sg479
S'Defense'
p921
sbsS'MISCONSTRUE'
p922
g1
(g10
g3
NtRp923
(dp924
g447
F8
sg448
S'asdf'
p925
sg450
I1
sg451
F0
sg452
F0
sg453
S'Cunning'
p926
sg455
S'AllEnemy'
p927
sg457
F0
sg458
I0
sg459
(lp928
g496
asg477
I1
sg478
F0
sg473
g922
sg479
S'Misconstrue'
p929
sbsS'NATIONALSECURITY'
p930
g1
(g10
g3
NtRp931
(dp932
g447
F7
sg448
S"This is a matter of national security and they don't have codeword clearance"
p933
sg450
I1
sg451
F10
sg452
F2
sg453
S'Cunning'
p934
sg455
S'AllEnemy'
p935
sg457
F2
sg458
I0
sg459
(lp936
sg477
I1
sg478
F9
sg473
g930
sg479
S'National Security'
p937
sbsS'RALLY'
p938
g1
(g10
g3
NtRp939
(dp940
g447
F-2
sg448
S'Get back some votes by rallying supporters'
p941
sg450
I1
sg451
F0
sg452
F0
sg453
S'Wit'
p942
sg455
S'AllFriendly'
p943
sg457
F-4
sg458
F2
sg459
(lp944
sg477
I1
sg478
F0
sg473
g938
sg479
S'Rally Constituents'
p945
sbsS'MESSAGE'
p946
g1
(g10
g3
NtRp947
(dp948
g447
F5
sg448
S'You can certainly wear them down by repeating your party line over and over and over...if you want'
p949
sg450
F6
sg451
F10
sg452
F2
sg453
S'Wit'
p950
sg455
S'AllEnemy'
p951
sg457
F2
sg458
I0
sg459
(lp952
sg477
I1
sg478
F8
sg473
g946
sg479
S'Stay On Message'
p953
sbsS'APPEALTOGOD'
p954
g1
(g10
g3
NtRp955
(dp956
g447
F6
sg448
S'asdf'
p957
sg450
F3
sg451
F0
sg452
F0
sg453
S'Wit'
p958
sg455
S'AllEnemy'
p959
sg457
F4
sg458
F7
sg459
(lp960
sg477
I4
sg478
F0
sg473
g954
sg479
S'Appeal To God'
p961
sbssS'levels'
p962
(lp963
g1
(g10
g3
NtRp964
(dp965
S'votes'
p966
F10
sS'level'
p967
F1
sS'spin'
p968
F5
sS'xp'
p969
F0
sS'skill_points'
p970
F0
sbag1
(g10
g3
NtRp971
(dp972
g966
F12
sg967
F2
sg968
F5
sg969
F5
sg970
F2
sbag1
(g10
g3
NtRp973
(dp974
g966
F15
sg967
F3
sg968
F6
sg969
F200
sg970
F2
sbag1
(g10
g3
NtRp975
(dp976
g966
F20
sg967
F4
sg968
F6
sg969
F500
sg970
F2
sbag1
(g10
g3
NtRp977
(dp978
g966
F25
sg967
F5
sg968
F7
sg969
F1000
sg970
F2
sbag1
(g10
g3
NtRp979
(dp980
g966
F30
sg967
F6
sg968
F7
sg969
F2000
sg970
F2
sbag1
(g10
g3
NtRp981
(dp982
g966
F35
sg967
F7
sg968
F8
sg969
F5000
sg970
F2
sbag1
(g10
g3
NtRp983
(dp984
g966
F40
sg967
F8
sg968
F8
sg969
F10000
sg970
F2
sbag1
(g10
g3
NtRp985
(dp986
g966
F45
sg967
F9
sg968
F9
sg969
F15000
sg970
F2
sbag1
(g10
g3
NtRp987
(dp988
g966
F50
sg967
F10
sg968
F9
sg969
F20000
sg970
F2
sbag1
(g10
g3
NtRp989
(dp990
g966
F55
sg967
F11
sg968
F10
sg969
F40000
sg970
F2
sbag1
(g10
g3
NtRp991
(dp992
g966
S''
sg967
F12
sg968
S''
sg969
S''
sg970
S''
sbag1
(g10
g3
NtRp993
(dp994
g966
S''
sg967
F13
sg968
S''
sg969
S''
sg970
S''
sbag1
(g10
g3
NtRp995
(dp996
g966
S''
sg967
F14
sg968
S''
sg969
S''
sg970
S''
sbag1
(g10
g3
NtRp997
(dp998
g966
S''
sg967
F15
sg968
S''
sg969
S''
sg970
S''
sbag1
(g10
g3
NtRp999
(dp1000
g966
S''
sg967
F16
sg968
S''
sg969
S''
sg970
S''
sbag1
(g10
g3
NtRp1001
(dp1002
g966
S''
sg967
F17
sg968
S''
sg969
S''
sg970
S''
sbag1
(g10
g3
NtRp1003
(dp1004
g966
S''
sg967
F18
sg968
S''
sg969
S''
sg970
S''
sbag1
(g10
g3
NtRp1005
(dp1006
g966
S''
sg967
F19
sg968
S''
sg969
S''
sg970
S''
sbag1
(g10
g3
NtRp1007
(dp1008
g966
S''
sg967
F20
sg968
S''
sg969
S''
sg970
S''
sbag1
(g10
g3
NtRp1009
(dp1010
g966
S''
sg967
F21
sg968
S''
sg969
S''
sg970
S''
sbag1
(g10
g3
NtRp1011
(dp1012
g966
S''
sg967
F22
sg968
S''
sg969
S''
sg970
S''
sbag1
(g10
g3
NtRp1013
(dp1014
g966
S''
sg967
F23
sg968
S''
sg969
S''
sg970
S''
sbag1
(g10
g3
NtRp1015
(dp1016
g966
S''
sg967
F24
sg968
S''
sg969
S''
sg970
S''
sbag1
(g10
g3
NtRp1017
(dp1018
g966
S''
sg967
F25
sg968
S''
sg969
S''
sg970
S''
sbag1
(g10
g3
NtRp1019
(dp1020
g966
S''
sg967
F26
sg968
S''
sg969
S''
sg970
S''
sbag1
(g10
g3
NtRp1021
(dp1022
g966
S''
sg967
F27
sg968
S''
sg969
S''
sg970
S''
sbag1
(g10
g3
NtRp1023
(dp1024
g966
S''
sg967
F28
sg968
S''
sg969
S''
sg970
S''
sbag1
(g10
g3
NtRp1025
(dp1026
g966
S''
sg967
F29
sg968
S''
sg969
S''
sg970
S''
sbasg459
(dp1027
g474
g462
sg569
g565
sg644
g640
sg846
g841
sg708
g704
sg657
g654
sg824
g820
sg890
g887
sg624
g619
sg671
g666
sg919
g914
sg500
g496
sg515
g510
ssS'characters'
p1028
(dp1029
S'Teacher001'
p1030
(lp1031
g1
(g10
g3
NtRp1032
(dp1033
S'flair_base'
p1034
F1
sS'spin_base'
p1035
F4
sS'flair_lvl'
p1036
F1.1499999999999999
sS'wit_base'
p1037
F1
sS'resistance'
p1038
(lp1039
sS'wit_lvl'
p1040
F1.0900000000000001
sS'cunning_base'
p1041
F1
sg473
g1030
sS'votes_base'
p1042
F10
sS'speed_lvl'
p1043
F1.0800000000000001
sS'standard_attacks'
p1044
(lp1045
g909
ag674
asS'cunning_lvl'
p1046
F1.1000000000000001
sS'charisma_lvl'
p1047
F1.1499999999999999
sS'spin_attacks'
p1048
(lp1049
g759
ag939
asS'spin_lvl'
p1050
F1.0800000000000001
sS'charisma_base'
p1051
F1
sS'weaknesses'
p1052
(lp1053
sS'attack_group'
p1054
S'Teacher'
p1055
sS'votes_lvl'
p1056
F1.2
sg479
S'Teacher'
p1057
sS'speed_base'
p1058
F1
sS'immunities'
p1059
(lp1060
sbasS'Politician001'
p1061
(lp1062
g1
(g10
g3
NtRp1063
(dp1064
g1034
F1
sg1035
F4
sg1036
F1.1499999999999999
sg1037
F1
sg1038
(lp1065
g490
asg1040
F1.0900000000000001
sg1041
F1
sg473
g1061
sg1042
F10
sg1043
F1.0800000000000001
sg1044
(lp1066
g947
ag767
ag490
ag866
ag909
asg1046
F1.1000000000000001
sg1047
F1.1499999999999999
sg1048
(lp1067
g798
ag605
ag882
asg1050
F1.0800000000000001
sg1051
F1
sg1052
(lp1068
g573
asg1054
S'Politician'
p1069
sg1056
F1.2
sg479
S'Politician'
p1070
sg1058
F1
sg1059
(lp1071
g850
asbasS'SecretAgent'
p1072
(lp1073
g1
(g10
g3
NtRp1074
(dp1075
g1034
F1
sg1035
F4
sg1036
F1.1499999999999999
sg1037
F1
sg1038
(lp1076
sg1040
F1.0900000000000001
sg1041
F1
sg473
g1072
sg1042
F18
sg1043
F1.0800000000000001
sg1044
(lp1077
g909
ag931
ag735
asg1046
F1.1000000000000001
sg1047
F1.1499999999999999
sg1048
(lp1078
g893
ag711
asg1050
F1.0800000000000001
sg1051
F1
sg1052
(lp1079
sg1054
S'SecretAgent'
p1080
sg1056
F1.2
sg479
S'Agent Kawalski'
p1081
sg1058
F1
sg1059
(lp1082
sbasS'Bumpkin001'
p1083
(lp1084
g1
(g10
g3
NtRp1085
(dp1086
g1034
F1
sg1035
F4
sg1036
F1.1499999999999999
sg1037
F1
sg1038
(lp1087
sg1040
F1.0900000000000001
sg1041
F1
sg473
g1083
sg1042
F10
sg1043
F1.0800000000000001
sg1044
(lp1088
g866
ag627
asg1046
F1.1000000000000001
sg1047
F1.1499999999999999
sg1048
(lp1089
g589
ag682
asg1050
F1.0800000000000001
sg1051
F1
sg1052
(lp1090
g490
ag767
ag806
asg1054
S'Bumpkin'
p1091
sg1056
F1.2
sg479
S'Bumpkin'
p1092
sg1058
F1
sg1059
(lp1093
sbasS'WarVet001'
p1094
(lp1095
g1
(g10
g3
NtRp1096
(dp1097
g1034
F1
sg1035
F4
sg1036
F1.1499999999999999
sg1037
F1
sg1038
(lp1098
sg1040
F1.0900000000000001
sg1041
F1
sg473
g1094
sg1042
F10
sg1043
F1.0800000000000001
sg1044
(lp1099
g901
ag909
asg1046
F1.1000000000000001
sg1047
F1.1499999999999999
sg1048
(lp1100
g858
ag939
asg1050
F1.0800000000000001
sg1051
F1
sg1052
(lp1101
sg1054
S'WarVet'
p1102
sg1056
F1.2
sg479
S'War Veteran'
p1103
sg1058
F1
sg1059
(lp1104
sbasS'Receptionist001'
p1105
(lp1106
g1
(g10
g3
NtRp1107
(dp1108
g1034
F1
sg1035
F4
sg1036
F1.1499999999999999
sg1037
F1
sg1038
(lp1109
sg1040
F1.0900000000000001
sg1041
F1
sg473
g1105
sg1042
F10
sg1043
F1.0800000000000001
sg1044
(lp1110
g827
ag775
asg1046
F1.1000000000000001
sg1047
F1.1499999999999999
sg1048
(lp1111
g783
ag559
asg1050
F1.0800000000000001
sg1051
F1
sg1052
(lp1112
sg1054
S'Receptionist'
p1113
sg1056
F1.2
sg479
S'Receptionist'
p1114
sg1058
F1
sg1059
(lp1115
sbasS'DeepThroat'
p1116
(lp1117
g1
(g10
g3
NtRp1118
(dp1119
g1034
F1
sg1035
F4
sg1036
F1.1499999999999999
sg1037
F1
sg1038
(lp1120
sg1040
F1.0900000000000001
sg1041
F1
sg473
g1116
sg1042
F10
sg1043
F1.0800000000000001
sg1044
(lp1121
g767
ag909
ag901
asg1046
F1.1000000000000001
sg1047
F1.1499999999999999
sg1048
(lp1122
g660
asg1050
F1.0800000000000001
sg1051
F1
sg1052
(lp1123
sg1054
S'DeepThroat'
p1124
sg1056
F1.2
sg479
S'Deep Throat'
p1125
sg1058
F1
sg1059
(lp1126
sbasS'Leo'
p1127
(lp1128
g1
(g10
g3
NtRp1129
(dp1130
g1034
F1
sg1035
F4
sg1036
F1.1499999999999999
sg1037
F1
sg1038
(lp1131
sg1040
F1.0900000000000001
sg1041
F1
sg473
g1127
sg1042
F14
sg1043
F1.0800000000000001
sg1044
(lp1132
g947
ag767
ag490
ag866
ag573
asg1046
F1.1000000000000001
sg1047
F1.1499999999999999
sg1048
(lp1133
g798
ag605
ag850
ag698
asg1050
F1.0800000000000001
sg1051
F1
sg1052
(lp1134
sg1054
S'Theo'
p1135
sg1056
F1.2
sg479
S'Theo'
p1136
sg1058
F1
sg1059
(lp1137
sbasS'HippyGirl001'
p1138
(lp1139
g1
(g10
g3
NtRp1140
(dp1141
g1034
F1
sg1035
F4
sg1036
F1.1499999999999999
sg1037
F1
sg1038
(lp1142
sg1040
F1.0900000000000001
sg1041
F1
sg473
g1138
sg1042
F10
sg1043
F1.0800000000000001
sg1044
(lp1143
g581
ag674
ag719
asg1046
F1.1000000000000001
sg1047
F1.1499999999999999
sg1048
(lp1144
g743
ag939
ag882
asg1050
F1.0800000000000001
sg1051
F1
sg1052
(lp1145
g866
asg1054
S'Hippy'
p1146
sg1056
F1.2
sg479
S'Hippy Girl'
p1147
sg1058
F1
sg1059
(lp1148
sbasS'President'
p1149
(lp1150
g1
(g10
g3
NtRp1151
(dp1152
g1034
F1
sg1035
F4
sg1036
F1.1499999999999999
sg1037
F1
sg1038
(lp1153
sg1040
F1.0900000000000001
sg1041
F1
sg473
g1149
sg1042
F10
sg1043
F1.0800000000000001
sg1044
(lp1154
g947
ag767
ag490
ag866
ag909
asg1046
F1.1000000000000001
sg1047
F1.1499999999999999
sg1048
(lp1155
g798
ag605
ag882
asg1050
F1.0800000000000001
sg1051
F1
sg1052
(lp1156
sg1054
S'Politician'
p1157
sg1056
F1.2
sg479
S'President Allen'
p1158
sg1058
F1
sg1059
(lp1159
sbasS'Unionist001'
p1160
(lp1161
g1
(g10
g3
NtRp1162
(dp1163
g1034
F1
sg1035
F4
sg1036
F1.1499999999999999
sg1037
F1
sg1038
(lp1164
sg1040
F1.0900000000000001
sg1041
F1
sg473
g1160
sg1042
F10
sg1043
F1.0800000000000001
sg1044
(lp1165
g901
ag909
ag674
asg1046
F1.1000000000000001
sg1047
F1.1499999999999999
sg1048
(lp1166
g759
asg1050
F1.0800000000000001
sg1051
F1
sg1052
(lp1167
sg1054
S'Unionist'
p1168
sg1056
F1.2
sg479
S'Unionist'
p1169
sg1058
F1
sg1059
(lp1170
sbasS'Wife'
p1171
(lp1172
g1
(g10
g3
NtRp1173
(dp1174
g1034
F1
sg1035
F4
sg1036
F1.1499999999999999
sg1037
F1
sg1038
(lp1175
sg1040
F1.0900000000000001
sg1041
F1
sg473
g1171
sg1042
F12
sg1043
F1.0800000000000001
sg1044
(lp1176
g909
ag947
asg1046
F1.1000000000000001
sg1047
F1.1499999999999999
sg1048
(lp1177
g939
ag882
ag613
asg1050
F1.0800000000000001
sg1051
F1
sg1052
(lp1178
sg1054
S'Wife'
p1179
sg1056
F1.2
sg479
S'Sarah Mossman'
p1180
sg1058
F1
sg1059
(lp1181
sbasS'PresidentAlien'
p1182
(lp1183
g1
(g10
g3
NtRp1184
(dp1185
g1034
F1
sg1035
F4
sg1036
F1.1499999999999999
sg1037
F1
sg1038
(lp1186
sg1040
F1.0900000000000001
sg1041
F1
sg473
g1182
sg1042
F10
sg1043
F1.0800000000000001
sg1044
(lp1187
g947
ag767
ag490
ag866
ag909
asg1046
F1.1000000000000001
sg1047
F1.1499999999999999
sg1048
(lp1188
g798
ag605
ag882
asg1050
F1.0800000000000001
sg1051
F1
sg1052
(lp1189
sg1054
S'Politician'
p1190
sg1056
F1.2
sg479
S'President Alien'
p1191
sg1058
F1
sg1059
(lp1192
sbasS'Governor'
p1193
(lp1194
g1
(g10
g3
NtRp1195
(dp1196
g1034
F1
sg1035
F4
sg1036
F1.1499999999999999
sg1037
F1
sg1038
(lp1197
sg1040
F1.0900000000000001
sg1041
F1
sg473
g1193
sg1042
F10
sg1043
F1.0800000000000001
sg1044
(lp1198
g947
ag767
ag490
ag866
ag909
asg1046
F1.1000000000000001
sg1047
F1.1499999999999999
sg1048
(lp1199
g798
ag605
ag882
asg1050
F1.0800000000000001
sg1051
F1
sg1052
(lp1200
sg1054
S'Politician'
p1201
sg1056
F1.2
sg479
g1193
sg1058
F1
sg1059
(lp1202
sbasS'Lobbyist001'
p1203
(lp1204
g1
(g10
g3
NtRp1205
(dp1206
g1034
F1
sg1035
F4
sg1036
F1.1499999999999999
sg1037
F1
sg1038
(lp1207
sg1040
F1.0900000000000001
sg1041
F1
sg473
g1203
sg1042
F10
sg1043
F1.0800000000000001
sg1044
(lp1208
g690
ag901
asg1046
F1.1000000000000001
sg1047
F1.1499999999999999
sg1048
(lp1209
g814
ag660
asg1050
F1.0800000000000001
sg1051
F1
sg1052
(lp1210
g850
asg1054
S'Lobbyist'
p1211
sg1056
F1.2
sg479
S'Lobbyist'
p1212
sg1058
F1
sg1059
(lp1213
g573
asbasS'Journalist001'
p1214
(lp1215
g1
(g10
g3
NtRp1216
(dp1217
g1034
F1
sg1035
F4
sg1036
F1.1499999999999999
sg1037
F1
sg1038
(lp1218
sg1040
F1.0900000000000001
sg1041
F1
sg473
g1214
sg1042
F10
sg1043
F1.0800000000000001
sg1044
(lp1219
g543
ag923
asg1046
F1.1000000000000001
sg1047
F1.1499999999999999
sg1048
(lp1220
g727
ag445
ag519
asg1050
F1.0800000000000001
sg1051
F1
sg1052
(lp1221
sg1054
S'Journalist'
p1222
sg1056
F1.2
sg479
S'Journalist'
p1223
sg1058
F1
sg1059
(lp1224
sbasS'ReligiousNut001'
p1225
(lp1226
g1
(g10
g3
NtRp1227
(dp1228
g1034
F1
sg1035
F4
sg1036
F1.1499999999999999
sg1037
F1
sg1038
(lp1229
sg1040
F1.0900000000000001
sg1041
F1
sg473
g1225
sg1042
F10
sg1043
F1.0800000000000001
sg1044
(lp1230
g527
ag874
ag909
asg1046
F1.1000000000000001
sg1047
F1.1499999999999999
sg1048
(lp1231
g955
ag648
asg1050
F1.0800000000000001
sg1051
F1
sg1052
(lp1232
sg1054
S'Religious'
p1233
sg1056
F1.2
sg479
S'Religious Nut'
p1234
sg1058
F1
sg1059
(lp1235
g866
asbasS'JointChief001'
p1236
(lp1237
g1
(g10
g3
NtRp1238
(dp1239
g1034
F1
sg1035
F4
sg1036
F1.1499999999999999
sg1037
F1
sg1038
(lp1240
sg1040
F1.0900000000000001
sg1041
F1
sg473
g1236
sg1042
F10
sg1043
F1.0800000000000001
sg1044
(lp1241
g901
ag909
ag931
ag597
asg1046
F1.1000000000000001
sg1047
F1.1499999999999999
sg1048
(lp1242
g711
asg1050
F1.0800000000000001
sg1051
F1
sg1052
(lp1243
sg1054
S'JointChief'
p1244
sg1056
F1.2
sg479
S'Joint Chief'
p1245
sg1058
F1
sg1059
(lp1246
sbasS'Protester001'
p1247
(lp1248
g1
(g10
g3
NtRp1249
(dp1250
g1034
F1
sg1035
F4
sg1036
F1.1499999999999999
sg1037
F1
sg1038
(lp1251
sg1040
F1.0900000000000001
sg1041
F1
sg473
g1247
sg1042
F10
sg1043
F1.0800000000000001
sg1044
(lp1252
g674
ag535
ag581
asg1046
F1.1000000000000001
sg1047
F1.1499999999999999
sg1048
(lp1253
g939
asg1050
F1.0800000000000001
sg1051
F1
sg1052
(lp1254
sg1054
S'Protestor'
p1255
sg1056
F1.2
sg479
S'Protester'
p1256
sg1058
F1
sg1059
(lp1257
sbasS'TVPersonality001'
p1258
(lp1259
g1
(g10
g3
NtRp1260
(dp1261
g1034
F1
sg1035
F4
sg1036
F1.1499999999999999
sg1037
F1
sg1038
(lp1262
sg1040
F1.0900000000000001
sg1041
F1
sg473
g1258
sg1042
F10
sg1043
F1.0800000000000001
sg1044
(lp1263
g866
ag543
asg1046
F1.1000000000000001
sg1047
F1.1499999999999999
sg1048
(lp1264
g519
ag504
asg1050
F1.0800000000000001
sg1051
F1
sg1052
(lp1265
sg1054
S'TVPersonality'
p1266
sg1056
F1.2
sg479
S"Hecules O'Grady"
p1267
sg1058
F1
sg1059
(lp1268
sbasS'Player'
p1269
(lp1270
g1
(g10
g3
NtRp1271
(dp1272
g1034
F1
sg1035
F5
sg1036
F1.1499999999999999
sg1037
F1
sg1038
(lp1273
sg1040
F1.0900000000000001
sg1041
F1
sg473
g1269
sg1042
F15
sg1043
F1.0800000000000001
sg1044
(lp1274
g947
ag490
ag866
asg1046
F1.1000000000000001
sg1047
F1.1499999999999999
sg1048
(lp1275
g798
ag605
ag939
asg1050
F1.0800000000000001
sg1051
F1
sg1052
(lp1276
sg1054
S'Player'
p1277
sg1056
F1.2
sg479
S'Phillip Mossman'
p1278
sg1058
F2
sg1059
(lp1279
sbasS'Computer'
p1280
(lp1281
g1
(g10
g3
NtRp1282
(dp1283
g1034
F1
sg1035
F4
sg1036
F1.1499999999999999
sg1037
F1
sg1038
(lp1284
sg1040
F1.0900000000000001
sg1041
F1
sg473
g1280
sg1042
F10
sg1043
F1.0800000000000001
sg1044
(lp1285
g947
ag767
ag490
ag866
ag909
asg1046
F1.1000000000000001
sg1047
F1.1499999999999999
sg1048
(lp1286
g798
ag605
ag882
asg1050
F1.0800000000000001
sg1051
F1
sg1052
(lp1287
sg1054
S'Politician'
p1288
sg1056
F1.2
sg479
S'N.O.T.B.A.D'
p1289
sg1058
F1
sg1059
(lp1290
sbasS'CabinetPolitician001'
p1291
(lp1292
g1
(g10
g3
NtRp1293
(dp1294
g1034
F1
sg1035
F4
sg1036
F1.1499999999999999
sg1037
F1
sg1038
(lp1295
sg1040
F1.0900000000000001
sg1041
F1
sg473
g1291
sg1042
F10
sg1043
F1.0800000000000001
sg1044
(lp1296
g947
ag767
ag490
ag866
ag909
asg1046
F1.1000000000000001
sg1047
F1.1499999999999999
sg1048
(lp1297
g798
ag605
ag882
asg1050
F1.0800000000000001
sg1051
F1
sg1052
(lp1298
sg1054
S'Politician'
p1299
sg1056
F1.2
sg479
S'Cabinet Politician'
p1300
sg1058
F1
sg1059
(lp1301
sbasS'Constituent001'
p1302
(lp1303
g1
(g10
g3
NtRp1304
(dp1305
g1034
F1
sg1035
F4
sg1036
F1.1499999999999999
sg1037
F1
sg1038
(lp1306
sg1040
F1.0900000000000001
sg1041
F1
sg473
g1302
sg1042
F10
sg1043
F1.0800000000000001
sg1044
(lp1307
g674
ag690
ag901
asg1046
F1.1000000000000001
sg1047
F1.1499999999999999
sg1048
(lp1308
g882
asg1050
F1.0800000000000001
sg1051
F1
sg1052
(lp1309
sg1054
S'Constituent'
p1310
sg1056
F1.2
sg479
S'Constituent'
p1311
sg1058
F1
sg1059
(lp1312
sbasS'Mayor'
p1313
(lp1314
g1
(g10
g3
NtRp1315
(dp1316
g1034
F1
sg1035
F4
sg1036
F1.1499999999999999
sg1037
F1
sg1038
(lp1317
sg1040
F1.0900000000000001
sg1041
F1
sg473
g1313
sg1042
F10
sg1043
F1.0800000000000001
sg1044
(lp1318
g947
ag767
ag490
ag866
ag909
asg1046
F1.1000000000000001
sg1047
F1.1499999999999999
sg1048
(lp1319
g798
ag605
ag882
asg1050
F1.0800000000000001
sg1051
F1
sg1052
(lp1320
sg1054
S'Politician'
p1321
sg1056
F1.2
sg479
S'Mayor Goodman'
p1322
sg1058
F1
sg1059
(lp1323
sbassS'quest_items'
p1324
(dp1325
S'PEN'
p1326
g1
(g10
g3
NtRp1327
(dp1328
g479
S'A pen'
p1329
sg473
g1326
sbsS'BILLOFRIGHTS'
p1330
g1
(g10
g3
NtRp1331
(dp1332
g479
S"Citizens' Bill of Rights"
p1333
sg473
g1330
sbssg1044
(dp1334
S'Theo'
p1335
(lp1336
g947
ag767
ag490
ag866
ag573
ag798
ag605
ag850
ag698
asS'JointChief'
p1337
(lp1338
g901
ag909
ag931
ag711
ag597
asS'Politician'
p1339
(lp1340
g947
ag767
ag490
ag866
ag798
ag605
ag882
ag909
asS'Bumpkin'
p1341
(lp1342
g866
ag589
ag682
ag627
asS'TVPersonality'
p1343
(lp1344
g866
ag519
ag543
ag504
asS'SecretAgent'
p1345
(lp1346
g909
ag893
ag931
ag711
ag735
asS'DeepThroat'
p1347
(lp1348
g767
ag909
ag660
ag901
asS'Protestor'
p1349
(lp1350
g939
ag674
ag535
ag581
asS'Lobbyist'
p1351
(lp1352
g690
ag814
ag660
ag901
asS'Teacher'
p1353
(lp1354
g759
ag909
ag674
ag939
asS'Player'
p1355
(lp1356
g947
ag490
ag866
ag798
ag605
ag939
asS'Computer'
p1357
(lp1358
g711
ag931
ag551
ag660
ag901
ag767
asS'Receptionist'
p1359
(lp1360
g827
ag775
ag783
ag559
asS'Hippy'
p1361
(lp1362
g581
ag674
ag719
ag743
ag939
ag882
asS'Constituent'
p1363
(lp1364
g674
ag882
ag690
ag901
asS'Wife'
p1365
(lp1366
g939
ag882
ag909
ag947
ag613
asS'WarVet'
p1367
(lp1368
g901
ag909
ag858
ag939
asS'Religious'
p1369
(lp1370
g527
ag955
ag648
ag874
ag909
asS'Unionist'
p1371
(lp1372
g901
ag909
ag674
ag759
asS'Journalist'
p1373
(lp1374
g543
ag923
ag727
ag445
ag519
assS'encounters'
p1375
(dp1376
S'P-easy-05'
p1377
g1
(g10
g3
NtRp1378
(dp1379
S'item_attack_drops'
p1380
(lp1381
sS'item_attacks'
p1382
(lp1383
sg969
F10
sS'monster2_lvl'
p1384
S''
sS'monster3'
p1385
S''
sS'monster1_lvl'
p1386
F1
sS'monster3_lvl'
p1387
S''
sS'monster4_lvl'
p1388
S''
sS'monster4'
p1389
S''
sS'monster2'
p1390
S''
sg473
g1377
sS'monster1'
p1391
S'Journalist001'
p1392
sbsS'P-easy-04'
p1393
g1
(g10
g3
NtRp1394
(dp1395
g1380
(lp1396
sg1382
(lp1397
sg969
F10
sg1384
F1
sg1385
S'Protester001'
p1398
sg1386
F1
sg1387
F1
sg1388
S''
sg1389
S''
sg1390
S'Protester001'
p1399
sg473
g1393
sg1391
S'Protester001'
p1400
sbsS'P-easy-06'
p1401
g1
(g10
g3
NtRp1402
(dp1403
g1380
(lp1404
sg1382
(lp1405
sg969
F10
sg1384
F1
sg1385
S''
sg1386
F1
sg1387
S''
sg1388
S''
sg1389
S''
sg1390
S'Lobbyist001'
p1406
sg473
g1401
sg1391
S'Lobbyist001'
p1407
sbsS'P-easy-01'
p1408
g1
(g10
g3
NtRp1409
(dp1410
g1380
(lp1411
g1
(c__main__
ItemAttack
p1412
g3
NtRp1413
(dp1414
S'attack'
p1415
g482
sS'quantity'
p1416
I1
sbasg1382
(lp1417
g1
(g1412
g3
NtRp1418
(dp1419
g1415
g751
sg1416
I1
sbasg969
F10
sg1384
S''
sg1385
S''
sg1386
F1
sg1387
S''
sg1388
S''
sg1389
S''
sg1390
S''
sg473
g1408
sg1391
S'Receptionist001'
p1420
sbsS'P-easy-03'
p1421
g1
(g10
g3
NtRp1422
(dp1423
g1380
(lp1424
sg1382
(lp1425
sg969
F10
sg1384
F1
sg1385
S''
sg1386
F1
sg1387
S''
sg1388
S''
sg1389
S''
sg1390
S'Protester001'
p1426
sg473
g1421
sg1391
S'Protester001'
p1427
sbsS'P-easy-02'
p1428
g1
(g10
g3
NtRp1429
(dp1430
g1380
(lp1431
sg1382
(lp1432
sg969
F10
sg1384
F1
sg1385
S''
sg1386
F1
sg1387
S''
sg1388
S''
sg1389
S''
sg1390
S'Protester001'
p1433
sg473
g1428
sg1391
S'Protester001'
p1434
sbssb.