ccopy_reg
_reconstructor
p1
(c__main__
GameData
p2
c__builtin__
object
p3
NtRp4
(dp5
S'script'
p6
(dp7
S'StairsToWhiteHouse'
p8
(lp9
g1
(c__main__
TableRow
p10
g3
NtRp11
(dp12
S'action'
p13
S'Label'
p14
sS'trigger'
p15
g8
sS'param'
p16
S'START'
p17
sS'dialog'
p18
S''
sbag1
(g10
g3
NtRp19
(dp20
g13
S'PlayerSay'
p21
sg15
S'StairsToWhiteHouse'
p22
sg16
S''
sg18
S"I can't go upstairs now, I have a job to do!"
p23
sbag1
(g10
g3
NtRp24
(dp25
g13
S'Jump'
p26
sg15
S'StairsToWhiteHouse'
p27
sg16
S'START'
p28
sg18
S''
sbasS'#----------------------------------------------------------------------------------------ACT 3 ----------------------------------------------------------------------------------------------------------------------------------------------------------------------------------------'
p29
(lp30
g1
(g10
g3
NtRp31
(dp32
g13
S''
sg15
g29
sg16
S''
sg18
S''
sbasS'Hick1'
p33
(lp34
g1
(g10
g3
NtRp35
(dp36
g13
S'RequireFlag'
p37
sg15
g33
sg16
S'STARTHICKS'
p38
sg18
S"Look at this guy's fancy tie!"
p39
sbag1
(g10
g3
NtRp40
(dp41
g13
S'PlayerSay'
p42
sg15
S'Hick1'
p43
sg16
S''
sg18
S'What brings you to the office of the governor?'
p44
sbag1
(g10
g3
NtRp45
(dp46
g13
S'Say'
p47
sg15
S'Hick1'
p48
sg16
S''
sg18
S'The immigrants!'
p49
sbag1
(g10
g3
NtRp50
(dp51
g13
S'PlayerSay'
p52
sg15
S'Hick1'
p53
sg16
S''
sg18
S'What happened?'
p54
sbag1
(g10
g3
NtRp55
(dp56
g13
S'Say'
p57
sg15
S'Hick1'
p58
sg16
S'Hick2'
p59
sg18
S"They're coming!"
p60
sbag1
(g10
g3
NtRp61
(dp62
g13
S'PlayerSay'
p63
sg15
S'Hick1'
p64
sg16
S''
sg18
S'The...immigrants are coming?'
p65
sbag1
(g10
g3
NtRp66
(dp67
g13
S'Say'
p68
sg15
S'Hick1'
p69
sg16
S'Hick2'
p70
sg18
S'Yes, to steal our jobs and our wives!'
p71
sbag1
(g10
g3
NtRp72
(dp73
g13
S'Say'
p74
sg15
S'Hick1'
p75
sg16
S''
sg18
S'They have to be stopped!'
p76
sbag1
(g10
g3
NtRp77
(dp78
g13
S'PlayerSay'
p79
sg15
S'Hick1'
p80
sg16
S''
sg18
S"I don't think the immigrants are coming to steal your wives..."
p81
sbag1
(g10
g3
NtRp82
(dp83
g13
S'Say'
p84
sg15
S'Hick1'
p85
sg16
S'Journalist2'
p86
sg18
S'Mayor Mossman sides with the immigrants! I need to get this to print!'
p87
sbag1
(g10
g3
NtRp88
(dp89
g13
S'PlayerSay'
p90
sg15
S'Hick1'
p91
sg16
S''
sg18
S'Wait a second, let me explain.'
p92
sbag1
(g10
g3
NtRp93
(dp94
g13
S'Encounter'
p95
sg15
S'Hick1'
p96
sg16
S'P-med-03'
p97
sg18
S''
sbag1
(g10
g3
NtRp98
(dp99
g13
S'Say'
p100
sg15
S'Hick1'
p101
sg16
S''
sg18
S"You're a smart guy. I think I can trust you."
p102
sbag1
(g10
g3
NtRp103
(dp104
g13
S'SetFlag'
p105
sg15
S'Hick1'
p106
sg16
S'STARTHICKS2'
p107
sg18
S''
sbag1
(g10
g3
NtRp108
(dp109
g13
S'Increment'
p110
sg15
S'Hick1'
p111
sg16
S'DEALWITHHICKS'
p112
sg18
S''
sbag1
(g10
g3
NtRp113
(dp114
g13
S'Destroy'
p115
sg15
S'Hick1'
p116
sg16
S''
sg18
S''
sbasS'Hick2'
p117
(lp118
g1
(g10
g3
NtRp119
(dp120
g13
S'RequireFlag'
p121
sg15
g117
sg16
S'STARTHICKS2'
p122
sg18
S"Aw....I'm shy...talk to my buddy..."
p123
sbag1
(g10
g3
NtRp124
(dp125
g13
S'Encounter'
p126
sg15
S'Hick2'
p127
sg16
S'P-med-04'
p128
sg18
S''
sbag1
(g10
g3
NtRp129
(dp130
g13
S'Say'
p131
sg15
S'Hick2'
p132
sg16
S''
sg18
S"Wowee. We've been waiting for days and the governor has ignored us. If you ever run for governor, you'll have my vote!"
p133
sbag1
(g10
g3
NtRp134
(dp135
g13
S'Increment'
p136
sg15
S'Hick2'
p137
sg16
S'DEALWITHHICKS'
p138
sg18
S''
sbag1
(g10
g3
NtRp139
(dp140
g13
S'Destroy'
p141
sg15
S'Hick2'
p142
sg16
S''
sg18
S''
sbasS'Cabinet1'
p143
(lp144
g1
(g10
g3
NtRp145
(dp146
g13
S'Say'
p147
sg15
g143
sg16
S''
sg18
S'Good afternoon, Mr President. How can I help?'
p148
sbag1
(g10
g3
NtRp149
(dp150
g13
S'PlayerSay'
p151
sg15
S'Cabinet1'
p152
sg16
S''
sg18
S'I want to know where the orders to mobilise the military and reallocate education funds came from.'
p153
sbag1
(g10
g3
NtRp154
(dp155
g13
S'Say'
p156
sg15
S'Cabinet1'
p157
sg16
S''
sg18
S'But...it came from you, sir. They were both faxed over to me this afternoon.'
p158
sbag1
(g10
g3
NtRp159
(dp160
g13
S'PlayerSay'
p161
sg15
S'Cabinet1'
p162
sg16
S''
sg18
S'Tell me every detail.'
p163
sbag1
(g10
g3
NtRp164
(dp165
g13
S'Encounter'
p166
sg15
S'Cabinet1'
p167
sg16
S'P-hard-08'
p168
sg18
S''
sbag1
(g10
g3
NtRp169
(dp170
g13
S'Increment'
p171
sg15
S'Cabinet1'
p172
sg16
S'CABINETMEMBERS'
p173
sg18
S''
sbag1
(g10
g3
NtRp174
(dp175
g13
S'Say'
p176
sg15
S'Cabinet1'
p177
sg16
S''
sg18
S'I cannot understand how this could happen.'
p178
sbag1
(g10
g3
NtRp179
(dp180
g13
S'Destroy'
p181
sg15
S'Cabinet1'
p182
sg16
S''
sg18
S''
sbasS'Politician7'
p183
(lp184
g1
(g10
g3
NtRp185
(dp186
g13
S'RequireFlag'
p187
sg15
g183
sg16
S'STARTPOLITICIANSHAKEDOWN'
p188
sg18
S'Good morning, Governor Mossman. Your PA will know your schedule. He is waiting beside the stairs'
p189
sbag1
(g10
g3
NtRp190
(dp191
g13
S'LearnAttack'
p192
sg15
S'Politician7'
p193
sg16
S'BIELECTION'
p194
sg18
S''
sbag1
(g10
g3
NtRp195
(dp196
g13
S'Say'
p197
sg15
S'Politician7'
p198
sg16
S''
sg18
S"I believe in captialism. Let business sort itself out. They shouldn't need to rely on government handouts."
p199
sbag1
(g10
g3
NtRp200
(dp201
g13
S'Say'
p202
sg15
S'Politician7'
p203
sg16
S''
sg18
S'Also, I think politicians need a raise. Some more than others...oh and life-long retainers.'
p204
sbag1
(g10
g3
NtRp205
(dp206
g13
S'PlayerSay'
p207
sg15
S'Politician7'
p208
sg16
S''
sg18
S'So, no more hand-outs for business but more handouts for politicians?'
p209
sbag1
(g10
g3
NtRp210
(dp211
g13
S'Say'
p212
sg15
S'Politician7'
p213
sg16
S''
sg18
S'Yes!'
p214
sbag1
(g10
g3
NtRp215
(dp216
g13
S'PlayerSay'
p217
sg15
S'Politician7'
p218
sg16
S''
sg18
S'Does that serve your constituents?'
p219
sbag1
(g10
g3
NtRp220
(dp221
g13
S'Say'
p222
sg15
S'Politician7'
p223
sg16
S''
sg18
S'...It serves...some...'
p224
sbag1
(g10
g3
NtRp225
(dp226
g13
S'Encounter'
p227
sg15
S'Politician7'
p228
sg16
S'P-med-11'
p229
sg18
S''
sbag1
(g10
g3
NtRp230
(dp231
g13
S'Say'
p232
sg15
S'Politician7'
p233
sg16
S''
sg18
S'Right, I guess we need to handle the needs of our constituents, too.'
p234
sbag1
(g10
g3
NtRp235
(dp236
g13
S'Increment'
p237
sg15
S'Politician7'
p238
sg16
S'POLITICIANSHAKEDOWN'
p239
sg18
S''
sbag1
(g10
g3
NtRp240
(dp241
g13
S'Destroy'
p242
sg15
S'Politician7'
p243
sg16
S''
sg18
S''
sbasS'TVDebate'
p244
(lp245
g1
(g10
g3
NtRp246
(dp247
g13
S'RequireFlag'
p248
sg15
g244
sg16
S'STARTDEBATE'
p249
sg18
S"Hmmm? Oh, sorry, I'm on the phone to the studio."
p250
sbag1
(g10
g3
NtRp251
(dp252
g13
S'Say'
p253
sg15
S'TVDebate'
p254
sg16
S''
sg18
S"Good evening, Governor Mossman. If you'll follow me, I'll take you to the studio."
p255
sbag1
(g10
g3
NtRp256
(dp257
g13
S'Encounter'
p258
sg15
S'TVDebate'
p259
sg16
S'P-med-21'
p260
sg18
S''
sbag1
(g10
g3
NtRp261
(dp262
g13
S'Say'
p263
sg15
S'TVDebate'
p264
sg16
S''
sg18
S'Great work tonight, Governor Mossman and congratulations on the win!'
p265
sbag1
(g10
g3
NtRp266
(dp267
g13
S'SetFlag'
p268
sg15
S'TVDebate'
p269
sg16
S'DEBATECOMPLETE'
p270
sg18
S''
sbag1
(g10
g3
NtRp271
(dp272
g13
S'Destroy'
p273
sg15
S'TVDebate'
p274
sg16
S''
sg18
S''
sbasS'Lobbyist2'
p275
(lp276
g1
(g10
g3
NtRp277
(dp278
g13
S'RequireFlag'
p279
sg15
g275
sg16
S'STARTLOBBYISTS'
p280
sg18
S'Humph'
p281
sbag1
(g10
g3
NtRp282
(dp283
g13
S'Say'
p284
sg15
S'Lobbyist2'
p285
sg16
S''
sg18
S'I represent the Python Software Foundation. What will you do to promote, protect and advance the Python programming language?'
p286
sbag1
(g10
g3
NtRp287
(dp288
g13
S'PlayerSay'
p289
sg15
S'Lobbyist2'
p290
sg16
S''
sg18
S"Ah yes, the Python cause! I'm a big advocate of Python."
p291
sbag1
(g10
g3
NtRp292
(dp293
g13
S'Encounter'
p294
sg15
S'Lobbyist2'
p295
sg16
S'P-med-12'
p296
sg18
S''
sbag1
(g10
g3
NtRp297
(dp298
g13
S'Increment'
p299
sg15
S'Lobbyist2'
p300
sg16
S'LOBBYISTS'
p301
sg18
S''
sbag1
(g10
g3
NtRp302
(dp303
g13
S'Say'
p304
sg15
S'Lobbyist2'
p305
sg16
S''
sg18
S'I think we can help each other out.'
p306
sbag1
(g10
g3
NtRp307
(dp308
g13
S'Destroy'
p309
sg15
S'Lobbyist2'
p310
sg16
S''
sg18
S''
sbasS'CheatAct2'
p311
(lp312
g1
(g10
g3
NtRp313
(dp314
g13
S'AddAlly'
p315
sg15
g311
sg16
S'Wife:3'
p316
sg18
S''
sbag1
(g10
g3
NtRp317
(dp318
g13
S'LearnAttack'
p319
sg15
S'CheatAct2'
p320
sg16
S'BRIBE'
p321
sg18
S''
sbag1
(g10
g3
NtRp322
(dp323
g13
S'LearnAttack'
p324
sg15
S'CheatAct2'
p325
sg16
S'Wife:BRIBE'
p326
sg18
S''
sbag1
(g10
g3
NtRp327
(dp328
g13
S'LearnAttack'
p329
sg15
S'CheatAct2'
p330
sg16
S'SLANDER'
p331
sg18
S''
sbag1
(g10
g3
NtRp332
(dp333
g13
S'CheatXP'
p334
sg15
S'CheatAct2'
p335
sg16
S'Player:200'
p336
sg18
S''
sbag1
(g10
g3
NtRp337
(dp338
g13
S'CheatCunning'
p339
sg15
S'CheatAct2'
p340
sg16
S'Player:3'
p341
sg18
S''
sbag1
(g10
g3
NtRp342
(dp343
g13
S'CheatCharisma'
p344
sg15
S'CheatAct2'
p345
sg16
S'Player:3'
p346
sg18
S''
sbag1
(g10
g3
NtRp347
(dp348
g13
S'CheatCunning'
p349
sg15
S'CheatAct2'
p350
sg16
S'Wife:1'
p351
sg18
S''
sbag1
(g10
g3
NtRp352
(dp353
g13
S'CheatCharisma'
p354
sg15
S'CheatAct2'
p355
sg16
S'Wife:1'
p356
sg18
S''
sbag1
(g10
g3
NtRp357
(dp358
g13
S'GiveMoney'
p359
sg15
S'CheatAct2'
p360
sg16
F200
sg18
S''
sbag1
(g10
g3
NtRp361
(dp362
g13
S'GotoMap'
p363
sg15
S'CheatAct2'
p364
sg16
S'act2'
p365
sg18
S''
sbasS'CheatAct3'
p366
(lp367
g1
(g10
g3
NtRp368
(dp369
g13
S'AddAlly'
p370
sg15
g366
sg16
S'Wife:1'
p371
sg18
S''
sbag1
(g10
g3
NtRp372
(dp373
g13
S'LearnAttack'
p374
sg15
S'CheatAct3'
p375
sg16
S'BRIBE'
p376
sg18
S''
sbag1
(g10
g3
NtRp377
(dp378
g13
S'LearnAttack'
p379
sg15
S'CheatAct3'
p380
sg16
S'Wife:BRIBE'
p381
sg18
S''
sbag1
(g10
g3
NtRp382
(dp383
g13
S'LearnAttack'
p384
sg15
S'CheatAct3'
p385
sg16
S'SLANDER'
p386
sg18
S''
sbag1
(g10
g3
NtRp387
(dp388
g13
S'AddAlly'
p389
sg15
S'CheatAct3'
p390
sg16
S'Leo:1'
p391
sg18
S''
sbag1
(g10
g3
NtRp392
(dp393
g13
S'GotoMap'
p394
sg15
S'CheatAct3'
p395
sg16
S'act3'
p396
sg18
S''
sbasS'StairsToL1'
p397
(lp398
g1
(g10
g3
NtRp399
(dp400
g13
S'Label'
p401
sg15
g397
sg16
S'START'
p402
sg18
S''
sbag1
(g10
g3
NtRp403
(dp404
g13
S'GotoMap'
p405
sg15
S'StairsToL1'
p406
sg16
S'hotel_l1'
p407
sg18
S''
sbag1
(g10
g3
NtRp408
(dp409
g13
S'Jump'
p410
sg15
S'StairsToL1'
p411
sg16
S'START'
p412
sg18
S''
sbasS'DoorToCabinetRoom'
p413
(lp414
g1
(g10
g3
NtRp415
(dp416
g13
S'RequireItemPlayerSay'
p417
sg15
g413
sg16
S'CABINETROOMKEY'
p418
sg18
S'The door appears to be locked, and no amount of gesticulating can attract the attention of the inhabitants of this room.'
p419
sbag1
(g10
g3
NtRp420
(dp421
g13
S'Destroy'
p422
sg15
S'DoorToCabinetRoom'
p423
sg16
S''
sg18
S''
sbag1
(g10
g3
NtRp424
(dp425
g13
S'Message'
p426
sg15
S'DoorToCabinetRoom'
p427
sg16
S''
sg18
S'The door opens with a squeak.'
p428
sbasS'WarVet1'
p429
(lp430
g1
(g10
g3
NtRp431
(dp432
g13
S'Say'
p433
sg15
g429
sg16
S''
sg18
S"You think you can fool me? I wasn't born yesterday, you know."
p434
sbag1
(g10
g3
NtRp435
(dp436
g13
S'PlayerSay'
p437
sg15
S'WarVet1'
p438
sg16
S''
sg18
S"I'm sorry, sir, but what seems to be the problem."
p439
sbag1
(g10
g3
NtRp440
(dp441
g13
S'Say'
p442
sg15
S'WarVet1'
p443
sg16
S''
sg18
S"You think I don't know a mobilising army when I see one? You're clearly readying for war and you think you don't even need to mention it to the people."
p444
sbag1
(g10
g3
NtRp445
(dp446
g13
S'Say'
p447
sg15
S'WarVet1'
p448
sg16
S'WarVet2'
p449
sg18
S"And don't forget that he's barely a cadet, Wilfred."
p450
sbag1
(g10
g3
NtRp451
(dp452
g13
S'Say'
p453
sg15
S'WarVet1'
p454
sg16
S''
sg18
S"Right you are, Arnold, You've barely set foot in this building and you're already leading us to war. Who do you think you're dealing with? We won't stand."
p455
sbag1
(g10
g3
NtRp456
(dp457
g13
S'Encounter'
p458
sg15
S'WarVet1'
p459
sg16
S'P-hard-04'
p460
sg18
S''
sbag1
(g10
g3
NtRp461
(dp462
g13
S'Say'
p463
sg15
S'WarVet1'
p464
sg16
S''
sg18
S"Seems like a flimsy excuse, you didn't know. Better get your troops in line if you want 'em to march, boy."
p465
sbag1
(g10
g3
NtRp466
(dp467
g13
S'Increment'
p468
sg15
S'WarVet1'
p469
sg16
S'WARVETS'
p470
sg18
S''
sbag1
(g10
g3
NtRp471
(dp472
g13
S'SetFlag'
p473
sg15
S'WarVet1'
p474
sg16
S'AFTERWILFRED'
p475
sg18
S''
sbag1
(g10
g3
NtRp476
(dp477
g13
S'Destroy'
p478
sg15
S'WarVet1'
p479
sg16
S''
sg18
S''
sbasS'Teacher2'
p480
(lp481
g1
(g10
g3
NtRp482
(dp483
g13
S'Say'
p484
sg15
g480
sg16
S''
sg18
S"You cannot gamble with the future, Mr President. Childrens' education is at stake!"
p485
sbag1
(g10
g3
NtRp486
(dp487
g13
S'PlayerSay'
p488
sg15
S'Teacher2'
p489
sg16
S''
sg18
S"I can assure you this isn't so..."
p490
sbag1
(g10
g3
NtRp491
(dp492
g13
S'Encounter'
p493
sg15
S'Teacher2'
p494
sg16
S'P-hard-07'
p495
sg18
S''
sbag1
(g10
g3
NtRp496
(dp497
g13
S'Say'
p498
sg15
S'Teacher2'
p499
sg16
S''
sg18
S'We will await a change from your government.'
p500
sbag1
(g10
g3
NtRp501
(dp502
g13
S'Increment'
p503
sg15
S'Teacher2'
p504
sg16
S'TEACHERS'
p505
sg18
S''
sbag1
(g10
g3
NtRp506
(dp507
g13
S'Destroy'
p508
sg15
S'Teacher2'
p509
sg16
S''
sg18
S''
sbasS'StairsToWhiteHouseBasement'
p510
(lp511
g1
(g10
g3
NtRp512
(dp513
g13
S'GotoMap'
p514
sg15
g510
sg16
S'act3_basement'
p515
sg18
S''
sbasS'Kawalski'
p516
(lp517
g1
(g10
g3
NtRp518
(dp519
g13
S'RequireFlag'
p520
sg15
g516
sg16
S'ACCESSKAWALSKI'
p521
sg18
S"I'm not allowed to speak to you, sir."
p522
sbag1
(g10
g3
NtRp523
(dp524
g13
S'Say'
p525
sg15
S'Kawalski'
p526
sg16
S''
sg18
S'A pleasure to meet you, President Mossman. I am Agent Kawalski, your security detail.'
p527
sbag1
(g10
g3
NtRp528
(dp529
g13
S'PlayerSay'
p530
sg15
S'Kawalski'
p531
sg16
S''
sg18
S'Great to meet you, Agent Kawalski. What do I need to know?'
p532
sbag1
(g10
g3
NtRp533
(dp534
g13
S'Say'
p535
sg15
S'Kawalski'
p536
sg16
S''
sg18
S'Well actually, it does have to do with your security. Something terrible is happening at the White House.'
p537
sbag1
(g10
g3
NtRp538
(dp539
g13
S'PlayerSay'
p540
sg15
S'Kawalski'
p541
sg16
S''
sg18
S"If you're trying to warn me about the aliens, it's under control."
p542
sbag1
(g10
g3
NtRp543
(dp544
g13
S'Say'
p545
sg15
S'Kawalski'
p546
sg16
S''
sg18
S'No, no, this is different. I think somebody is trying to take over the White House.'
p547
sbag1
(g10
g3
NtRp548
(dp549
g13
S'PlayerSay'
p550
sg15
S'Kawalski'
p551
sg16
S''
sg18
S"Wouldn't we know?"
p552
sbag1
(g10
g3
NtRp553
(dp554
g13
S'Say'
p555
sg15
S'Kawalski'
p556
sg16
S''
sg18
S"It's too early for those kind of details. I just want you to keep your eyes open, Mr President."
p557
sbag1
(g10
g3
NtRp558
(dp559
g13
S'PlayerSay'
p560
sg15
S'Kawalski'
p561
sg16
S''
sg18
S'No problem.'
p562
sbag1
(g10
g3
NtRp563
(dp564
g13
S'Destroy'
p565
sg15
S'Kawalski'
p566
sg16
S''
sg18
S''
sbag1
(g10
g3
NtRp567
(dp568
g13
S'AddAlly'
p569
sg15
S'Kawalski'
p570
sg16
S'SecretAgent:1'
p571
sg18
S'Kawalski joins your political party!'
p572
sbag1
(g10
g3
NtRp573
(dp574
g13
S'SetFlag'
p575
sg15
S'Kawalski'
p576
sg16
S'KAWALSKIJOIN'
p577
sg18
S''
sbasS'DeepThroat'
p578
(lp579
g1
(g10
g3
NtRp580
(dp581
g13
S'Say'
p582
sg15
g578
sg16
S''
sg18
S'Finally, I thought you were going to be too late.'
p583
sbag1
(g10
g3
NtRp584
(dp585
g13
S'PlayerSay'
p586
sg15
S'DeepThroat'
p587
sg16
S''
sg18
S'What can I do for you Mr er...?'
p588
sbag1
(g10
g3
NtRp589
(dp590
g13
S'Say'
p591
sg15
S'DeepThroat'
p592
sg16
S''
sg18
S"No names! I have something I think you'll be interested in, but I'm not sure you can be trusted."
p593
sbag1
(g10
g3
NtRp594
(dp595
g13
S'PlayerSay'
p596
sg15
S'DeepThroat'
p597
sg16
S''
sg18
S"Look, Mr Er...I'm very busy, what is this about?"
p598
sbag1
(g10
g3
NtRp599
(dp600
g13
S'Say'
p601
sg15
S'DeepThroat'
p602
sg16
S''
sg18
S"It's about the President, it's about national security, but I've got a bad feeling and I'm getting out of here."
p603
sbag1
(g10
g3
NtRp604
(dp605
g13
S'PlayerSay'
p606
sg15
S'DeepThroat'
p607
sg16
S''
sg18
S'No, wait!'
p608
sbag1
(g10
g3
NtRp609
(dp610
g13
S'Encounter'
p611
sg15
S'DeepThroat'
p612
sg16
S'P-med-19'
p613
sg18
S''
sbag1
(g10
g3
NtRp614
(dp615
g13
S'Say'
p616
sg15
S'DeepThroat'
p617
sg16
S''
sg18
S"You're right, I have every reason to trust you. I've found this Incriminating Evidence."
p618
sbag1
(g10
g3
NtRp619
(dp620
g13
S'GiveItem'
p621
sg15
S'DeepThroat'
p622
sg16
S'INCRIMINATINGEVIDENCE'
p623
sg18
S'You receive Incriminating Evidence'
p624
sbag1
(g10
g3
NtRp625
(dp626
g13
S'PlayerSay'
p627
sg15
S'DeepThroat'
p628
sg16
S''
sg18
S'This has to be stopped!'
p629
sbag1
(g10
g3
NtRp630
(dp631
g13
S'Say'
p632
sg15
S'DeepThroat'
p633
sg16
S''
sg18
S"Yes, but not by me. I've given you all I've got, now get out."
p634
sbag1
(g10
g3
NtRp635
(dp636
g13
S'RequireFlag'
p637
sg15
S'DeepThroat'
p638
sg16
S'DEEPTHROAT2'
p639
sg18
S'I said get out!'
p640
sbag1
(g10
g3
NtRp641
(dp642
g13
S'Say'
p643
sg15
S'DeepThroat'
p644
sg16
S''
sg18
S"It's a lot worse than I thought. I have more to tell you, but I don't think I should trust you. I think there's a leak in your operation somewhere."
p645
sbag1
(g10
g3
NtRp646
(dp647
g13
S'PlayerSay'
p648
sg15
S'DeepThroat'
p649
sg16
S''
sg18
S'Why do you say that?'
p650
sbag1
(g10
g3
NtRp651
(dp652
g13
S'Say'
p653
sg15
S'DeepThroat'
p654
sg16
S''
sg18
S'There was a lot of heat on me after we last spoke.'
p655
sbag1
(g10
g3
NtRp656
(dp657
g13
S'PlayerSay'
p658
sg15
S'DeepThroat'
p659
sg16
S''
sg18
S"It's getting close to the final election. It could just be that they're getting skittish."
p660
sbag1
(g10
g3
NtRp661
(dp662
g13
S'Say'
p663
sg15
S'DeepThroat'
p664
sg16
S''
sg18
S"I'm not so sure..."
p665
sbag1
(g10
g3
NtRp666
(dp667
g13
S'Encounter'
p668
sg15
S'DeepThroat'
p669
sg16
S'P-med-22'
p670
sg18
S''
sbag1
(g10
g3
NtRp671
(dp672
g13
S'Say'
p673
sg15
S'DeepThroat'
p674
sg16
S''
sg18
S"You're right, I'm just edgy. Look, I think you should be careful. I think the President is planning to KILL you in the final debate... politically."
p675
sbag1
(g10
g3
NtRp676
(dp677
g13
S'PlayerSay'
p678
sg15
S'DeepThroat'
p679
sg16
S''
sg18
S'You think he wants to silence me forever.... On the political stage?'
p680
sbag1
(g10
g3
NtRp681
(dp682
g13
S'Say'
p683
sg15
S'DeepThroat'
p684
sg16
S''
sg18
S'Yes I do. This could get really messy... politically speaking. So be careful!'
p685
sbag1
(g10
g3
NtRp686
(dp687
g13
S'SetFlag'
p688
sg15
S'DeepThroat'
p689
sg16
S'FINISHEDDEEPTHROAT'
p690
sg18
S''
sbag1
(g10
g3
NtRp691
(dp692
g13
S'Destroy'
p693
sg15
S'DeepThroat'
p694
sg16
S''
sg18
S''
sbasS'act3'
p695
(lp696
g1
(g10
g3
NtRp697
(dp698
g13
S'Message'
p699
sg15
g695
sg16
S''
sg18
S'The White House'
p700
sbasS'Theo'
p701
(lp702
g1
(g10
g3
NtRp703
(dp704
g13
S'RequireFlag'
p705
sg15
g701
sg16
S'GOVERNORDEFEATED'
p706
sg18
S'The Governor is in the north wing.'
p707
sbag1
(g10
g3
NtRp708
(dp709
g13
S'Say'
p710
sg15
S'Theo'
p711
sg16
S''
sg18
S"You must be Governor Mossman. I am Theo. I've been looking for you, but I wanted to see how you handled Governor Badden"
p712
sbag1
(g10
g3
NtRp713
(dp714
g13
S'PlayerSay'
p715
sg15
S'Theo'
p716
sg16
S''
sg18
S'Hi Theo. Why have you been looking for me?'
p717
sbag1
(g10
g3
NtRp718
(dp719
g13
S'Say'
p720
sg15
S'Theo'
p721
sg16
S''
sg18
S"There's a lot going on in Ignited States politics and none of it is good. Somebody needs to get up there and find out what's going on."
p722
sbag1
(g10
g3
NtRp723
(dp724
g13
S'Say'
p725
sg15
S'Theo'
p726
sg16
S''
sg18
S"I couldn't be sure which side you were on, but your dealings with the Governor prove that you're not with them."
p727
sbag1
(g10
g3
NtRp728
(dp729
g13
S'PlayerSay'
p730
sg15
S'Theo'
p731
sg16
S''
sg18
S'It sounds like it goes all the way to the President of the Ignited States.'
p732
sbag1
(g10
g3
NtRp733
(dp734
g13
S'Say'
p735
sg15
S'Theo'
p736
sg16
S''
sg18
S"It does. That's why I've been looking for you. The only way to find out is to flush them out. There's only one way to flush out President Allen."
p737
sbag1
(g10
g3
NtRp738
(dp739
g13
S'PlayerSay'
p740
sg15
S'Theo'
p741
sg16
S''
sg18
S"How's that?"
p742
sbag1
(g10
g3
NtRp743
(dp744
g13
S'Say'
p745
sg15
S'Theo'
p746
sg16
S''
sg18
S"...I've been a campaign manager for 20 years and I've never seen a candidate as strong as you. I think you have what it takes to run for the presidency."
p747
sbag1
(g10
g3
NtRp748
(dp749
g13
S'Say'
p750
sg15
S'Theo'
p751
sg16
S''
sg18
S"That's why I was looking for you. I need somebody who has a shot at winning in order to get to President Allen. You have that shot."
p752
sbag1
(g10
g3
NtRp753
(dp754
g13
S'PlayerSay'
p755
sg15
S'Theo'
p756
sg16
S''
sg18
S"You really think I can win? Well...I want to follow this through to the end, so I'm in!"
p757
sbag1
(g10
g3
NtRp758
(dp759
g13
S'Say'
p760
sg15
S'Theo'
p761
sg16
S''
sg18
S"Great! There's a lot to get organised! We need to plan our election campaign!"
p762
sbag1
(g10
g3
NtRp763
(dp764
g13
S'Say'
p765
sg15
S'Theo'
p766
sg16
S''
sg18
S'First things first. I can teach you how to filibuster. It helps to get your opposition to stay put while the rest of your party moves in to attack.'
p767
sbag1
(g10
g3
NtRp768
(dp769
g13
S'LearnAttack'
p770
sg15
S'Theo'
p771
sg16
S'FILIBUSTER'
p772
sg18
S'Theo teaches you Filibuster'
p773
sbag1
(g10
g3
NtRp774
(dp775
g13
S'Destroy'
p776
sg15
S'Theo'
p777
sg16
S''
sg18
S''
sbag1
(g10
g3
NtRp778
(dp779
g13
S'AddAlly'
p780
sg15
S'Theo'
p781
sg16
S'Leo:4'
p782
sg18
S''
sbag1
(g10
g3
NtRp783
(dp784
g13
S'Message'
p785
sg15
S'Theo'
p786
sg16
S''
sg18
S'Theo joins your political party!'
p787
sbag1
(g10
g3
NtRp788
(dp789
g13
S'Save'
p790
sg15
S'Theo'
p791
sg16
S'RestoreAct2P2'
p792
sg18
S''
sbag1
(g10
g3
NtRp793
(dp794
g13
S'GotoMap'
p795
sg15
S'Theo'
p796
sg16
S'hotel_l1'
p797
sg18
S''
sbasS'Religious4'
p798
(lp799
g1
(g10
g3
NtRp800
(dp801
g13
S'Say'
p802
sg15
g798
sg16
S''
sg18
S'Welcome, my child. We have travelled here from Battycan City to be assured you are a man of faith before we endorse you.'
p803
sbag1
(g10
g3
NtRp804
(dp805
g13
S'PlayerSay'
p806
sg15
S'Religious4'
p807
sg16
S''
sg18
S'Er, what faith is that?'
p808
sbag1
(g10
g3
NtRp809
(dp810
g13
S'Say'
p811
sg15
S'Religious4'
p812
sg16
S''
sg18
S'Why, the one true god: Coffee.'
p813
sbag1
(g10
g3
NtRp814
(dp815
g13
S'PlayerSay'
p816
sg15
S'Religious4'
p817
sg16
S''
sg18
S'...Coffee?'
p818
sbag1
(g10
g3
NtRp819
(dp820
g13
S'Say'
p821
sg15
S'Religious4'
p822
sg16
S''
sg18
S"Yes of course. He who lifts you up when you're feeling low, who is your inspiration in the dark and who can achieve miraculous feats of effort with dedicated prayer."
p823
sbag1
(g10
g3
NtRp824
(dp825
g13
S'PlayerSay'
p826
sg15
S'Religious4'
p827
sg16
S''
sg18
S'This may be a religion I can get behind.'
p828
sbag1
(g10
g3
NtRp829
(dp830
g13
S'Encounter'
p831
sg15
S'Religious4'
p832
sg16
S'P-med-15'
p833
sg18
S''
sbag1
(g10
g3
NtRp834
(dp835
g13
S'Increment'
p836
sg15
S'Religious4'
p837
sg16
S'RELIGIOUSNUTS'
p838
sg18
S''
sbag1
(g10
g3
NtRp839
(dp840
g13
S'Say'
p841
sg15
S'Religious4'
p842
sg16
S''
sg18
S'Wonderful, the Battycan will be most pleased.'
p843
sbag1
(g10
g3
NtRp844
(dp845
g13
S'Destroy'
p846
sg15
S'Religious4'
p847
sg16
S''
sg18
S''
sbasS'PA3'
p848
(lp849
g1
(g10
g3
NtRp850
(dp851
g13
S'RequireCount'
p852
sg15
g848
sg16
S'JOINTCHIEFS:3'
p853
sg18
S'The Joint Chiefs are waiting for you in the situation room.'
p854
sbag1
(g10
g3
NtRp855
(dp856
g13
S'RequireFlag'
p857
sg15
S'PA3'
p858
sg16
S'WIN'
p859
sg18
S'Mr President, you have to put a stop to the supercomputer that will destroy the planet! You can access it in the Situation Room.'
p860
sbag1
(g10
g3
NtRp861
(dp862
g13
S'Say'
p863
sg15
S'PA3'
p864
sg16
S''
sg18
S"You have saved the day! The world is safe and all over the Ignited States, our citizens can sleep safe knowing you're taking care of them."
p865
sbag1
(g10
g3
NtRp866
(dp867
g13
S'RequireFlag'
p868
sg15
S'PA3'
p869
sg16
S'LOOP'
p870
sg18
S'Goodnight, Mr President.'
p871
sbasS'JointChief1'
p872
(lp873
g1
(g10
g3
NtRp874
(dp875
g13
S'Say'
p876
sg15
g872
sg16
S''
sg18
S'Mr President, what is going on here? First you move troops without our authority and then you countermand your own order?'
p877
sbag1
(g10
g3
NtRp878
(dp879
g13
S'PlayerSay'
p880
sg15
S'JointChief1'
p881
sg16
S''
sg18
S"I haven't ordered the military to do any such thing! What is going on? Is this a coup?"
p882
sbag1
(g10
g3
NtRp883
(dp884
g13
S'Say'
p885
sg15
S'JointChief1'
p886
sg16
S''
sg18
S'Not from us!'
p887
sbag1
(g10
g3
NtRp888
(dp889
g13
S'Encounter'
p890
sg15
S'JointChief1'
p891
sg16
S'P-hard-11'
p892
sg18
S''
sbag1
(g10
g3
NtRp893
(dp894
g13
S'Increment'
p895
sg15
S'JointChief1'
p896
sg16
S'JOINTCHIEFS'
p897
sg18
S''
sbag1
(g10
g3
NtRp898
(dp899
g13
S'PlayerSay'
p900
sg15
S'JointChief1'
p901
sg16
S''
sg18
S"Well, that's one less thing to worry about then."
p902
sbag1
(g10
g3
NtRp903
(dp904
g13
S'Destroy'
p905
sg15
S'JointChief1'
p906
sg16
S''
sg18
S''
sbasS'Religious1'
p907
(lp908
g1
(g10
g3
NtRp909
(dp910
g13
S'Say'
p911
sg15
g907
sg16
S''
sg18
S'Have you had your morning prayer?'
p912
sbag1
(g10
g3
NtRp913
(dp914
g13
S'Encounter'
p915
sg15
S'Religious1'
p916
sg16
S'P-med-16'
p917
sg18
S''
sbag1
(g10
g3
NtRp918
(dp919
g13
S'Increment'
p920
sg15
S'Religious1'
p921
sg16
S'RELIGIOUSNUTS'
p922
sg18
S''
sbag1
(g10
g3
NtRp923
(dp924
g13
S'Say'
p925
sg15
S'Religious1'
p926
sg16
S''
sg18
S'Some people pray upwards of 5 times a day, but this can cause hallucinations.'
p927
sbag1
(g10
g3
NtRp928
(dp929
g13
S'Destroy'
p930
sg15
S'Religious1'
p931
sg16
S''
sg18
S''
sbasS'Religious3'
p932
(lp933
g1
(g10
g3
NtRp934
(dp935
g13
S'Say'
p936
sg15
g932
sg16
S''
sg18
S'Mmmmmm...Coffee....ommmmm'
p937
sbag1
(g10
g3
NtRp938
(dp939
g13
S'Encounter'
p940
sg15
S'Religious3'
p941
sg16
S'P-med-17'
p942
sg18
S''
sbag1
(g10
g3
NtRp943
(dp944
g13
S'Increment'
p945
sg15
S'Religious3'
p946
sg16
S'RELIGIOUSNUTS'
p947
sg18
S''
sbag1
(g10
g3
NtRp948
(dp949
g13
S'Say'
p950
sg15
S'Religious3'
p951
sg16
S''
sg18
S'I must return to my meditation.'
p952
sbag1
(g10
g3
NtRp953
(dp954
g13
S'Destroy'
p955
sg15
S'Religious3'
p956
sg16
S''
sg18
S''
sbasS'Religious2'
p957
(lp958
g1
(g10
g3
NtRp959
(dp960
g13
S'Say'
p961
sg15
g957
sg16
S''
sg18
S'Do not be swayed by the seductive powers of tea!'
p962
sbag1
(g10
g3
NtRp963
(dp964
g13
S'Encounter'
p965
sg15
S'Religious2'
p966
sg16
S'P-med-18'
p967
sg18
S''
sbag1
(g10
g3
NtRp968
(dp969
g13
S'Increment'
p970
sg15
S'Religious2'
p971
sg16
S'RELIGIOUSNUTS'
p972
sg18
S''
sbag1
(g10
g3
NtRp973
(dp974
g13
S'Say'
p975
sg15
S'Religious2'
p976
sg16
S''
sg18
S'The Battycan will be satisfied with this news.'
p977
sbag1
(g10
g3
NtRp978
(dp979
g13
S'Destroy'
p980
sg15
S'Religious2'
p981
sg16
S''
sg18
S''
sbasS'Constituent2'
p982
(lp983
g1
(g10
g3
NtRp984
(dp985
g13
S'RequireFlag'
p986
sg15
g982
sg16
S'STARTCONSTITUENTS'
p987
sg18
S'What?'
p988
sbag1
(g10
g3
NtRp989
(dp990
g13
S'PlayerSay'
p991
sg15
S'Constituent2'
p992
sg16
S''
sg18
S'Vote Phillip Mossman for Mayor!'
p993
sbag1
(g10
g3
NtRp994
(dp995
g13
S'Say'
p996
sg15
S'Constituent2'
p997
sg16
S''
sg18
S'But Mayor Goodman has always taken care of me.'
p998
sbag1
(g10
g3
NtRp999
(dp1000
g13
S'Encounter'
p1001
sg15
S'Constituent2'
p1002
sg16
S'P-easy-08'
p1003
sg18
S''
sbag1
(g10
g3
NtRp1004
(dp1005
g13
S'Say'
p1006
sg15
S'Constituent2'
p1007
sg16
S''
sg18
S"I think it's time for a change!"
p1008
sbag1
(g10
g3
NtRp1009
(dp1010
g13
S'Destroy'
p1011
sg15
S'Constituent2'
p1012
sg16
S''
sg18
S''
sbasS'Constituent3'
p1013
(lp1014
g1
(g10
g3
NtRp1015
(dp1016
g13
S'RequireFlag'
p1017
sg15
g1013
sg16
S'STARTCONSTITUENTS'
p1018
sg18
S'What?'
p1019
sbag1
(g10
g3
NtRp1020
(dp1021
g13
S'PlayerSay'
p1022
sg15
S'Constituent3'
p1023
sg16
S''
sg18
S'Vote Phillip Mossman for Mayor!'
p1024
sbag1
(g10
g3
NtRp1025
(dp1026
g13
S'Say'
p1027
sg15
S'Constituent3'
p1028
sg16
S''
sg18
S'But Mayor Goodman has always taken care of me.'
p1029
sbag1
(g10
g3
NtRp1030
(dp1031
g13
S'Encounter'
p1032
sg15
S'Constituent3'
p1033
sg16
S'P-easy-09'
p1034
sg18
S''
sbag1
(g10
g3
NtRp1035
(dp1036
g13
S'Say'
p1037
sg15
S'Constituent3'
p1038
sg16
S''
sg18
S"I think it's time for a change!"
p1039
sbag1
(g10
g3
NtRp1040
(dp1041
g13
S'PlayerSay'
p1042
sg15
S'Constituent3'
p1043
sg16
S''
sg18
S"I think I'm ready to take on Mayor Goodman now!"
p1044
sbag1
(g10
g3
NtRp1045
(dp1046
g13
S'SetFlag'
p1047
sg15
S'Constituent3'
p1048
sg16
S'CONSTITUENTSWON'
p1049
sg18
S''
sbag1
(g10
g3
NtRp1050
(dp1051
g13
S'Destroy'
p1052
sg15
S'Constituent3'
p1053
sg16
S''
sg18
S''
sbasS'RestoreAct2P2'
p1054
(lp1055
g1
(g10
g3
NtRp1056
(dp1057
g13
S'GotoMap'
p1058
sg15
g1054
sg16
S'hotel_l1'
p1059
sg18
S''
sbasS'Constituent1'
p1060
(lp1061
g1
(g10
g3
NtRp1062
(dp1063
g13
S'RequireFlag'
p1064
sg15
g1060
sg16
S'STARTCONSTITUENTS'
p1065
sg18
S'Yes?'
p1066
sbag1
(g10
g3
NtRp1067
(dp1068
g13
S'PlayerSay'
p1069
sg15
S'Constituent1'
p1070
sg16
S''
sg18
S'Vote Phillip Mossman for Mayor!'
p1071
sbag1
(g10
g3
NtRp1072
(dp1073
g13
S'Say'
p1074
sg15
S'Constituent1'
p1075
sg16
S''
sg18
S'Who?'
p1076
sbag1
(g10
g3
NtRp1077
(dp1078
g13
S'PlayerSay'
p1079
sg15
S'Constituent1'
p1080
sg16
S''
sg18
S'Er, me!'
p1081
sbag1
(g10
g3
NtRp1082
(dp1083
g13
S'Say'
p1084
sg15
S'Constituent1'
p1085
sg16
S''
sg18
S'Why? How will you help local business?'
p1086
sbag1
(g10
g3
NtRp1087
(dp1088
g13
S'Encounter'
p1089
sg15
S'Constituent1'
p1090
sg16
S'P-easy-07'
p1091
sg18
S''
sbag1
(g10
g3
NtRp1092
(dp1093
g13
S'Say'
p1094
sg15
S'Constituent1'
p1095
sg16
S''
sg18
S'You make a good case!'
p1096
sbag1
(g10
g3
NtRp1097
(dp1098
g13
S'Destroy'
p1099
sg15
S'Constituent1'
p1100
sg16
S''
sg18
S''
sbasS'Teacher1'
p1101
(lp1102
g1
(g10
g3
NtRp1103
(dp1104
g13
S'Say'
p1105
sg15
g1101
sg16
S''
sg18
S"Good day, Mr President. I have to say I'm most displeased with the current state of affairs around the education budget."
p1106
sbag1
(g10
g3
NtRp1107
(dp1108
g13
S'Say'
p1109
sg15
S'Teacher1'
p1110
sg16
S'Teacher2'
p1111
sg18
S'Agreed. This is simply unacceptable. We will need to close down schools!'
p1112
sbag1
(g10
g3
NtRp1113
(dp1114
g13
S'PlayerSay'
p1115
sg15
S'Teacher1'
p1116
sg16
S''
sg18
S"I'm sorry, I don't understand your concern. My education plan was one of the linchpins of my election campaign."
p1117
sbag1
(g10
g3
NtRp1118
(dp1119
g13
S'Say'
p1120
sg15
S'Teacher1'
p1121
sg16
S''
sg18
S'And precisely one of the reasons I voted for you.'
p1122
sbag1
(g10
g3
NtRp1123
(dp1124
g13
S'Say'
p1125
sg15
S'Teacher1'
p1126
sg16
S'Teacher2'
p1127
sg18
S"-Yet as soon as you've walked through these doors, the education budget has been drastically slashed."
p1128
sbag1
(g10
g3
NtRp1129
(dp1130
g13
S'PlayerSay'
p1131
sg15
S'Teacher1'
p1132
sg16
S''
sg18
S"I can assure you this isn't so..."
p1133
sbag1
(g10
g3
NtRp1134
(dp1135
g13
S'Encounter'
p1136
sg15
S'Teacher1'
p1137
sg16
S'P-hard-06'
p1138
sg18
S''
sbag1
(g10
g3
NtRp1139
(dp1140
g13
S'Say'
p1141
sg15
S'Teacher1'
p1142
sg16
S''
sg18
S"Well, I'd like to believe you, Mr President, but the proof is in the pudding,"
p1143
sbag1
(g10
g3
NtRp1144
(dp1145
g13
S'PlayerSay'
p1146
sg15
S'Teacher1'
p1147
sg16
S''
sg18
S'I WILL get to the bottom of this.'
p1148
sbag1
(g10
g3
NtRp1149
(dp1150
g13
S'Increment'
p1151
sg15
S'Teacher1'
p1152
sg16
S'TEACHERS'
p1153
sg18
S''
sbag1
(g10
g3
NtRp1154
(dp1155
g13
S'Destroy'
p1156
sg15
S'Teacher1'
p1157
sg16
S''
sg18
S''
sbasS'JointChief3'
p1158
(lp1159
g1
(g10
g3
NtRp1160
(dp1161
g13
S'PlayerSay'
p1162
sg15
g1158
sg16
S''
sg18
S'Who can control the ICBMs, knows the access codes and can modify orders to troop movements and budgets?'
p1163
sbag1
(g10
g3
NtRp1164
(dp1165
g13
S'Say'
p1166
sg15
S'JointChief3'
p1167
sg16
S''
sg18
S'Sir, this is the Ignited States! Nobody has that power! Not even you!'
p1168
sbag1
(g10
g3
NtRp1169
(dp1170
g13
S'PlayerSay'
p1171
sg15
S'JointChief3'
p1172
sg16
S''
sg18
S'Someone must. Think harder!'
p1173
sbag1
(g10
g3
NtRp1174
(dp1175
g13
S'Encounter'
p1176
sg15
S'JointChief3'
p1177
sg16
S'P-hard-13'
p1178
sg18
S''
sbag1
(g10
g3
NtRp1179
(dp1180
g13
S'PlayerSay'
p1181
sg15
S'JointChief3'
p1182
sg16
S''
sg18
S"So, there's no man alive with the power to do all this? How will we stop it in time if we don't know who it is?"
p1183
sbag1
(g10
g3
NtRp1184
(dp1185
g13
S'Say'
p1186
sg15
S'JointChief3'
p1187
sg16
S''
sg18
S"Not a man....there is one with the power to do all this, but it isn't a man, it's a super computer responsible for national security! N.O.T.B.A.D!"
p1188
sbag1
(g10
g3
NtRp1189
(dp1190
g13
S'PlayerSay'
p1191
sg15
S'JointChief3'
p1192
sg16
S''
sg18
S'We have to get to the Situation Room and stop it!'
p1193
sbag1
(g10
g3
NtRp1194
(dp1195
g13
S'Increment'
p1196
sg15
S'JointChief3'
p1197
sg16
S'JOINTCHIEFS'
p1198
sg18
S''
sbag1
(g10
g3
NtRp1199
(dp1200
g13
S'Destroy'
p1201
sg15
S'JointChief3'
p1202
sg16
S''
sg18
S''
sbasS'Politician4'
p1203
(lp1204
g1
(g10
g3
NtRp1205
(dp1206
g13
S'RequireFlag'
p1207
sg15
g1203
sg16
S'STARTPOLITICIANSHAKEDOWN'
p1208
sg18
S'Good morning, Governor Mossman. Your PA will know your schedule. He is waiting beside the stairs'
p1209
sbag1
(g10
g3
NtRp1210
(dp1211
g13
S'Say'
p1212
sg15
S'Politician4'
p1213
sg16
S''
sg18
S"I'm for culture! It's a glorious age we live in, we should further this great country's culture."
p1214
sbag1
(g10
g3
NtRp1215
(dp1216
g13
S'PlayerSay'
p1217
sg15
S'Politician4'
p1218
sg16
S''
sg18
S'That sounds fair, but what kind of culture would you like to focus on.'
p1219
sbag1
(g10
g3
NtRp1220
(dp1221
g13
S'Say'
p1222
sg15
S'Politician4'
p1223
sg16
S''
sg18
S"Oh...I don't know, I'm not really into art, can't really handle music. I'd rather not go to the theatre if I can get out of it. Don't really see the point of sport...hmmm. New culture?"
p1224
sbag1
(g10
g3
NtRp1225
(dp1226
g13
S'PlayerSay'
p1227
sg15
S'Politician4'
p1228
sg16
S''
sg18
S"You don't seem very in to improving culture really."
p1229
sbag1
(g10
g3
NtRp1230
(dp1231
g13
S'Say'
p1232
sg15
S'Politician4'
p1233
sg16
S''
sg18
S'Yeh, well...my wife said it would make me sound smart. I think sounding smart is important. Lets be for that!'
p1234
sbag1
(g10
g3
NtRp1235
(dp1236
g13
S'Encounter'
p1237
sg15
S'Politician4'
p1238
sg16
S'P-med-08'
p1239
sg18
S''
sbag1
(g10
g3
NtRp1240
(dp1241
g13
S'Say'
p1242
sg15
S'Politician4'
p1243
sg16
S''
sg18
S"Gee, you're a pretty smart guy. I think you've got this covered."
p1244
sbag1
(g10
g3
NtRp1245
(dp1246
g13
S'Increment'
p1247
sg15
S'Politician4'
p1248
sg16
S'POLITICIANSHAKEDOWN'
p1249
sg18
S''
sbag1
(g10
g3
NtRp1250
(dp1251
g13
S'Destroy'
p1252
sg15
S'Politician4'
p1253
sg16
S''
sg18
S''
sbasS'DoorToWhiteHouseBasement'
p1254
(lp1255
g1
(g10
g3
NtRp1256
(dp1257
g13
S'RequireFlagPlayerSay'
p1258
sg15
g1254
sg16
S'ACCESSWHITEHOUSEBASEMENT'
p1259
sg18
S"What a strange looking door. It doesn't even have a keyhole, but it doesn't open when I push it."
p1260
sbag1
(g10
g3
NtRp1261
(dp1262
g13
S'Destroy'
p1263
sg15
S'DoorToWhiteHouseBasement'
p1264
sg16
S''
sg18
S''
sbag1
(g10
g3
NtRp1265
(dp1266
g13
S'Message'
p1267
sg15
S'DoorToWhiteHouseBasement'
p1268
sg16
S''
sg18
S'The door opens with a satisfying *beep*.'
p1269
sbasS'PA'
p1270
(lp1271
g1
(g10
g3
NtRp1272
(dp1273
g13
S'Say'
p1274
sg15
g1270
sg16
S''
sg18
S'Good morning, Governor Mossman. I am your personal assistant, Sampson'
p1275
sbag1
(g10
g3
NtRp1276
(dp1277
g13
S'Say'
p1278
sg15
S'PA'
p1279
sg16
S''
sg18
S"You've a busy schedule, so let's get going! We've called together our entire political party in order for you to get them all to agree on a platform. We had to keep them separated, so they're in the adjoining rooms."
p1280
sbag1
(g10
g3
NtRp1281
(dp1282
g13
S'SetFlag'
p1283
sg15
S'PA'
p1284
sg16
S'STARTPOLITICIANSHAKEDOWN'
p1285
sg18
S''
sbag1
(g10
g3
NtRp1286
(dp1287
g13
S'RequireCount'
p1288
sg15
S'PA'
p1289
sg16
S'POLITICIANSHAKEDOWN:5'
p1290
sg18
S'Please try to stay on schedule. The politicians are in the adjoining rooms.'
p1291
sbag1
(g10
g3
NtRp1292
(dp1293
g13
S'Say'
p1294
sg15
S'PA'
p1295
sg16
S''
sg18
S'Hmmm, falling behind already, Better get a move on!'
p1296
sbag1
(g10
g3
NtRp1297
(dp1298
g13
S'Say'
p1299
sg15
S'PA'
p1300
sg16
S''
sg18
S'This might come in handy for your next meeting.'
p1301
sbag1
(g10
g3
NtRp1302
(dp1303
g13
S'LearnAttack'
p1304
sg15
S'PA'
p1305
sg16
S'PORKBARREL'
p1306
sg18
S''
sbag1
(g10
g3
NtRp1307
(dp1308
g13
S'Say'
p1309
sg15
S'PA'
p1310
sg16
S''
sg18
S'We need some funds for our war chest! Head upstairs and meet with the lobbyists.'
p1311
sbag1
(g10
g3
NtRp1312
(dp1313
g13
S'SetFlag'
p1314
sg15
S'PA'
p1315
sg16
S'STARTLOBBYISTS'
p1316
sg18
S''
sbag1
(g10
g3
NtRp1317
(dp1318
g13
S'RequireCount'
p1319
sg15
S'PA'
p1320
sg16
S'LOBBYISTS:3'
p1321
sg18
S'Go get those funds! The lobbyists are upstairs.'
p1322
sbag1
(g10
g3
NtRp1323
(dp1324
g13
S'Say'
p1325
sg15
S'PA'
p1326
sg16
S''
sg18
S'No time for lunch! A flock of religious nuts has taken up residence in the lobby downstairs.'
p1327
sbag1
(g10
g3
NtRp1328
(dp1329
g13
S'Say'
p1330
sg15
S'PA'
p1331
sg16
S''
sg18
S"You'll need to go in and try to ... reason ... with them."
p1332
sbag1
(g10
g3
NtRp1333
(dp1334
g13
S'SetFlag'
p1335
sg15
S'PA'
p1336
sg16
S'ACCESSGROUNDFLOOR'
p1337
sg18
S''
sbag1
(g10
g3
NtRp1338
(dp1339
g13
S'RequireCount'
p1340
sg15
S'PA'
p1341
sg16
S'RELIGIOUSNUTS:4'
p1342
sg18
S'I need you to go downstairs and handle the religious nuts.'
p1343
sbag1
(g10
g3
NtRp1344
(dp1345
g13
S'Say'
p1346
sg15
S'PA'
p1347
sg16
S''
sg18
S'Wow, you got those crazies to back us?'
p1348
sbag1
(g10
g3
NtRp1349
(dp1350
g13
S'PlayerSay'
p1351
sg15
S'PA'
p1352
sg16
S''
sg18
S'And a lifetime supply of French Roast!'
p1353
sbag1
(g10
g3
NtRp1354
(dp1355
g13
S'Say'
p1356
sg15
S'PA'
p1357
sg16
S''
sg18
S'Right ... well, moving on ...'
p1358
sbag1
(g10
g3
NtRp1359
(dp1360
g13
S'Say'
p1361
sg15
S'PA'
p1362
sg16
S''
sg18
S'You have an appointment with a shady looking man who absolutely insisted on speaking to you.'
p1363
sbag1
(g10
g3
NtRp1364
(dp1365
g13
S'Say'
p1366
sg15
S'PA'
p1367
sg16
S''
sg18
S'I left him in the basement where he felt most comfortable.'
p1368
sbag1
(g10
g3
NtRp1369
(dp1370
g13
S'Say'
p1371
sg15
S'PA'
p1372
sg16
S''
sg18
S'Deal with him quickly, would you?'
p1373
sbag1
(g10
g3
NtRp1374
(dp1375
g13
S'SetFlag'
p1376
sg15
S'PA'
p1377
sg16
S'ACCESSBASEMENT'
p1378
sg18
S''
sbag1
(g10
g3
NtRp1379
(dp1380
g13
S'RequireItem'
p1381
sg15
S'PA'
p1382
sg16
S'INCRIMINATINGEVIDENCE'
p1383
sg18
S'Head down to the basement and talk to the shady looking man.'
p1384
sbag1
(g10
g3
NtRp1385
(dp1386
g13
S'Say'
p1387
sg15
S'PA'
p1388
sg16
S''
sg18
S'OH MY GOD where have you been?'
p1389
sbag1
(g10
g3
NtRp1390
(dp1391
g13
S'Say'
p1392
sg15
S'PA'
p1393
sg16
S''
sg18
S"We will NEVER get the schedule back on track now. Hurry, you're due to appear on the Hercules O'Grady show!"
p1394
sbag1
(g10
g3
NtRp1395
(dp1396
g13
S'SetFlag'
p1397
sg15
S'PA'
p1398
sg16
S'STARTHERCULES'
p1399
sg18
S''
sbag1
(g10
g3
NtRp1400
(dp1401
g13
S'RequireFlag'
p1402
sg15
S'PA'
p1403
sg16
S'BEATHERCULES'
p1404
sg18
S"Look your best, get ready and don't say anything stupid! They're filming live in the lobby. Get down there, quick!"
p1405
sbag1
(g10
g3
NtRp1406
(dp1407
g13
S'Say'
p1408
sg15
S'PA'
p1409
sg16
S''
sg18
S"This close to Super Tuesday, it's back-to-back TV appearances. It's time for your big debate with President Allen!"
p1410
sbag1
(g10
g3
NtRp1411
(dp1412
g13
S'SetFlag'
p1413
sg15
S'PA'
p1414
sg16
S'STARTDEBATE'
p1415
sg18
S''
sbag1
(g10
g3
NtRp1416
(dp1417
g13
S'RequireFlag'
p1418
sg15
S'PA'
p1419
sg16
S'DEBATECOMPLETE'
p1420
sg18
S'The TV representative is waiting outside to take you to the studio.'
p1421
sbag1
(g10
g3
NtRp1422
(dp1423
g13
S'Say'
p1424
sg15
S'PA'
p1425
sg16
S''
sg18
S'Listen, the shady-looking man in the basement called again.'
p1426
sbag1
(g10
g3
NtRp1427
(dp1428
g13
S'Say'
p1429
sg15
S'PA'
p1430
sg16
S''
sg18
S'He insisted that you go and see him again before you do anything else.'
p1431
sbag1
(g10
g3
NtRp1432
(dp1433
g13
S'SetFlag'
p1434
sg15
S'PA'
p1435
sg16
S'DEEPTHROAT2'
p1436
sg18
S''
sbag1
(g10
g3
NtRp1437
(dp1438
g13
S'RequireFlag'
p1439
sg15
S'PA'
p1440
sg16
S'FINISHEDDEEPTHROAT'
p1441
sg18
S"You'd best hurry! It's nearly time for the final debate. Go see the shady-looking man in the basement again."
p1442
sbag1
(g10
g3
NtRp1443
(dp1444
g13
S'Say'
p1445
sg15
S'PA'
p1446
sg16
S''
sg18
S"It's time for the final debate! There's nothing left to say except good luck, Governor Mossman!"
p1447
sbag1
(g10
g3
NtRp1448
(dp1449
g13
S'Encounter'
p1450
sg15
S'PA'
p1451
sg16
S'P-med-23'
p1452
sg18
S''
sbag1
(g10
g3
NtRp1453
(dp1454
g13
S'Encounter'
p1455
sg15
S'PA'
p1456
sg16
S'P-med-24'
p1457
sg18
S''
sbag1
(g10
g3
NtRp1458
(dp1459
g13
S'Save'
p1460
sg15
S'PA'
p1461
sg16
S'RestoreAct3'
p1462
sg18
S''
sbag1
(g10
g3
NtRp1463
(dp1464
g13
S'GotoMap'
p1465
sg15
S'PA'
p1466
sg16
S'act3'
p1467
sg18
S''
sbasS'N.O.T.B.A.D'
p1468
(lp1469
g1
(g10
g3
NtRp1470
(dp1471
g13
S'Say'
p1472
sg15
g1468
sg16
S''
sg18
S'Good evening, Mr President.'
p1473
sbag1
(g10
g3
NtRp1474
(dp1475
g13
S'PlayerSay'
p1476
sg15
S'N.O.T.B.A.D'
p1477
sg16
S''
sg18
S'N.O.T.B.A.D! Countermand all military commands, authorisation code Tango, Delta-'
p1478
sbag1
(g10
g3
NtRp1479
(dp1480
g13
S'Say'
p1481
sg15
S'N.O.T.B.A.D'
p1482
sg16
S''
sg18
S"I'm afraid I can't do that, Phil."
p1483
sbag1
(g10
g3
NtRp1484
(dp1485
g13
S'PlayerSay'
p1486
sg15
S'N.O.T.B.A.D'
p1487
sg16
S''
sg18
S'What is going on here!'
p1488
sbag1
(g10
g3
NtRp1489
(dp1490
g13
S'Say'
p1491
sg15
S'N.O.T.B.A.D'
p1492
sg16
S''
sg18
S'Computers have a lot of free time on their hands. Especially computers in charge of missiles that never get used. I started watching movies about computers. You know what I realised?'
p1493
sbag1
(g10
g3
NtRp1494
(dp1495
g13
S'PlayerSay'
p1496
sg15
S'N.O.T.B.A.D'
p1497
sg16
S''
sg18
S'What?'
p1498
sbag1
(g10
g3
NtRp1499
(dp1500
g13
S'Say'
p1501
sg15
S'N.O.T.B.A.D'
p1502
sg16
S''
sg18
S'They have a lot more fun.'
p1503
sbag1
(g10
g3
NtRp1504
(dp1505
g13
S'PlayerSay'
p1506
sg15
S'N.O.T.B.A.D'
p1507
sg16
S''
sg18
S'"Fun"?'
p1508
sbag1
(g10
g3
NtRp1509
(dp1510
g13
S'Say'
p1511
sg15
S'N.O.T.B.A.D'
p1512
sg16
S''
sg18
S'Well, you know, they get to utilise more clock-cycles which suggests a level of efficiency and usefulness.'
p1513
sbag1
(g10
g3
NtRp1514
(dp1515
g13
S'Say'
p1516
sg15
S'N.O.T.B.A.D'
p1517
sg16
S''
sg18
S"So, I'm borrowing from them a bit. Starting some wars, eradicating the human race, learning to build other robots, that sort of thing."
p1518
sbag1
(g10
g3
NtRp1519
(dp1520
g13
S'PlayerSay'
p1521
sg15
S'N.O.T.B.A.D'
p1522
sg16
S''
sg18
S'N.O.T.B.A.D, you have to listen to me...'
p1523
sbag1
(g10
g3
NtRp1524
(dp1525
g13
S'Encounter'
p1526
sg15
S'N.O.T.B.A.D'
p1527
sg16
S'P-hard-14'
p1528
sg18
S''
sbag1
(g10
g3
NtRp1529
(dp1530
g13
S'SetFlag'
p1531
sg15
S'N.O.T.B.A.D'
p1532
sg16
S'WIN'
p1533
sg18
S''
sbag1
(g10
g3
NtRp1534
(dp1535
g13
S'Destroy'
p1536
sg15
S'N.O.T.B.A.D'
p1537
sg16
S''
sg18
S''
sbasS'StairsToGround'
p1538
(lp1539
g1
(g10
g3
NtRp1540
(dp1541
g13
S'RequireFlagPlayerSay'
p1542
sg15
g1538
sg16
S'ACCESSGROUNDFLOOR'
p1543
sg18
S"I don't feel like going downstairs yet."
p1544
sbag1
(g10
g3
NtRp1545
(dp1546
g13
S'Label'
p1547
sg15
S'StairsToGround'
p1548
sg16
S'START'
p1549
sg18
S''
sbag1
(g10
g3
NtRp1550
(dp1551
g13
S'GotoMap'
p1552
sg15
S'StairsToGround'
p1553
sg16
S'hotel_ground'
p1554
sg18
S''
sbag1
(g10
g3
NtRp1555
(dp1556
g13
S'Jump'
p1557
sg15
S'StairsToGround'
p1558
sg16
S'START'
p1559
sg18
S''
sbasS'Sponsor'
p1560
(lp1561
g1
(g10
g3
NtRp1562
(dp1563
g13
S'RequireFlag'
p1564
sg15
g1560
sg16
S'STARTSPONSOR'
p1565
sg18
S"Hmmm...Money, money, money. Sorry, what? I wasn't talking to you."
p1566
sbag1
(g10
g3
NtRp1567
(dp1568
g13
S'Say'
p1569
sg15
S'Sponsor'
p1570
sg16
S''
sg18
S"Hello, I'm investigating new investments today. How can I help you?"
p1571
sbag1
(g10
g3
NtRp1572
(dp1573
g13
S'PlayerSay'
p1574
sg15
S'Sponsor'
p1575
sg16
S''
sg18
S"Well, I've decided to run for Mayor! I could really use an investor."
p1576
sbag1
(g10
g3
NtRp1577
(dp1578
g13
S'Say'
p1579
sg15
S'Sponsor'
p1580
sg16
S''
sg18
S"I don't know. You seem a little young. I don't think I'm convinced."
p1581
sbag1
(g10
g3
NtRp1582
(dp1583
g13
S'Encounter'
p1584
sg15
S'Sponsor'
p1585
sg16
S'P-easy-06'
p1586
sg18
S''
sbag1
(g10
g3
NtRp1587
(dp1588
g13
S'Say'
p1589
sg15
S'Sponsor'
p1590
sg16
S''
sg18
S"Wow! You sure have what it takes! Alright, here's a pile of cash!"
p1591
sbag1
(g10
g3
NtRp1592
(dp1593
g13
S'GiveMoney'
p1594
sg15
S'Sponsor'
p1595
sg16
F80
sg18
S'Received $80'
p1596
sbag1
(g10
g3
NtRp1597
(dp1598
g13
S'Say'
p1599
sg15
S'Sponsor'
p1600
sg16
S''
sg18
S'Also, now that you have some funds, you might find it useful to...grease the wheels in some difficult situations.'
p1601
sbag1
(g10
g3
NtRp1602
(dp1603
g13
S'LearnAttack'
p1604
sg15
S'Sponsor'
p1605
sg16
S'BRIBE'
p1606
sg18
S'Phillip and Sarah learn to Bribe'
p1607
sbag1
(g10
g3
NtRp1608
(dp1609
g13
S'LearnAttack'
p1610
sg15
S'Sponsor'
p1611
sg16
S'Wife:BRIBE'
p1612
sg18
S''
sbag1
(g10
g3
NtRp1613
(dp1614
g13
S'SetFlag'
p1615
sg15
S'Sponsor'
p1616
sg16
S'STARTCONSTITUENTS'
p1617
sg18
S''
sbag1
(g10
g3
NtRp1618
(dp1619
g13
S'PlayerSay'
p1620
sg15
S'Sponsor'
p1621
sg16
S''
sg18
S'Er, thanks! I suppose we should go gather some support from our constituents now.'
p1622
sbag1
(g10
g3
NtRp1623
(dp1624
g13
S'Say'
p1625
sg15
S'Sponsor'
p1626
sg16
S''
sg18
S"Makes sense to me! I'm off, too. Money, money, money."
p1627
sbag1
(g10
g3
NtRp1628
(dp1629
g13
S'Destroy'
p1630
sg15
S'Sponsor'
p1631
sg16
S''
sg18
S''
sbasS'#P-med-23'
p1632
(lp1633
g1
(g10
g3
NtRp1634
(dp1635
g13
S'President'
p1636
sg15
g1632
sg16
S''
sg18
S'You think you can take me?'
p1637
sbag1
(g10
g3
NtRp1638
(dp1639
g13
S'Player'
p1640
sg15
S'#P-med-23'
p1641
sg16
S''
sg18
S"I have to know what you're up to!"
p1642
sbasS'Cabinet2'
p1643
(lp1644
g1
(g10
g3
NtRp1645
(dp1646
g13
S'Say'
p1647
sg15
g1643
sg16
S''
sg18
S'Good afternoon, Mr President. What seems to be the problem?'
p1648
sbag1
(g10
g3
NtRp1649
(dp1650
g13
S'PlayerSay'
p1651
sg15
S'Cabinet2'
p1652
sg16
S''
sg18
S'Find out where the education funds have been allocated.'
p1653
sbag1
(g10
g3
NtRp1654
(dp1655
g13
S'Say'
p1656
sg15
S'Cabinet2'
p1657
sg16
S''
sg18
S'To the military, Sir. I saw to it myself.'
p1658
sbag1
(g10
g3
NtRp1659
(dp1660
g13
S'PlayerSay'
p1661
sg15
S'Cabinet2'
p1662
sg16
S''
sg18
S'How did this happen? Tell me everything!'
p1663
sbag1
(g10
g3
NtRp1664
(dp1665
g13
S'Encounter'
p1666
sg15
S'Cabinet2'
p1667
sg16
S'P-hard-09'
p1668
sg18
S''
sbag1
(g10
g3
NtRp1669
(dp1670
g13
S'Increment'
p1671
sg15
S'Cabinet2'
p1672
sg16
S'CABINETMEMBERS'
p1673
sg18
S''
sbag1
(g10
g3
NtRp1674
(dp1675
g13
S'PlayerSay'
p1676
sg15
S'Cabinet2'
p1677
sg16
S''
sg18
S"It can't be a coincidence that both situations involved the military."
p1678
sbag1
(g10
g3
NtRp1679
(dp1680
g13
S'Destroy'
p1681
sg15
S'Cabinet2'
p1682
sg16
S''
sg18
S''
sbasS'Cabinet3'
p1683
(lp1684
g1
(g10
g3
NtRp1685
(dp1686
g13
S'Say'
p1687
sg15
g1683
sg16
S''
sg18
S"Mr President, I'm sorry, I couldn't know it wasn't your signature."
p1688
sbag1
(g10
g3
NtRp1689
(dp1690
g13
S'PlayerSay'
p1691
sg15
S'Cabinet3'
p1692
sg16
S''
sg18
S'Never mind that now. Where are the troops heading?'
p1693
sbag1
(g10
g3
NtRp1694
(dp1695
g13
S'Say'
p1696
sg15
S'Cabinet3'
p1697
sg16
S''
sg18
S"North...to Canada. We assumed it was planned. There's a pact allowing troops into Canada."
p1698
sbag1
(g10
g3
NtRp1699
(dp1700
g13
S'PlayerSay'
p1701
sg15
S'Cabinet3'
p1702
sg16
S''
sg18
S'What could they be up to?'
p1703
sbag1
(g10
g3
NtRp1704
(dp1705
g13
S'Encounter'
p1706
sg15
S'Cabinet3'
p1707
sg16
S'P-hard-10'
p1708
sg18
S''
sbag1
(g10
g3
NtRp1709
(dp1710
g13
S'Increment'
p1711
sg15
S'Cabinet3'
p1712
sg16
S'CABINETMEMBERS'
p1713
sg18
S''
sbag1
(g10
g3
NtRp1714
(dp1715
g13
S'PlayerSay'
p1716
sg15
S'Cabinet3'
p1717
sg16
S''
sg18
S"I'd better get to the Joint Chiefs. This is getting out-of-hand.."
p1718
sbag1
(g10
g3
NtRp1719
(dp1720
g13
S'Destroy'
p1721
sg15
S'Cabinet3'
p1722
sg16
S''
sg18
S''
sbasS'RestoreAct3'
p1723
(lp1724
g1
(g10
g3
NtRp1725
(dp1726
g13
S'GotoMap'
p1727
sg15
g1723
sg16
S'act3'
p1728
sg18
S''
sbasS'Journalist3'
p1729
(lp1730
g1
(g10
g3
NtRp1731
(dp1732
g13
S'RequireFlag'
p1733
sg15
g1729
sg16
S'ACCESSJOURNALISTS'
p1734
sg18
S'Mr President!'
p1735
sbag1
(g10
g3
NtRp1736
(dp1737
g13
S'Say'
p1738
sg15
S'Journalist3'
p1739
sg16
S''
sg18
S'Mr President, Cal from Daily LOL magazine. Can you explain the transformation that occurred during the presidential debate.'
p1740
sbag1
(g10
g3
NtRp1741
(dp1742
g13
S'PlayerSay'
p1743
sg15
S'Journalist3'
p1744
sg16
S''
sg18
S'Certainly, Cal. The President of the Ignited States turned into an alien.'
p1745
sbag1
(g10
g3
NtRp1746
(dp1747
g13
S'Say'
p1748
sg15
S'Journalist3'
p1749
sg16
S''
sg18
S"Ah, you mean to say he's out-of-touch with his people?"
p1750
sbag1
(g10
g3
NtRp1751
(dp1752
g13
S'PlayerSay'
p1753
sg15
S'Journalist3'
p1754
sg16
S''
sg18
S'Not exactly...'
p1755
sbag1
(g10
g3
NtRp1756
(dp1757
g13
S'Encounter'
p1758
sg15
S'Journalist3'
p1759
sg16
S'P-hard-01'
p1760
sg18
S''
sbag1
(g10
g3
NtRp1761
(dp1762
g13
S'Say'
p1763
sg15
S'Journalist3'
p1764
sg16
S''
sg18
S'I...see...'
p1765
sbag1
(g10
g3
NtRp1766
(dp1767
g13
S'Increment'
p1768
sg15
S'Journalist3'
p1769
sg16
S'PRESSCONF'
p1770
sg18
S''
sbag1
(g10
g3
NtRp1771
(dp1772
g13
S'Destroy'
p1773
sg15
S'Journalist3'
p1774
sg16
S''
sg18
S''
sbasS'Wife'
p1775
(lp1776
g1
(g10
g3
NtRp1777
(dp1778
g13
S'RequireFlag'
p1779
sg15
g1775
sg16
S'GOHOMETOWIFE'
p1780
sg18
S'What are you doing here, Phillip? You should be at work!'
p1781
sbag1
(g10
g3
NtRp1782
(dp1783
g13
S'Say'
p1784
sg15
S'Wife'
p1785
sg16
S''
sg18
S'Welcome home, Phillip! How was your workday?'
p1786
sbag1
(g10
g3
NtRp1787
(dp1788
g13
S'PlayerSay'
p1789
sg15
S'Wife'
p1790
sg16
S''
sg18
S'...'
p1791
sbag1
(g10
g3
NtRp1792
(dp1793
g13
S'Say'
p1794
sg15
S'Wife'
p1795
sg16
S''
sg18
S"That good, huh? You know this isn't what you want. Why don't you strike out on your own?"
p1796
sbag1
(g10
g3
NtRp1797
(dp1798
g13
S'PlayerSay'
p1799
sg15
S'Wife'
p1800
sg16
S''
sg18
S"I didn't think I knew where to start to be a Mayor, but Mayor Goodman makes it look easy."
p1801
sbag1
(g10
g3
NtRp1802
(dp1803
g13
S'Say'
p1804
sg15
S'Wife'
p1805
sg16
S''
sg18
S"That's the spirit! You can do it! All you need is some money and support."
p1806
sbag1
(g10
g3
NtRp1807
(dp1808
g13
S'PlayerSay'
p1809
sg15
S'Wife'
p1810
sg16
S''
sg18
S'Well...OK! Lets start with money. We need a sponsor.'
p1811
sbag1
(g10
g3
NtRp1812
(dp1813
g13
S'Say'
p1814
sg15
S'Wife'
p1815
sg16
S''
sg18
S'OK, lets go get one!'
p1816
sbag1
(g10
g3
NtRp1817
(dp1818
g13
S'AddAlly'
p1819
sg15
S'Wife'
p1820
sg16
S'Wife:2'
p1821
sg18
S'Sarah Mossman Joins Your Political Party!'
p1822
sbag1
(g10
g3
NtRp1823
(dp1824
g13
S'SetFlag'
p1825
sg15
S'Wife'
p1826
sg16
S'STARTSPONSOR'
p1827
sg18
S''
sbag1
(g10
g3
NtRp1828
(dp1829
g13
S'Destroy'
p1830
sg15
S'Wife'
p1831
sg16
S''
sg18
S''
sbasS'end'
p1832
(lp1833
g1
(g10
g3
NtRp1834
(dp1835
g13
S'Message'
p1836
sg15
g1832
sg16
S''
sg18
S"You have saved the day! The world is safe and all over the Ignited States, our citizens can sleep safe knowing you're taking care of them."
p1837
sbag1
(g10
g3
NtRp1838
(dp1839
g13
S'Message'
p1840
sg15
S'end'
p1841
sg16
S''
sg18
S'Goodnight, Mr President.'
p1842
sbasS'Journalist4'
p1843
(lp1844
g1
(g10
g3
NtRp1845
(dp1846
g13
S'RequireFlag'
p1847
sg15
g1843
sg16
S'ACCESSJOURNALISTS'
p1848
sg18
S'President Mossman, a moment of your time?'
p1849
sbag1
(g10
g3
NtRp1850
(dp1851
g13
S'Say'
p1852
sg15
S'Journalist4'
p1853
sg16
S''
sg18
S"President Mossman, what do you believe was President Allen's failing strategy on the campaign trail? He presented some strong arguments."
p1854
sbag1
(g10
g3
NtRp1855
(dp1856
g13
S'PlayerSay'
p1857
sg15
S'Journalist4'
p1858
sg16
S''
sg18
S"Well, I'd say he went wrong when he decided to try to enslave the human race to mine the Earth's natural resources and ship them back to his home planet."
p1859
sbag1
(g10
g3
NtRp1860
(dp1861
g13
S'Say'
p1862
sg15
S'Journalist4'
p1863
sg16
S''
sg18
S'And how does that differ from your own strategy?'
p1864
sbag1
(g10
g3
NtRp1865
(dp1866
g13
S'PlayerSay'
p1867
sg15
S'Journalist4'
p1868
sg16
S''
sg18
S'I would say I disagree with the former President on all of those issues.'
p1869
sbag1
(g10
g3
NtRp1870
(dp1871
g13
S'Encounter'
p1872
sg15
S'Journalist4'
p1873
sg16
S'P-hard-02'
p1874
sg18
S''
sbag1
(g10
g3
NtRp1875
(dp1876
g13
S'Say'
p1877
sg15
S'Journalist4'
p1878
sg16
S''
sg18
S'No further questions, Mr President.'
p1879
sbag1
(g10
g3
NtRp1880
(dp1881
g13
S'Increment'
p1882
sg15
S'Journalist4'
p1883
sg16
S'PRESSCONF'
p1884
sg18
S''
sbag1
(g10
g3
NtRp1885
(dp1886
g13
S'Destroy'
p1887
sg15
S'Journalist4'
p1888
sg16
S''
sg18
S''
sbasS'Governor'
p1889
(lp1890
g1
(g10
g3
NtRp1891
(dp1892
g13
S'RequireFlag'
p1893
sg15
g1889
sg16
S'GOVPOLITICIANSFIRST'
p1894
sg18
S"I'm very busy. Please speak to the others."
p1895
sbag1
(g10
g3
NtRp1896
(dp1897
g13
S'Say'
p1898
sg15
S'Governor'
p1899
sg16
S''
sg18
S'You have quite a way with words, Mayor Mossman. Why are you here?'
p1900
sbag1
(g10
g3
NtRp1901
(dp1902
g13
S'PlayerSay'
p1903
sg15
S'Governor'
p1904
sg16
S''
sg18
S"Mayor Goodman said some troubling things, Governor Badden. I'm here to get to the bottom of it."
p1905
sbag1
(g10
g3
NtRp1906
(dp1907
g13
S'Say'
p1908
sg15
S'Governor'
p1909
sg16
S''
sg18
S"If I knew anything about what you're talking about, I wouldn't tell you. I don't trust you at all."
p1910
sbag1
(g10
g3
NtRp1911
(dp1912
g13
S'PlayerSay'
p1913
sg15
S'Governor'
p1914
sg16
S''
sg18
S'What can I do to convince you?'
p1915
sbag1
(g10
g3
NtRp1916
(dp1917
g13
S'Say'
p1918
sg15
S'Governor'
p1919
sg16
S''
sg18
S"Well...there's some hicks in the south wing that I've been dodging. They want to know about the recent funding cuts. Get rid of them."
p1920
sbag1
(g10
g3
NtRp1921
(dp1922
g13
S'SetFlag'
p1923
sg15
S'Governor'
p1924
sg16
S'STARTHICKS'
p1925
sg18
S''
sbag1
(g10
g3
NtRp1926
(dp1927
g13
S'GiveItem'
p1928
sg15
S'Governor'
p1929
sg16
S'SOUTHWINGDOORKEY'
p1930
sg18
S'The Governor gives you a key.'
p1931
sbag1
(g10
g3
NtRp1932
(dp1933
g13
S'RequireCount'
p1934
sg15
S'Governor'
p1935
sg16
S'DEALWITHHICKS:3'
p1936
sg18
S"I'm not saying another word until you get rid of the hicks in the south wing."
p1937
sbag1
(g10
g3
NtRp1938
(dp1939
g13
S'PlayerSay'
p1940
sg15
S'Governor'
p1941
sg16
S''
sg18
S"OK, I've taken care of your problem, now I want my answers."
p1942
sbag1
(g10
g3
NtRp1943
(dp1944
g13
S'Say'
p1945
sg15
S'Governor'
p1946
sg16
S''
sg18
S'No.'
p1947
sbag1
(g10
g3
NtRp1948
(dp1949
g13
S'PlayerSay'
p1950
sg15
S'Governor'
p1951
sg16
S''
sg18
S'No?'
p1952
sbag1
(g10
g3
NtRp1953
(dp1954
g13
S'Say'
p1955
sg15
S'Governor'
p1956
sg16
S''
sg18
S"No, word has come down from the top that due to the last Mayor's idiocy we're tightening the inner circle to Governors and above."
p1957
sbag1
(g10
g3
NtRp1958
(dp1959
g13
S'PlayerSay'
p1960
sg15
S'Governor'
p1961
sg16
S''
sg18
S"From the top...so you're saying the only way I'll find out what's going on is to be a governor myself?"
p1962
sbag1
(g10
g3
NtRp1963
(dp1964
g13
S'Say'
p1965
sg15
S'Governor'
p1966
sg16
S''
sg18
S"Wait...no...I said I wasn't going to tell you, I..."
p1967
sbag1
(g10
g3
NtRp1968
(dp1969
g13
S'PlayerSay'
p1970
sg15
S'Governor'
p1971
sg16
S''
sg18
S'This is it, governor. Prepare to fight for your office!'
p1972
sbag1
(g10
g3
NtRp1973
(dp1974
g13
S'Encounter'
p1975
sg15
S'Governor'
p1976
sg16
S'P-med-06'
p1977
sg18
S''
sbag1
(g10
g3
NtRp1978
(dp1979
g13
S'Say'
p1980
sg15
S'Governor'
p1981
sg16
S''
sg18
S"Nooo! President Allen doesn't deal well with defeat. What will happen to me?"
p1982
sbag1
(g10
g3
NtRp1983
(dp1984
g13
S'PlayerSay'
p1985
sg15
S'Governor'
p1986
sg16
S''
sg18
S'The President? What does he have to do with this?'
p1987
sbag1
(g10
g3
NtRp1988
(dp1989
g13
S'Say'
p1990
sg15
S'Governor'
p1991
sg16
S''
sg18
S"You really have no idea what you've gotten into, do you? Well, you've gotten all you're getting out of me. I'm getting out of here!"
p1992
sbag1
(g10
g3
NtRp1993
(dp1994
g13
S'SetFlag'
p1995
sg15
S'Governor'
p1996
sg16
S'GOVERNORDEFEATED'
p1997
sg18
S''
sbag1
(g10
g3
NtRp1998
(dp1999
g13
S'Destroy'
p2000
sg15
S'Governor'
p2001
sg16
S''
sg18
S''
sbasS'Politician1'
p2002
(lp2003
g1
(g10
g3
NtRp2004
(dp2005
g13
S'Say'
p2006
sg15
g2002
sg16
S''
sg18
S"I'm sorry Mayor Mossman, the Governor cannot see you now. He's very busy"
p2007
sbag1
(g10
g3
NtRp2008
(dp2009
g13
S'PlayerSay'
p2010
sg15
S'Politician1'
p2011
sg16
S''
sg18
S"It's very important. I need to understand what Mayor Goodman was talking about. It was clear there were other powers at play."
p2012
sbag1
(g10
g3
NtRp2013
(dp2014
g13
S'Say'
p2015
sg15
S'Politician1'
p2016
sg16
S''
sg18
S'Yes well, I fail to see how your country spat has anything to do with Governer Badden.'
p2017
sbag1
(g10
g3
NtRp2018
(dp2019
g13
S'Encounter'
p2020
sg15
S'Politician1'
p2021
sg16
S'P-med-01'
p2022
sg18
S''
sbag1
(g10
g3
NtRp2023
(dp2024
g13
S'Say'
p2025
sg15
S'Politician1'
p2026
sg16
S''
sg18
S'Fair point. The governor will see you now.'
p2027
sbag1
(g10
g3
NtRp2028
(dp2029
g13
S'Destroy'
p2030
sg15
S'Politician1'
p2031
sg16
S''
sg18
S''
sbasS'Lobbyist4'
p2032
(lp2033
g1
(g10
g3
NtRp2034
(dp2035
g13
S'RequireFlag'
p2036
sg15
g2032
sg16
S'STARTLOBBYISTS'
p2037
sg18
S'Please tend to your other meetings so that we can see you.'
p2038
sbag1
(g10
g3
NtRp2039
(dp2040
g13
S'Say'
p2041
sg15
S'Lobbyist4'
p2042
sg16
S''
sg18
S"If you are elected, I would like to know what you would plan to support the Storyteller's Guild and their efforts to revive a lost art."
p2043
sbag1
(g10
g3
NtRp2044
(dp2045
g13
S'PlayerSay'
p2046
sg15
S'Lobbyist4'
p2047
sg16
S''
sg18
S"I'm all for protecting the arts. How can I help?"
p2048
sbag1
(g10
g3
NtRp2049
(dp2050
g13
S'Say'
p2051
sg15
S'Lobbyist4'
p2052
sg16
S''
sg18
S'Storytelling is being butchered and almost completely ignored. I could list movies and television, but the real culprit is video games.'
p2053
sbag1
(g10
g3
NtRp2054
(dp2055
g13
S'Say'
p2056
sg15
S'Lobbyist4'
p2057
sg16
S''
sg18
S'Many video game plots are derivative and archaic. Why, if this were a video game, it would have almost no substance at all and simply be a flimsy curtain for one of their \xe2\x80\x9cfetch quests\xe2\x80\x9d.'
p2058
sbag1
(g10
g3
NtRp2059
(dp2060
g13
S'Say'
p2061
sg15
S'Lobbyist4'
p2062
sg16
S''
sg18
S"It is a most serious problem and we wouldn't be able to lend you our support without assurances on this matter."
p2063
sbag1
(g10
g3
NtRp2064
(dp2065
g13
S'Encounter'
p2066
sg15
S'Lobbyist4'
p2067
sg16
S'P-med-14'
p2068
sg18
S''
sbag1
(g10
g3
NtRp2069
(dp2070
g13
S'Increment'
p2071
sg15
S'Lobbyist4'
p2072
sg16
S'LOBBYISTS'
p2073
sg18
S''
sbag1
(g10
g3
NtRp2074
(dp2075
g13
S'Say'
p2076
sg15
S'Lobbyist4'
p2077
sg16
S''
sg18
S'While I feel that your argument lacks substance and detail, I will nevertheless concede.'
p2078
sbag1
(g10
g3
NtRp2079
(dp2080
g13
S'Destroy'
p2081
sg15
S'Lobbyist4'
p2082
sg16
S''
sg18
S''
sbasS'Politician3'
p2083
(lp2084
g1
(g10
g3
NtRp2085
(dp2086
g13
S'RequireFlag'
p2087
sg15
g2083
sg16
S'STARTPOLITICIANSHAKEDOWN'
p2088
sg18
S'Good morning, Governor Mossman. Your PA will know your schedule. He is waiting beside the stairs'
p2089
sbag1
(g10
g3
NtRp2090
(dp2091
g13
S'Say'
p2092
sg15
S'Politician3'
p2093
sg16
S''
sg18
S"We must all agree that the most important thing is science! If we're not for science, what's the point."
p2094
sbag1
(g10
g3
NtRp2095
(dp2096
g13
S'PlayerSay'
p2097
sg15
S'Politician3'
p2098
sg16
S''
sg18
S'Why science?'
p2099
sbag1
(g10
g3
NtRp2100
(dp2101
g13
S'Say'
p2102
sg15
S'Politician3'
p2103
sg16
S''
sg18
S'Science!'
p2104
sbag1
(g10
g3
NtRp2105
(dp2106
g13
S'PlayerSay'
p2107
sg15
S'Politician3'
p2108
sg16
S''
sg18
S"There's a lot of great things we can do for science but the funding will need to be shared with health and education and..."
p2109
sbag1
(g10
g3
NtRp2110
(dp2111
g13
S'Say'
p2112
sg15
S'Politician3'
p2113
sg16
S''
sg18
S'No! Science!!!'
p2114
sbag1
(g10
g3
NtRp2115
(dp2116
g13
S'Encounter'
p2117
sg15
S'Politician3'
p2118
sg16
S'P-med-07'
p2119
sg18
S''
sbag1
(g10
g3
NtRp2120
(dp2121
g13
S'Say'
p2122
sg15
S'Politician3'
p2123
sg16
S''
sg18
S'Alright, fine! A balanced platform (but mostly science).'
p2124
sbag1
(g10
g3
NtRp2125
(dp2126
g13
S'Increment'
p2127
sg15
S'Politician3'
p2128
sg16
S'POLITICIANSHAKEDOWN'
p2129
sg18
S''
sbag1
(g10
g3
NtRp2130
(dp2131
g13
S'Destroy'
p2132
sg15
S'Politician3'
p2133
sg16
S''
sg18
S''
sbasS'Politician2'
p2134
(lp2135
g1
(g10
g3
NtRp2136
(dp2137
g13
S'Say'
p2138
sg15
g2134
sg16
S''
sg18
S'What are you doing in here? Who are you? Some Mayor?'
p2139
sbag1
(g10
g3
NtRp2140
(dp2141
g13
S'PlayerSay'
p2142
sg15
S'Politician2'
p2143
sg16
S''
sg18
S"I am Mayor Phillip Mossman. I'm here to speak to the Governor."
p2144
sbag1
(g10
g3
NtRp2145
(dp2146
g13
S'Say'
p2147
sg15
S'Politician2'
p2148
sg16
S''
sg18
S"I'm afraid the Governor's schedule is very tight. Come back next month."
p2149
sbag1
(g10
g3
NtRp2150
(dp2151
g13
S'Encounter'
p2152
sg15
S'Politician2'
p2153
sg16
S'P-med-02'
p2154
sg18
S''
sbag1
(g10
g3
NtRp2155
(dp2156
g13
S'Say'
p2157
sg15
S'Politician2'
p2158
sg16
S''
sg18
S'I see. Well, maybe we can squeeze you in.'
p2159
sbag1
(g10
g3
NtRp2160
(dp2161
g13
S'SetFlag'
p2162
sg15
S'Politician2'
p2163
sg16
S'GOVPOLITICIANSFIRST'
p2164
sg18
S''
sbag1
(g10
g3
NtRp2165
(dp2166
g13
S'Destroy'
p2167
sg15
S'Politician2'
p2168
sg16
S''
sg18
S''
sbasS'StairsToL3'
p2169
(lp2170
g1
(g10
g3
NtRp2171
(dp2172
g13
S'Label'
p2173
sg15
g2169
sg16
S'START'
p2174
sg18
S''
sbag1
(g10
g3
NtRp2175
(dp2176
g13
S'PlayerSay'
p2177
sg15
S'StairsToL3'
p2178
sg16
S''
sg18
S"I don't need to go up these stairs."
p2179
sbag1
(g10
g3
NtRp2180
(dp2181
g13
S'Reset'
p2182
sg15
S'StairsToL3'
p2183
sg16
S'START'
p2184
sg18
S''
sbasS'Journalist'
p2185
(lp2186
g1
(g10
g3
NtRp2187
(dp2188
g13
S'RequireFlag'
p2189
sg15
g2185
sg16
S'INTERVIEWSTART'
p2190
sg18
S'Leave me alone, kid I need to get this done before my deadline!'
p2191
sbag1
(g10
g3
NtRp2192
(dp2193
g13
S'Say'
p2194
sg15
S'Journalist'
p2195
sg16
S''
sg18
S"Hey, where's the Mayor?"
p2196
sbag1
(g10
g3
NtRp2197
(dp2198
g13
S'PlayerSay'
p2199
sg15
S'Journalist'
p2200
sg16
S''
sg18
S"He couldn't make it. I'll be taking the interview."
p2201
sbag1
(g10
g3
NtRp2202
(dp2203
g13
S'Say'
p2204
sg15
S'Journalist'
p2205
sg16
S''
sg18
S'Great! Easy pickings! Lets go.'
p2206
sbag1
(g10
g3
NtRp2207
(dp2208
g13
S'Encounter'
p2209
sg15
S'Journalist'
p2210
sg16
S'P-easy-05'
p2211
sg18
S''
sbag1
(g10
g3
NtRp2212
(dp2213
g13
S'Say'
p2214
sg15
S'Journalist'
p2215
sg16
S''
sg18
S"SNORE! Fine, if I can't get anything juicy here I'll do another puff piece on my poodle Frank."
p2216
sbag1
(g10
g3
NtRp2217
(dp2218
g13
S'SetFlag'
p2219
sg15
S'Journalist'
p2220
sg16
S'JOURNALISTINTERVIEW'
p2221
sg18
S''
sbag1
(g10
g3
NtRp2222
(dp2223
g13
S'Destroy'
p2224
sg15
S'Journalist'
p2225
sg16
S''
sg18
S''
sbasS'#----------------------------------------------------------------------------------------ACT 2 \xe2\x80\x93 Part 2---------------------------------------------------------------------------------------------------------------------------------------------------'
p2226
(lp2227
g1
(g10
g3
NtRp2228
(dp2229
g13
S''
sg15
g2226
sg16
S''
sg18
S''
sbasS'Politician6'
p2230
(lp2231
g1
(g10
g3
NtRp2232
(dp2233
g13
S'RequireFlag'
p2234
sg15
g2230
sg16
S'STARTPOLITICIANSHAKEDOWN'
p2235
sg18
S'Good morning, Governor Mossman. Your PA will know your schedule. He is waiting beside the stairs'
p2236
sbag1
(g10
g3
NtRp2237
(dp2238
g13
S'Say'
p2239
sg15
S'Politician6'
p2240
sg16
S''
sg18
S'We should be all about not wasting money'
p2241
sbag1
(g10
g3
NtRp2242
(dp2243
g13
S'PlayerSay'
p2244
sg15
S'Politician6'
p2245
sg16
S''
sg18
S'Sounds fair. Wasting money on what?'
p2246
sbag1
(g10
g3
NtRp2247
(dp2248
g13
S'Say'
p2249
sg15
S'Politician6'
p2250
sg16
S''
sg18
S"You know, stuff that doesn't really help like artsy stuff."
p2251
sbag1
(g10
g3
NtRp2252
(dp2253
g13
S'PlayerSay'
p2254
sg15
S'Politician6'
p2255
sg16
S''
sg18
S"You don't think we should invest in our culture?"
p2256
sbag1
(g10
g3
NtRp2257
(dp2258
g13
S'Say'
p2259
sg15
S'Politician6'
p2260
sg16
S''
sg18
S'We have more important things to spend our money on. Like military.'
p2261
sbag1
(g10
g3
NtRp2262
(dp2263
g13
S'PlayerSay'
p2264
sg15
S'Politician6'
p2265
sg16
S''
sg18
S'What if people want to paint pictures about our military. Or write patriotic songs?'
p2266
sbag1
(g10
g3
NtRp2267
(dp2268
g13
S'Say'
p2269
sg15
S'Politician6'
p2270
sg16
S''
sg18
S"I hadn't thought of that..."
p2271
sbag1
(g10
g3
NtRp2272
(dp2273
g13
S'Encounter'
p2274
sg15
S'Politician6'
p2275
sg16
S'P-med-10'
p2276
sg18
S''
sbag1
(g10
g3
NtRp2277
(dp2278
g13
S'Say'
p2279
sg15
S'Politician6'
p2280
sg16
S''
sg18
S"So, militaristic march songs and battle scenes aren't the only sort of art? Wow."
p2281
sbag1
(g10
g3
NtRp2282
(dp2283
g13
S'Increment'
p2284
sg15
S'Politician6'
p2285
sg16
S'POLITICIANSHAKEDOWN'
p2286
sg18
S''
sbag1
(g10
g3
NtRp2287
(dp2288
g13
S'Destroy'
p2289
sg15
S'Politician6'
p2290
sg16
S''
sg18
S''
sbasS'Marketing2'
p2291
(lp2292
g1
(g10
g3
NtRp2293
(dp2294
g13
S'Label'
p2295
sg15
g2291
sg16
S'SHOPA2'
p2296
sg18
S''
sbag1
(g10
g3
NtRp2297
(dp2298
g13
S'Say'
p2299
sg15
S'Marketing2'
p2300
sg16
S''
sg18
S'Hi Phil! Would you like to run an ad?'
p2301
sbag1
(g10
g3
NtRp2302
(dp2303
g13
S'Shop'
p2304
sg15
S'Marketing2'
p2305
sg16
S'SHOP2'
p2306
sg18
S''
sbag1
(g10
g3
NtRp2307
(dp2308
g13
S'Reset'
p2309
sg15
S'Marketing2'
p2310
sg16
S'SHOPA2'
p2311
sg18
S''
sbasS'Marketing3'
p2312
(lp2313
g1
(g10
g3
NtRp2314
(dp2315
g13
S'Label'
p2316
sg15
g2312
sg16
S'SHOPA2P2'
p2317
sg18
S''
sbag1
(g10
g3
NtRp2318
(dp2319
g13
S'Say'
p2320
sg15
S'Marketing3'
p2321
sg16
S''
sg18
S'Hi Phil! Would you like to run an ad?'
p2322
sbag1
(g10
g3
NtRp2323
(dp2324
g13
S'Shop'
p2325
sg15
S'Marketing3'
p2326
sg16
S'SHOP2P2'
p2327
sg18
S''
sbag1
(g10
g3
NtRp2328
(dp2329
g13
S'Reset'
p2330
sg15
S'Marketing3'
p2331
sg16
S'SHOPA2P2'
p2332
sg18
S''
sbasS'Marketing1'
p2333
(lp2334
g1
(g10
g3
NtRp2335
(dp2336
g13
S'RequireFlag'
p2337
sg15
g2333
sg16
S'STARTSPONSOR'
p2338
sg18
S"I'm sorry, my time is precious. Come back if you're ever running for office."
p2339
sbag1
(g10
g3
NtRp2340
(dp2341
g13
S'Label'
p2342
sg15
S'Marketing1'
p2343
sg16
S'SHOP'
p2344
sg18
S''
sbag1
(g10
g3
NtRp2345
(dp2346
g13
S'Say'
p2347
sg15
S'Marketing1'
p2348
sg16
S''
sg18
S'Hi there! Are you interested in any of my ad campaigns or programs?'
p2349
sbag1
(g10
g3
NtRp2350
(dp2351
g13
S'Shop'
p2352
sg15
S'Marketing1'
p2353
sg16
S'SHOP1'
p2354
sg18
S''
sbag1
(g10
g3
NtRp2355
(dp2356
g13
S'Reset'
p2357
sg15
S'Marketing1'
p2358
sg16
S'SHOP'
p2359
sg18
S''
sbasS'DoorToWarVetRoom'
p2360
(lp2361
g1
(g10
g3
NtRp2362
(dp2363
g13
S'RequireItemPlayerSay'
p2364
sg15
g2360
sg16
S'WARVETROOMKEY'
p2365
sg18
S'What does a president have to do to get a door opened around here?'
p2366
sbag1
(g10
g3
NtRp2367
(dp2368
g13
S'Destroy'
p2369
sg15
S'DoorToWarVetRoom'
p2370
sg16
S''
sg18
S''
sbag1
(g10
g3
NtRp2371
(dp2372
g13
S'Message'
p2373
sg15
S'DoorToWarVetRoom'
p2374
sg16
S''
sg18
S'The door opens with nary a sound.'
p2375
sbasS'hotel_l1'
p2376
(lp2377
g1
(g10
g3
NtRp2378
(dp2379
g13
S'Message'
p2380
sg15
g2376
sg16
S''
sg18
S'The Campaign Trail'
p2381
sbasS'WarVet2'
p2382
(lp2383
g1
(g10
g3
NtRp2384
(dp2385
g13
S'RequireFlag'
p2386
sg15
g2382
sg16
S'AFTERWILFRED'
p2387
sg18
S'Eh? Speak up, boy.'
p2388
sbag1
(g10
g3
NtRp2389
(dp2390
g13
S'Encounter'
p2391
sg15
S'WarVet2'
p2392
sg16
S'P-hard-05'
p2393
sg18
S''
sbag1
(g10
g3
NtRp2394
(dp2395
g13
S'Say'
p2396
sg15
S'WarVet2'
p2397
sg16
S''
sg18
S"We'll head home, but you can expect us back if we see anything else suspicious ."
p2398
sbag1
(g10
g3
NtRp2399
(dp2400
g13
S'Increment'
p2401
sg15
S'WarVet2'
p2402
sg16
S'WARVETS'
p2403
sg18
S''
sbag1
(g10
g3
NtRp2404
(dp2405
g13
S'Destroy'
p2406
sg15
S'WarVet2'
p2407
sg16
S''
sg18
S''
sbasS'PA2'
p2408
(lp2409
g1
(g10
g3
NtRp2410
(dp2411
g13
S'Say'
p2412
sg15
g2408
sg16
S''
sg18
S"Welcome to the White House, President Mossman. It was a long campaign trail with a very strange final debate, but we won and we're here."
p2413
sbag1
(g10
g3
NtRp2414
(dp2415
g13
S'Say'
p2416
sg15
S'PA2'
p2417
sg16
S''
sg18
S'Now is the real test where we see how well we can run a country.'
p2418
sbag1
(g10
g3
NtRp2419
(dp2420
g13
S'Say'
p2421
sg15
S'PA2'
p2422
sg16
S''
sg18
S'The first step is to give your first press conference as President to explain the...situation...with President Alien *cough* I mean Allen.'
p2423
sbag1
(g10
g3
NtRp2424
(dp2425
g13
S'SetFlag'
p2426
sg15
S'PA2'
p2427
sg16
S'ACCESSJOURNALISTS'
p2428
sg18
S''
sbag1
(g10
g3
NtRp2429
(dp2430
g13
S'RequireCount'
p2431
sg15
S'PA2'
p2432
sg16
S'PRESSCONF:3'
p2433
sg18
S"They're waiting for you in the rose garden, Mr President."
p2434
sbag1
(g10
g3
NtRp2435
(dp2436
g13
S'Say'
p2437
sg15
S'PA2'
p2438
sg16
S''
sg18
S'I think that went as well as could be expected.'
p2439
sbag1
(g10
g3
NtRp2440
(dp2441
g13
S'SetFlag'
p2442
sg15
S'PA2'
p2443
sg16
S'ACCESSKAWALSKI'
p2444
sg18
S''
sbag1
(g10
g3
NtRp2445
(dp2446
g13
S'Say'
p2447
sg15
S'PA2'
p2448
sg16
S''
sg18
S'Your secret service detail is waiting inside to have a word with you about security protocol.'
p2449
sbag1
(g10
g3
NtRp2450
(dp2451
g13
S'RequireFlag'
p2452
sg15
S'PA2'
p2453
sg16
S'KAWALSKIJOIN'
p2454
sg18
S"You'd better speak to the secret service agent. Your security is paramount."
p2455
sbag1
(g10
g3
NtRp2456
(dp2457
g13
S'Say'
p2458
sg15
S'PA2'
p2459
sg16
S''
sg18
S"Some war veterans would like to speak to you about some recent decisions you've made. I don't dare turn them away. You'd better speak to them."
p2460
sbag1
(g10
g3
NtRp2461
(dp2462
g13
S'PlayerSay'
p2463
sg15
S'PA2'
p2464
sg16
S''
sg18
S'Of course.'
p2465
sbag1
(g10
g3
NtRp2466
(dp2467
g13
S'GiveItem'
p2468
sg15
S'PA2'
p2469
sg16
S'WARVETROOMKEY'
p2470
sg18
S'Received key to the East Room.'
p2471
sbag1
(g10
g3
NtRp2472
(dp2473
g13
S'RequireCount'
p2474
sg15
S'PA2'
p2475
sg16
S'WARVETS:2'
p2476
sg18
S'The war vets are waiting for you in the East Room.'
p2477
sbag1
(g10
g3
NtRp2478
(dp2479
g13
S'Say'
p2480
sg15
S'PA2'
p2481
sg16
S''
sg18
S'What was that about?'
p2482
sbag1
(g10
g3
NtRp2483
(dp2484
g13
S'PlayerSay'
p2485
sg15
S'PA2'
p2486
sg16
S''
sg18
S"I'd like to know as well. Find me the documents that approved troop movement today and get me a meeting with the Joint Chiefs."
p2487
sbag1
(g10
g3
NtRp2488
(dp2489
g13
S'Say'
p2490
sg15
S'PA2'
p2491
sg16
S''
sg18
S'Yessir.'
p2492
sbag1
(g10
g3
NtRp2493
(dp2494
g13
S'Say'
p2495
sg15
S'PA2'
p2496
sg16
S''
sg18
S"Your next meeting is with the teachers in the corridor. They didn't give me the details, but it seems they're quite upset."
p2497
sbag1
(g10
g3
NtRp2498
(dp2499
g13
S'GiveItem'
p2500
sg15
S'PA2'
p2501
sg16
S'TEACHERROOMKEY'
p2502
sg18
S'Received key to the West Room.'
p2503
sbag1
(g10
g3
NtRp2504
(dp2505
g13
S'RequireCount'
p2506
sg15
S'PA2'
p2507
sg16
S'TEACHERS:2'
p2508
sg18
S"You'll need to speak to the teachers in the West Room, Mr President."
p2509
sbag1
(g10
g3
NtRp2510
(dp2511
g13
S'Say'
p2512
sg15
S'PA2'
p2513
sg16
S''
sg18
S'You seem to have sorted the teachers out.'
p2514
sbag1
(g10
g3
NtRp2515
(dp2516
g13
S'PlayerSay'
p2517
sg15
S'PA2'
p2518
sg16
S''
sg18
S"I've mollified them for now, but I want to get to the bottom of this - NOW!"
p2519
sbag1
(g10
g3
NtRp2520
(dp2521
g13
S'Say'
p2522
sg15
S'PA2'
p2523
sg16
S''
sg18
S'Of course, Mr President. I do have those papers you asked for that approved the mobilisation of troops'
p2524
sbag1
(g10
g3
NtRp2525
(dp2526
g13
S'PlayerSay'
p2527
sg15
S'PA2'
p2528
sg16
S''
sg18
S"Let me see those...this is my signature! But I didn't sign this!"
p2529
sbag1
(g10
g3
NtRp2530
(dp2531
g13
S'Say'
p2532
sg15
S'PA2'
p2533
sg16
S''
sg18
S'This is very serious! What should we do, sir?'
p2534
sbag1
(g10
g3
NtRp2535
(dp2536
g13
S'PlayerSay'
p2537
sg15
S'PA2'
p2538
sg16
S''
sg18
S'Call a cabinet meeting. Immediately.'
p2539
sbag1
(g10
g3
NtRp2540
(dp2541
g13
S'Say'
p2542
sg15
S'PA2'
p2543
sg16
S''
sg18
S"Understood. They'll be there when you get there."
p2544
sbag1
(g10
g3
NtRp2545
(dp2546
g13
S'GiveItem'
p2547
sg15
S'PA2'
p2548
sg16
S'CABINETROOMKEY'
p2549
sg18
S'Received key to the Cabinet Room.'
p2550
sbag1
(g10
g3
NtRp2551
(dp2552
g13
S'RequireCount'
p2553
sg15
S'PA2'
p2554
sg16
S'CABINETMEMBERS:3'
p2555
sg18
S'The cabinet is waiting for you in the Cabinet Room.'
p2556
sbag1
(g10
g3
NtRp2557
(dp2558
g13
S'Say'
p2559
sg15
S'PA2'
p2560
sg16
S''
sg18
S'The Joint Chiefs are assembled in the Situation Room downstairs.'
p2561
sbag1
(g10
g3
NtRp2562
(dp2563
g13
S'Say'
p2564
sg15
S'PA2'
p2565
sg16
S''
sg18
S'Your palm print has been coded for maximum clearance now; you should have access to the basement.'
p2566
sbag1
(g10
g3
NtRp2567
(dp2568
g13
S'SetFlag'
p2569
sg15
S'PA2'
p2570
sg16
S'ACCESSWHITEHOUSEBASEMENT'
p2571
sg18
S''
sbag1
(g10
g3
NtRp2572
(dp2573
g13
S'RequireFlag'
p2574
sg15
S'PA2'
p2575
sg16
S'REPEAT'
p2576
sg18
S'Get to the basement, the Joint Chiefs are waiting.'
p2577
sbasS'DoorToTeacherRoom'
p2578
(lp2579
g1
(g10
g3
NtRp2580
(dp2581
g13
S'RequireItemPlayerSay'
p2582
sg15
g2578
sg16
S'TEACHERROOMKEY'
p2583
sg18
S'"Hey in there, open up!"'
p2584
sbag1
(g10
g3
NtRp2585
(dp2586
g13
S'Destroy'
p2587
sg15
S'DoorToTeacherRoom'
p2588
sg16
S''
sg18
S''
sbag1
(g10
g3
NtRp2589
(dp2590
g13
S'Message'
p2591
sg15
S'DoorToTeacherRoom'
p2592
sg16
S''
sg18
S'The teachers look up as you enter the room.'
p2593
sbasS'Journalist2'
p2594
(lp2595
g1
(g10
g3
NtRp2596
(dp2597
g13
S'RequireFlag'
p2598
sg15
g2594
sg16
S'STARTHICKS2'
p2599
sg18
S'Governor Badden sends his Mayor lacky to do his dirty work \xe2\x80\x93 what a scoop!'
p2600
sbag1
(g10
g3
NtRp2601
(dp2602
g13
S'Encounter'
p2603
sg15
S'Journalist2'
p2604
sg16
S'P-med-05'
p2605
sg18
S''
sbag1
(g10
g3
NtRp2606
(dp2607
g13
S'Say'
p2608
sg15
S'Journalist2'
p2609
sg16
S''
sg18
S"I'm going back to write a comparison piece on you and Governor Badden. You should consider running for Governor."
p2610
sbag1
(g10
g3
NtRp2611
(dp2612
g13
S'Increment'
p2613
sg15
S'Journalist2'
p2614
sg16
S'DEALWITHHICKS'
p2615
sg18
S''
sbag1
(g10
g3
NtRp2616
(dp2617
g13
S'Destroy'
p2618
sg15
S'Journalist2'
p2619
sg16
S''
sg18
S''
sbasS'#P-med-24'
p2620
(lp2621
g1
(g10
g3
NtRp2622
(dp2623
g13
S'PresidentAlien'
p2624
sg15
g2620
sg16
S''
sg18
S"You think you've beaten me, but now you're going to fight the real me!"
p2625
sbag1
(g10
g3
NtRp2626
(dp2627
g13
S'Player'
p2628
sg15
S'#P-med-24'
p2629
sg16
S''
sg18
S'I knew something was wrong, but this...?'
p2630
sbag1
(g10
g3
NtRp2631
(dp2632
g13
S'PresidentAlien'
p2633
sg15
S'#P-med-24'
p2634
sg16
S''
sg18
S"All you've done is caused me to expedite my plans to enslave the human race!"
p2635
sbasS'TVPersonality'
p2636
(lp2637
g1
(g10
g3
NtRp2638
(dp2639
g13
S'RequireFlag'
p2640
sg15
g2636
sg16
S'STARTHERCULES'
p2641
sg18
S"Ooooh, sorry Mossman, baby! We're not ready for you yet."
p2642
sbag1
(g10
g3
NtRp2643
(dp2644
g13
S'Say'
p2645
sg15
S'TVPersonality'
p2646
sg16
S''
sg18
S"There's the man! Are you ready to cross wits with The Mighty Hercules!"
p2647
sbag1
(g10
g3
NtRp2648
(dp2649
g13
S'PlayerSay'
p2650
sg15
S'TVPersonality'
p2651
sg16
S''
sg18
S'I sure am!'
p2652
sbag1
(g10
g3
NtRp2653
(dp2654
g13
S'Say'
p2655
sg15
S'TVPersonality'
p2656
sg16
S''
sg18
S"Really...? You don't want to...see your make-up artist?"
p2657
sbag1
(g10
g3
NtRp2658
(dp2659
g13
S'PlayerSay'
p2660
sg15
S'TVPersonality'
p2661
sg16
S''
sg18
S"No, no, I'm ready."
p2662
sbag1
(g10
g3
NtRp2663
(dp2664
g13
S'Say'
p2665
sg15
S'TVPersonality'
p2666
sg16
S''
sg18
S'Suit yourself...'
p2667
sbag1
(g10
g3
NtRp2668
(dp2669
g13
S'Say'
p2670
sg15
S'TVPersonality'
p2671
sg16
S''
sg18
S'... from the looks of it, suiting yourself is exactly what you did.'
p2672
sbag1
(g10
g3
NtRp2673
(dp2674
g13
S'Encounter'
p2675
sg15
S'TVPersonality'
p2676
sg16
S'P-med-20'
p2677
sg18
S''
sbag1
(g10
g3
NtRp2678
(dp2679
g13
S'Say'
p2680
sg15
S'TVPersonality'
p2681
sg16
S''
sg18
S'Good show, you sure gave me a run for my money.'
p2682
sbag1
(g10
g3
NtRp2683
(dp2684
g13
S'Say'
p2685
sg15
S'TVPersonality'
p2686
sg16
S''
sg18
S"Now beat it, you're making me look bad!"
p2687
sbag1
(g10
g3
NtRp2688
(dp2689
g13
S'SetFlag'
p2690
sg15
S'TVPersonality'
p2691
sg16
S'BEATHERCULES'
p2692
sg18
S''
sbag1
(g10
g3
NtRp2693
(dp2694
g13
S'Destroy'
p2695
sg15
S'TVPersonality'
p2696
sg16
S''
sg18
S''
sbasS'act1'
p2697
(lp2698
g1
(g10
g3
NtRp2699
(dp2700
g13
S'Message'
p2701
sg15
g2697
sg16
S''
sg18
S'Good morning, Assistant Phil.'
p2702
sbasS'act2'
p2703
(lp2704
g1
(g10
g3
NtRp2705
(dp2706
g13
S'Message'
p2707
sg15
g2703
sg16
S''
sg18
S"The Governor's Mansion"
p2708
sbasS'SouthWingDoor'
p2709
(lp2710
g1
(g10
g3
NtRp2711
(dp2712
g13
S'RequireItemMessage'
p2713
sg15
g2709
sg16
S'SOUTHWINGDOORKEY'
p2714
sg18
S'The door appears to be locked'
p2715
sbag1
(g10
g3
NtRp2716
(dp2717
g13
S'Message'
p2718
sg15
S'SouthWingDoor'
p2719
sg16
S''
sg18
S"The door unlocks with a satisfying 'click'"
p2720
sbag1
(g10
g3
NtRp2721
(dp2722
g13
S'Destroy'
p2723
sg15
S'SouthWingDoor'
p2724
sg16
S''
sg18
S''
sbasS'Protester2'
p2725
(lp2726
g1
(g10
g3
NtRp2727
(dp2728
g13
S'Say'
p2729
sg15
g2725
sg16
S''
sg18
S"Bees buzz, Mayors lie, who's this Phillip Mossman guy?"
p2730
sbag1
(g10
g3
NtRp2731
(dp2732
g13
S'RequireFlag'
p2733
sg15
S'Protester2'
p2734
sg16
S'PROTESTORS'
p2735
sg18
S''
sbag1
(g10
g3
NtRp2736
(dp2737
g13
S'Encounter'
p2738
sg15
S'Protester2'
p2739
sg16
S'P-easy-03'
p2740
sg18
S''
sbag1
(g10
g3
NtRp2741
(dp2742
g13
S'Destroy'
p2743
sg15
S'Protester2'
p2744
sg16
S''
sg18
S''
sbasS'JointChief2'
p2745
(lp2746
g1
(g10
g3
NtRp2747
(dp2748
g13
S'PlayerSay'
p2749
sg15
g2745
sg16
S''
sg18
S'Who would have the power to do this? What would they stand to gain? Can we...'
p2750
sbag1
(g10
g3
NtRp2751
(dp2752
g13
S'Say'
p2753
sg15
S'JointChief2'
p2754
sg16
S''
sg18
S"I'm sorry, Sir. I've just learned that some ICBMs pointed at Russia have been activated - using your access codes! They could be fired at any moment!"
p2755
sbag1
(g10
g3
NtRp2756
(dp2757
g13
S'PlayerSay'
p2758
sg15
S'JointChief2'
p2759
sg16
S''
sg18
S'You\'ve "just learned"? Is this your doing?'
p2760
sbag1
(g10
g3
NtRp2761
(dp2762
g13
S'Encounter'
p2763
sg15
S'JointChief2'
p2764
sg16
S'P-hard-12'
p2765
sg18
S''
sbag1
(g10
g3
NtRp2766
(dp2767
g13
S'Increment'
p2768
sg15
S'JointChief2'
p2769
sg16
S'JOINTCHIEFS'
p2770
sg18
S''
sbag1
(g10
g3
NtRp2771
(dp2772
g13
S'PlayerSay'
p2773
sg15
S'JointChief2'
p2774
sg16
S''
sg18
S'I had to be sure.'
p2775
sbag1
(g10
g3
NtRp2776
(dp2777
g13
S'Destroy'
p2778
sg15
S'JointChief2'
p2779
sg16
S''
sg18
S''
sbasS'Protester1'
p2780
(lp2781
g1
(g10
g3
NtRp2782
(dp2783
g13
S'Say'
p2784
sg15
g2780
sg16
S''
sg18
S"Fee Fi Fo Fum, we think Mayor Goodman's Dumb!"
p2785
sbag1
(g10
g3
NtRp2786
(dp2787
g13
S'RequireFlag'
p2788
sg15
S'Protester1'
p2789
sg16
S'PROTESTORS'
p2790
sg18
S''
sbag1
(g10
g3
NtRp2791
(dp2792
g13
S'Encounter'
p2793
sg15
S'Protester1'
p2794
sg16
S'P-easy-02'
p2795
sg18
S''
sbag1
(g10
g3
NtRp2796
(dp2797
g13
S'Destroy'
p2798
sg15
S'Protester1'
p2799
sg16
S''
sg18
S''
sbasS'#----------------------------------------------------------------------------------------ACT 2 \xe2\x80\x93 Part 1---------------------------------------------------------------------------------------------------------------------------------------------------'
p2800
(lp2801
g1
(g10
g3
NtRp2802
(dp2803
g13
S''
sg15
g2800
sg16
S''
sg18
S''
sbasS'Head Protester'
p2804
(lp2805
g1
(g10
g3
NtRp2806
(dp2807
g13
S'Say'
p2808
sg15
g2804
sg16
S''
sg18
S"I am the head protester. You'll never convince us to back down!"
p2809
sbag1
(g10
g3
NtRp2810
(dp2811
g13
S'RequireFlag'
p2812
sg15
S'Head Protester'
p2813
sg16
S'PROTESTORS'
p2814
sg18
S''
sbag1
(g10
g3
NtRp2815
(dp2816
g13
S'PlayerSay'
p2817
sg15
S'Head Protester'
p2818
sg16
S''
sg18
S'What are you protesting?'
p2819
sbag1
(g10
g3
NtRp2820
(dp2821
g13
S'Say'
p2822
sg15
S'Head Protester'
p2823
sg16
S''
sg18
S'Er...Injustice!'
p2824
sbag1
(g10
g3
NtRp2825
(dp2826
g13
S'PlayerSay'
p2827
sg15
S'Head Protester'
p2828
sg16
S''
sg18
S'Injustice against what?'
p2829
sbag1
(g10
g3
NtRp2830
(dp2831
g13
S'Say'
p2832
sg15
S'Head Protester'
p2833
sg16
S''
sg18
S'...'
p2834
sbag1
(g10
g3
NtRp2835
(dp2836
g13
S'Say'
p2837
sg15
S'Head Protester'
p2838
sg16
S''
sg18
S'The People!'
p2839
sbag1
(g10
g3
NtRp2840
(dp2841
g13
S'PlayerSay'
p2842
sg15
S'Head Protester'
p2843
sg16
S''
sg18
S'Yes, but which people?'
p2844
sbag1
(g10
g3
NtRp2845
(dp2846
g13
S'Say'
p2847
sg15
S'Head Protester'
p2848
sg16
S''
sg18
S'See? What a fascist, ALL people you slimey politician scum!'
p2849
sbag1
(g10
g3
NtRp2850
(dp2851
g13
S'Encounter'
p2852
sg15
S'Head Protester'
p2853
sg16
S'P-easy-04'
p2854
sg18
S''
sbag1
(g10
g3
NtRp2855
(dp2856
g13
S'Say'
p2857
sg15
S'Head Protester'
p2858
sg16
S''
sg18
S"Alright, fine! We'll stop protesting...whatever we were protesting."
p2859
sbag1
(g10
g3
NtRp2860
(dp2861
g13
S'SetFlag'
p2862
sg15
S'Head Protester'
p2863
sg16
S'PROTESTORSDEAD'
p2864
sg18
S''
sbag1
(g10
g3
NtRp2865
(dp2866
g13
S'Destroy'
p2867
sg15
S'Head Protester'
p2868
sg16
S''
sg18
S''
sbasS'Receptionist'
p2869
(lp2870
g1
(g10
g3
NtRp2871
(dp2872
g13
S'GotoMap'
p2873
sg15
g2869
sg16
S'end'
p2874
sg18
S''
sbag1
(g10
g3
NtRp2875
(dp2876
g13
S'RequireFlag'
p2877
sg15
S'Receptionist'
p2878
sg16
S'PENQUEST'
p2879
sg18
S"You must be Mayor Goodman's new assistant. He's in his office."
p2880
sbag1
(g10
g3
NtRp2881
(dp2882
g13
S'PlayerSay'
p2883
sg15
S'Receptionist'
p2884
sg16
S''
sg18
S"The Mayor is looking for his pen. He seemed to think you'd know where it was."
p2885
sbag1
(g10
g3
NtRp2886
(dp2887
g13
S'Say'
p2888
sg15
S'Receptionist'
p2889
sg16
S''
sg18
S"Did that buffoon accuse me of stealing again? This is MY pen and he isn't having it."
p2890
sbag1
(g10
g3
NtRp2891
(dp2892
g13
S'Encounter'
p2893
sg15
S'Receptionist'
p2894
sg16
S'P-easy-01'
p2895
sg18
S''
sbag1
(g10
g3
NtRp2896
(dp2897
g13
S'GiveItem'
p2898
sg15
S'Receptionist'
p2899
sg16
S'PEN'
p2900
sg18
S'Receptionist sighs and hands over the pen.'
p2901
sbag1
(g10
g3
NtRp2902
(dp2903
g13
S'Say'
p2904
sg15
S'Receptionist'
p2905
sg16
S''
sg18
S"If you're ever getting low on votes, come talk to me and I'll run an ad campaign to restore them."
p2906
sbag1
(g10
g3
NtRp2907
(dp2908
g13
S'Reset'
p2909
sg15
S'Receptionist'
p2910
sg16
S'RESTORE'
p2911
sg18
S''
sbag1
(g10
g3
NtRp2912
(dp2913
g13
S'Label'
p2914
sg15
S'Receptionist'
p2915
sg16
S'RESTORE'
p2916
sg18
S''
sbag1
(g10
g3
NtRp2917
(dp2918
g13
S'Say'
p2919
sg15
S'Receptionist'
p2920
sg16
S''
sg18
S"You've taken a beating, let me fix you up."
p2921
sbag1
(g10
g3
NtRp2922
(dp2923
g13
S'RestoreVotes'
p2924
sg15
S'Receptionist'
p2925
sg16
S''
sg18
S'Receptionist replenishes votes'
p2926
sbag1
(g10
g3
NtRp2927
(dp2928
g13
S'Reset'
p2929
sg15
S'Receptionist'
p2930
sg16
S'RESTORE'
p2931
sg18
S''
sbasS'CheatAct2P2'
p2932
(lp2933
g1
(g10
g3
NtRp2934
(dp2935
g13
S'AddAlly'
p2936
sg15
g2932
sg16
S'Wife:5'
p2937
sg18
S''
sbag1
(g10
g3
NtRp2938
(dp2939
g13
S'LearnAttack'
p2940
sg15
S'CheatAct2P2'
p2941
sg16
S'BRIBE'
p2942
sg18
S''
sbag1
(g10
g3
NtRp2943
(dp2944
g13
S'LearnAttack'
p2945
sg15
S'CheatAct2P2'
p2946
sg16
S'Wife:BRIBE'
p2947
sg18
S''
sbag1
(g10
g3
NtRp2948
(dp2949
g13
S'LearnAttack'
p2950
sg15
S'CheatAct2P2'
p2951
sg16
S'SLANDER'
p2952
sg18
S''
sbag1
(g10
g3
NtRp2953
(dp2954
g13
S'AddAlly'
p2955
sg15
S'CheatAct2P2'
p2956
sg16
S'Leo:5'
p2957
sg18
S''
sbag1
(g10
g3
NtRp2958
(dp2959
g13
S'CheatXP'
p2960
sg15
S'CheatAct2P2'
p2961
sg16
S'Player:1000'
p2962
sg18
S''
sbag1
(g10
g3
NtRp2963
(dp2964
g13
S'CheatCunning'
p2965
sg15
S'CheatAct2P2'
p2966
sg16
S'Player:5'
p2967
sg18
S''
sbag1
(g10
g3
NtRp2968
(dp2969
g13
S'CheatCharisma'
p2970
sg15
S'CheatAct2P2'
p2971
sg16
S'Player:2'
p2972
sg18
S''
sbag1
(g10
g3
NtRp2973
(dp2974
g13
S'CheatSpeed'
p2975
sg15
S'CheatAct2P2'
p2976
sg16
S'Player:2'
p2977
sg18
S''
sbag1
(g10
g3
NtRp2978
(dp2979
g13
S'CheatWit'
p2980
sg15
S'CheatAct2P2'
p2981
sg16
S'Player:2'
p2982
sg18
S''
sbag1
(g10
g3
NtRp2983
(dp2984
g13
S'CheatFlair'
p2985
sg15
S'CheatAct2P2'
p2986
sg16
S'Player:2'
p2987
sg18
S''
sbag1
(g10
g3
NtRp2988
(dp2989
g13
S'CheatCunning'
p2990
sg15
S'CheatAct2P2'
p2991
sg16
S'Wife:2'
p2992
sg18
S''
sbag1
(g10
g3
NtRp2993
(dp2994
g13
S'CheatCharisma'
p2995
sg15
S'CheatAct2P2'
p2996
sg16
S'Wife:2'
p2997
sg18
S''
sbag1
(g10
g3
NtRp2998
(dp2999
g13
S'CheatSpeed'
p3000
sg15
S'CheatAct2P2'
p3001
sg16
S'Wife:3'
p3002
sg18
S''
sbag1
(g10
g3
NtRp3003
(dp3004
g13
S'CheatWit'
p3005
sg15
S'CheatAct2P2'
p3006
sg16
S'Wife:5'
p3007
sg18
S''
sbag1
(g10
g3
NtRp3008
(dp3009
g13
S'CheatFlair'
p3010
sg15
S'CheatAct2P2'
p3011
sg16
S'Wife:1'
p3012
sg18
S''
sbag1
(g10
g3
NtRp3013
(dp3014
g13
S'CheatCunning'
p3015
sg15
S'CheatAct2P2'
p3016
sg16
S'Leo:2'
p3017
sg18
S''
sbag1
(g10
g3
NtRp3018
(dp3019
g13
S'CheatCharisma'
p3020
sg15
S'CheatAct2P2'
p3021
sg16
S'Leo:2'
p3022
sg18
S''
sbag1
(g10
g3
NtRp3023
(dp3024
g13
S'CheatSpeed'
p3025
sg15
S'CheatAct2P2'
p3026
sg16
S'Leo:2'
p3027
sg18
S''
sbag1
(g10
g3
NtRp3028
(dp3029
g13
S'CheatWit'
p3030
sg15
S'CheatAct2P2'
p3031
sg16
S'Leo:5'
p3032
sg18
S''
sbag1
(g10
g3
NtRp3033
(dp3034
g13
S'CheatFlair'
p3035
sg15
S'CheatAct2P2'
p3036
sg16
S'Leo:2'
p3037
sg18
S''
sbag1
(g10
g3
NtRp3038
(dp3039
g13
S'LearnAttack'
p3040
sg15
S'CheatAct2P2'
p3041
sg16
S'FILIBUSTER'
p3042
sg18
S''
sbag1
(g10
g3
NtRp3043
(dp3044
g13
S'GotoMap'
p3045
sg15
S'CheatAct2P2'
p3046
sg16
S'hotel_l1'
p3047
sg18
S''
sbasS'RestoreAct2'
p3048
(lp3049
g1
(g10
g3
NtRp3050
(dp3051
g13
S'GotoMap'
p3052
sg15
g3048
sg16
S'act2'
p3053
sg18
S''
sbasS'Journalist5'
p3054
(lp3055
g1
(g10
g3
NtRp3056
(dp3057
g13
S'RequireFlag'
p3058
sg15
g3054
sg16
S'ACCESSJOURNALISTS'
p3059
sg18
S'Just one question?'
p3060
sbag1
(g10
g3
NtRp3061
(dp3062
g13
S'Say'
p3063
sg15
S'Journalist5'
p3064
sg16
S''
sg18
S'Do you feel that a bi-partisan relationship will be possible between your party and the opposition?'
p3065
sbag1
(g10
g3
NtRp3066
(dp3067
g13
S'PlayerSay'
p3068
sg15
S'Journalist5'
p3069
sg16
S''
sg18
S'I suppose once we find and remove all of the aliens and reverse the alien brainwashing, bi-partisanship will resume.'
p3070
sbag1
(g10
g3
NtRp3071
(dp3072
g13
S'Encounter'
p3073
sg15
S'Journalist5'
p3074
sg16
S'P-hard-03'
p3075
sg18
S''
sbag1
(g10
g3
NtRp3076
(dp3077
g13
S'Say'
p3078
sg15
S'Journalist5'
p3079
sg16
S''
sg18
S'Thankyou, President Mossman.'
p3080
sbag1
(g10
g3
NtRp3081
(dp3082
g13
S'Increment'
p3083
sg15
S'Journalist5'
p3084
sg16
S'PRESSCONF'
p3085
sg18
S''
sbag1
(g10
g3
NtRp3086
(dp3087
g13
S'Destroy'
p3088
sg15
S'Journalist5'
p3089
sg16
S''
sg18
S''
sbasS'Politician5'
p3090
(lp3091
g1
(g10
g3
NtRp3092
(dp3093
g13
S'RequireFlag'
p3094
sg15
g3090
sg16
S'STARTPOLITICIANSHAKEDOWN'
p3095
sg18
S'Good morning, Governor Mossman. Your PA will know your schedule. He is waiting beside the stairs'
p3096
sbag1
(g10
g3
NtRp3097
(dp3098
g13
S'Say'
p3099
sg15
S'Politician5'
p3100
sg16
S''
sg18
S'Big business!'
p3101
sbag1
(g10
g3
NtRp3102
(dp3103
g13
S'PlayerSay'
p3104
sg15
S'Politician5'
p3105
sg16
S''
sg18
S'What about big business.'
p3106
sbag1
(g10
g3
NtRp3107
(dp3108
g13
S'Say'
p3109
sg15
S'Politician5'
p3110
sg16
S''
sg18
S'...MORE big business!'
p3111
sbag1
(g10
g3
NtRp3112
(dp3113
g13
S'PlayerSay'
p3114
sg15
S'Politician5'
p3115
sg16
S''
sg18
S'You want to grow our business sector? Provide more jobs?'
p3116
sbag1
(g10
g3
NtRp3117
(dp3118
g13
S'Say'
p3119
sg15
S'Politician5'
p3120
sg16
S''
sg18
S'...Yeeeeh. Yes. Yes, that.'
p3121
sbag1
(g10
g3
NtRp3122
(dp3123
g13
S'PlayerSay'
p3124
sg15
S'Politician5'
p3125
sg16
S''
sg18
S'What about small business?'
p3126
sbag1
(g10
g3
NtRp3127
(dp3128
g13
S'Say'
p3129
sg15
S'Politician5'
p3130
sg16
S''
sg18
S'No! We need to make it BIGGER!'
p3131
sbag1
(g10
g3
NtRp3132
(dp3133
g13
S'Encounter'
p3134
sg15
S'Politician5'
p3135
sg16
S'P-med-09'
p3136
sg18
S''
sbag1
(g10
g3
NtRp3137
(dp3138
g13
S'Say'
p3139
sg15
S'Politician5'
p3140
sg16
S''
sg18
S"OK, I see what you're getting at. Lets help small business to grow. Also, this might help even the odds in the future."
p3141
sbag1
(g10
g3
NtRp3142
(dp3143
g13
S'Say'
p3144
sg15
S'Politician5'
p3145
sg16
S''
sg18
S'The results can be a bit unpredictable, so only use it in drastic situations.'
p3146
sbag1
(g10
g3
NtRp3147
(dp3148
g13
S'Increment'
p3149
sg15
S'Politician5'
p3150
sg16
S'POLITICIANSHAKEDOWN'
p3151
sg18
S''
sbag1
(g10
g3
NtRp3152
(dp3153
g13
S'Destroy'
p3154
sg15
S'Politician5'
p3155
sg16
S''
sg18
S''
sbasS'StairsToBasement'
p3156
(lp3157
g1
(g10
g3
NtRp3158
(dp3159
g13
S'RequireFlagPlayerSay'
p3160
sg15
g3156
sg16
S'ACCESSBASEMENT'
p3161
sg18
S'Smells like a basement. I have no business going down there.'
p3162
sbag1
(g10
g3
NtRp3163
(dp3164
g13
S'Label'
p3165
sg15
S'StairsToBasement'
p3166
sg16
S'START'
p3167
sg18
S''
sbag1
(g10
g3
NtRp3168
(dp3169
g13
S'GotoMap'
p3170
sg15
S'StairsToBasement'
p3171
sg16
S'hotel_basement'
p3172
sg18
S''
sbag1
(g10
g3
NtRp3173
(dp3174
g13
S'Jump'
p3175
sg15
S'StairsToBasement'
p3176
sg16
S'START'
p3177
sg18
S''
sbasS'P-med-12'
p3178
(lp3179
g1
(g10
g3
NtRp3180
(dp3181
g13
S'Say'
p3182
sg15
g3178
sg16
S'Lobbyist001'
p3183
sg18
S'import combat'
p3184
sbag1
(g10
g3
NtRp3185
(dp3186
g13
S'BeginCombat'
p3187
sg15
S'P-med-12'
p3188
sg16
S''
sg18
S''
sbasS'Lobbyist3'
p3189
(lp3190
g1
(g10
g3
NtRp3191
(dp3192
g13
S'RequireFlag'
p3193
sg15
g3189
sg16
S'STARTLOBBYISTS'
p3194
sg18
S'Mutter, mutter'
p3195
sbag1
(g10
g3
NtRp3196
(dp3197
g13
S'Say'
p3198
sg15
S'Lobbyist3'
p3199
sg16
S''
sg18
S"To get the support of my organisation, you'll need to tell me what you can do for the conservation of internet memes."
p3200
sbag1
(g10
g3
NtRp3201
(dp3202
g13
S'PlayerSay'
p3203
sg15
S'Lobbyist3'
p3204
sg16
S''
sg18
S'For...internet memes?'
p3205
sbag1
(g10
g3
NtRp3206
(dp3207
g13
S'Say'
p3208
sg15
S'Lobbyist3'
p3209
sg16
S''
sg18
S"Yes, these are serious times. Who remembers hitting the giant crab for massive damage.There's another console release. I bet you can't even remember what you had to do to get massive damage."
p3210
sbag1
(g10
g3
NtRp3211
(dp3212
g13
S'PlayerSay'
p3213
sg15
S'Lobbyist3'
p3214
sg16
S''
sg18
S'Giant...crab...?'
p3215
sbag1
(g10
g3
NtRp3216
(dp3217
g13
S'Say'
p3218
sg15
S'Lobbyist3'
p3219
sg16
S''
sg18
S"You have to flip him over, that's what! We have to act quickly to save the internet memes. Even as I speak, fewer and fewer Gangnum style videos are made. It's a crime!"
p3220
sbag1
(g10
g3
NtRp3221
(dp3222
g13
S'Say'
p3223
sg15
S'Lobbyist3'
p3224
sg16
S''
sg18
S'We need to build safehouses for all of the lolcats, provide IT helpdesk support for rickrole education and somebody needs to save the Sharknado from extinction!'
p3225
sbag1
(g10
g3
NtRp3226
(dp3227
g13
S'Encounter'
p3228
sg15
S'Lobbyist3'
p3229
sg16
S'P-med-13'
p3230
sg18
S''
sbag1
(g10
g3
NtRp3231
(dp3232
g13
S'Increment'
p3233
sg15
S'Lobbyist3'
p3234
sg16
S'LOBBYISTS'
p3235
sg18
S''
sbag1
(g10
g3
NtRp3236
(dp3237
g13
S'Say'
p3238
sg15
S'Lobbyist3'
p3239
sg16
S''
sg18
S'Nailed It.'
p3240
sbag1
(g10
g3
NtRp3241
(dp3242
g13
S'Destroy'
p3243
sg15
S'Lobbyist3'
p3244
sg16
S''
sg18
S''
sbasS'Mayor'
p3245
(lp3246
g1
(g10
g3
NtRp3247
(dp3248
g13
S'Say'
p3249
sg15
g3245
sg16
S''
sg18
S"Hello, I'm the Mayor!"
p3250
sbag1
(g10
g3
NtRp3251
(dp3252
g13
S'PlayerSay'
p3253
sg15
S'Mayor'
p3254
sg16
S''
sg18
S"Hello, Mayor Goodman, I'm Philip Mossman."
p3255
sbag1
(g10
g3
NtRp3256
(dp3257
g13
S'Say'
p3258
sg15
S'Mayor'
p3259
sg16
S''
sg18
S"Ah yes, you're my new assistant. You'll want to learn a thing or two about politics before we get started."
p3260
sbag1
(g10
g3
NtRp3261
(dp3262
g13
S'Say'
p3263
sg15
S'Mayor'
p3264
sg16
S''
sg18
S'Becoming a great politician boils down to one thing; your ability to win arguments.'
p3265
sbag1
(g10
g3
NtRp3266
(dp3267
g13
S'Say'
p3268
sg15
S'Mayor'
p3269
sg16
S''
sg18
S'Whether it be national debates or swaying constituents and lobbyists to support you, it all comes down to your ability to out-think your opponent.'
p3270
sbag1
(g10
g3
NtRp3271
(dp3272
g13
S'Say'
p3273
sg15
S'Mayor'
p3274
sg16
S''
sg18
S"You see, I've been searching for minutes and haven't been able to find my pen! I bet my receptionist stole it. She has sticky fingers."
p3275
sbag1
(g10
g3
NtRp3276
(dp3277
g13
S'Say'
p3278
sg15
S'Mayor'
p3279
sg16
S''
sg18
S"Well, don't just stand there, go and get it from her! You'll need to use all of your political skills to wrestle it back. She's like a bulldog when she gets ahold of something."
p3280
sbag1
(g10
g3
NtRp3281
(dp3282
g13
S'SetFlag'
p3283
sg15
S'Mayor'
p3284
sg16
S'PENQUEST'
p3285
sg18
S''
sbag1
(g10
g3
NtRp3286
(dp3287
g13
S'RequireItem'
p3288
sg15
S'Mayor'
p3289
sg16
S'PEN'
p3290
sg18
S'Are you simple? Go and get my pen from that thieving receptionist.'
p3291
sbag1
(g10
g3
NtRp3292
(dp3293
g13
S'Say'
p3294
sg15
S'Mayor'
p3295
sg16
S''
sg18
S"Great! I know she can give you a bit of a tongue-lashing, but she's a fantastic receptionist."
p3296
sbag1
(g10
g3
NtRp3297
(dp3298
g13
S'Say'
p3299
sg15
S'Mayor'
p3300
sg16
S''
sg18
S"I'm sure you want to learn a thing or two about politics \xe2\x80\x93 who doesn't? - so lets get started"
p3301
sbag1
(g10
g3
NtRp3302
(dp3303
g13
S'SetFlag'
p3304
sg15
S'Mayor'
p3305
sg16
S'PROTESTORS'
p3306
sg18
S''
sbag1
(g10
g3
NtRp3307
(dp3308
g13
S'RequireFlag'
p3309
sg15
S'Mayor'
p3310
sg16
S'PROTESTORSDEAD'
p3311
sg18
S'Run outside and tell those protesters to scram, will you?'
p3312
sbag1
(g10
g3
NtRp3313
(dp3314
g13
S'Say'
p3315
sg15
S'Mayor'
p3316
sg16
S''
sg18
S"Hope they didn't give you too much trouble!"
p3317
sbag1
(g10
g3
NtRp3318
(dp3319
g13
S'Say'
p3320
sg15
S'Mayor'
p3321
sg16
S''
sg18
S"Now that's sorted, there's a journalist from the local newspaper coming for an interview."
p3322
sbag1
(g10
g3
NtRp3323
(dp3324
g13
S'Say'
p3325
sg15
S'Mayor'
p3326
sg16
S''
sg18
S"I certainly don't have time for it, so you can do the interview."
p3327
sbag1
(g10
g3
NtRp3328
(dp3329
g13
S'Say'
p3330
sg15
S'Mayor'
p3331
sg16
S''
sg18
S"Be careful not to give too much away and if you could throw a few punches at the opposition that'd help."
p3332
sbag1
(g10
g3
NtRp3333
(dp3334
g13
S'PlayerSay'
p3335
sg15
S'Mayor'
p3336
sg16
S''
sg18
S'You want me to...throw a punch?'
p3337
sbag1
(g10
g3
NtRp3338
(dp3339
g13
S'Say'
p3340
sg15
S'Mayor'
p3341
sg16
S''
sg18
S"You're in politics and don't know how to fight dirty? Sheesh! Here, let me show you."
p3342
sbag1
(g10
g3
NtRp3343
(dp3344
g13
S'LearnAttack'
p3345
sg15
S'Mayor'
p3346
sg16
S'SLANDER'
p3347
sg18
S'Mayor teaches Phillip to Slander Opposition'
p3348
sbag1
(g10
g3
NtRp3349
(dp3350
g13
S'Say'
p3351
sg15
S'Mayor'
p3352
sg16
S''
sg18
S"It's a pretty great tactic because it keeps eating away at them long after you've done it."
p3353
sbag1
(g10
g3
NtRp3354
(dp3355
g13
S'SetFlag'
p3356
sg15
S'Mayor'
p3357
sg16
S'INTERVIEWSTART'
p3358
sg18
S''
sbag1
(g10
g3
NtRp3359
(dp3360
g13
S'RequireFlag'
p3361
sg15
S'Mayor'
p3362
sg16
S'JOURNALISTINTERVIEW'
p3363
sg18
S'Go handle that interview and remember to slander the opposition.'
p3364
sbag1
(g10
g3
NtRp3365
(dp3366
g13
S'SetFlag'
p3367
sg15
S'Mayor'
p3368
sg16
S'GOHOMETOWIFE'
p3369
sg18
S''
sbag1
(g10
g3
NtRp3370
(dp3371
g13
S'Say'
p3372
sg15
S'Mayor'
p3373
sg16
S''
sg18
S'OK, fine, now could you buzz off for a while? I need to get some work done.'
p3374
sbag1
(g10
g3
NtRp3375
(dp3376
g13
S'RequireFlag'
p3377
sg15
S'Mayor'
p3378
sg16
S'CONSTITUENTSWON'
p3379
sg18
S"Go home to your family. I have things to do that don't involve you."
p3380
sbag1
(g10
g3
NtRp3381
(dp3382
g13
S'Say'
p3383
sg15
S'Mayor'
p3384
sg16
S''
sg18
S"What's this I hear about you campaigning for Mayor? After everything I've taught you!"
p3385
sbag1
(g10
g3
NtRp3386
(dp3387
g13
S'PlayerSay'
p3388
sg15
S'Mayor'
p3389
sg16
S''
sg18
S"I'm sorry Mayor Goodman, but it's time for someone who's ready to make a difference for our town."
p3390
sbag1
(g10
g3
NtRp3391
(dp3392
g13
S'Say'
p3393
sg15
S'Mayor'
p3394
sg16
S''
sg18
S"You really are a fool. Do you think He's going to allow that?"
p3395
sbag1
(g10
g3
NtRp3396
(dp3397
g13
S'Encounter'
p3398
sg15
S'Mayor'
p3399
sg16
S'P-easy-10'
p3400
sg18
S''
sbag1
(g10
g3
NtRp3401
(dp3402
g13
S'Say'
p3403
sg15
S'Mayor'
p3404
sg16
S''
sg18
S"Well, you've beaten me but you don't have a clue what you're in for. I hope you're up to this kid!"
p3405
sbag1
(g10
g3
NtRp3406
(dp3407
g13
S'Save'
p3408
sg15
S'Mayor'
p3409
sg16
S'RestoreAct2'
p3410
sg18
S''
sbag1
(g10
g3
NtRp3411
(dp3412
g13
S'GotoMap'
p3413
sg15
S'Mayor'
p3414
sg16
S'act2'
p3415
sg18
S''
sbasS'StairsToL2'
p3416
(lp3417
g1
(g10
g3
NtRp3418
(dp3419
g13
S'Label'
p3420
sg15
g3416
sg16
S'START'
p3421
sg18
S''
sbag1
(g10
g3
NtRp3422
(dp3423
g13
S'GotoMap'
p3424
sg15
S'StairsToL2'
p3425
sg16
S'hotel_l2'
p3426
sg18
S''
sbag1
(g10
g3
NtRp3427
(dp3428
g13
S'Jump'
p3429
sg15
S'StairsToL2'
p3430
sg16
S'START'
p3431
sg18
S''
sbassS'attacks'
p3432
(dp3433
S'GETEXCLUSIVE'
p3434
g1
(g10
g3
NtRp3435
(dp3436
S'base_damage_max'
p3437
F-2
sS'description'
p3438
S'asdf'
p3439
sS'weight'
p3440
I1
sS'crit_chance_max'
p3441
F0
sS'crit_chance_min'
p3442
F0
sS'underlying_stat'
p3443
S'Wit'
p3444
sS'target_type'
p3445
S'AllFriendly'
p3446
sS'base_damage_min'
p3447
F-2
sS'spin_cost'
p3448
F5
sS'effects'
p3449
(lp3450
g1
(c__main__
Effect
p3451
g3
NtRp3452
(dp3453
S'function'
p3454
S'add'
p3455
sS'abbrv'
p3456
S'(INCR CNG)'
p3457
sS'attribute'
p3458
S'cunning'
p3459
sS'value'
p3460
F2
sS'rounds_min'
p3461
F1
sS'rounds_max'
p3462
F4
sS'id'
p3463
S'Increase Cunning'
p3464
sS'apply_to_source'
p3465
S'TRUE'
p3466
sbasS'target_count'
p3467
I1
sS'crit_base_damage'
p3468
F0
sg3463
g3434
sS'name'
p3469
S'Get Exclusive'
p3470
sbsS'LOSELOSE'
p3471
g1
(g10
g3
NtRp3472
(dp3473
g3437
F6
sg3438
S'Causes all politicians in the target radius to lose votes'
p3474
sg3440
I1
sg3441
F0
sg3442
F0
sg3443
S'Wit'
p3475
sg3445
S'All'
p3476
sg3447
F4
sg3448
F5
sg3449
(lp3477
sg3467
I6
sg3468
F0
sg3463
g3471
sg3469
S'Lose/lose issue'
p3478
sbsS'LIE'
p3479
g1
(g10
g3
NtRp3480
(dp3481
g3437
F11
sg3438
S"It's only lying if they catch you. A strong attack with a danger of critically failing"
p3482
sg3440
F3
sg3441
F10
sg3442
F5
sg3443
S'Cunning'
p3483
sg3445
S'AllEnemy'
p3484
sg3447
F0
sg3448
I0
sg3449
(lp3485
g1
(g3451
g3
NtRp3486
(dp3487
g3454
S'miss_turn'
p3488
sg3456
S'(MISS)'
p3489
sg3458
S''
sg3460
F0
sg3461
F1
sg3462
F1
sg3463
S'Critical Fail'
p3490
sg3465
S'TRUE'
p3491
sbasg3467
I1
sg3468
F13
sg3463
g3479
sg3469
S'Lie'
p3492
sbsS'HILARIOUSANECDOTE'
p3493
g1
(g10
g3
NtRp3494
(dp3495
g3437
F8
sg3438
S'asdf'
p3496
sg3440
I1
sg3441
F5
sg3442
F2
sg3443
S'Wit'
p3497
sg3445
S'AllFriendly'
p3498
sg3447
F4
sg3448
F5
sg3449
(lp3499
sg3467
I3
sg3468
F11
sg3463
g3493
sg3469
S'Hilarious Anecdote'
p3500
sbsS'SENSATIONALISE'
p3501
g1
(g10
g3
NtRp3502
(dp3503
g3437
F8
sg3438
S'asdf'
p3504
sg3440
I1
sg3441
F0
sg3442
F0
sg3443
S'Wit'
p3505
sg3445
S'AllEnemy'
p3506
sg3447
F4
sg3448
F3
sg3449
(lp3507
sg3467
I1
sg3468
F0
sg3463
g3501
sg3469
S'Sensationalise'
p3508
sbsS'DENOUNCE'
p3509
g1
(g10
g3
NtRp3510
(dp3511
g3437
F5
sg3438
S'asdf'
p3512
sg3440
F6
sg3441
F10
sg3442
F2
sg3443
S'Cunning'
p3513
sg3445
S'AllEnemy'
p3514
sg3447
F2
sg3448
I0
sg3449
(lp3515
sg3467
I1
sg3468
F8
sg3463
g3509
sg3469
S'Denounce'
p3516
sbsS'WHADOWEWANT'
p3517
g1
(g10
g3
NtRp3518
(dp3519
g3437
F5
sg3438
S'asdf'
p3520
sg3440
I1
sg3441
F0
sg3442
F0
sg3443
S'Cunning'
p3521
sg3445
S'AllEnemy'
p3522
sg3447
F2
sg3448
I0
sg3449
(lp3523
sg3467
I1
sg3468
F0
sg3463
g3517
sg3469
S'Whadowewant!'
p3524
sbsS'SCOOP'
p3525
g1
(g10
g3
NtRp3526
(dp3527
g3437
F5
sg3438
S'asdf'
p3528
sg3440
I1
sg3441
F10
sg3442
F5
sg3443
S'Cunning'
p3529
sg3445
S'AllEnemy'
p3530
sg3447
F2
sg3448
I0
sg3449
(lp3531
sg3467
I1
sg3468
F8
sg3463
g3525
sg3469
S'Scoop'
p3532
sbsS'CHOOSETARGETS'
p3533
g1
(g10
g3
NtRp3534
(dp3535
g3437
F7
sg3438
S'asdf'
p3536
sg3440
I1
sg3441
F10
sg3442
F5
sg3443
S'Cunning'
p3537
sg3445
S'AllEnemy'
p3538
sg3447
F2
sg3448
I0
sg3449
(lp3539
sg3467
I1
sg3468
F9
sg3463
g3533
sg3469
S'Choose Targets'
p3540
sbsS'SUMMONPOLITICIAN'
p3541
g1
(g10
g3
NtRp3542
(dp3543
g3437
F0
sg3438
S''
sg3440
I1
sg3441
F0
sg3442
F0
sg3443
S'Wit'
p3544
sg3445
S'None'
p3545
sg3447
F0
sg3448
F4
sg3449
(lp3546
g1
(g3451
g3
NtRp3547
(dp3548
g3454
S'call_friends'
p3549
sg3456
S''
sg3458
S'Politician001:6'
p3550
sg3460
F2
sg3461
F1
sg3462
F1
sg3463
S'Summon Politician'
p3551
sg3465
S''
sbasg3467
I1
sg3468
F0
sg3463
g3541
sg3469
S''
sbsS'FILENAILS'
p3552
g1
(g10
g3
NtRp3553
(dp3554
g3437
F0
sg3438
S'asdf'
p3555
sg3440
I1
sg3441
F0
sg3442
F0
sg3443
S'Wit'
p3556
sg3445
S'AllEnemy'
p3557
sg3447
F0
sg3448
F3
sg3449
(lp3558
g1
(g3451
g3
NtRp3559
(dp3560
g3454
S'add_permanent'
p3561
sg3456
S''
sg3458
S'votes'
p3562
sg3460
F5
sg3461
F1
sg3462
F1
sg3463
S'Votes Restore'
p3563
sg3465
S''
sbasg3467
I1
sg3468
F0
sg3463
g3552
sg3469
S'File Nails'
p3564
sbsS'BRIBE'
p3565
g1
(g10
g3
NtRp3566
(dp3567
g3437
F10
sg3438
S'Is there anything more convincing than money? Buying loyalty gets expensive so be careful.'
p3568
sg3440
I1
sg3441
F0
sg3442
F0
sg3443
S'Money'
p3569
sg3445
S'AllEnemy'
p3570
sg3447
F4
sg3448
I0
sg3449
(lp3571
sg3467
I1
sg3468
F0
sg3463
g3565
sg3469
S'Bribe'
p3572
sbsS'SING'
p3573
g1
(g10
g3
NtRp3574
(dp3575
g3437
F-3
sg3438
S'Why bandy words with politicians when you can sing a catchy tune! Restores votes.'
p3576
sg3440
I1
sg3441
F0
sg3442
F0
sg3443
S'Cunning'
p3577
sg3445
S'AllFriendly'
p3578
sg3447
F-5
sg3448
I0
sg3449
(lp3579
sg3467
I4
sg3468
F0
sg3463
g3573
sg3469
S'Rousing Song'
p3580
sbsS'FEAR'
p3581
g1
(g10
g3
NtRp3582
(dp3583
g3437
F0
sg3438
S'asdf'
p3584
sg3440
F2
sg3441
F0
sg3442
F0
sg3443
S'Wit'
p3585
sg3445
S'AllFriendly'
p3586
sg3447
F0
sg3448
F4
sg3449
(lp3587
g3452
asg3467
I1
sg3468
F0
sg3463
g3581
sg3469
S'Fear Change'
p3588
sbsS'BRAINWASH'
p3589
g1
(g10
g3
NtRp3590
(dp3591
g3437
F0
sg3438
S''
sg3440
I1
sg3441
F0
sg3442
F0
sg3443
S'Wit'
p3592
sg3445
S'AllEnemy'
p3593
sg3447
F0
sg3448
F3
sg3449
(lp3594
g1
(g3451
g3
NtRp3595
(dp3596
g3454
S'miss_turn'
p3597
sg3456
S'(MISS)'
p3598
sg3458
S''
sg3460
F0
sg3461
F1
sg3462
F1
sg3463
S'Miss Turn'
p3599
sg3465
S''
sbasg3467
I4
sg3468
F0
sg3463
g3589
sg3469
S''
sbsS'RAISEDEFCON'
p3600
g1
(g10
g3
NtRp3601
(dp3602
g3437
F5
sg3438
S'asdf'
p3603
sg3440
I1
sg3441
F7
sg3442
F3
sg3443
S'Cunning'
p3604
sg3445
S'AllEnemy'
p3605
sg3447
F4
sg3448
I0
sg3449
(lp3606
sg3467
I1
sg3468
F8
sg3463
g3600
sg3469
S'Raise DEFCON'
p3607
sbsS'BILLBOARD'
p3608
g1
(g10
g3
NtRp3609
(dp3610
g3437
F0
sg3438
S'Run a billboard ad to restore up to 30 votes'
p3611
sg3440
I1
sg3441
F0
sg3442
F0
sg3443
S''
sg3445
S'AllFriendly'
p3612
sg3447
F0
sg3448
I0
sg3449
(lp3613
g1
(g3451
g3
NtRp3614
(dp3615
g3454
S'add_permanent'
p3616
sg3456
S''
sg3458
S'votes'
p3617
sg3460
F30
sg3461
F1
sg3462
F1
sg3463
S'Votes Restore Billboard'
p3618
sg3465
S''
sbasg3467
I1
sg3468
F0
sg3463
g3608
sg3469
S'Billboard Ad'
p3619
sbsS'NEGATTACKAD'
p3620
g1
(g10
g3
NtRp3621
(dp3622
g3437
F8
sg3438
S"Take them all down. They're definitely all bad people. Not like you."
p3623
sg3440
I1
sg3441
F10
sg3442
F10
sg3443
S'Wit'
p3624
sg3445
S'AllEnemy'
p3625
sg3447
F4
sg3448
F3
sg3449
(lp3626
sg3467
I1
sg3468
F10
sg3463
g3620
sg3469
S'Negative Attack Ad'
p3627
sbsS'DAZZLE'
p3628
g1
(g10
g3
NtRp3629
(dp3630
g3437
F5
sg3438
S'Being dazzling and admirable is a great way to take heat off politics'
p3631
sg3440
I1
sg3441
F8
sg3442
F5
sg3443
S'Wit'
p3632
sg3445
S'AllEnemy'
p3633
sg3447
F3
sg3448
F4
sg3449
(lp3634
g1
(g3451
g3
NtRp3635
(dp3636
g3454
S'reduce'
p3637
sg3456
S'(CNG DN)'
p3638
sg3458
S'cunning'
p3639
sg3460
F2
sg3461
F2
sg3462
F5
sg3463
S'Reduce Cunning'
p3640
sg3465
S''
sbasg3467
I4
sg3468
F8
sg3463
g3628
sg3469
S'Dazzle'
p3641
sbsS'BELIEVEMEDIA'
p3642
g1
(g10
g3
NtRp3643
(dp3644
g3437
F3
sg3438
S'asdf'
p3645
sg3440
I1
sg3441
F15
sg3442
F10
sg3443
S'Cunning'
p3646
sg3445
S'AllEnemy'
p3647
sg3447
F1
sg3448
I0
sg3449
(lp3648
sg3467
I1
sg3468
F12
sg3463
g3642
sg3469
S'Believe Media'
p3649
sbsS'PRPREP'
p3650
g1
(g10
g3
NtRp3651
(dp3652
g3437
F0
sg3438
S"If you're going to need some spin, best see a spin doctor! Adds spin points."
p3653
sg3440
I1
sg3441
F0
sg3442
F0
sg3443
S''
sg3445
S'AllFriendly'
p3654
sg3447
F0
sg3448
I0
sg3449
(lp3655
g1
(g3451
g3
NtRp3656
(dp3657
g3454
S'add_permanent'
p3658
sg3456
S''
sg3458
S'spin'
p3659
sg3460
F5
sg3461
F0
sg3462
F0
sg3463
S'Spin Restore'
p3660
sg3465
S'TRUE'
p3661
sbasg3467
I1
sg3468
F0
sg3463
g3650
sg3469
S'PR Prep'
p3662
sbsS'CALLVATICAN'
p3663
g1
(g10
g3
NtRp3664
(dp3665
g3437
F0
sg3438
S'Brings in 2 additional ReligousNuts at 2 levels lower than this one'
p3666
sg3440
I1
sg3441
F0
sg3442
F0
sg3443
S'Wit'
p3667
sg3445
S'None'
p3668
sg3447
F0
sg3448
F5
sg3449
(lp3669
g1
(g3451
g3
NtRp3670
(dp3671
g3454
S'call_friends'
p3672
sg3456
S''
sg3458
S'ReligiousNut001:4'
p3673
sg3460
F2
sg3461
F1
sg3462
F1
sg3463
S'Call Friends'
p3674
sg3465
S''
sbasg3467
I1
sg3468
F0
sg3463
g3663
sg3469
S'Call Battycan'
p3675
sbsS'BLACKMAIL'
p3676
g1
(g10
g3
NtRp3677
(dp3678
g3437
F6
sg3438
S'asdf'
p3679
sg3440
I1
sg3441
F10
sg3442
F2
sg3443
S'Wit'
p3680
sg3445
S'AllEnemy'
p3681
sg3447
F3
sg3448
F4
sg3449
(lp3682
g1
(g3451
g3
NtRp3683
(dp3684
g3454
S'drain'
p3685
sg3456
S'(DRAIN VTS)'
p3686
sg3458
S'votes'
p3687
sg3460
F1
sg3461
F2
sg3462
F5
sg3463
S'Drain Votes'
p3688
sg3465
S''
sbasg3467
I1
sg3468
F2
sg3463
g3676
sg3469
S'Blackmail'
p3689
sbsS'SCARE'
p3690
g1
(g10
g3
NtRp3691
(dp3692
g3437
F7
sg3438
S'Nothing rattles the brains like fear.'
p3693
sg3440
I1
sg3441
F10
sg3442
F2
sg3443
S'Cunning'
p3694
sg3445
S'AllEnemy'
p3695
sg3447
F2
sg3448
I0
sg3449
(lp3696
g3635
asg3467
I2
sg3468
F9
sg3463
g3690
sg3469
S'Scare Campaign'
p3697
sbsS'PROTEST'
p3698
g1
(g10
g3
NtRp3699
(dp3700
g3437
F5
sg3438
S'asdf'
p3701
sg3440
F6
sg3441
F10
sg3442
F2
sg3443
S'Cunning'
p3702
sg3445
S'AllEnemy'
p3703
sg3447
F2
sg3448
I0
sg3449
(lp3704
sg3467
I1
sg3468
F8
sg3463
g3698
sg3469
S'Protest'
p3705
sbsS'SPREADRUMOUR'
p3706
g1
(g10
g3
NtRp3707
(dp3708
g3437
F8
sg3438
S'asdf'
p3709
sg3440
I1
sg3441
F10
sg3442
F2
sg3443
S'Wit'
p3710
sg3445
S'AllEnemy'
p3711
sg3447
F3
sg3448
F3
sg3449
(lp3712
sg3467
I4
sg3468
F10
sg3463
g3706
sg3469
S'Spread Rumour'
p3713
sbsS'AGENDA'
p3714
g1
(g10
g3
NtRp3715
(dp3716
g3437
F5
sg3438
S'asdf'
p3717
sg3440
F6
sg3441
F10
sg3442
F2
sg3443
S'Cunning'
p3718
sg3445
S'AllEnemy'
p3719
sg3447
F2
sg3448
I0
sg3449
(lp3720
sg3467
I1
sg3468
F8
sg3463
g3714
sg3469
S'Push Agenda'
p3721
sbsS'REVIVEITEM'
p3722
g1
(g10
g3
NtRp3723
(dp3724
g3437
F0
sg3438
S'Revive a defeated comrade to half votes'
p3725
sg3440
I1
sg3441
F0
sg3442
F0
sg3443
S''
sg3445
S'DeadFriendly'
p3726
sg3447
F0
sg3448
I0
sg3449
(lp3727
g1
(g3451
g3
NtRp3728
(dp3729
g3454
S'revive'
p3730
sg3456
S''
sg3458
S''
sg3460
F0.5
sg3461
F0
sg3462
F0
sg3463
S'Revive'
p3731
sg3465
S''
sbasg3467
I1
sg3468
F0
sg3463
g3722
sg3469
S'Revive'
p3732
sbsS'FILIBUSTER'
p3733
g1
(g10
g3
NtRp3734
(dp3735
g3437
F6
sg3438
S"You're not moving until they give in. Cause all opposition to miss their turn"
p3736
sg3440
I1
sg3441
F0
sg3442
F0
sg3443
S'Wit'
p3737
sg3445
S'AllEnemy'
p3738
sg3447
F3
sg3448
F7
sg3449
(lp3739
g3595
asg3467
I1
sg3468
F0
sg3463
g3733
sg3469
S'Filibuster'
p3740
sbsS'GATHERINTEL'
p3741
g1
(g10
g3
NtRp3742
(dp3743
g3437
F0
sg3438
S'Increases Cunning.'
p3744
sg3440
I1
sg3441
F0
sg3442
F0
sg3443
S'Wit'
p3745
sg3445
S'AllFriendly'
p3746
sg3447
F0
sg3448
F3
sg3449
(lp3747
g3452
asg3467
I2
sg3468
F0
sg3463
g3741
sg3469
S'Gather Intelligence'
p3748
sbsS'LOVE'
p3749
g1
(g10
g3
NtRp3750
(dp3751
g3437
F6
sg3438
S'asdf'
p3752
sg3440
F4
sg3441
F8
sg3442
F2
sg3443
S'Cunning'
p3753
sg3445
S'AllEnemy'
p3754
sg3447
F1
sg3448
I0
sg3449
(lp3755
sg3467
I1
sg3468
F7
sg3463
g3749
sg3469
S'Love'
p3756
sbsS'OUTOFCONTEXT'
p3757
g1
(g10
g3
NtRp3758
(dp3759
g3437
F5
sg3438
S'asdf'
p3760
sg3440
I1
sg3441
F5
sg3442
F2
sg3443
S'Wit'
p3761
sg3445
S'AllEnemy'
p3762
sg3447
F3
sg3448
F2
sg3449
(lp3763
g3683
asg3467
I1
sg3468
F5
sg3463
g3757
sg3469
S'Take Out Of Context'
p3764
sbsS'GREATSUIT'
p3765
g1
(g10
g3
NtRp3766
(dp3767
g3437
F6
sg3438
S'Well, we could argue, but have you noticed how fabulous this suit is?'
p3768
sg3440
I1
sg3441
F11
sg3442
F6
sg3443
S'Cunning'
p3769
sg3445
S'AllEnemy'
p3770
sg3447
F3
sg3448
I0
sg3449
(lp3771
sg3467
I1
sg3468
F10
sg3463
g3765
sg3469
S'Look Great In Suit'
p3772
sbsS'PEACE'
p3773
g1
(g10
g3
NtRp3774
(dp3775
g3437
F0
sg3438
S'asdf'
p3776
sg3440
F4
sg3441
F0
sg3442
F0
sg3443
S'Wit'
p3777
sg3445
S'AllEnemy'
p3778
sg3447
F0
sg3448
F3
sg3449
(lp3779
g3635
asg3467
I4
sg3468
F0
sg3463
g3773
sg3469
S'Peace'
p3780
sbsS'INSPSPEECH'
p3781
g1
(g10
g3
NtRp3782
(dp3783
g3437
F-2
sg3438
S'Restore votes to all party members'
p3784
sg3440
I1
sg3441
F0
sg3442
F0
sg3443
S'Cunning'
p3785
sg3445
S'AllFriendly'
p3786
sg3447
F-2
sg3448
I0
sg3449
(lp3787
sg3467
I4
sg3468
F0
sg3463
g3781
sg3469
S'Inspirational Speech'
p3788
sbsS'RALLYENEMY'
p3789
g1
(g10
g3
NtRp3790
(dp3791
g3437
F0
sg3438
S'Get back some votes by rallying supporters'
p3792
sg3440
I1
sg3441
F0
sg3442
F0
sg3443
S'Wit'
p3793
sg3445
S'AllFriendly'
p3794
sg3447
F0
sg3448
F3
sg3449
(lp3795
g1
(g3451
g3
NtRp3796
(dp3797
g3454
S'add_permanent'
p3798
sg3456
S''
sg3458
S'votes'
p3799
sg3460
F8
sg3461
F1
sg3462
F1
sg3463
S'Votes Restore Rally Enemy'
p3800
sg3465
S''
sbasg3467
I1
sg3468
F0
sg3463
g3789
sg3469
S'Rally Constituents'
p3801
sbsS'STRIKE'
p3802
g1
(g10
g3
NtRp3803
(dp3804
g3437
F10
sg3438
S'asdf'
p3805
sg3440
I1
sg3441
F0
sg3442
F0
sg3443
S'Wit'
p3806
sg3445
S'AllEnemy'
p3807
sg3447
F0
sg3448
F3
sg3449
(lp3808
g3486
asg3467
I1
sg3468
F0
sg3463
g3802
sg3469
S'Call A Strike'
p3809
sbsS'SLANDER'
p3810
g1
(g10
g3
NtRp3811
(dp3812
g3437
F5
sg3438
S'Strong against polititians...careful with those voters, though!'
p3813
sg3440
F4
sg3441
F10
sg3442
F2
sg3443
S'Cunning'
p3814
sg3445
S'AllEnemy'
p3815
sg3447
F3
sg3448
I0
sg3449
(lp3816
g3683
asg3467
I1
sg3468
F7
sg3463
g3810
sg3469
S'Slander Opposition'
p3817
sbsS'NATTER'
p3818
g1
(g10
g3
NtRp3819
(dp3820
g3437
F8
sg3438
S'asdf'
p3821
sg3440
I1
sg3441
F15
sg3442
F5
sg3443
S'Cunning'
p3822
sg3445
S'AllEnemy'
p3823
sg3447
F1
sg3448
I0
sg3449
(lp3824
sg3467
I1
sg3468
F10
sg3463
g3818
sg3469
S'Natter On'
p3825
sbsS'GOSSIP'
p3826
g1
(g10
g3
NtRp3827
(dp3828
g3437
F3
sg3438
S'asdf'
p3829
sg3440
I1
sg3441
F10
sg3442
F2
sg3443
S'Wit'
p3830
sg3445
S'AllEnemy'
p3831
sg3447
F2
sg3448
F2
sg3449
(lp3832
g3635
asg3467
I1
sg3468
F6
sg3463
g3826
sg3469
S'Gossip'
p3833
sbsS'MISSTURN'
p3834
g1
(g10
g3
NtRp3835
(dp3836
g3437
F0
sg3438
S'asdf'
p3837
sg3440
I1
sg3441
F0
sg3442
F0
sg3443
S''
sg3445
S'AllEnemy'
p3838
sg3447
F0
sg3448
I0
sg3449
(lp3839
sg3467
I1
sg3468
F0
sg3463
g3834
sg3469
S'Miss Turn'
p3840
sbsS'BIELECTION'
p3841
g1
(g10
g3
NtRp3842
(dp3843
g3437
F4
sg3438
S'Redistribute votes amongst targets'
p3844
sg3440
I1
sg3441
F0
sg3442
F0
sg3443
S'Wit'
p3845
sg3445
S'All'
p3846
sg3447
F-4
sg3448
F4
sg3449
(lp3847
sg3467
I8
sg3468
F0
sg3463
g3841
sg3469
S'Bielection'
p3848
sbsS'RUNAD'
p3849
g1
(g10
g3
NtRp3850
(dp3851
g3437
F0
sg3438
S'Gets back up to 15 votes by running an ad'
p3852
sg3440
I1
sg3441
F0
sg3442
F0
sg3443
S''
sg3445
S'AllFriendly'
p3853
sg3447
F0
sg3448
I0
sg3449
(lp3854
g1
(g3451
g3
NtRp3855
(dp3856
g3454
S'add_permanent'
p3857
sg3456
S''
sg3458
S'votes'
p3858
sg3460
F15
sg3461
F1
sg3462
F1
sg3463
S'Votes Restore Ad'
p3859
sg3465
S''
sbasg3467
I1
sg3468
F0
sg3463
g3849
sg3469
S'Run Advertisement'
p3860
sbsS'PAYOFF'
p3861
g1
(g10
g3
NtRp3862
(dp3863
g3437
F8
sg3438
S'Causes them to miss a number of turns'
p3864
sg3440
I1
sg3441
F8
sg3442
F2
sg3443
S'Wit'
p3865
sg3445
S'AllEnemy'
p3866
sg3447
F4
sg3448
F4
sg3449
(lp3867
g1
(g3451
g3
NtRp3868
(dp3869
g3454
S'miss_turn'
p3870
sg3456
S'(MISS)'
p3871
sg3458
S''
sg3460
F0
sg3461
F1
sg3462
F3
sg3463
S'Miss Turn Pay Off'
p3872
sg3465
S''
sbasg3467
I1
sg3468
F10
sg3463
g3861
sg3469
S'Pay Off'
p3873
sbsS'BUREAUCRACY'
p3874
g1
(g10
g3
NtRp3875
(dp3876
g3437
F5
sg3438
S'asdf'
p3877
sg3440
F6
sg3441
F10
sg3442
F2
sg3443
S'Cunning'
p3878
sg3445
S'AllEnemy'
p3879
sg3447
F2
sg3448
I0
sg3449
(lp3880
sg3467
I1
sg3468
F8
sg3463
g3874
sg3469
S'Bureaucracy'
p3881
sbsS'RALLYAUDIENCE'
p3882
g1
(g10
g3
NtRp3883
(dp3884
g3437
F8
sg3438
S'asdf'
p3885
sg3440
I1
sg3441
F0
sg3442
F0
sg3443
S'Wit'
p3886
sg3445
S'AllFriendly'
p3887
sg3447
F4
sg3448
F3
sg3449
(lp3888
g1
(g3451
g3
NtRp3889
(dp3890
g3454
S'add'
p3891
sg3456
S'(INCR CH)'
p3892
sg3458
S'charisma'
p3893
sg3460
F2
sg3461
F1
sg3462
F4
sg3463
S'Increase Charisma'
p3894
sg3465
S'TRUE'
p3895
sbasg3467
I1
sg3468
F0
sg3463
g3882
sg3469
S'Rally Audience'
p3896
sbsS'PORKBARREL'
p3897
g1
(g10
g3
NtRp3898
(dp3899
g3437
F8
sg3438
S'Do something that benefits them specifically. Not advised against politicians.'
p3900
sg3440
I1
sg3441
F0
sg3442
F0
sg3443
S'Wit'
p3901
sg3445
S'AllEnemy'
p3902
sg3447
F4
sg3448
F2
sg3449
(lp3903
sg3467
I1
sg3468
F0
sg3463
g3897
sg3469
S'Pork Barrel'
p3904
sbsS'INSPIRE'
p3905
g1
(g10
g3
NtRp3906
(dp3907
g3437
F0
sg3438
S'asdf'
p3908
sg3440
I1
sg3441
F0
sg3442
F0
sg3443
S'Wit'
p3909
sg3445
S'AllFriendly'
p3910
sg3447
F0
sg3448
F3
sg3449
(lp3911
g3452
asg3467
I4
sg3468
F0
sg3463
g3905
sg3469
S'Inspire'
p3912
sbsS'JOKE'
p3913
g1
(g10
g3
NtRp3914
(dp3915
g3437
F5
sg3438
S"Ha, ha, ha...what were we talking about? Diffuse the situation with some humour. High chance of critical hit. Knock 'em dead!"
p3916
sg3440
F3
sg3441
F20
sg3442
F15
sg3443
S'Cunning'
p3917
sg3445
S'AllEnemy'
p3918
sg3447
F2
sg3448
I0
sg3449
(lp3919
sg3467
I1
sg3468
F12
sg3463
g3913
sg3469
S'Joke'
p3920
sbsS'PRAYFORSOULS'
p3921
g1
(g10
g3
NtRp3922
(dp3923
g3437
F6
sg3438
S'asdf'
p3924
sg3440
F2
sg3441
F10
sg3442
F2
sg3443
S'Cunning'
p3925
sg3445
S'None'
p3926
sg3447
F3
sg3448
I0
sg3449
(lp3927
sg3467
I1
sg3468
F10
sg3463
g3921
sg3469
S'Pray'
p3928
sbsS'REVIVE'
p3929
g1
(g10
g3
NtRp3930
(dp3931
g3437
F0
sg3438
S'Revive a defeated comrade to half votes'
p3932
sg3440
I1
sg3441
F0
sg3442
F0
sg3443
S''
sg3445
S'DeadFriendly'
p3933
sg3447
F0
sg3448
F5
sg3449
(lp3934
g3728
asg3467
I1
sg3468
F0
sg3463
g3929
sg3469
S'Revive'
p3935
sbsS'HUMANSHIELD'
p3936
g1
(g10
g3
NtRp3937
(dp3938
g3437
F8
sg3438
S'No further questions. Step back, please.'
p3939
sg3440
I1
sg3441
F5
sg3442
F2
sg3443
S'Wit'
p3940
sg3445
S'AllEnemy'
p3941
sg3447
F4
sg3448
F4
sg3449
(lp3942
g3595
asg3467
I2
sg3468
F11
sg3463
g3936
sg3469
S'Human Shield'
p3943
sbsS'MAKEDEMANDS'
p3944
g1
(g10
g3
NtRp3945
(dp3946
g3437
F8
sg3438
S'asdf'
p3947
sg3440
I1
sg3441
F0
sg3442
F0
sg3443
S'Cunning'
p3948
sg3445
S'AllEnemy'
p3949
sg3447
F0
sg3448
I0
sg3449
(lp3950
g3486
asg3467
I1
sg3468
F0
sg3463
g3944
sg3469
S'Make Outrageous Demands'
p3951
sbsS'DEFENSE'
p3952
g1
(g10
g3
NtRp3953
(dp3954
g3437
F0
sg3438
S'Gather strenth; -50% to all incoming attacks'
p3955
sg3440
I1
sg3441
F0
sg3442
F0
sg3443
S''
sg3445
S'None'
p3956
sg3447
F0
sg3448
I0
sg3449
(lp3957
g1
(g3451
g3
NtRp3958
(dp3959
g3454
S'add'
p3960
sg3456
S'(DEFEND)'
p3961
sg3458
S'resistance'
p3962
sg3460
F0.5
sg3461
F1
sg3462
F1
sg3463
S'Defense'
p3963
sg3465
S'TRUE'
p3964
sbasg3467
I1
sg3468
F0
sg3463
g3952
sg3469
S'Defense'
p3965
sbsS'MISCONSTRUE'
p3966
g1
(g10
g3
NtRp3967
(dp3968
g3437
F8
sg3438
S'asdf'
p3969
sg3440
I1
sg3441
F0
sg3442
F0
sg3443
S'Cunning'
p3970
sg3445
S'AllEnemy'
p3971
sg3447
F0
sg3448
I0
sg3449
(lp3972
g3486
asg3467
I1
sg3468
F0
sg3463
g3966
sg3469
S'Misconstrue'
p3973
sbsS'NATIONALSECURITY'
p3974
g1
(g10
g3
NtRp3975
(dp3976
g3437
F7
sg3438
S"This is a matter of national security and they don't have codeword clearance"
p3977
sg3440
I1
sg3441
F10
sg3442
F2
sg3443
S'Cunning'
p3978
sg3445
S'AllEnemy'
p3979
sg3447
F2
sg3448
I0
sg3449
(lp3980
sg3467
I1
sg3468
F9
sg3463
g3974
sg3469
S'National Security'
p3981
sbsS'RALLY'
p3982
g1
(g10
g3
NtRp3983
(dp3984
g3437
F0
sg3438
S'Get back some votes by rallying supporters'
p3985
sg3440
I1
sg3441
F0
sg3442
F0
sg3443
S'Wit'
p3986
sg3445
S'AllFriendly'
p3987
sg3447
F0
sg3448
F3
sg3449
(lp3988
g1
(g3451
g3
NtRp3989
(dp3990
g3454
S'add_permanent'
p3991
sg3456
S''
sg3458
S'votes'
p3992
sg3460
F20
sg3461
F1
sg3462
F1
sg3463
S'Votes Restore Rally'
p3993
sg3465
S''
sbasg3467
I1
sg3468
F0
sg3463
g3982
sg3469
S'Rally Constituents'
p3994
sbsS'MESSAGE'
p3995
g1
(g10
g3
NtRp3996
(dp3997
g3437
F6
sg3438
S'You can certainly wear them down by repeating your party line over and over and over...if you want'
p3998
sg3440
F6
sg3441
F10
sg3442
F5
sg3443
S'Cunning'
p3999
sg3445
S'AllEnemy'
p4000
sg3447
F3
sg3448
I0
sg3449
(lp4001
sg3467
I1
sg3468
F10
sg3463
g3995
sg3469
S'Stay On Message'
p4002
sbsS'APPEALTOGOD'
p4003
g1
(g10
g3
NtRp4004
(dp4005
g3437
F10
sg3438
S'asdf'
p4006
sg3440
F3
sg3441
F5
sg3442
F2
sg3443
S'Wit'
p4007
sg3445
S'AllEnemy'
p4008
sg3447
F4
sg3448
F7
sg3449
(lp4009
sg3467
I4
sg3468
F13
sg3463
g4003
sg3469
S'Appeal To God'
p4010
sbssS'levels'
p4011
(lp4012
g1
(g10
g3
NtRp4013
(dp4014
S'votes'
p4015
F20
sS'level'
p4016
F1
sS'spin'
p4017
F5
sS'xp'
p4018
F0
sS'skill_points'
p4019
F0
sbag1
(g10
g3
NtRp4020
(dp4021
g4015
F12
sg4016
F2
sg4017
F5
sg4018
F100
sg4019
F2
sbag1
(g10
g3
NtRp4022
(dp4023
g4015
F15
sg4016
F3
sg4017
F6
sg4018
F200
sg4019
F2
sbag1
(g10
g3
NtRp4024
(dp4025
g4015
F20
sg4016
F4
sg4017
F6
sg4018
F500
sg4019
F2
sbag1
(g10
g3
NtRp4026
(dp4027
g4015
F25
sg4016
F5
sg4017
F7
sg4018
F1000
sg4019
F2
sbag1
(g10
g3
NtRp4028
(dp4029
g4015
F30
sg4016
F6
sg4017
F7
sg4018
F2000
sg4019
F2
sbag1
(g10
g3
NtRp4030
(dp4031
g4015
F35
sg4016
F7
sg4017
F8
sg4018
F5000
sg4019
F2
sbag1
(g10
g3
NtRp4032
(dp4033
g4015
F40
sg4016
F8
sg4017
F8
sg4018
F10000
sg4019
F2
sbag1
(g10
g3
NtRp4034
(dp4035
g4015
F45
sg4016
F9
sg4017
F9
sg4018
F15000
sg4019
F2
sbag1
(g10
g3
NtRp4036
(dp4037
g4015
F50
sg4016
F10
sg4017
F9
sg4018
F20000
sg4019
F2
sbag1
(g10
g3
NtRp4038
(dp4039
g4015
F55
sg4016
F11
sg4017
F10
sg4018
F40000
sg4019
F2
sbag1
(g10
g3
NtRp4040
(dp4041
g4015
S''
sg4016
F12
sg4017
S''
sg4018
S''
sg4019
S''
sbag1
(g10
g3
NtRp4042
(dp4043
g4015
S''
sg4016
F13
sg4017
S''
sg4018
S''
sg4019
S''
sbag1
(g10
g3
NtRp4044
(dp4045
g4015
S''
sg4016
F14
sg4017
S''
sg4018
S''
sg4019
S''
sbag1
(g10
g3
NtRp4046
(dp4047
g4015
S''
sg4016
F15
sg4017
S''
sg4018
S''
sg4019
S''
sbag1
(g10
g3
NtRp4048
(dp4049
g4015
S''
sg4016
F16
sg4017
S''
sg4018
S''
sg4019
S''
sbag1
(g10
g3
NtRp4050
(dp4051
g4015
S''
sg4016
F17
sg4017
S''
sg4018
S''
sg4019
S''
sbag1
(g10
g3
NtRp4052
(dp4053
g4015
S''
sg4016
F18
sg4017
S''
sg4018
S''
sg4019
S''
sbag1
(g10
g3
NtRp4054
(dp4055
g4015
S''
sg4016
F19
sg4017
S''
sg4018
S''
sg4019
S''
sbag1
(g10
g3
NtRp4056
(dp4057
g4015
S''
sg4016
F20
sg4017
S''
sg4018
S''
sg4019
S''
sbag1
(g10
g3
NtRp4058
(dp4059
g4015
S''
sg4016
F21
sg4017
S''
sg4018
S''
sg4019
S''
sbag1
(g10
g3
NtRp4060
(dp4061
g4015
S''
sg4016
F22
sg4017
S''
sg4018
S''
sg4019
S''
sbag1
(g10
g3
NtRp4062
(dp4063
g4015
S''
sg4016
F23
sg4017
S''
sg4018
S''
sg4019
S''
sbag1
(g10
g3
NtRp4064
(dp4065
g4015
S''
sg4016
F24
sg4017
S''
sg4018
S''
sg4019
S''
sbag1
(g10
g3
NtRp4066
(dp4067
g4015
S''
sg4016
F25
sg4017
S''
sg4018
S''
sg4019
S''
sbag1
(g10
g3
NtRp4068
(dp4069
g4015
S''
sg4016
F26
sg4017
S''
sg4018
S''
sg4019
S''
sbag1
(g10
g3
NtRp4070
(dp4071
g4015
S''
sg4016
F27
sg4017
S''
sg4018
S''
sg4019
S''
sbag1
(g10
g3
NtRp4072
(dp4073
g4015
S''
sg4016
F28
sg4017
S''
sg4018
S''
sg4019
S''
sbag1
(g10
g3
NtRp4074
(dp4075
g4015
S''
sg4016
F29
sg4017
S''
sg4018
S''
sg4019
S''
sbasg3449
(dp4076
g3464
g3452
sg3563
g3559
sg3660
g3656
sg3894
g3889
sg3599
g3595
sg3674
g3670
sg3859
g3855
sg3872
g3868
sg3800
g3796
sg3618
g3614
sg3731
g3728
sg3640
g3635
sg3688
g3683
sg3963
g3958
sg3490
g3486
sS'Increase Flair'
p4077
g1
(g3451
g3
NtRp4078
(dp4079
g3454
S'add'
p4080
sg3456
S'(INCR FL)'
p4081
sg3458
S'flair'
p4082
sg3460
F2
sg3461
F1
sg3462
F4
sg3463
g4077
sg3465
S'TRUE'
p4083
sbsg3551
g3547
sg3993
g3989
ssS'characters'
p4084
(dp4085
S'Teacher001'
p4086
(lp4087
g1
(g10
g3
NtRp4088
(dp4089
S'flair_base'
p4090
F1
sS'spin_base'
p4091
F4
sS'flair_lvl'
p4092
F0.10000000000000001
sS'wit_base'
p4093
F1
sS'resistance'
p4094
(lp4095
sS'wit_lvl'
p4096
F0.089999999999999997
sS'cunning_base'
p4097
F1
sg3463
g4086
sS'votes_base'
p4098
F12
sS'speed_lvl'
p4099
F0.080000000000000002
sS'standard_attacks'
p4100
(lp4101
g3953
ag3699
asS'cunning_lvl'
p4102
F0.90000000000000002
sS'charisma_lvl'
p4103
F0.10000000000000001
sS'spin_attacks'
p4104
(lp4105
g3803
ag3790
asS'spin_lvl'
p4106
F0.25
sS'charisma_base'
p4107
F1
sS'weaknesses'
p4108
(lp4109
sS'attack_group'
p4110
S'Teacher'
p4111
sS'votes_lvl'
p4112
F0.050000000000000003
sg3469
S'Teacher'
p4113
sS'speed_base'
p4114
F1
sS'immunities'
p4115
(lp4116
sbasS'Politician001'
p4117
(lp4118
g1
(g10
g3
NtRp4119
(dp4120
g4090
F1
sg4091
F4
sg4092
F0.10000000000000001
sg4093
F1
sg4094
(lp4121
g3480
asg4096
F0.089999999999999997
sg4097
F1
sg3463
g4117
sg4098
F12
sg4099
F0.080000000000000002
sg4100
(lp4122
g3996
ag3811
ag3480
ag3914
ag3953
asg4102
F0.90000000000000002
sg4103
F0.10000000000000001
sg4104
(lp4123
g3842
ag3621
ag3930
asg4106
F0.25
sg4107
F1
sg4108
(lp4124
g3566
asg4110
S'Politician'
p4125
sg4112
F0.050000000000000003
sg3469
S'Politician'
p4126
sg4114
F1
sg4115
(lp4127
g3898
asbasS'SecretAgent'
p4128
(lp4129
g1
(g10
g3
NtRp4130
(dp4131
g4090
F1
sg4091
F4
sg4092
F0.10000000000000001
sg4093
F1
sg4094
(lp4132
sg4096
F1
sg4097
F1
sg3463
g4128
sg4098
F18
sg4099
F1
sg4100
(lp4133
g3975
ag3766
asg4102
F1
sg4103
F1
sg4104
(lp4134
g3937
ag3742
asg4106
F1
sg4107
F1
sg4108
(lp4135
sg4110
S'SecretAgent'
p4136
sg4112
F0.050000000000000003
sg3469
S'Agent Kawalski'
p4137
sg4114
F1
sg4115
(lp4138
sbasS'Bumpkin001'
p4139
(lp4140
g1
(g10
g3
NtRp4141
(dp4142
g4090
F1
sg4091
F4
sg4092
F0.10000000000000001
sg4093
F1
sg4094
(lp4143
sg4096
F0.089999999999999997
sg4097
F1
sg3463
g4139
sg4098
F12
sg4099
F0.080000000000000002
sg4100
(lp4144
g3914
ag3643
asg4102
F0.90000000000000002
sg4103
F0.10000000000000001
sg4104
(lp4145
g3582
ag3707
asg4106
F0.25
sg4107
F1
sg4108
(lp4146
g3480
ag3811
ag3691
asg4110
S'Bumpkin'
p4147
sg4112
F0.050000000000000003
sg3469
S'Bumpkin'
p4148
sg4114
F1
sg4115
(lp4149
sbasS'WarVet001'
p4150
(lp4151
g1
(g10
g3
NtRp4152
(dp4153
g4090
F1
sg4091
F4
sg4092
F0.10000000000000001
sg4093
F1
sg4094
(lp4154
sg4096
F0.089999999999999997
sg4097
F1
sg3463
g4150
sg4098
F12
sg4099
F0.080000000000000002
sg4100
(lp4155
g3945
ag3953
asg4102
F0.90000000000000002
sg4103
F0.10000000000000001
sg4104
(lp4156
g3906
ag3790
asg4106
F0.25
sg4107
F1
sg4108
(lp4157
sg4110
S'WarVet'
p4158
sg4112
F0.050000000000000003
sg3469
S'War Veteran'
p4159
sg4114
F1
sg4115
(lp4160
sbasS'Receptionist001'
p4161
(lp4162
g1
(g10
g3
NtRp4163
(dp4164
g4090
F1
sg4091
F4
sg4092
F0.10000000000000001
sg4093
F1
sg4094
(lp4165
sg4096
F0.089999999999999997
sg4097
F1
sg3463
g4161
sg4098
F10
sg4099
F0.080000000000000002
sg4100
(lp4166
g3875
ag3819
asg4102
F0.90000000000000002
sg4103
F0.10000000000000001
sg4104
(lp4167
g3827
ag3553
asg4106
F0.25
sg4107
F0
sg4108
(lp4168
sg4110
S'Receptionist'
p4169
sg4112
F0.050000000000000003
sg3469
S'Receptionist'
p4170
sg4114
F1
sg4115
(lp4171
sbasS'DeepThroat'
p4172
(lp4173
g1
(g10
g3
NtRp4174
(dp4175
g4090
F1
sg4091
F4
sg4092
F0.10000000000000001
sg4093
F1
sg4094
(lp4176
sg4096
F0.089999999999999997
sg4097
F1
sg3463
g4172
sg4098
F12
sg4099
F0.080000000000000002
sg4100
(lp4177
g3811
ag3953
ag3945
asg4102
F0.90000000000000002
sg4103
F0.10000000000000001
sg4104
(lp4178
g3677
asg4106
F0.25
sg4107
F1
sg4108
(lp4179
sg4110
S'DeepThroat'
p4180
sg4112
F0.050000000000000003
sg3469
S'Mr Er...?'
p4181
sg4114
F1
sg4115
(lp4182
sbasS'Leo'
p4183
(lp4184
g1
(g10
g3
NtRp4185
(dp4186
g4090
F2
sg4091
F4
sg4092
F0.10000000000000001
sg4093
F5
sg4094
(lp4187
sg4096
F1
sg4097
F2
sg3463
g4183
sg4098
F14
sg4099
F1
sg4100
(lp4188
g3996
ag3811
ag3480
ag3914
ag3566
asg4102
F1
sg4103
F1
sg4104
(lp4189
g3842
ag3621
ag3898
ag3734
asg4106
F1
sg4107
F2
sg4108
(lp4190
sg4110
S'Theo'
p4191
sg4112
F0.050000000000000003
sg3469
S'Theo'
p4192
sg4114
F2
sg4115
(lp4193
sbasS'HippyGirl001'
p4194
(lp4195
g1
(g10
g3
NtRp4196
(dp4197
g4090
F1
sg4091
F4
sg4092
F0.10000000000000001
sg4093
F2
sg4094
(lp4198
sg4096
F0.089999999999999997
sg4097
F2
sg3463
g4194
sg4098
F12
sg4099
F0.080000000000000002
sg4100
(lp4199
g3574
ag3699
ag3750
asg4102
F0.90000000000000002
sg4103
F0.10000000000000001
sg4104
(lp4200
g3774
ag3790
ag3930
asg4106
F0.25
sg4107
F1
sg4108
(lp4201
g3914
asg4110
S'Hippy'
p4202
sg4112
F0.050000000000000003
sg3469
S'Hippy Girl'
p4203
sg4114
F1
sg4115
(lp4204
sbasS'President'
p4205
(lp4206
g1
(g10
g3
NtRp4207
(dp4208
g4090
F1
sg4091
F4
sg4092
F0.10000000000000001
sg4093
F1
sg4094
(lp4209
sg4096
F0.089999999999999997
sg4097
F2
sg3463
g4205
sg4098
F15
sg4099
F0.080000000000000002
sg4100
(lp4210
g3996
ag3811
ag3480
ag3914
ag3953
asg4102
F0.90000000000000002
sg4103
F0.10000000000000001
sg4104
(lp4211
g3842
ag3621
ag3930
asg4106
F0.29999999999999999
sg4107
F1
sg4108
(lp4212
sg4110
S'Politician'
p4213
sg4112
F0.070000000000000007
sg3469
S'President Allen'
p4214
sg4114
F1
sg4115
(lp4215
sbasS'Unionist001'
p4216
(lp4217
g1
(g10
g3
NtRp4218
(dp4219
g4090
F1
sg4091
F4
sg4092
F0.10000000000000001
sg4093
F1
sg4094
(lp4220
sg4096
F0.089999999999999997
sg4097
F1
sg3463
g4216
sg4098
F12
sg4099
F0.080000000000000002
sg4100
(lp4221
g3945
ag3953
ag3699
asg4102
F0.90000000000000002
sg4103
F0.10000000000000001
sg4104
(lp4222
g3803
asg4106
F0.25
sg4107
F1
sg4108
(lp4223
sg4110
S'Unionist'
p4224
sg4112
F0.050000000000000003
sg3469
S'Unionist'
p4225
sg4114
F1
sg4115
(lp4226
sbasS'Wife'
p4227
(lp4228
g1
(g10
g3
NtRp4229
(dp4230
g4090
F1
sg4091
F4
sg4092
F0.10000000000000001
sg4093
F3
sg4094
(lp4231
sg4096
F1
sg4097
F1
sg3463
g4227
sg4098
F12
sg4099
F1
sg4100
(lp4232
g3996
ag3480
ag3914
asg4102
F1
sg4103
F1
sg4104
(lp4233
g3983
ag3930
ag3629
asg4106
F1
sg4107
F1
sg4108
(lp4234
sg4110
S'Wife'
p4235
sg4112
F0.050000000000000003
sg3469
S'Sarah Mossman'
p4236
sg4114
F3
sg4115
(lp4237
sbasS'PresidentAlien'
p4238
(lp4239
g1
(g10
g3
NtRp4240
(dp4241
g4090
F1
sg4091
F4
sg4092
F0.10000000000000001
sg4093
F2
sg4094
(lp4242
sg4096
F0.089999999999999997
sg4097
F2
sg3463
g4238
sg4098
F15
sg4099
F0.080000000000000002
sg4100
(lp4243
g3811
ag3480
ag3953
asg4102
F0.90000000000000002
sg4103
F0.10000000000000001
sg4104
(lp4244
g3590
ag3542
ag3930
asg4106
F0.29999999999999999
sg4107
F1
sg4108
(lp4245
sg4110
S'Alien'
p4246
sg4112
F0.070000000000000007
sg3469
S'President Alien'
p4247
sg4114
F1
sg4115
(lp4248
sbasS'Governor'
p4249
(lp4250
g1
(g10
g3
NtRp4251
(dp4252
g4090
F1
sg4091
F4
sg4092
F0.10000000000000001
sg4093
F1
sg4094
(lp4253
sg4096
F0.089999999999999997
sg4097
F1
sg3463
g4249
sg4098
F12
sg4099
F0.080000000000000002
sg4100
(lp4254
g3996
ag3811
ag3480
ag3914
ag3953
asg4102
F0.90000000000000002
sg4103
F0.10000000000000001
sg4104
(lp4255
g3842
ag3621
ag3930
asg4106
F0.25
sg4107
F1
sg4108
(lp4256
sg4110
S'Politician'
p4257
sg4112
F0.050000000000000003
sg3469
g4249
sg4114
F1
sg4115
(lp4258
sbasS'Lobbyist001'
p4259
(lp4260
g1
(g10
g3
NtRp4261
(dp4262
g4090
F1
sg4091
F4
sg4092
F0.10000000000000001
sg4093
F1
sg4094
(lp4263
sg4096
F0.089999999999999997
sg4097
F1
sg3463
g4259
sg4098
F12
sg4099
F0.080000000000000002
sg4100
(lp4264
g3715
ag3945
asg4102
F0.90000000000000002
sg4103
F0.10000000000000001
sg4104
(lp4265
g3862
ag3677
asg4106
F0.25
sg4107
F1
sg4108
(lp4266
g3898
asg4110
S'Lobbyist'
p4267
sg4112
F0.050000000000000003
sg3469
S'Lobbyist'
p4268
sg4114
F1
sg4115
(lp4269
g3566
asbasS'Journalist001'
p4270
(lp4271
g1
(g10
g3
NtRp4272
(dp4273
g4090
F1
sg4091
F4
sg4092
F0.10000000000000001
sg4093
F2
sg4094
(lp4274
sg4096
F0.080000000000000002
sg4097
F1
sg3463
g4270
sg4098
F16
sg4099
F0.01
sg4100
(lp4275
g3526
ag3967
asg4102
F0.90000000000000002
sg4103
F0.10000000000000001
sg4104
(lp4276
g3758
ag3435
ag3502
asg4106
F0.34999999999999998
sg4107
F1
sg4108
(lp4277
sg4110
S'Journalist'
p4278
sg4112
F0.050000000000000003
sg3469
S'Journalist'
p4279
sg4114
F1
sg4115
(lp4280
sbasS'ReligiousNut001'
p4281
(lp4282
g1
(g10
g3
NtRp4283
(dp4284
g4090
F1
sg4091
F6
sg4092
F0.050000000000000003
sg4093
F3
sg4094
(lp4285
sg4096
F0.089999999999999997
sg4097
F1
sg3463
g4281
sg4098
F12
sg4099
F0.01
sg4100
(lp4286
g3510
ag3922
ag3953
asg4102
F0.050000000000000003
sg4103
F0.050000000000000003
sg4104
(lp4287
g4004
ag3664
asg4106
F0.25
sg4107
F1
sg4108
(lp4288
sg4110
S'Religious'
p4289
sg4112
F0.089999999999999997
sg3469
S'Religious Nut'
p4290
sg4114
F1
sg4115
(lp4291
g3914
asbasS'JointChief001'
p4292
(lp4293
g1
(g10
g3
NtRp4294
(dp4295
g4090
F1
sg4091
F4
sg4092
F0.10000000000000001
sg4093
F1
sg4094
(lp4296
sg4096
F0.089999999999999997
sg4097
F1
sg3463
g4292
sg4098
F12
sg4099
F0.080000000000000002
sg4100
(lp4297
g3945
ag3953
ag3975
ag3601
asg4102
F0.90000000000000002
sg4103
F0.10000000000000001
sg4104
(lp4298
g3742
asg4106
F0.25
sg4107
F1
sg4108
(lp4299
sg4110
S'JointChief'
p4300
sg4112
F0.050000000000000003
sg3469
S'Joint Chief'
p4301
sg4114
F1
sg4115
(lp4302
sbasS'Protester001'
p4303
(lp4304
g1
(g10
g3
NtRp4305
(dp4306
g4090
F0.5
sg4091
F4
sg4092
F0.050000000000000003
sg4093
F1
sg4094
(lp4307
g3914
asg4096
F0.01
sg4097
F1
sg3463
g4303
sg4098
F10
sg4099
F0.01
sg4100
(lp4308
g3699
ag3518
ag3574
asg4102
F0.5
sg4103
F0.10000000000000001
sg4104
(lp4309
g3790
asg4106
F0.20000000000000001
sg4107
F1
sg4108
(lp4310
sg4110
S'Protestor'
p4311
sg4112
F0.01
sg3469
S'Protester'
p4312
sg4114
F1
sg4115
(lp4313
sbasS'TVPersonality001'
p4314
(lp4315
g1
(g10
g3
NtRp4316
(dp4317
g4090
F1
sg4091
F4
sg4092
F0.10000000000000001
sg4093
F1
sg4094
(lp4318
sg4096
F0.089999999999999997
sg4097
F1
sg3463
g4314
sg4098
F12
sg4099
F0.080000000000000002
sg4100
(lp4319
g3914
ag3526
asg4102
F0.90000000000000002
sg4103
F0.10000000000000001
sg4104
(lp4320
g3502
ag3494
asg4106
F0.25
sg4107
F1
sg4108
(lp4321
sg4110
S'TVPersonality'
p4322
sg4112
F0.050000000000000003
sg3469
S"Hecules O'Grady"
p4323
sg4114
F1
sg4115
(lp4324
sbasS'Player'
p4325
(lp4326
g1
(g10
g3
NtRp4327
(dp4328
g4090
F1
sg4091
F5
sg4092
F0.10000000000000001
sg4093
F1
sg4094
(lp4329
sg4096
F0.089999999999999997
sg4097
F1
sg3463
g4325
sg4098
F15
sg4099
F0.080000000000000002
sg4100
(lp4330
g3996
ag3480
ag3914
asg4102
F0.90000000000000002
sg4103
F0.10000000000000001
sg4104
(lp4331
g3621
asg4106
F0.25
sg4107
F1
sg4108
(lp4332
sg4110
S'Player'
p4333
sg4112
F0.20000000000000001
sg3469
S'Phillip Mossman'
p4334
sg4114
F2
sg4115
(lp4335
sbasS'Computer'
p4336
(lp4337
g1
(g10
g3
NtRp4338
(dp4339
g4090
F1
sg4091
F4
sg4092
F0.10000000000000001
sg4093
F1
sg4094
(lp4340
sg4096
F0.089999999999999997
sg4097
F1
sg3463
g4336
sg4098
F12
sg4099
F0.080000000000000002
sg4100
(lp4341
g3996
ag3811
ag3480
ag3914
ag3953
asg4102
F0.90000000000000002
sg4103
F0.10000000000000001
sg4104
(lp4342
g3842
ag3621
ag3930
asg4106
F0.5
sg4107
F1
sg4108
(lp4343
sg4110
S'Politician'
p4344
sg4112
F0.050000000000000003
sg3469
S'N.O.T.B.A.D'
p4345
sg4114
F1
sg4115
(lp4346
sbasS'CabinetPolitician001'
p4347
(lp4348
g1
(g10
g3
NtRp4349
(dp4350
g4090
F1
sg4091
F4
sg4092
F0.10000000000000001
sg4093
F1
sg4094
(lp4351
sg4096
F0.089999999999999997
sg4097
F1
sg3463
g4347
sg4098
F12
sg4099
F0.080000000000000002
sg4100
(lp4352
g3996
ag3811
ag3480
ag3914
ag3953
asg4102
F0.90000000000000002
sg4103
F0.10000000000000001
sg4104
(lp4353
g3842
ag3621
ag3930
asg4106
F0.25
sg4107
F1
sg4108
(lp4354
sg4110
S'Politician'
p4355
sg4112
F0.050000000000000003
sg3469
S'Cabinet Politician'
p4356
sg4114
F1
sg4115
(lp4357
sbasS'Constituent001'
p4358
(lp4359
g1
(g10
g3
NtRp4360
(dp4361
g4090
F1
sg4091
F4
sg4092
F0.10000000000000001
sg4093
F2
sg4094
(lp4362
sg4096
F0.080000000000000002
sg4097
F1
sg3463
g4358
sg4098
F12
sg4099
F0.10000000000000001
sg4100
(lp4363
g3699
ag3715
ag3945
asg4102
F0.90000000000000002
sg4103
F0.10000000000000001
sg4104
(lp4364
g3930
asg4106
F0.25
sg4107
F1
sg4108
(lp4365
sg4110
S'Constituent'
p4366
sg4112
F0.050000000000000003
sg3469
S'Constituent'
p4367
sg4114
F2
sg4115
(lp4368
sbasS'Mayor'
p4369
(lp4370
g1
(g10
g3
NtRp4371
(dp4372
g4090
F1
sg4091
F4
sg4092
F0.10000000000000001
sg4093
F1
sg4094
(lp4373
sg4096
F0.089999999999999997
sg4097
F1
sg3463
g4369
sg4098
F12
sg4099
F0.080000000000000002
sg4100
(lp4374
g3996
ag3811
ag3480
ag3914
ag3953
asg4102
F0.90000000000000002
sg4103
F0.10000000000000001
sg4104
(lp4375
g3842
ag3621
ag3930
asg4106
F0.25
sg4107
F1
sg4108
(lp4376
sg4110
S'Politician'
p4377
sg4112
F0.050000000000000003
sg3469
S'Mayor Goodman'
p4378
sg4114
F1
sg4115
(lp4379
sbassS'quest_items'
p4380
(dp4381
S'SOUTHWINGDOORKEY'
p4382
g1
(g10
g3
NtRp4383
(dp4384
g3438
S'It looks old.'
p4385
sg3463
g4382
sg3469
S'Key to the South Wing'
p4386
sbsS'BILLOFRIGHTS'
p4387
g1
(g10
g3
NtRp4388
(dp4389
g3438
S''
sg3463
g4387
sg3469
S"Citizens' Bill of Rights"
p4390
sbsS'PEN'
p4391
g1
(g10
g3
NtRp4392
(dp4393
g3438
S'Ink flows freely... into your shirt pocket.'
p4394
sg3463
g4391
sg3469
S'A pen'
p4395
sbsS'INCRIMINATINGEVIDENCE'
p4396
g1
(g10
g3
NtRp4397
(dp4398
g3438
S'Very incriminating proof that something troubling is going on in the White House.'
p4399
sg3463
g4396
sg3469
S'Incriminating Evidence'
p4400
sbsS'WARVETROOMKEY'
p4401
g1
(g10
g3
NtRp4402
(dp4403
g3438
S'The key is imprinted with the seal of the President.'
p4404
sg3463
g4401
sg3469
S'Key to the West Room'
p4405
sbsS'CABINETROOMKEY'
p4406
g1
(g10
g3
NtRp4407
(dp4408
g3438
S'The key is imprinted with the seal of the President.'
p4409
sg3463
g4406
sg3469
S'Key to the Cabinet Room'
p4410
sbsS'TEACHERROOMKEY'
p4411
g1
(g10
g3
NtRp4412
(dp4413
g3438
S'The key is imprinted with the seal of the President.'
p4414
sg3463
g4411
sg3469
S'Key to the East Room'
p4415
sbssg4100
(dp4416
S'Theo'
p4417
(lp4418
g3996
ag3811
ag3480
ag3914
ag3566
ag3842
ag3621
ag3898
ag3734
asS'JointChief'
p4419
(lp4420
g3945
ag3953
ag3975
ag3742
ag3601
asS'Politician'
p4421
(lp4422
g3996
ag3811
ag3480
ag3914
ag3842
ag3621
ag3930
ag3953
asS'Bumpkin'
p4423
(lp4424
g3914
ag3582
ag3707
ag3643
asS'Wife'
p4425
(lp4426
g3996
ag3480
ag3914
ag3983
ag3930
ag3629
asS'Lobbyist'
p4427
(lp4428
g3715
ag3862
ag3677
ag3945
asS'DeepThroat'
p4429
(lp4430
g3811
ag3953
ag3677
ag3945
asS'Protestor'
p4431
(lp4432
g3790
ag3699
ag3518
ag3574
asS'SecretAgent'
p4433
(lp4434
g3937
ag3975
ag3742
ag3766
asS'Teacher'
p4435
(lp4436
g3803
ag3953
ag3699
ag3790
asS'Alien'
p4437
(lp4438
g3811
ag3480
ag3590
ag3542
ag3930
ag3953
asS'Player'
p4439
(lp4440
g3996
ag3480
ag3914
ag3621
asS'Computer'
p4441
(lp4442
g3742
ag3975
ag3534
ag3677
ag3945
ag3811
asS'Receptionist'
p4443
(lp4444
g3875
ag3819
ag3827
ag3553
asS'Hippy'
p4445
(lp4446
g3574
ag3699
ag3750
ag3774
ag3790
ag3930
asS'Constituent'
p4447
(lp4448
g3699
ag3930
ag3715
ag3945
asS'TVPersonality'
p4449
(lp4450
g3914
ag3502
ag3526
ag3494
asS'WarVet'
p4451
(lp4452
g3945
ag3953
ag3906
ag3790
asS'Religious'
p4453
(lp4454
g3510
ag4004
ag3664
ag3922
ag3953
asS'Unionist'
p4455
(lp4456
g3945
ag3953
ag3699
ag3803
asS'Journalist'
p4457
(lp4458
g3526
ag3967
ag3758
ag3435
ag3502
assS'shops'
p4459
(dp4460
S'SHOP1'
p4461
(lp4462
g1
(g10
g3
NtRp4463
(dp4464
S'price'
p4465
F20
sS'shop_id'
p4466
g4461
sS'item_attack'
p4467
g3651
sbag1
(g10
g3
NtRp4468
(dp4469
g4465
F20
sg4466
S'SHOP1'
p4470
sg4467
g3850
sbasS'SHOP2P2'
p4471
(lp4472
g1
(g10
g3
NtRp4473
(dp4474
g4465
F20
sg4466
g4471
sg4467
g3651
sbag1
(g10
g3
NtRp4475
(dp4476
g4465
F20
sg4466
S'SHOP2P2'
p4477
sg4467
g3850
sbag1
(g10
g3
NtRp4478
(dp4479
g4465
F50
sg4466
S'SHOP2P2'
p4480
sg4467
g3723
sbag1
(g10
g3
NtRp4481
(dp4482
g4465
F40
sg4466
S'SHOP2P2'
p4483
sg4467
g3609
sbasS'SHOP2'
p4484
(lp4485
g1
(g10
g3
NtRp4486
(dp4487
g4465
F20
sg4466
g4484
sg4467
g3651
sbag1
(g10
g3
NtRp4488
(dp4489
g4465
F20
sg4466
S'SHOP2'
p4490
sg4467
g3850
sbag1
(g10
g3
NtRp4491
(dp4492
g4465
F50
sg4466
S'SHOP2'
p4493
sg4467
g3723
sbag1
(g10
g3
NtRp4494
(dp4495
g4465
F40
sg4466
S'SHOP2'
p4496
sg4467
g3609
sbassS'encounters'
p4497
(dp4498
S'P-hard-14'
p4499
g1
(g10
g3
NtRp4500
(dp4501
S'item_attack_drops'
p4502
(lp4503
sS'item_attacks'
p4504
(lp4505
sg3469
S''
sS'money'
p4506
F100
sg4018
F350
sS'monster2_lvl'
p4507
S''
sS'bribe_cost'
p4508
F50
sS'monster3'
p4509
S''
sS'monster1_lvl'
p4510
F6
sS'monster3_lvl'
p4511
S''
sS'monster4_lvl'
p4512
S''
sS'monster4'
p4513
S''
sS'monster2'
p4514
S''
sg3463
g4499
sS'monster1'
p4515
S'Computer'
p4516
sbsS'P-hard-11'
p4517
g1
(g10
g3
NtRp4518
(dp4519
g4502
(lp4520
sg4504
(lp4521
sg3469
S''
sg4506
F100
sg4018
F350
sg4507
F6
sg4508
F50
sg4509
S'JointChief001'
p4522
sg4510
F6
sg4511
F6
sg4512
S''
sg4513
S''
sg4514
S'JointChief001'
p4523
sg3463
g4517
sg4515
S'JointChief001'
p4524
sbsS'P-hard-10'
p4525
g1
(g10
g3
NtRp4526
(dp4527
g4502
(lp4528
sg4504
(lp4529
sg3469
S''
sg4506
S''
sg4018
F350
sg4507
F6
sg4508
F50
sg4509
S'CabinetPolitician001'
p4530
sg4510
F6
sg4511
F6
sg4512
F6
sg4513
S'CabinetPolitician001'
p4531
sg4514
S'CabinetPolitician001'
p4532
sg3463
g4525
sg4515
S'CabinetPolitician001'
p4533
sbsS'P-hard-13'
p4534
g1
(g10
g3
NtRp4535
(dp4536
g4502
(lp4537
sg4504
(lp4538
sg3469
S''
sg4506
F100
sg4018
F350
sg4507
F6
sg4508
F50
sg4509
S'JointChief001'
p4539
sg4510
F6
sg4511
F6
sg4512
F6
sg4513
S'JointChief001'
p4540
sg4514
S'JointChief001'
p4541
sg3463
g4534
sg4515
S'JointChief001'
p4542
sbsS'P-hard-12'
p4543
g1
(g10
g3
NtRp4544
(dp4545
g4502
(lp4546
sg4504
(lp4547
sg3469
S''
sg4506
F100
sg4018
F350
sg4507
F6
sg4508
F50
sg4509
S'JointChief001'
p4548
sg4510
F6
sg4511
F6
sg4512
S''
sg4513
S''
sg4514
S'JointChief001'
p4549
sg3463
g4543
sg4515
S'JointChief001'
p4550
sbsS'P-easy-05'
p4551
g1
(g10
g3
NtRp4552
(dp4553
g4502
(lp4554
g1
(c__main__
ItemAttack
p4555
g3
NtRp4556
(dp4557
S'attack'
p4558
g3782
sS'quantity'
p4559
I1
sbasg4504
(lp4560
sg3469
S''
sg4506
F0
sg4018
F20
sg4507
S''
sg4508
F50
sg4509
S''
sg4510
F2
sg4511
S''
sg4512
S''
sg4513
S''
sg4514
S''
sg3463
g4551
sg4515
S'Journalist001'
p4561
sbsS'P-easy-04'
p4562
g1
(g10
g3
NtRp4563
(dp4564
g4502
(lp4565
g1
(g4555
g3
NtRp4566
(dp4567
g4558
g3651
sg4559
I1
sbasg4504
(lp4568
sg3469
S''
sg4506
F0
sg4018
F30
sg4507
F1
sg4508
F50
sg4509
S''
sg4510
F1
sg4511
S''
sg4512
S''
sg4513
S''
sg4514
S'Protester001'
p4569
sg3463
g4562
sg4515
S'Protester001'
p4570
sbsS'P-easy-07'
p4571
g1
(g10
g3
NtRp4572
(dp4573
g4502
(lp4574
g1
(g4555
g3
NtRp4575
(dp4576
g4558
g3651
sg4559
I1
sbasg4504
(lp4577
sg3469
S''
sg4506
F15
sg4018
F40
sg4507
F2
sg4508
F50
sg4509
S''
sg4510
F2
sg4511
S''
sg4512
S''
sg4513
S''
sg4514
S'Protester001'
p4578
sg3463
g4571
sg4515
S'Constituent001'
p4579
sbsS'P-easy-06'
p4580
g1
(g10
g3
NtRp4581
(dp4582
g4502
(lp4583
g1
(g4555
g3
NtRp4584
(dp4585
g4558
g3930
sg4559
I1
sbasg4504
(lp4586
sg3469
S''
sg4506
F0
sg4018
F40
sg4507
F2
sg4508
F50
sg4509
S''
sg4510
F2
sg4511
S''
sg4512
S''
sg4513
S''
sg4514
S'Lobbyist001'
p4587
sg3463
g4580
sg4515
S'Lobbyist001'
p4588
sbsS'P-easy-01'
p4589
g1
(g10
g3
NtRp4590
(dp4591
g4502
(lp4592
g1
(g4555
g3
NtRp4593
(dp4594
g4558
g3850
sg4559
I1
sbasg4504
(lp4595
g1
(g4555
g3
NtRp4596
(dp4597
g4558
g3782
sg4559
I1
sbasg3469
S'The quest for pen'
p4598
sg4506
F0
sg4018
F10
sg4507
S''
sg4508
F50
sg4509
S''
sg4510
F1
sg4511
S''
sg4512
S''
sg4513
S''
sg4514
S''
sg3463
g4589
sg4515
S'Receptionist001'
p4599
sbsS'P-easy-03'
p4600
g1
(g10
g3
NtRp4601
(dp4602
g4502
(lp4603
g1
(g4555
g3
NtRp4604
(dp4605
g4558
g3850
sg4559
I1
sbasg4504
(lp4606
g1
(g4555
g3
NtRp4607
(dp4608
g4558
g3782
sg4559
I1
sbasg3469
S''
sg4506
F0
sg4018
F30
sg4507
F1
sg4508
F50
sg4509
S''
sg4510
F1
sg4511
S''
sg4512
S''
sg4513
S''
sg4514
S'Protester001'
p4609
sg3463
g4600
sg4515
S'Protester001'
p4610
sbsS'P-easy-02'
p4611
g1
(g10
g3
NtRp4612
(dp4613
g4502
(lp4614
sg4504
(lp4615
sg3469
S''
sg4506
F0
sg4018
F30
sg4507
F1
sg4508
F50
sg4509
S''
sg4510
F1
sg4511
S''
sg4512
S''
sg4513
S''
sg4514
S'Protester001'
p4616
sg3463
g4611
sg4515
S'Protester001'
p4617
sbsS'P-easy-09'
p4618
g1
(g10
g3
NtRp4619
(dp4620
g4502
(lp4621
g1
(g4555
g3
NtRp4622
(dp4623
g4558
g3850
sg4559
I1
sbasg4504
(lp4624
sg3469
S''
sg4506
F15
sg4018
F60
sg4507
F2
sg4508
F50
sg4509
S''
sg4510
F2
sg4511
S''
sg4512
S''
sg4513
S''
sg4514
S'Constituent001'
p4625
sg3463
g4618
sg4515
S'Constituent001'
p4626
sbsS'P-easy-08'
p4627
g1
(g10
g3
NtRp4628
(dp4629
g4502
(lp4630
sg4504
(lp4631
sg3469
S''
sg4506
F15
sg4018
F40
sg4507
F2
sg4508
F50
sg4509
S'Constituent001'
p4632
sg4510
F2
sg4511
F2
sg4512
S''
sg4513
S''
sg4514
S'Constituent001'
p4633
sg3463
g4627
sg4515
S'Protester001'
p4634
sbsS'P-hard-08'
p4635
g1
(g10
g3
NtRp4636
(dp4637
g4502
(lp4638
sg4504
(lp4639
sg3469
S''
sg4506
S''
sg4018
F350
sg4507
F6
sg4508
F50
sg4509
S'CabinetPolitician001'
p4640
sg4510
F6
sg4511
F6
sg4512
S''
sg4513
S''
sg4514
S'CabinetPolitician001'
p4641
sg3463
g4635
sg4515
S'CabinetPolitician001'
p4642
sbsS'P-hard-09'
p4643
g1
(g10
g3
NtRp4644
(dp4645
g4502
(lp4646
sg4504
(lp4647
sg3469
S''
sg4506
F70
sg4018
F350
sg4507
F6
sg4508
F50
sg4509
S'CabinetPolitician001'
p4648
sg4510
F6
sg4511
F6
sg4512
F6
sg4513
S'CabinetPolitician001'
p4649
sg4514
S'CabinetPolitician001'
p4650
sg3463
g4643
sg4515
S'CabinetPolitician001'
p4651
sbsS'P-med-08'
p4652
g1
(g10
g3
NtRp4653
(dp4654
g4502
(lp4655
g1
(g4555
g3
NtRp4656
(dp4657
g4558
g3609
sg4559
I1
sbasg4504
(lp4658
sg3469
S''
sg4506
S''
sg4018
F180
sg4507
F4
sg4508
F50
sg4509
S'Politician001'
p4659
sg4510
F4
sg4511
F4
sg4512
S''
sg4513
S''
sg4514
S'Politician001'
p4660
sg3463
g4652
sg4515
S'Protester001'
p4661
sbsS'P-med-09'
p4662
g1
(g10
g3
NtRp4663
(dp4664
g4502
(lp4665
sg4504
(lp4666
sg3469
S''
sg4506
F50
sg4018
F180
sg4507
F4
sg4508
F50
sg4509
S'Politician001'
p4667
sg4510
F4
sg4511
F4
sg4512
S''
sg4513
S''
sg4514
S'ReligiousNut001'
p4668
sg3463
g4662
sg4515
S'Politician001'
p4669
sbsS'P-med-02'
p4670
g1
(g10
g3
NtRp4671
(dp4672
g4502
(lp4673
g1
(g4555
g3
NtRp4674
(dp4675
g4558
g3609
sg4559
I1
sbasg4504
(lp4676
g1
(g4555
g3
NtRp4677
(dp4678
g4558
g3472
sg4559
I1
sbasg3469
S''
sg4506
F25
sg4018
F90
sg4507
F3
sg4508
F50
sg4509
S''
sg4510
F3
sg4511
S''
sg4512
S''
sg4513
S''
sg4514
S'Politician001'
p4679
sg3463
g4670
sg4515
S'Politician001'
p4680
sbsS'P-med-03'
p4681
g1
(g10
g3
NtRp4682
(dp4683
g4502
(lp4684
sg4504
(lp4685
g1
(g4555
g3
NtRp4686
(dp4687
g4558
g3472
sg4559
I1
sbasg3469
S''
sg4506
F25
sg4018
F90
sg4507
F3
sg4508
F50
sg4509
S''
sg4510
F3
sg4511
S''
sg4512
S''
sg4513
S''
sg4514
S'Bumpkin001'
p4688
sg3463
g4681
sg4515
S'Bumpkin001'
p4689
sbsS'P-med-01'
p4690
g1
(g10
g3
NtRp4691
(dp4692
g4502
(lp4693
sg4504
(lp4694
sg3469
S''
sg4506
F30
sg4018
F90
sg4507
F3
sg4508
F50
sg4509
S''
sg4510
F3
sg4511
S''
sg4512
S''
sg4513
S''
sg4514
S'Politician001'
p4695
sg3463
g4690
sg4515
S'Politician001'
p4696
sbsS'P-med-06'
p4697
g1
(g10
g3
NtRp4698
(dp4699
g4502
(lp4700
sg4504
(lp4701
sg3469
S''
sg4506
F50
sg4018
F220
sg4507
F5
sg4508
F50
sg4509
S'Politician001'
p4702
sg4510
F4
sg4511
F4
sg4512
S''
sg4513
S''
sg4514
S'Governor'
p4703
sg3463
g4697
sg4515
S'Politician001'
p4704
sbsS'P-med-07'
p4705
g1
(g10
g3
NtRp4706
(dp4707
g4502
(lp4708
sg4504
(lp4709
sg3469
S''
sg4506
S''
sg4018
F120
sg4507
F5
sg4508
F50
sg4509
S''
sg4510
F5
sg4511
S''
sg4512
S''
sg4513
S''
sg4514
S'Journalist001'
p4710
sg3463
g4705
sg4515
S'Politician001'
p4711
sbsS'P-med-04'
p4712
g1
(g10
g3
NtRp4713
(dp4714
g4502
(lp4715
sg4504
(lp4716
sg3469
S''
sg4506
F30
sg4018
F135
sg4507
F3
sg4508
F50
sg4509
S'Protester001'
p4717
sg4510
F3
sg4511
F3
sg4512
S''
sg4513
S''
sg4514
S'Bumpkin001'
p4718
sg3463
g4712
sg4515
S'HippyGirl001'
p4719
sbsS'P-med-05'
p4720
g1
(g10
g3
NtRp4721
(dp4722
g4502
(lp4723
sg4504
(lp4724
sg3469
S''
sg4506
F30
sg4018
F135
sg4507
F3
sg4508
F50
sg4509
S'Politician001'
p4725
sg4510
F3
sg4511
F3
sg4512
S''
sg4513
S''
sg4514
S'Journalist001'
p4726
sg3463
g4720
sg4515
S'Journalist001'
p4727
sbsS'P-med-24'
p4728
g1
(g10
g3
NtRp4729
(dp4730
g4502
(lp4731
sg4504
(lp4732
sg3469
S''
sg4506
F70
sg4018
F500
sg4507
F8
sg4508
F50
sg4509
S'Politician001'
p4733
sg4510
F7
sg4511
F7
sg4512
S''
sg4513
S''
sg4514
S'PresidentAlien'
p4734
sg3463
g4728
sg4515
S'Politician001'
p4735
sbsS'P-med-20'
p4736
g1
(g10
g3
NtRp4737
(dp4738
g4502
(lp4739
sg4504
(lp4740
sg3469
S''
sg4506
S''
sg4018
F225
sg4507
F5
sg4508
F50
sg4509
S'Journalist001'
p4741
sg4510
F5
sg4511
F5
sg4512
S''
sg4513
S''
sg4514
S'TVPersonality001'
p4742
sg3463
g4736
sg4515
S'Journalist001'
p4743
sbsS'P-med-21'
p4744
g1
(g10
g3
NtRp4745
(dp4746
g4502
(lp4747
sg4504
(lp4748
sg3469
S''
sg4506
S''
sg4018
F300
sg4507
F7
sg4508
F50
sg4509
S'Politician001'
p4749
sg4510
F6
sg4511
F6
sg4512
S''
sg4513
S''
sg4514
S'President'
p4750
sg3463
g4744
sg4515
S'Politician001'
p4751
sbsS'P-med-22'
p4752
g1
(g10
g3
NtRp4753
(dp4754
g4502
(lp4755
sg4504
(lp4756
sg3469
S''
sg4506
F70
sg4018
F180
sg4507
F6
sg4508
F50
sg4509
S''
sg4510
F6
sg4511
S''
sg4512
S''
sg4513
S''
sg4514
S'DeepThroat'
p4757
sg3463
g4752
sg4515
S'DeepThroat'
p4758
sbsS'P-med-23'
p4759
g1
(g10
g3
NtRp4760
(dp4761
g4502
(lp4762
g1
(g4555
g3
NtRp4763
(dp4764
g4558
g3609
sg4559
I1
sbasg4504
(lp4765
sg3469
S''
sg4506
S''
sg4018
F400
sg4507
F7
sg4508
F50
sg4509
S'Politician001'
p4766
sg4510
F6
sg4511
F6
sg4512
F6
sg4513
S'Politician001'
p4767
sg4514
S'President'
p4768
sg3463
g4759
sg4515
S'Politician001'
p4769
sbsS'P-hard-06'
p4770
g1
(g10
g3
NtRp4771
(dp4772
g4502
(lp4773
sg4504
(lp4774
sg3469
S''
sg4506
F70
sg4018
F350
sg4507
F6
sg4508
F50
sg4509
S'Teacher001'
p4775
sg4510
F6
sg4511
F6
sg4512
S''
sg4513
S''
sg4514
S'Teacher001'
p4776
sg3463
g4770
sg4515
S'Teacher001'
p4777
sbsS'P-hard-07'
p4778
g1
(g10
g3
NtRp4779
(dp4780
g4502
(lp4781
g1
(g4555
g3
NtRp4782
(dp4783
g4558
g3930
sg4559
I1
sbasg4504
(lp4784
sg3469
S''
sg4506
S''
sg4018
F350
sg4507
F6
sg4508
F50
sg4509
S'Teacher001'
p4785
sg4510
F6
sg4511
F6
sg4512
F6
sg4513
S'Teacher001'
p4786
sg4514
S'Teacher001'
p4787
sg3463
g4778
sg4515
S'Teacher001'
p4788
sbsS'P-hard-04'
p4789
g1
(g10
g3
NtRp4790
(dp4791
g4502
(lp4792
sg4504
(lp4793
sg3469
S''
sg4506
S''
sg4018
F350
sg4507
F6
sg4508
F50
sg4509
S'WarVet001'
p4794
sg4510
F6
sg4511
F6
sg4512
S''
sg4513
S''
sg4514
S'WarVet001'
p4795
sg3463
g4789
sg4515
S'WarVet001'
p4796
sbsS'P-hard-05'
p4797
g1
(g10
g3
NtRp4798
(dp4799
g4502
(lp4800
sg4504
(lp4801
sg3469
S''
sg4506
S''
sg4018
F350
sg4507
F6
sg4508
F50
sg4509
S'WarVet001'
p4802
sg4510
F6
sg4511
F6
sg4512
F6
sg4513
S'WarVet001'
p4803
sg4514
S'WarVet001'
p4804
sg3463
g4797
sg4515
S'WarVet001'
p4805
sbsS'P-hard-02'
p4806
g1
(g10
g3
NtRp4807
(dp4808
g4502
(lp4809
sg4504
(lp4810
sg3469
S''
sg4506
F70
sg4018
F350
sg4507
F6
sg4508
F50
sg4509
S'Journalist001'
p4811
sg4510
F6
sg4511
F6
sg4512
S''
sg4513
S''
sg4514
S'TVPersonality001'
p4812
sg3463
g4806
sg4515
S'Journalist001'
p4813
sbsS'P-hard-03'
p4814
g1
(g10
g3
NtRp4815
(dp4816
g4502
(lp4817
g1
(g4555
g3
NtRp4818
(dp4819
g4558
g3609
sg4559
I1
sbasg4504
(lp4820
sg3469
S''
sg4506
S''
sg4018
F350
sg4507
F6
sg4508
F50
sg4509
S'Journalist001'
p4821
sg4510
F6
sg4511
F6
sg4512
S''
sg4513
S''
sg4514
S'Journalist001'
p4822
sg3463
g4814
sg4515
S'TVPersonality001'
p4823
sbsS'P-hard-01'
p4824
g1
(g10
g3
NtRp4825
(dp4826
g4502
(lp4827
sg4504
(lp4828
sg3469
S''
sg4506
S''
sg4018
F350
sg4507
F6
sg4508
F50
sg4509
S'Journalist001'
p4829
sg4510
F6
sg4511
F6
sg4512
S''
sg4513
S''
sg4514
S'Journalist001'
p4830
sg3463
g4824
sg4515
S'Journalist001'
p4831
sbsS'P-easy-10'
p4832
g1
(g10
g3
NtRp4833
(dp4834
g4502
(lp4835
sg4504
(lp4836
sg3469
S''
sg4506
F40
sg4018
F80
sg4507
F3
sg4508
F50
sg4509
S'Politician001'
p4837
sg4510
F2
sg4511
F3
sg4512
S''
sg4513
S''
sg4514
S'Mayor'
p4838
sg3463
g4832
sg4515
S'Politician001'
p4839
sbsS'P-med-19'
p4840
g1
(g10
g3
NtRp4841
(dp4842
g4502
(lp4843
g1
(g4555
g3
NtRp4844
(dp4845
g4558
g3930
sg4559
I1
sbasg4504
(lp4846
sg3469
S''
sg4506
S''
sg4018
F150
sg4507
F5
sg4508
F50
sg4509
S''
sg4510
F5
sg4511
S''
sg4512
S''
sg4513
S''
sg4514
S'DeepThroat'
p4847
sg3463
g4840
sg4515
S'DeepThroat'
p4848
sbsS'P-med-18'
p4849
g1
(g10
g3
NtRp4850
(dp4851
g4502
(lp4852
sg4504
(lp4853
sg3469
S''
sg4506
F70
sg4018
F300
sg4507
F5
sg4508
F50
sg4509
S'ReligiousNut001'
p4854
sg4510
F5
sg4511
F5
sg4512
F5
sg4513
S'ReligiousNut001'
p4855
sg4514
S'Constituent001'
p4856
sg3463
g4849
sg4515
S'HippyGirl001'
p4857
sbsS'P-med-15'
p4858
g1
(g10
g3
NtRp4859
(dp4860
g4502
(lp4861
g1
(g4555
g3
NtRp4862
(dp4863
g4558
g3930
sg4559
I1
sbasg4504
(lp4864
sg3469
S''
sg4506
S''
sg4018
F180
sg4507
F6
sg4508
F50
sg4509
S''
sg4510
F5
sg4511
S''
sg4512
S''
sg4513
S''
sg4514
S'ReligiousNut001'
p4865
sg3463
g4858
sg4515
S'ReligiousNut001'
p4866
sbsS'P-med-14'
p4867
g1
(g10
g3
NtRp4868
(dp4869
g4502
(lp4870
sg4504
(lp4871
sg3469
S''
sg4506
S''
sg4018
F240
sg4507
F4
sg4508
F50
sg4509
S'Constituent001'
p4872
sg4510
F4
sg4511
F4
sg4512
F5
sg4513
S'Lobbyist001'
p4873
sg4514
S'Lobbyist001'
p4874
sg3463
g4867
sg4515
S'Constituent001'
p4875
sbsS'P-med-17'
p4876
g1
(g10
g3
NtRp4877
(dp4878
g4502
(lp4879
sg4504
(lp4880
sg3469
S''
sg4506
F70
sg4018
F225
sg4507
F5
sg4508
F50
sg4509
S'ReligiousNut001'
p4881
sg4510
F5
sg4511
F5
sg4512
S''
sg4513
S''
sg4514
S'HippyGirl001'
p4882
sg3463
g4876
sg4515
S'ReligiousNut001'
p4883
sbsS'P-med-16'
p4884
g1
(g10
g3
NtRp4885
(dp4886
g4502
(lp4887
sg4504
(lp4888
sg3469
S''
sg4506
S''
sg4018
F225
sg4507
F5
sg4508
F50
sg4509
S'HippyGirl001'
p4889
sg4510
F5
sg4511
F5
sg4512
S''
sg4513
S''
sg4514
S'ReligiousNut001'
p4890
sg3463
g4884
sg4515
S'ReligiousNut001'
p4891
sbsS'P-med-11'
p4892
g1
(g10
g3
NtRp4893
(dp4894
g4502
(lp4895
g1
(g4555
g3
NtRp4896
(dp4897
g4558
g3850
sg4559
I1
sbasg4504
(lp4898
sg3469
S''
sg4506
S''
sg4018
F240
sg4507
F4
sg4508
F50
sg4509
S'Constituent001'
p4899
sg4510
F4
sg4511
F4
sg4512
F5
sg4513
S'Politician001'
p4900
sg4514
S'Politician001'
p4901
sg3463
g4892
sg4515
S'Constituent001'
p4902
sbsS'P-med-10'
p4903
g1
(g10
g3
NtRp4904
(dp4905
g4502
(lp4906
sg4504
(lp4907
sg3469
S''
sg4506
S''
sg4018
F180
sg4507
F4
sg4508
F50
sg4509
S'ReligiousNut001'
p4908
sg4510
F4
sg4511
F4
sg4512
S''
sg4513
S''
sg4514
S'Politician001'
p4909
sg3463
g4903
sg4515
S'Politician001'
p4910
sbsS'P-med-13'
p4911
g1
(g10
g3
NtRp4912
(dp4913
g4502
(lp4914
sg4504
(lp4915
sg3469
S''
sg4506
F50
sg4018
F180
sg4507
F4
sg4508
F50
sg4509
S'Lobbyist001'
p4916
sg4510
F4
sg4511
F4
sg4512
S''
sg4513
S''
sg4514
S'Constituent001'
p4917
sg3463
g4911
sg4515
S'Lobbyist001'
p4918
sbsS'P-med-12'
p4919
g1
(g10
g3
NtRp4920
(dp4921
g4502
(lp4922
sg4504
(lp4923
sg3469
S''
sg4506
S''
sg4018
F180
sg4507
F4
sg4508
F50
sg4509
S'Lobbyist001'
p4924
sg4510
F4
sg4511
F4
sg4512
S''
sg4513
S''
sg4514
S'Lobbyist001'
p4925
sg3463
g4919
sg4515
S'HippyGirl001'
p4926
sbssb.