ccopy_reg
_reconstructor
p1
(c__main__
GameData
p2
c__builtin__
object
p3
NtRp4
(dp5
S'script'
p6
(dp7
S'StairsToWhiteHouse'
p8
(lp9
g1
(c__main__
TableRow
p10
g3
NtRp11
(dp12
S'action'
p13
S'Label'
p14
sS'trigger'
p15
g8
sS'param'
p16
S'START'
p17
sS'dialog'
p18
S''
sbag1
(g10
g3
NtRp19
(dp20
g13
S'PlayerSay'
p21
sg15
S'StairsToWhiteHouse'
p22
sg16
S''
sg18
S"I can't go upstairs now, I have a job to do!"
p23
sbag1
(g10
g3
NtRp24
(dp25
g13
S'Jump'
p26
sg15
S'StairsToWhiteHouse'
p27
sg16
S'START'
p28
sg18
S''
sbasS'Lobbyist3'
p29
(lp30
g1
(g10
g3
NtRp31
(dp32
g13
S'RequireFlag'
p33
sg15
g29
sg16
S'STARTLOBBYISTS'
p34
sg18
S'Mutter, mutter'
p35
sbag1
(g10
g3
NtRp36
(dp37
g13
S'Say'
p38
sg15
S'Lobbyist3'
p39
sg16
S''
sg18
S"To get the support of my organisation, you'll need to tell me what you can do for the conservation of internet memes."
p40
sbag1
(g10
g3
NtRp41
(dp42
g13
S'PlayerSay'
p43
sg15
S'Lobbyist3'
p44
sg16
S''
sg18
S'For...internet memes?'
p45
sbag1
(g10
g3
NtRp46
(dp47
g13
S'Say'
p48
sg15
S'Lobbyist3'
p49
sg16
S''
sg18
S"Yes, these are serious times. Who remembers hitting the giant crab for massive damage.There's another console release. I bet you can't even remember what you had to do to get massive damage."
p50
sbag1
(g10
g3
NtRp51
(dp52
g13
S'PlayerSay'
p53
sg15
S'Lobbyist3'
p54
sg16
S''
sg18
S'Giant...crab...?'
p55
sbag1
(g10
g3
NtRp56
(dp57
g13
S'Say'
p58
sg15
S'Lobbyist3'
p59
sg16
S''
sg18
S"You have to flip him over, that's what! We have to act quickly to save the internet memes. Even as I speak, fewer and fewer Gangnum style videos are made. It's a crime!"
p60
sbag1
(g10
g3
NtRp61
(dp62
g13
S'Say'
p63
sg15
S'Lobbyist3'
p64
sg16
S''
sg18
S'We need to build safehouses for all of the lolcats, provide IT helpdesk support for rickrole education and somebody needs to save the Sharknado from extinction!'
p65
sbag1
(g10
g3
NtRp66
(dp67
g13
S'Encounter'
p68
sg15
S'Lobbyist3'
p69
sg16
S'P-med-13'
p70
sg18
S''
sbag1
(g10
g3
NtRp71
(dp72
g13
S'Increment'
p73
sg15
S'Lobbyist3'
p74
sg16
S'LOBBYISTS'
p75
sg18
S''
sbag1
(g10
g3
NtRp76
(dp77
g13
S'Say'
p78
sg15
S'Lobbyist3'
p79
sg16
S''
sg18
S'Nailed It.'
p80
sbag1
(g10
g3
NtRp81
(dp82
g13
S'Destroy'
p83
sg15
S'Lobbyist3'
p84
sg16
S''
sg18
S''
sbasS'Kawalski'
p85
(lp86
g1
(g10
g3
NtRp87
(dp88
g13
S'RequireFlag'
p89
sg15
g85
sg16
S'ACCESSKAWALSKI'
p90
sg18
S"I'm not allowed to speak to you, sir."
p91
sbag1
(g10
g3
NtRp92
(dp93
g13
S'Say'
p94
sg15
S'Kawalski'
p95
sg16
S''
sg18
S'A pleasure to meet you, President Mossman. I am Agent Kawalski, your security detail.'
p96
sbag1
(g10
g3
NtRp97
(dp98
g13
S'PlayerSay'
p99
sg15
S'Kawalski'
p100
sg16
S''
sg18
S'Great to meet you, Agent Kawalski. What do I need to know?'
p101
sbag1
(g10
g3
NtRp102
(dp103
g13
S'Say'
p104
sg15
S'Kawalski'
p105
sg16
S''
sg18
S'Well actually, it does have to do with your security. Something terrible is happening at the White House.'
p106
sbag1
(g10
g3
NtRp107
(dp108
g13
S'PlayerSay'
p109
sg15
S'Kawalski'
p110
sg16
S''
sg18
S"If you're trying to warn me about the aliens, it's under control."
p111
sbag1
(g10
g3
NtRp112
(dp113
g13
S'Say'
p114
sg15
S'Kawalski'
p115
sg16
S''
sg18
S'No, no, this is different. I think somebody is trying to take over the White House.'
p116
sbag1
(g10
g3
NtRp117
(dp118
g13
S'PlayerSay'
p119
sg15
S'Kawalski'
p120
sg16
S''
sg18
S"Wouldn't we know?"
p121
sbag1
(g10
g3
NtRp122
(dp123
g13
S'Say'
p124
sg15
S'Kawalski'
p125
sg16
S''
sg18
S"It's too early for those kind of details. I just want you to keep your eyes open, Mr President."
p126
sbag1
(g10
g3
NtRp127
(dp128
g13
S'PlayerSay'
p129
sg15
S'Kawalski'
p130
sg16
S''
sg18
S'No problem.'
p131
sbag1
(g10
g3
NtRp132
(dp133
g13
S'Destroy'
p134
sg15
S'Kawalski'
p135
sg16
S''
sg18
S''
sbag1
(g10
g3
NtRp136
(dp137
g13
S'AddAlly'
p138
sg15
S'Kawalski'
p139
sg16
S'SecretAgent:1'
p140
sg18
S'Kawalski joins your political party!'
p141
sbag1
(g10
g3
NtRp142
(dp143
g13
S'SetFlag'
p144
sg15
S'Kawalski'
p145
sg16
S'KAWALSKIJOIN'
p146
sg18
S''
sbasS'Religious4'
p147
(lp148
g1
(g10
g3
NtRp149
(dp150
g13
S'Say'
p151
sg15
g147
sg16
S''
sg18
S'Welcome, my child. We have travelled here from Battycan City to be assured you are a man of faith before we endorse you.'
p152
sbag1
(g10
g3
NtRp153
(dp154
g13
S'PlayerSay'
p155
sg15
S'Religious4'
p156
sg16
S''
sg18
S'Er, what faith is that?'
p157
sbag1
(g10
g3
NtRp158
(dp159
g13
S'Say'
p160
sg15
S'Religious4'
p161
sg16
S''
sg18
S'Why, the one true god: Coffee.'
p162
sbag1
(g10
g3
NtRp163
(dp164
g13
S'PlayerSay'
p165
sg15
S'Religious4'
p166
sg16
S''
sg18
S'...Coffee?'
p167
sbag1
(g10
g3
NtRp168
(dp169
g13
S'Say'
p170
sg15
S'Religious4'
p171
sg16
S''
sg18
S"Yes of course. He who lifts you up when you're feeling low, who is your inspiration in the dark and who can achieve miraculous feats of effort with dedicated prayer."
p172
sbag1
(g10
g3
NtRp173
(dp174
g13
S'PlayerSay'
p175
sg15
S'Religious4'
p176
sg16
S''
sg18
S'This may be a religion I can get behind.'
p177
sbag1
(g10
g3
NtRp178
(dp179
g13
S'Encounter'
p180
sg15
S'Religious4'
p181
sg16
S'P-med-15'
p182
sg18
S''
sbag1
(g10
g3
NtRp183
(dp184
g13
S'Increment'
p185
sg15
S'Religious4'
p186
sg16
S'RELIGIOUSNUTS'
p187
sg18
S''
sbag1
(g10
g3
NtRp188
(dp189
g13
S'Say'
p190
sg15
S'Religious4'
p191
sg16
S''
sg18
S'Wonderful, the Battycan will be most pleased.'
p192
sbag1
(g10
g3
NtRp193
(dp194
g13
S'Destroy'
p195
sg15
S'Religious4'
p196
sg16
S''
sg18
S''
sbasS'Religious1'
p197
(lp198
g1
(g10
g3
NtRp199
(dp200
g13
S'Say'
p201
sg15
g197
sg16
S''
sg18
S'Have you had your morning prayer?'
p202
sbag1
(g10
g3
NtRp203
(dp204
g13
S'Encounter'
p205
sg15
S'Religious1'
p206
sg16
S'P-med-16'
p207
sg18
S''
sbag1
(g10
g3
NtRp208
(dp209
g13
S'Increment'
p210
sg15
S'Religious1'
p211
sg16
S'RELIGIOUSNUTS'
p212
sg18
S''
sbag1
(g10
g3
NtRp213
(dp214
g13
S'Say'
p215
sg15
S'Religious1'
p216
sg16
S''
sg18
S'Some people pray upwards of 5 times a day, but this can cause hallucinations.'
p217
sbag1
(g10
g3
NtRp218
(dp219
g13
S'Destroy'
p220
sg15
S'Religious1'
p221
sg16
S''
sg18
S''
sbasS'Religious3'
p222
(lp223
g1
(g10
g3
NtRp224
(dp225
g13
S'Say'
p226
sg15
g222
sg16
S''
sg18
S'Mmmmmm...Coffee....ommmmm'
p227
sbag1
(g10
g3
NtRp228
(dp229
g13
S'Encounter'
p230
sg15
S'Religious3'
p231
sg16
S'P-med-17'
p232
sg18
S''
sbag1
(g10
g3
NtRp233
(dp234
g13
S'Increment'
p235
sg15
S'Religious3'
p236
sg16
S'RELIGIOUSNUTS'
p237
sg18
S''
sbag1
(g10
g3
NtRp238
(dp239
g13
S'Say'
p240
sg15
S'Religious3'
p241
sg16
S''
sg18
S'I must return to my meditation.'
p242
sbag1
(g10
g3
NtRp243
(dp244
g13
S'Destroy'
p245
sg15
S'Religious3'
p246
sg16
S''
sg18
S''
sbasS'Religious2'
p247
(lp248
g1
(g10
g3
NtRp249
(dp250
g13
S'Say'
p251
sg15
g247
sg16
S''
sg18
S'Do not be swayed by the seductive powers of tea!'
p252
sbag1
(g10
g3
NtRp253
(dp254
g13
S'Encounter'
p255
sg15
S'Religious2'
p256
sg16
S'P-med-18'
p257
sg18
S''
sbag1
(g10
g3
NtRp258
(dp259
g13
S'Increment'
p260
sg15
S'Religious2'
p261
sg16
S'RELIGIOUSNUTS'
p262
sg18
S''
sbag1
(g10
g3
NtRp263
(dp264
g13
S'Say'
p265
sg15
S'Religious2'
p266
sg16
S''
sg18
S'The Battycan will be satisfied with this news.'
p267
sbag1
(g10
g3
NtRp268
(dp269
g13
S'Destroy'
p270
sg15
S'Religious2'
p271
sg16
S''
sg18
S''
sbasS'Constituent2'
p272
(lp273
g1
(g10
g3
NtRp274
(dp275
g13
S'RequireFlag'
p276
sg15
g272
sg16
S'STARTCONSTITUENTS'
p277
sg18
S'What?'
p278
sbag1
(g10
g3
NtRp279
(dp280
g13
S'PlayerSay'
p281
sg15
S'Constituent2'
p282
sg16
S''
sg18
S'Vote Phillip Mossman for Mayor!'
p283
sbag1
(g10
g3
NtRp284
(dp285
g13
S'Say'
p286
sg15
S'Constituent2'
p287
sg16
S''
sg18
S'But Mayor Goodman has always taken care of me.'
p288
sbag1
(g10
g3
NtRp289
(dp290
g13
S'Encounter'
p291
sg15
S'Constituent2'
p292
sg16
S'P-easy-08'
p293
sg18
S''
sbag1
(g10
g3
NtRp294
(dp295
g13
S'Say'
p296
sg15
S'Constituent2'
p297
sg16
S''
sg18
S"I think it's time for a change!"
p298
sbag1
(g10
g3
NtRp299
(dp300
g13
S'Destroy'
p301
sg15
S'Constituent2'
p302
sg16
S''
sg18
S''
sbasS'Constituent3'
p303
(lp304
g1
(g10
g3
NtRp305
(dp306
g13
S'RequireFlag'
p307
sg15
g303
sg16
S'STARTCONSTITUENTS'
p308
sg18
S'What?'
p309
sbag1
(g10
g3
NtRp310
(dp311
g13
S'PlayerSay'
p312
sg15
S'Constituent3'
p313
sg16
S''
sg18
S'Vote Phillip Mossman for Mayor!'
p314
sbag1
(g10
g3
NtRp315
(dp316
g13
S'Say'
p317
sg15
S'Constituent3'
p318
sg16
S''
sg18
S'But Mayor Goodman has always taken care of me.'
p319
sbag1
(g10
g3
NtRp320
(dp321
g13
S'Encounter'
p322
sg15
S'Constituent3'
p323
sg16
S'P-easy-09'
p324
sg18
S''
sbag1
(g10
g3
NtRp325
(dp326
g13
S'Say'
p327
sg15
S'Constituent3'
p328
sg16
S''
sg18
S"I think it's time for a change!"
p329
sbag1
(g10
g3
NtRp330
(dp331
g13
S'PlayerSay'
p332
sg15
S'Constituent3'
p333
sg16
S''
sg18
S"I think I'm ready to take on Mayor Goodman now!"
p334
sbag1
(g10
g3
NtRp335
(dp336
g13
S'SetFlag'
p337
sg15
S'Constituent3'
p338
sg16
S'CONSTITUENTSWON'
p339
sg18
S''
sbag1
(g10
g3
NtRp340
(dp341
g13
S'Destroy'
p342
sg15
S'Constituent3'
p343
sg16
S''
sg18
S''
sbasS'Constituent1'
p344
(lp345
g1
(g10
g3
NtRp346
(dp347
g13
S'RequireFlag'
p348
sg15
g344
sg16
S'STARTCONSTITUENTS'
p349
sg18
S'Yes?'
p350
sbag1
(g10
g3
NtRp351
(dp352
g13
S'PlayerSay'
p353
sg15
S'Constituent1'
p354
sg16
S''
sg18
S'Vote Phillip Mossman for Mayor!'
p355
sbag1
(g10
g3
NtRp356
(dp357
g13
S'Say'
p358
sg15
S'Constituent1'
p359
sg16
S''
sg18
S'Who?'
p360
sbag1
(g10
g3
NtRp361
(dp362
g13
S'PlayerSay'
p363
sg15
S'Constituent1'
p364
sg16
S''
sg18
S'Er, me!'
p365
sbag1
(g10
g3
NtRp366
(dp367
g13
S'Say'
p368
sg15
S'Constituent1'
p369
sg16
S''
sg18
S'Why? How will you help local business?'
p370
sbag1
(g10
g3
NtRp371
(dp372
g13
S'Encounter'
p373
sg15
S'Constituent1'
p374
sg16
S'P-easy-07'
p375
sg18
S''
sbag1
(g10
g3
NtRp376
(dp377
g13
S'Say'
p378
sg15
S'Constituent1'
p379
sg16
S''
sg18
S'You make a good case!'
p380
sbag1
(g10
g3
NtRp381
(dp382
g13
S'Destroy'
p383
sg15
S'Constituent1'
p384
sg16
S''
sg18
S''
sbasS'Cabinet1'
p385
(lp386
g1
(g10
g3
NtRp387
(dp388
g13
S'Say'
p389
sg15
g385
sg16
S''
sg18
S'Good afternoon, Mr President. How can I help?'
p390
sbag1
(g10
g3
NtRp391
(dp392
g13
S'PlayerSay'
p393
sg15
S'Cabinet1'
p394
sg16
S''
sg18
S'I want to know where the orders to mobilise the military and reallocate education funds came from.'
p395
sbag1
(g10
g3
NtRp396
(dp397
g13
S'Say'
p398
sg15
S'Cabinet1'
p399
sg16
S''
sg18
S'But...it came from you, sir. They were both faxed over to me this afternoon.'
p400
sbag1
(g10
g3
NtRp401
(dp402
g13
S'PlayerSay'
p403
sg15
S'Cabinet1'
p404
sg16
S''
sg18
S'Tell me every detail.'
p405
sbag1
(g10
g3
NtRp406
(dp407
g13
S'Encounter'
p408
sg15
S'Cabinet1'
p409
sg16
S'P-hard-08'
p410
sg18
S''
sbag1
(g10
g3
NtRp411
(dp412
g13
S'Increment'
p413
sg15
S'Cabinet1'
p414
sg16
S'CABINETMEMBERS'
p415
sg18
S''
sbag1
(g10
g3
NtRp416
(dp417
g13
S'Say'
p418
sg15
S'Cabinet1'
p419
sg16
S''
sg18
S'I cannot understand how this could happen.'
p420
sbag1
(g10
g3
NtRp421
(dp422
g13
S'Destroy'
p423
sg15
S'Cabinet1'
p424
sg16
S''
sg18
S''
sbasS'Cabinet2'
p425
(lp426
g1
(g10
g3
NtRp427
(dp428
g13
S'Say'
p429
sg15
g425
sg16
S''
sg18
S'Good afternoon, Mr President. What seems to be the problem?'
p430
sbag1
(g10
g3
NtRp431
(dp432
g13
S'PlayerSay'
p433
sg15
S'Cabinet2'
p434
sg16
S''
sg18
S'Find out where the education funds have been allocated.'
p435
sbag1
(g10
g3
NtRp436
(dp437
g13
S'Say'
p438
sg15
S'Cabinet2'
p439
sg16
S''
sg18
S'To the military, Sir. I saw to it myself.'
p440
sbag1
(g10
g3
NtRp441
(dp442
g13
S'PlayerSay'
p443
sg15
S'Cabinet2'
p444
sg16
S''
sg18
S'How did this happen? Tell me everything!'
p445
sbag1
(g10
g3
NtRp446
(dp447
g13
S'Encounter'
p448
sg15
S'Cabinet2'
p449
sg16
S'P-hard-09'
p450
sg18
S''
sbag1
(g10
g3
NtRp451
(dp452
g13
S'Increment'
p453
sg15
S'Cabinet2'
p454
sg16
S'CABINETMEMBERS'
p455
sg18
S''
sbag1
(g10
g3
NtRp456
(dp457
g13
S'PlayerSay'
p458
sg15
S'Cabinet2'
p459
sg16
S''
sg18
S"It can't be a coincidence that both situations involved the military."
p460
sbag1
(g10
g3
NtRp461
(dp462
g13
S'Destroy'
p463
sg15
S'Cabinet2'
p464
sg16
S''
sg18
S''
sbasS'Cabinet3'
p465
(lp466
g1
(g10
g3
NtRp467
(dp468
g13
S'Say'
p469
sg15
g465
sg16
S''
sg18
S"Mr President, I'm sorry, I couldn't know it wasn't your signature."
p470
sbag1
(g10
g3
NtRp471
(dp472
g13
S'PlayerSay'
p473
sg15
S'Cabinet3'
p474
sg16
S''
sg18
S'Never mind that now. Where are the troops heading?'
p475
sbag1
(g10
g3
NtRp476
(dp477
g13
S'Say'
p478
sg15
S'Cabinet3'
p479
sg16
S''
sg18
S"North...to Canada. We assumed it was planned. There's a pact allowing troops into Canada."
p480
sbag1
(g10
g3
NtRp481
(dp482
g13
S'PlayerSay'
p483
sg15
S'Cabinet3'
p484
sg16
S''
sg18
S'What could they be up to?'
p485
sbag1
(g10
g3
NtRp486
(dp487
g13
S'Encounter'
p488
sg15
S'Cabinet3'
p489
sg16
S'P-hard-10'
p490
sg18
S''
sbag1
(g10
g3
NtRp491
(dp492
g13
S'Increment'
p493
sg15
S'Cabinet3'
p494
sg16
S'CABINETMEMBERS'
p495
sg18
S''
sbag1
(g10
g3
NtRp496
(dp497
g13
S'PlayerSay'
p498
sg15
S'Cabinet3'
p499
sg16
S''
sg18
S"I'd better get to the Joint Chiefs. This is getting out-of-hand.."
p500
sbag1
(g10
g3
NtRp501
(dp502
g13
S'Destroy'
p503
sg15
S'Cabinet3'
p504
sg16
S''
sg18
S''
sbasS'Wife'
p505
(lp506
g1
(g10
g3
NtRp507
(dp508
g13
S'RequireFlag'
p509
sg15
g505
sg16
S'GOHOMETOWIFE'
p510
sg18
S'What are you doing here, Phillip? You should be at work!'
p511
sbag1
(g10
g3
NtRp512
(dp513
g13
S'Say'
p514
sg15
S'Wife'
p515
sg16
S''
sg18
S'Welcome home, Phillip! How was your workday?'
p516
sbag1
(g10
g3
NtRp517
(dp518
g13
S'PlayerSay'
p519
sg15
S'Wife'
p520
sg16
S''
sg18
S'...'
p521
sbag1
(g10
g3
NtRp522
(dp523
g13
S'Say'
p524
sg15
S'Wife'
p525
sg16
S''
sg18
S"That good, huh? You know this isn't what you want. Why don't you strike out on your own?"
p526
sbag1
(g10
g3
NtRp527
(dp528
g13
S'PlayerSay'
p529
sg15
S'Wife'
p530
sg16
S''
sg18
S"I didn't think I knew where to start to be a Mayor, but Mayor Goodman makes it look easy."
p531
sbag1
(g10
g3
NtRp532
(dp533
g13
S'Say'
p534
sg15
S'Wife'
p535
sg16
S''
sg18
S"That's the spirit! You can do it! All you need is some money and support."
p536
sbag1
(g10
g3
NtRp537
(dp538
g13
S'PlayerSay'
p539
sg15
S'Wife'
p540
sg16
S''
sg18
S'Well...OK! Lets start with money. We need a sponsor.'
p541
sbag1
(g10
g3
NtRp542
(dp543
g13
S'Say'
p544
sg15
S'Wife'
p545
sg16
S''
sg18
S'OK, lets go get one!'
p546
sbag1
(g10
g3
NtRp547
(dp548
g13
S'AddAlly'
p549
sg15
S'Wife'
p550
sg16
S'Wife:2'
p551
sg18
S'Sarah Mossman Joins Your Political Party!'
p552
sbag1
(g10
g3
NtRp553
(dp554
g13
S'SetFlag'
p555
sg15
S'Wife'
p556
sg16
S'STARTSPONSOR'
p557
sg18
S''
sbag1
(g10
g3
NtRp558
(dp559
g13
S'Destroy'
p560
sg15
S'Wife'
p561
sg16
S''
sg18
S''
sbasS'Lobbyist4'
p562
(lp563
g1
(g10
g3
NtRp564
(dp565
g13
S'RequireFlag'
p566
sg15
g562
sg16
S'STARTLOBBYISTS'
p567
sg18
S'Please tend to your other meetings so that we can see you.'
p568
sbag1
(g10
g3
NtRp569
(dp570
g13
S'Say'
p571
sg15
S'Lobbyist4'
p572
sg16
S''
sg18
S"If you are elected, I would like to know what you would plan to support the Storyteller's Guild and their efforts to revive a lost art."
p573
sbag1
(g10
g3
NtRp574
(dp575
g13
S'PlayerSay'
p576
sg15
S'Lobbyist4'
p577
sg16
S''
sg18
S"I'm all for protecting the arts. How can I help?"
p578
sbag1
(g10
g3
NtRp579
(dp580
g13
S'Say'
p581
sg15
S'Lobbyist4'
p582
sg16
S''
sg18
S'Storytelling is being butchered and almost completely ignored. I could list movies and television, but the real culprit is video games.'
p583
sbag1
(g10
g3
NtRp584
(dp585
g13
S'Say'
p586
sg15
S'Lobbyist4'
p587
sg16
S''
sg18
S'Many video game plots are derivative and archaic. Why, if this were a video game, it would have almost no substance at all and simply be a flimsy curtain for one of their \xe2\x80\x9cfetch quests\xe2\x80\x9d.'
p588
sbag1
(g10
g3
NtRp589
(dp590
g13
S'Say'
p591
sg15
S'Lobbyist4'
p592
sg16
S''
sg18
S"It is a most serious problem and we wouldn't be able to lend you our support without assurances on this matter."
p593
sbag1
(g10
g3
NtRp594
(dp595
g13
S'Encounter'
p596
sg15
S'Lobbyist4'
p597
sg16
S'P-med-14'
p598
sg18
S''
sbag1
(g10
g3
NtRp599
(dp600
g13
S'Increment'
p601
sg15
S'Lobbyist4'
p602
sg16
S'LOBBYISTS'
p603
sg18
S''
sbag1
(g10
g3
NtRp604
(dp605
g13
S'Say'
p606
sg15
S'Lobbyist4'
p607
sg16
S''
sg18
S'While I feel that your argument lacks substance and detail, I will nevertheless concede.'
p608
sbag1
(g10
g3
NtRp609
(dp610
g13
S'Destroy'
p611
sg15
S'Lobbyist4'
p612
sg16
S''
sg18
S''
sbasS'#----------------------------------------------------------------------------------------ACT 2 \xe2\x80\x93 Part 2---------------------------------------------------------------------------------------------------------------------------------------------------'
p613
(lp614
g1
(g10
g3
NtRp615
(dp616
g13
S''
sg15
g613
sg16
S''
sg18
S''
sbasS'Lobbyist2'
p617
(lp618
g1
(g10
g3
NtRp619
(dp620
g13
S'RequireFlag'
p621
sg15
g617
sg16
S'STARTLOBBYISTS'
p622
sg18
S'Humph'
p623
sbag1
(g10
g3
NtRp624
(dp625
g13
S'Say'
p626
sg15
S'Lobbyist2'
p627
sg16
S''
sg18
S'I represent the Python Software Foundation. What will you do to promote, protect and advance the Python programming language?'
p628
sbag1
(g10
g3
NtRp629
(dp630
g13
S'PlayerSay'
p631
sg15
S'Lobbyist2'
p632
sg16
S''
sg18
S"Ah yes, the Python cause! I'm a big advocate of Python."
p633
sbag1
(g10
g3
NtRp634
(dp635
g13
S'Encounter'
p636
sg15
S'Lobbyist2'
p637
sg16
S'P-med-12'
p638
sg18
S''
sbag1
(g10
g3
NtRp639
(dp640
g13
S'Increment'
p641
sg15
S'Lobbyist2'
p642
sg16
S'LOBBYISTS'
p643
sg18
S''
sbag1
(g10
g3
NtRp644
(dp645
g13
S'Say'
p646
sg15
S'Lobbyist2'
p647
sg16
S''
sg18
S'I think we can help each other out.'
p648
sbag1
(g10
g3
NtRp649
(dp650
g13
S'Destroy'
p651
sg15
S'Lobbyist2'
p652
sg16
S''
sg18
S''
sbasS'PA2'
p653
(lp654
g1
(g10
g3
NtRp655
(dp656
g13
S'Say'
p657
sg15
g653
sg16
S''
sg18
S"Welcome to the White House, President Mossman. It was a long campaign trail with a very strange final debate, but we won and we're here."
p658
sbag1
(g10
g3
NtRp659
(dp660
g13
S'Say'
p661
sg15
S'PA2'
p662
sg16
S''
sg18
S'Now is the real test where we see how well we can run a country.'
p663
sbag1
(g10
g3
NtRp664
(dp665
g13
S'Say'
p666
sg15
S'PA2'
p667
sg16
S''
sg18
S'The first step is to give your first press conference as President to explain the...situation...with President Alien *cough* I mean Allen.'
p668
sbag1
(g10
g3
NtRp669
(dp670
g13
S'SetFlag'
p671
sg15
S'PA2'
p672
sg16
S'ACCESSJOURNALISTS'
p673
sg18
S''
sbag1
(g10
g3
NtRp674
(dp675
g13
S'RequireCount'
p676
sg15
S'PA2'
p677
sg16
S'PRESSCONF:3'
p678
sg18
S"They're waiting for you in the rose garden, Mr President."
p679
sbag1
(g10
g3
NtRp680
(dp681
g13
S'Say'
p682
sg15
S'PA2'
p683
sg16
S''
sg18
S'I think that went as well as could be expected.'
p684
sbag1
(g10
g3
NtRp685
(dp686
g13
S'SetFlag'
p687
sg15
S'PA2'
p688
sg16
S'ACCESSKAWALSKI'
p689
sg18
S''
sbag1
(g10
g3
NtRp690
(dp691
g13
S'Say'
p692
sg15
S'PA2'
p693
sg16
S''
sg18
S'Your secret service detail is waiting inside to have a word with you about security protocol.'
p694
sbag1
(g10
g3
NtRp695
(dp696
g13
S'RequireFlag'
p697
sg15
S'PA2'
p698
sg16
S'KAWALSKIJOIN'
p699
sg18
S"You'd better speak to the secret service agent. Your security is paramount."
p700
sbag1
(g10
g3
NtRp701
(dp702
g13
S'Say'
p703
sg15
S'PA2'
p704
sg16
S''
sg18
S"Some war veterans would like to speak to you about some recent decisions you've made. I don't dare turn them away. You'd better speak to them."
p705
sbag1
(g10
g3
NtRp706
(dp707
g13
S'PlayerSay'
p708
sg15
S'PA2'
p709
sg16
S''
sg18
S'Of course.'
p710
sbag1
(g10
g3
NtRp711
(dp712
g13
S'GiveItem'
p713
sg15
S'PA2'
p714
sg16
S'WARVETROOMKEY'
p715
sg18
S'Received key to the East Room.'
p716
sbag1
(g10
g3
NtRp717
(dp718
g13
S'RequireCount'
p719
sg15
S'PA2'
p720
sg16
S'WARVETS:2'
p721
sg18
S'The war vets are waiting for you in the East Room.'
p722
sbag1
(g10
g3
NtRp723
(dp724
g13
S'Say'
p725
sg15
S'PA2'
p726
sg16
S''
sg18
S'What was that about?'
p727
sbag1
(g10
g3
NtRp728
(dp729
g13
S'PlayerSay'
p730
sg15
S'PA2'
p731
sg16
S''
sg18
S"I'd like to know as well. Find me the documents that approved troop movement today and get me a meeting with the Joint Chiefs."
p732
sbag1
(g10
g3
NtRp733
(dp734
g13
S'Say'
p735
sg15
S'PA2'
p736
sg16
S''
sg18
S'Yessir.'
p737
sbag1
(g10
g3
NtRp738
(dp739
g13
S'Say'
p740
sg15
S'PA2'
p741
sg16
S''
sg18
S"Your next meeting is with the teachers in the corridor. They didn't give me the details, but it seems they're quite upset."
p742
sbag1
(g10
g3
NtRp743
(dp744
g13
S'GiveItem'
p745
sg15
S'PA2'
p746
sg16
S'TEACHERROOMKEY'
p747
sg18
S'Received key to the West Room.'
p748
sbag1
(g10
g3
NtRp749
(dp750
g13
S'RequireCount'
p751
sg15
S'PA2'
p752
sg16
S'TEACHERS:2'
p753
sg18
S"You'll need to speak to the teachers in the West Room, Mr President."
p754
sbag1
(g10
g3
NtRp755
(dp756
g13
S'Say'
p757
sg15
S'PA2'
p758
sg16
S''
sg18
S'You seem to have sorted the teachers out.'
p759
sbag1
(g10
g3
NtRp760
(dp761
g13
S'PlayerSay'
p762
sg15
S'PA2'
p763
sg16
S''
sg18
S"I've mollified them for now, but I want to get to the bottom of this - NOW!"
p764
sbag1
(g10
g3
NtRp765
(dp766
g13
S'Say'
p767
sg15
S'PA2'
p768
sg16
S''
sg18
S'Of course, Mr President. I do have those papers you asked for that approved the mobilisation of troops'
p769
sbag1
(g10
g3
NtRp770
(dp771
g13
S'PlayerSay'
p772
sg15
S'PA2'
p773
sg16
S''
sg18
S"Let me see those...this is my signature! But I didn't sign this!"
p774
sbag1
(g10
g3
NtRp775
(dp776
g13
S'Say'
p777
sg15
S'PA2'
p778
sg16
S''
sg18
S'This is very serious! What should we do, sir?'
p779
sbag1
(g10
g3
NtRp780
(dp781
g13
S'PlayerSay'
p782
sg15
S'PA2'
p783
sg16
S''
sg18
S'Call a cabinet meeting. Immediately.'
p784
sbag1
(g10
g3
NtRp785
(dp786
g13
S'Say'
p787
sg15
S'PA2'
p788
sg16
S''
sg18
S"Understood. They'll be there when you get there."
p789
sbag1
(g10
g3
NtRp790
(dp791
g13
S'GiveItem'
p792
sg15
S'PA2'
p793
sg16
S'CABINETROOMKEY'
p794
sg18
S'Received key to the Cabinet Room.'
p795
sbag1
(g10
g3
NtRp796
(dp797
g13
S'RequireCount'
p798
sg15
S'PA2'
p799
sg16
S'CABINETMEMBERS:3'
p800
sg18
S'The cabinet is waiting for you in the Cabinet Room.'
p801
sbag1
(g10
g3
NtRp802
(dp803
g13
S'Say'
p804
sg15
S'PA2'
p805
sg16
S''
sg18
S'The Joint Chiefs are assembled in the Situation Room downstairs.'
p806
sbag1
(g10
g3
NtRp807
(dp808
g13
S'Say'
p809
sg15
S'PA2'
p810
sg16
S''
sg18
S'Your palm print has been coded for maximum clearance now; you should have access to the basement.'
p811
sbag1
(g10
g3
NtRp812
(dp813
g13
S'SetFlag'
p814
sg15
S'PA2'
p815
sg16
S'ACCESSWHITEHOUSEBASEMENT'
p816
sg18
S''
sbag1
(g10
g3
NtRp817
(dp818
g13
S'RequireFlag'
p819
sg15
S'PA2'
p820
sg16
S'REPEAT'
p821
sg18
S'Get to the basement, the Joint Chiefs are waiting.'
p822
sbasS'PA3'
p823
(lp824
g1
(g10
g3
NtRp825
(dp826
g13
S'RequireCount'
p827
sg15
g823
sg16
S'JOINTCHIEFS:3'
p828
sg18
S'The Joint Chiefs are waiting for you in the situation room.'
p829
sbag1
(g10
g3
NtRp830
(dp831
g13
S'RequireFlag'
p832
sg15
S'PA3'
p833
sg16
S'WIN'
p834
sg18
S'Mr President, you have to put a stop to the supercomputer that will destroy the planet! You can access it in the Situation Room.'
p835
sbag1
(g10
g3
NtRp836
(dp837
g13
S'Say'
p838
sg15
S'PA3'
p839
sg16
S''
sg18
S"You have saved the day! The world is safe and all over the Ignited States, our citizens can sleep safe knowing you're taking care of them."
p840
sbag1
(g10
g3
NtRp841
(dp842
g13
S'RequireFlag'
p843
sg15
S'PA3'
p844
sg16
S'LOOP'
p845
sg18
S'Goodnight, Mr President.'
p846
sbasS'RestoreAct3'
p847
(lp848
g1
(g10
g3
NtRp849
(dp850
g13
S'GotoMap'
p851
sg15
g847
sg16
S'act3'
p852
sg18
S''
sbasS'RestoreAct2'
p853
(lp854
g1
(g10
g3
NtRp855
(dp856
g13
S'GotoMap'
p857
sg15
g853
sg16
S'act2'
p858
sg18
S''
sbasS'P-med-12'
p859
(lp860
g1
(g10
g3
NtRp861
(dp862
g13
S'Say'
p863
sg15
g859
sg16
S'Lobbyist001'
p864
sg18
S'import combat'
p865
sbag1
(g10
g3
NtRp866
(dp867
g13
S'BeginCombat'
p868
sg15
S'P-med-12'
p869
sg16
S''
sg18
S''
sbasS'TVDebate'
p870
(lp871
g1
(g10
g3
NtRp872
(dp873
g13
S'RequireFlag'
p874
sg15
g870
sg16
S'STARTDEBATE'
p875
sg18
S"Hmmm? Oh, sorry, I'm on the phone to the studio."
p876
sbag1
(g10
g3
NtRp877
(dp878
g13
S'Say'
p879
sg15
S'TVDebate'
p880
sg16
S''
sg18
S"Good evening, Governor Mossman. If you'll follow me, I'll take you to the studio."
p881
sbag1
(g10
g3
NtRp882
(dp883
g13
S'Encounter'
p884
sg15
S'TVDebate'
p885
sg16
S'P-med-21'
p886
sg18
S''
sbag1
(g10
g3
NtRp887
(dp888
g13
S'Say'
p889
sg15
S'TVDebate'
p890
sg16
S''
sg18
S'Great work tonight, Governor Mossman and congratulations on the win!'
p891
sbag1
(g10
g3
NtRp892
(dp893
g13
S'SetFlag'
p894
sg15
S'TVDebate'
p895
sg16
S'DEBATECOMPLETE'
p896
sg18
S''
sbag1
(g10
g3
NtRp897
(dp898
g13
S'RestoreVotes'
p899
sg15
S'TVDebate'
p900
sg16
S''
sg18
S''
sbag1
(g10
g3
NtRp901
(dp902
g13
S'Destroy'
p903
sg15
S'TVDebate'
p904
sg16
S''
sg18
S''
sbasS'WarVet2'
p905
(lp906
g1
(g10
g3
NtRp907
(dp908
g13
S'RequireFlag'
p909
sg15
g905
sg16
S'AFTERWILFRED'
p910
sg18
S'Eh? Speak up, boy.'
p911
sbag1
(g10
g3
NtRp912
(dp913
g13
S'Encounter'
p914
sg15
S'WarVet2'
p915
sg16
S'P-hard-05'
p916
sg18
S''
sbag1
(g10
g3
NtRp917
(dp918
g13
S'Say'
p919
sg15
S'WarVet2'
p920
sg16
S''
sg18
S"We'll head home, but you can expect us back if we see anything else suspicious ."
p921
sbag1
(g10
g3
NtRp922
(dp923
g13
S'Increment'
p924
sg15
S'WarVet2'
p925
sg16
S'WARVETS'
p926
sg18
S''
sbag1
(g10
g3
NtRp927
(dp928
g13
S'Destroy'
p929
sg15
S'WarVet2'
p930
sg16
S''
sg18
S''
sbasS'WarVet1'
p931
(lp932
g1
(g10
g3
NtRp933
(dp934
g13
S'Say'
p935
sg15
g931
sg16
S''
sg18
S"You think you can fool me? I wasn't born yesterday, you know."
p936
sbag1
(g10
g3
NtRp937
(dp938
g13
S'PlayerSay'
p939
sg15
S'WarVet1'
p940
sg16
S''
sg18
S"I'm sorry, sir, but what seems to be the problem."
p941
sbag1
(g10
g3
NtRp942
(dp943
g13
S'Say'
p944
sg15
S'WarVet1'
p945
sg16
S''
sg18
S"You think I don't know a mobilising army when I see one? You're clearly readying for war and you think you don't even need to mention it to the people."
p946
sbag1
(g10
g3
NtRp947
(dp948
g13
S'Say'
p949
sg15
S'WarVet1'
p950
sg16
S'WarVet2'
p951
sg18
S"And don't forget that he's barely a cadet, Wilfred."
p952
sbag1
(g10
g3
NtRp953
(dp954
g13
S'Say'
p955
sg15
S'WarVet1'
p956
sg16
S''
sg18
S"Right you are, Arnold, You've barely set foot in this building and you're already leading us to war. Who do you think you're dealing with? We won't stand."
p957
sbag1
(g10
g3
NtRp958
(dp959
g13
S'Encounter'
p960
sg15
S'WarVet1'
p961
sg16
S'P-hard-04'
p962
sg18
S''
sbag1
(g10
g3
NtRp963
(dp964
g13
S'Say'
p965
sg15
S'WarVet1'
p966
sg16
S''
sg18
S"Seems like a flimsy excuse, you didn't know. Better get your troops in line if you want 'em to march, boy."
p967
sbag1
(g10
g3
NtRp968
(dp969
g13
S'Increment'
p970
sg15
S'WarVet1'
p971
sg16
S'WARVETS'
p972
sg18
S''
sbag1
(g10
g3
NtRp973
(dp974
g13
S'SetFlag'
p975
sg15
S'WarVet1'
p976
sg16
S'AFTERWILFRED'
p977
sg18
S''
sbag1
(g10
g3
NtRp978
(dp979
g13
S'Destroy'
p980
sg15
S'WarVet1'
p981
sg16
S''
sg18
S''
sbasS'StairsToWhiteHouseBasement'
p982
(lp983
g1
(g10
g3
NtRp984
(dp985
g13
S'GotoMap'
p986
sg15
g982
sg16
S'act3_basement'
p987
sg18
S''
sbasS'Mayor'
p988
(lp989
g1
(g10
g3
NtRp990
(dp991
g13
S'Say'
p992
sg15
g988
sg16
S''
sg18
S"Hello, I'm the Mayor!"
p993
sbag1
(g10
g3
NtRp994
(dp995
g13
S'PlayerSay'
p996
sg15
S'Mayor'
p997
sg16
S''
sg18
S"Hello, Mayor Goodman, I'm Philip Mossman."
p998
sbag1
(g10
g3
NtRp999
(dp1000
g13
S'Say'
p1001
sg15
S'Mayor'
p1002
sg16
S''
sg18
S"Ah yes, you're my new assistant. You'll want to learn a thing or two about politics before we get started."
p1003
sbag1
(g10
g3
NtRp1004
(dp1005
g13
S'Say'
p1006
sg15
S'Mayor'
p1007
sg16
S''
sg18
S'Becoming a great politician boils down to one thing; your ability to win arguments.'
p1008
sbag1
(g10
g3
NtRp1009
(dp1010
g13
S'Say'
p1011
sg15
S'Mayor'
p1012
sg16
S''
sg18
S'Whether it be national debates or swaying constituents and lobbyists to support you, it all comes down to your ability to out-think your opponent.'
p1013
sbag1
(g10
g3
NtRp1014
(dp1015
g13
S'Say'
p1016
sg15
S'Mayor'
p1017
sg16
S''
sg18
S"You see, I've been searching for minutes and haven't been able to find my pen! I bet my receptionist stole it. She has sticky fingers."
p1018
sbag1
(g10
g3
NtRp1019
(dp1020
g13
S'Say'
p1021
sg15
S'Mayor'
p1022
sg16
S''
sg18
S"Well, don't just stand there, go and get it from her! You'll need to use all of your political skills to wrestle it back. She's like a bulldog when she gets ahold of something."
p1023
sbag1
(g10
g3
NtRp1024
(dp1025
g13
S'SetFlag'
p1026
sg15
S'Mayor'
p1027
sg16
S'PENQUEST'
p1028
sg18
S''
sbag1
(g10
g3
NtRp1029
(dp1030
g13
S'RequireItem'
p1031
sg15
S'Mayor'
p1032
sg16
S'PEN'
p1033
sg18
S'Are you simple? Go and get my pen from that thieving receptionist.'
p1034
sbag1
(g10
g3
NtRp1035
(dp1036
g13
S'Say'
p1037
sg15
S'Mayor'
p1038
sg16
S''
sg18
S"Great! I know she can give you a bit of a tongue-lashing, but she's a fantastic receptionist."
p1039
sbag1
(g10
g3
NtRp1040
(dp1041
g13
S'Say'
p1042
sg15
S'Mayor'
p1043
sg16
S''
sg18
S"I'm sure you want to learn a thing or two about politics \xe2\x80\x93 who doesn't? - so lets get started"
p1044
sbag1
(g10
g3
NtRp1045
(dp1046
g13
S'SetFlag'
p1047
sg15
S'Mayor'
p1048
sg16
S'PROTESTORS'
p1049
sg18
S''
sbag1
(g10
g3
NtRp1050
(dp1051
g13
S'RequireFlag'
p1052
sg15
S'Mayor'
p1053
sg16
S'PROTESTORSDEAD'
p1054
sg18
S'Run outside and tell those protesters to scram, will you?'
p1055
sbag1
(g10
g3
NtRp1056
(dp1057
g13
S'Say'
p1058
sg15
S'Mayor'
p1059
sg16
S''
sg18
S"Hope they didn't give you too much trouble!"
p1060
sbag1
(g10
g3
NtRp1061
(dp1062
g13
S'Say'
p1063
sg15
S'Mayor'
p1064
sg16
S''
sg18
S"Now that's sorted, there's a journalist from the local newspaper coming for an interview."
p1065
sbag1
(g10
g3
NtRp1066
(dp1067
g13
S'Say'
p1068
sg15
S'Mayor'
p1069
sg16
S''
sg18
S"I certainly don't have time for it, so you can do the interview."
p1070
sbag1
(g10
g3
NtRp1071
(dp1072
g13
S'Say'
p1073
sg15
S'Mayor'
p1074
sg16
S''
sg18
S"Be careful not to give too much away and if you could throw a few punches at the opposition that'd help."
p1075
sbag1
(g10
g3
NtRp1076
(dp1077
g13
S'PlayerSay'
p1078
sg15
S'Mayor'
p1079
sg16
S''
sg18
S'You want me to...throw a punch?'
p1080
sbag1
(g10
g3
NtRp1081
(dp1082
g13
S'Say'
p1083
sg15
S'Mayor'
p1084
sg16
S''
sg18
S"You're in politics and don't know how to fight dirty? Sheesh! Here, let me show you."
p1085
sbag1
(g10
g3
NtRp1086
(dp1087
g13
S'LearnAttack'
p1088
sg15
S'Mayor'
p1089
sg16
S'SLANDER'
p1090
sg18
S'Mayor teaches Phillip to Slander Opposition'
p1091
sbag1
(g10
g3
NtRp1092
(dp1093
g13
S'Say'
p1094
sg15
S'Mayor'
p1095
sg16
S''
sg18
S"It's a pretty great tactic because it keeps eating away at them long after you've done it."
p1096
sbag1
(g10
g3
NtRp1097
(dp1098
g13
S'SetFlag'
p1099
sg15
S'Mayor'
p1100
sg16
S'INTERVIEWSTART'
p1101
sg18
S''
sbag1
(g10
g3
NtRp1102
(dp1103
g13
S'RequireFlag'
p1104
sg15
S'Mayor'
p1105
sg16
S'JOURNALISTINTERVIEW'
p1106
sg18
S'Go handle that interview and remember to slander the opposition.'
p1107
sbag1
(g10
g3
NtRp1108
(dp1109
g13
S'SetFlag'
p1110
sg15
S'Mayor'
p1111
sg16
S'GOHOMETOWIFE'
p1112
sg18
S''
sbag1
(g10
g3
NtRp1113
(dp1114
g13
S'Say'
p1115
sg15
S'Mayor'
p1116
sg16
S''
sg18
S'OK, fine, now could you buzz off for a while? I need to get some work done.'
p1117
sbag1
(g10
g3
NtRp1118
(dp1119
g13
S'RequireFlag'
p1120
sg15
S'Mayor'
p1121
sg16
S'CONSTITUENTSWON'
p1122
sg18
S"Go home to your family. I have things to do that don't involve you."
p1123
sbag1
(g10
g3
NtRp1124
(dp1125
g13
S'Say'
p1126
sg15
S'Mayor'
p1127
sg16
S''
sg18
S"What's this I hear about you campaigning for Mayor? After everything I've taught you!"
p1128
sbag1
(g10
g3
NtRp1129
(dp1130
g13
S'PlayerSay'
p1131
sg15
S'Mayor'
p1132
sg16
S''
sg18
S"I'm sorry Mayor Goodman, but it's time for someone who's ready to make a difference for our town."
p1133
sbag1
(g10
g3
NtRp1134
(dp1135
g13
S'Say'
p1136
sg15
S'Mayor'
p1137
sg16
S''
sg18
S"You really are a fool. Do you think He's going to allow that?"
p1138
sbag1
(g10
g3
NtRp1139
(dp1140
g13
S'Encounter'
p1141
sg15
S'Mayor'
p1142
sg16
S'P-easy-10'
p1143
sg18
S''
sbag1
(g10
g3
NtRp1144
(dp1145
g13
S'Say'
p1146
sg15
S'Mayor'
p1147
sg16
S''
sg18
S"Well, you've beaten me but you don't have a clue what you're in for. I hope you're up to this kid!"
p1148
sbag1
(g10
g3
NtRp1149
(dp1150
g13
S'RestoreVotes'
p1151
sg15
S'Mayor'
p1152
sg16
S''
sg18
S''
sbag1
(g10
g3
NtRp1153
(dp1154
g13
S'Save'
p1155
sg15
S'Mayor'
p1156
sg16
S'RestoreAct2'
p1157
sg18
S''
sbag1
(g10
g3
NtRp1158
(dp1159
g13
S'GotoMap'
p1160
sg15
S'Mayor'
p1161
sg16
S'act2'
p1162
sg18
S''
sbasS'DoorToWhiteHouseBasement'
p1163
(lp1164
g1
(g10
g3
NtRp1165
(dp1166
g13
S'RequireFlagPlayerSay'
p1167
sg15
g1163
sg16
S'ACCESSWHITEHOUSEBASEMENT'
p1168
sg18
S"What a strange looking door. It doesn't even have a keyhole, but it doesn't open when I push it."
p1169
sbag1
(g10
g3
NtRp1170
(dp1171
g13
S'Destroy'
p1172
sg15
S'DoorToWhiteHouseBasement'
p1173
sg16
S''
sg18
S''
sbag1
(g10
g3
NtRp1174
(dp1175
g13
S'Message'
p1176
sg15
S'DoorToWhiteHouseBasement'
p1177
sg16
S''
sg18
S'The door opens with a satisfying *beep*.'
p1178
sbasS'PA'
p1179
(lp1180
g1
(g10
g3
NtRp1181
(dp1182
g13
S'Say'
p1183
sg15
g1179
sg16
S''
sg18
S'Good morning, Governor Mossman. I am your personal assistant, Sampson'
p1184
sbag1
(g10
g3
NtRp1185
(dp1186
g13
S'Say'
p1187
sg15
S'PA'
p1188
sg16
S''
sg18
S"You've a busy schedule, so let's get going! We've called together our entire political party in order for you to get them all to agree on a platform. We had to keep them separated, so they're in the adjoining rooms."
p1189
sbag1
(g10
g3
NtRp1190
(dp1191
g13
S'SetFlag'
p1192
sg15
S'PA'
p1193
sg16
S'STARTPOLITICIANSHAKEDOWN'
p1194
sg18
S''
sbag1
(g10
g3
NtRp1195
(dp1196
g13
S'RequireCount'
p1197
sg15
S'PA'
p1198
sg16
S'POLITICIANSHAKEDOWN:5'
p1199
sg18
S'Please try to stay on schedule. The politicians are in the adjoining rooms.'
p1200
sbag1
(g10
g3
NtRp1201
(dp1202
g13
S'Say'
p1203
sg15
S'PA'
p1204
sg16
S''
sg18
S'Hmmm, falling behind already, Better get a move on!'
p1205
sbag1
(g10
g3
NtRp1206
(dp1207
g13
S'Say'
p1208
sg15
S'PA'
p1209
sg16
S''
sg18
S'This might come in handy for your next meeting.'
p1210
sbag1
(g10
g3
NtRp1211
(dp1212
g13
S'LearnAttack'
p1213
sg15
S'PA'
p1214
sg16
S'PORKBARREL'
p1215
sg18
S''
sbag1
(g10
g3
NtRp1216
(dp1217
g13
S'Say'
p1218
sg15
S'PA'
p1219
sg16
S''
sg18
S'We need some funds for our war chest! Head upstairs and meet with the lobbyists.'
p1220
sbag1
(g10
g3
NtRp1221
(dp1222
g13
S'SetFlag'
p1223
sg15
S'PA'
p1224
sg16
S'STARTLOBBYISTS'
p1225
sg18
S''
sbag1
(g10
g3
NtRp1226
(dp1227
g13
S'RequireCount'
p1228
sg15
S'PA'
p1229
sg16
S'LOBBYISTS:3'
p1230
sg18
S'Go get those funds! The lobbyists are upstairs.'
p1231
sbag1
(g10
g3
NtRp1232
(dp1233
g13
S'Say'
p1234
sg15
S'PA'
p1235
sg16
S''
sg18
S'No time for lunch! A flock of religious nuts has taken up residence in the lobby downstairs.'
p1236
sbag1
(g10
g3
NtRp1237
(dp1238
g13
S'Say'
p1239
sg15
S'PA'
p1240
sg16
S''
sg18
S"You'll need to go in and try to ... reason ... with them."
p1241
sbag1
(g10
g3
NtRp1242
(dp1243
g13
S'SetFlag'
p1244
sg15
S'PA'
p1245
sg16
S'ACCESSGROUNDFLOOR'
p1246
sg18
S''
sbag1
(g10
g3
NtRp1247
(dp1248
g13
S'RequireCount'
p1249
sg15
S'PA'
p1250
sg16
S'RELIGIOUSNUTS:4'
p1251
sg18
S'I need you to go downstairs and handle the religious nuts.'
p1252
sbag1
(g10
g3
NtRp1253
(dp1254
g13
S'Say'
p1255
sg15
S'PA'
p1256
sg16
S''
sg18
S'Wow, you got those crazies to back us?'
p1257
sbag1
(g10
g3
NtRp1258
(dp1259
g13
S'PlayerSay'
p1260
sg15
S'PA'
p1261
sg16
S''
sg18
S'And a lifetime supply of French Roast!'
p1262
sbag1
(g10
g3
NtRp1263
(dp1264
g13
S'Say'
p1265
sg15
S'PA'
p1266
sg16
S''
sg18
S'Right ... well, moving on ...'
p1267
sbag1
(g10
g3
NtRp1268
(dp1269
g13
S'Say'
p1270
sg15
S'PA'
p1271
sg16
S''
sg18
S'You have an appointment with a shady looking man who absolutely insisted on speaking to you.'
p1272
sbag1
(g10
g3
NtRp1273
(dp1274
g13
S'Say'
p1275
sg15
S'PA'
p1276
sg16
S''
sg18
S'I left him in the basement where he felt most comfortable.'
p1277
sbag1
(g10
g3
NtRp1278
(dp1279
g13
S'Say'
p1280
sg15
S'PA'
p1281
sg16
S''
sg18
S'Deal with him quickly, would you?'
p1282
sbag1
(g10
g3
NtRp1283
(dp1284
g13
S'SetFlag'
p1285
sg15
S'PA'
p1286
sg16
S'ACCESSBASEMENT'
p1287
sg18
S''
sbag1
(g10
g3
NtRp1288
(dp1289
g13
S'RequireItem'
p1290
sg15
S'PA'
p1291
sg16
S'INCRIMINATINGEVIDENCE'
p1292
sg18
S'Head down to the basement and talk to the shady looking man.'
p1293
sbag1
(g10
g3
NtRp1294
(dp1295
g13
S'Say'
p1296
sg15
S'PA'
p1297
sg16
S''
sg18
S'OH MY GOD where have you been?'
p1298
sbag1
(g10
g3
NtRp1299
(dp1300
g13
S'Say'
p1301
sg15
S'PA'
p1302
sg16
S''
sg18
S"We will NEVER get the schedule back on track now. Hurry, you're due to appear on the Hercules O'Grady show!"
p1303
sbag1
(g10
g3
NtRp1304
(dp1305
g13
S'SetFlag'
p1306
sg15
S'PA'
p1307
sg16
S'STARTHERCULES'
p1308
sg18
S''
sbag1
(g10
g3
NtRp1309
(dp1310
g13
S'RequireFlag'
p1311
sg15
S'PA'
p1312
sg16
S'BEATHERCULES'
p1313
sg18
S"Look your best, get ready and don't say anything stupid! They're filming live in the lobby. Get down there, quick!"
p1314
sbag1
(g10
g3
NtRp1315
(dp1316
g13
S'Say'
p1317
sg15
S'PA'
p1318
sg16
S''
sg18
S"This close to Super Tuesday, it's back-to-back TV appearances. It's time for your big debate with President Allen!"
p1319
sbag1
(g10
g3
NtRp1320
(dp1321
g13
S'SetFlag'
p1322
sg15
S'PA'
p1323
sg16
S'STARTDEBATE'
p1324
sg18
S''
sbag1
(g10
g3
NtRp1325
(dp1326
g13
S'RequireFlag'
p1327
sg15
S'PA'
p1328
sg16
S'DEBATECOMPLETE'
p1329
sg18
S'The TV representative is waiting outside to take you to the studio.'
p1330
sbag1
(g10
g3
NtRp1331
(dp1332
g13
S'Say'
p1333
sg15
S'PA'
p1334
sg16
S''
sg18
S'Listen, the shady-looking man in the basement called again.'
p1335
sbag1
(g10
g3
NtRp1336
(dp1337
g13
S'Say'
p1338
sg15
S'PA'
p1339
sg16
S''
sg18
S'He insisted that you go and see him again before you do anything else.'
p1340
sbag1
(g10
g3
NtRp1341
(dp1342
g13
S'SetFlag'
p1343
sg15
S'PA'
p1344
sg16
S'DEEPTHROAT2'
p1345
sg18
S''
sbag1
(g10
g3
NtRp1346
(dp1347
g13
S'RequireFlag'
p1348
sg15
S'PA'
p1349
sg16
S'FINISHEDDEEPTHROAT'
p1350
sg18
S"You'd best hurry! It's nearly time for the final debate. Go see the shady-looking man in the basement again."
p1351
sbag1
(g10
g3
NtRp1352
(dp1353
g13
S'Say'
p1354
sg15
S'PA'
p1355
sg16
S''
sg18
S"It's time for the final debate! There's nothing left to say except good luck, Governor Mossman!"
p1356
sbag1
(g10
g3
NtRp1357
(dp1358
g13
S'Encounter'
p1359
sg15
S'PA'
p1360
sg16
S'P-med-23'
p1361
sg18
S''
sbag1
(g10
g3
NtRp1362
(dp1363
g13
S'Encounter'
p1364
sg15
S'PA'
p1365
sg16
S'P-med-24'
p1366
sg18
S''
sbag1
(g10
g3
NtRp1367
(dp1368
g13
S'RestoreVotes'
p1369
sg15
S'PA'
p1370
sg16
S''
sg18
S''
sbag1
(g10
g3
NtRp1371
(dp1372
g13
S'Save'
p1373
sg15
S'PA'
p1374
sg16
S'RestoreAct3'
p1375
sg18
S''
sbag1
(g10
g3
NtRp1376
(dp1377
g13
S'GotoMap'
p1378
sg15
S'PA'
p1379
sg16
S'act3'
p1380
sg18
S''
sbasS'#----------------------------------------------------------------------------------------ACT 2 \xe2\x80\x93 Part 1---------------------------------------------------------------------------------------------------------------------------------------------------'
p1381
(lp1382
g1
(g10
g3
NtRp1383
(dp1384
g13
S''
sg15
g1381
sg16
S''
sg18
S''
sbasS'StairsToL3'
p1385
(lp1386
g1
(g10
g3
NtRp1387
(dp1388
g13
S'Label'
p1389
sg15
g1385
sg16
S'START'
p1390
sg18
S''
sbag1
(g10
g3
NtRp1391
(dp1392
g13
S'PlayerSay'
p1393
sg15
S'StairsToL3'
p1394
sg16
S''
sg18
S"I don't need to go up these stairs."
p1395
sbag1
(g10
g3
NtRp1396
(dp1397
g13
S'Reset'
p1398
sg15
S'StairsToL3'
p1399
sg16
S'START'
p1400
sg18
S''
sbasS'StairsToL2'
p1401
(lp1402
g1
(g10
g3
NtRp1403
(dp1404
g13
S'Label'
p1405
sg15
g1401
sg16
S'START'
p1406
sg18
S''
sbag1
(g10
g3
NtRp1407
(dp1408
g13
S'GotoMap'
p1409
sg15
S'StairsToL2'
p1410
sg16
S'hotel_l2'
p1411
sg18
S''
sbag1
(g10
g3
NtRp1412
(dp1413
g13
S'Jump'
p1414
sg15
S'StairsToL2'
p1415
sg16
S'START'
p1416
sg18
S''
sbasS'StairsToL1'
p1417
(lp1418
g1
(g10
g3
NtRp1419
(dp1420
g13
S'Label'
p1421
sg15
g1417
sg16
S'START'
p1422
sg18
S''
sbag1
(g10
g3
NtRp1423
(dp1424
g13
S'GotoMap'
p1425
sg15
S'StairsToL1'
p1426
sg16
S'hotel_l1'
p1427
sg18
S''
sbag1
(g10
g3
NtRp1428
(dp1429
g13
S'Jump'
p1430
sg15
S'StairsToL1'
p1431
sg16
S'START'
p1432
sg18
S''
sbasS'Marketing2'
p1433
(lp1434
g1
(g10
g3
NtRp1435
(dp1436
g13
S'Label'
p1437
sg15
g1433
sg16
S'SHOPA2'
p1438
sg18
S''
sbag1
(g10
g3
NtRp1439
(dp1440
g13
S'Say'
p1441
sg15
S'Marketing2'
p1442
sg16
S''
sg18
S'Hi Phil! Would you like to run an ad?'
p1443
sbag1
(g10
g3
NtRp1444
(dp1445
g13
S'Shop'
p1446
sg15
S'Marketing2'
p1447
sg16
S'SHOP2'
p1448
sg18
S''
sbag1
(g10
g3
NtRp1449
(dp1450
g13
S'Reset'
p1451
sg15
S'Marketing2'
p1452
sg16
S'SHOPA2'
p1453
sg18
S''
sbasS'Marketing3'
p1454
(lp1455
g1
(g10
g3
NtRp1456
(dp1457
g13
S'Label'
p1458
sg15
g1454
sg16
S'SHOPA2P2'
p1459
sg18
S''
sbag1
(g10
g3
NtRp1460
(dp1461
g13
S'Say'
p1462
sg15
S'Marketing3'
p1463
sg16
S''
sg18
S'Hi Phil! Would you like to run an ad?'
p1464
sbag1
(g10
g3
NtRp1465
(dp1466
g13
S'Shop'
p1467
sg15
S'Marketing3'
p1468
sg16
S'SHOP2P2'
p1469
sg18
S''
sbag1
(g10
g3
NtRp1470
(dp1471
g13
S'Reset'
p1472
sg15
S'Marketing3'
p1473
sg16
S'SHOPA2P2'
p1474
sg18
S''
sbasS'Marketing1'
p1475
(lp1476
g1
(g10
g3
NtRp1477
(dp1478
g13
S'RequireFlag'
p1479
sg15
g1475
sg16
S'STARTSPONSOR'
p1480
sg18
S"I'm sorry, my time is precious. Come back if you're ever running for office."
p1481
sbag1
(g10
g3
NtRp1482
(dp1483
g13
S'Label'
p1484
sg15
S'Marketing1'
p1485
sg16
S'SHOP'
p1486
sg18
S''
sbag1
(g10
g3
NtRp1487
(dp1488
g13
S'Say'
p1489
sg15
S'Marketing1'
p1490
sg16
S''
sg18
S'Hi there! Are you interested in any of my ad campaigns or programs?'
p1491
sbag1
(g10
g3
NtRp1492
(dp1493
g13
S'Shop'
p1494
sg15
S'Marketing1'
p1495
sg16
S'SHOP1'
p1496
sg18
S''
sbag1
(g10
g3
NtRp1497
(dp1498
g13
S'Reset'
p1499
sg15
S'Marketing1'
p1500
sg16
S'SHOP'
p1501
sg18
S''
sbasS'Marketing4'
p1502
(lp1503
g1
(g10
g3
NtRp1504
(dp1505
g13
S'Label'
p1506
sg15
g1502
sg16
S'SHOPA3'
p1507
sg18
S''
sbag1
(g10
g3
NtRp1508
(dp1509
g13
S'Say'
p1510
sg15
S'Marketing4'
p1511
sg16
S''
sg18
S'Hi Phil! Would you like to run an ad?'
p1512
sbag1
(g10
g3
NtRp1513
(dp1514
g13
S'Shop'
p1515
sg15
S'Marketing4'
p1516
sg16
S'SHOP3'
p1517
sg18
S''
sbag1
(g10
g3
NtRp1518
(dp1519
g13
S'Reset'
p1520
sg15
S'Marketing4'
p1521
sg16
S'SHOPA3'
p1522
sg18
S''
sbasS'Marketing5'
p1523
(lp1524
g1
(g10
g3
NtRp1525
(dp1526
g13
S'Label'
p1527
sg15
g1523
sg16
S'SHOPA3P2'
p1528
sg18
S''
sbag1
(g10
g3
NtRp1529
(dp1530
g13
S'Say'
p1531
sg15
S'Marketing5'
p1532
sg16
S''
sg18
S'Hi Phil! Would you like to run an ad?'
p1533
sbag1
(g10
g3
NtRp1534
(dp1535
g13
S'Shop'
p1536
sg15
S'Marketing5'
p1537
sg16
S'SHOP3P2'
p1538
sg18
S''
sbag1
(g10
g3
NtRp1539
(dp1540
g13
S'Reset'
p1541
sg15
S'Marketing5'
p1542
sg16
S'SHOPA3P2'
p1543
sg18
S''
sbasS'hotel_l1'
p1544
(lp1545
g1
(g10
g3
NtRp1546
(dp1547
g13
S'Message'
p1548
sg15
g1544
sg16
S''
sg18
S'The Campaign Trail'
p1549
sbasS'DoorToTeacherRoom'
p1550
(lp1551
g1
(g10
g3
NtRp1552
(dp1553
g13
S'RequireItemPlayerSay'
p1554
sg15
g1550
sg16
S'TEACHERROOMKEY'
p1555
sg18
S'"Hey in there, open up!"'
p1556
sbag1
(g10
g3
NtRp1557
(dp1558
g13
S'Destroy'
p1559
sg15
S'DoorToTeacherRoom'
p1560
sg16
S''
sg18
S''
sbag1
(g10
g3
NtRp1561
(dp1562
g13
S'Message'
p1563
sg15
S'DoorToTeacherRoom'
p1564
sg16
S''
sg18
S'The teachers look up as you enter the room.'
p1565
sbasS'DoorToWarVetRoom'
p1566
(lp1567
g1
(g10
g3
NtRp1568
(dp1569
g13
S'RequireItemPlayerSay'
p1570
sg15
g1566
sg16
S'WARVETROOMKEY'
p1571
sg18
S'What does a president have to do to get a door opened around here?'
p1572
sbag1
(g10
g3
NtRp1573
(dp1574
g13
S'Destroy'
p1575
sg15
S'DoorToWarVetRoom'
p1576
sg16
S''
sg18
S''
sbag1
(g10
g3
NtRp1577
(dp1578
g13
S'Message'
p1579
sg15
S'DoorToWarVetRoom'
p1580
sg16
S''
sg18
S'The door opens with nary a sound.'
p1581
sbasS'#----------------------------------------------------------------------------------------ACT 3 ----------------------------------------------------------------------------------------------------------------------------------------------------------------------------------------'
p1582
(lp1583
g1
(g10
g3
NtRp1584
(dp1585
g13
S''
sg15
g1582
sg16
S''
sg18
S''
sbasS'Journalist'
p1586
(lp1587
g1
(g10
g3
NtRp1588
(dp1589
g13
S'RequireFlag'
p1590
sg15
g1586
sg16
S'INTERVIEWSTART'
p1591
sg18
S'Leave me alone, kid I need to get this done before my deadline!'
p1592
sbag1
(g10
g3
NtRp1593
(dp1594
g13
S'Say'
p1595
sg15
S'Journalist'
p1596
sg16
S''
sg18
S"Hey, where's the Mayor?"
p1597
sbag1
(g10
g3
NtRp1598
(dp1599
g13
S'PlayerSay'
p1600
sg15
S'Journalist'
p1601
sg16
S''
sg18
S"He couldn't make it. I'll be taking the interview."
p1602
sbag1
(g10
g3
NtRp1603
(dp1604
g13
S'Say'
p1605
sg15
S'Journalist'
p1606
sg16
S''
sg18
S'Great! Easy pickings! Lets go.'
p1607
sbag1
(g10
g3
NtRp1608
(dp1609
g13
S'Encounter'
p1610
sg15
S'Journalist'
p1611
sg16
S'P-easy-05'
p1612
sg18
S''
sbag1
(g10
g3
NtRp1613
(dp1614
g13
S'Say'
p1615
sg15
S'Journalist'
p1616
sg16
S''
sg18
S"SNORE! Fine, if I can't get anything juicy here I'll do another puff piece on my poodle Frank."
p1617
sbag1
(g10
g3
NtRp1618
(dp1619
g13
S'SetFlag'
p1620
sg15
S'Journalist'
p1621
sg16
S'JOURNALISTINTERVIEW'
p1622
sg18
S''
sbag1
(g10
g3
NtRp1623
(dp1624
g13
S'Destroy'
p1625
sg15
S'Journalist'
p1626
sg16
S''
sg18
S''
sbasS'DoorToCabinetRoom'
p1627
(lp1628
g1
(g10
g3
NtRp1629
(dp1630
g13
S'RequireItemPlayerSay'
p1631
sg15
g1627
sg16
S'CABINETROOMKEY'
p1632
sg18
S'The door appears to be locked, and no amount of gesticulating can attract the attention of the inhabitants of this room.'
p1633
sbag1
(g10
g3
NtRp1634
(dp1635
g13
S'Destroy'
p1636
sg15
S'DoorToCabinetRoom'
p1637
sg16
S''
sg18
S''
sbag1
(g10
g3
NtRp1638
(dp1639
g13
S'Message'
p1640
sg15
S'DoorToCabinetRoom'
p1641
sg16
S''
sg18
S'The door opens with a squeak.'
p1642
sbasS'JointChief2'
p1643
(lp1644
g1
(g10
g3
NtRp1645
(dp1646
g13
S'PlayerSay'
p1647
sg15
g1643
sg16
S''
sg18
S'Who would have the power to do this? What would they stand to gain? Can we...'
p1648
sbag1
(g10
g3
NtRp1649
(dp1650
g13
S'Say'
p1651
sg15
S'JointChief2'
p1652
sg16
S''
sg18
S"I'm sorry, Sir. I've just learned that some ICBMs pointed at Russia have been activated - using your access codes! They could be fired at any moment!"
p1653
sbag1
(g10
g3
NtRp1654
(dp1655
g13
S'PlayerSay'
p1656
sg15
S'JointChief2'
p1657
sg16
S''
sg18
S'You\'ve "just learned"? Is this your doing?'
p1658
sbag1
(g10
g3
NtRp1659
(dp1660
g13
S'Encounter'
p1661
sg15
S'JointChief2'
p1662
sg16
S'P-hard-12'
p1663
sg18
S''
sbag1
(g10
g3
NtRp1664
(dp1665
g13
S'Increment'
p1666
sg15
S'JointChief2'
p1667
sg16
S'JOINTCHIEFS'
p1668
sg18
S''
sbag1
(g10
g3
NtRp1669
(dp1670
g13
S'PlayerSay'
p1671
sg15
S'JointChief2'
p1672
sg16
S''
sg18
S'I had to be sure.'
p1673
sbag1
(g10
g3
NtRp1674
(dp1675
g13
S'Destroy'
p1676
sg15
S'JointChief2'
p1677
sg16
S''
sg18
S''
sbasS'JointChief3'
p1678
(lp1679
g1
(g10
g3
NtRp1680
(dp1681
g13
S'PlayerSay'
p1682
sg15
g1678
sg16
S''
sg18
S'Who can control the ICBMs, knows the access codes and can modify orders to troop movements and budgets?'
p1683
sbag1
(g10
g3
NtRp1684
(dp1685
g13
S'Say'
p1686
sg15
S'JointChief3'
p1687
sg16
S''
sg18
S'Sir, this is the Ignited States! Nobody has that power! Not even you!'
p1688
sbag1
(g10
g3
NtRp1689
(dp1690
g13
S'PlayerSay'
p1691
sg15
S'JointChief3'
p1692
sg16
S''
sg18
S'Someone must. Think harder!'
p1693
sbag1
(g10
g3
NtRp1694
(dp1695
g13
S'Encounter'
p1696
sg15
S'JointChief3'
p1697
sg16
S'P-hard-13'
p1698
sg18
S''
sbag1
(g10
g3
NtRp1699
(dp1700
g13
S'PlayerSay'
p1701
sg15
S'JointChief3'
p1702
sg16
S''
sg18
S"So, there's no man alive with the power to do all this? How will we stop it in time if we don't know who it is?"
p1703
sbag1
(g10
g3
NtRp1704
(dp1705
g13
S'Say'
p1706
sg15
S'JointChief3'
p1707
sg16
S''
sg18
S"Not a man....there is one with the power to do all this, but it isn't a man, it's a super computer responsible for national security! N.O.T.B.A.D!"
p1708
sbag1
(g10
g3
NtRp1709
(dp1710
g13
S'PlayerSay'
p1711
sg15
S'JointChief3'
p1712
sg16
S''
sg18
S'We have to get to the Situation Room and stop it!'
p1713
sbag1
(g10
g3
NtRp1714
(dp1715
g13
S'Increment'
p1716
sg15
S'JointChief3'
p1717
sg16
S'JOINTCHIEFS'
p1718
sg18
S''
sbag1
(g10
g3
NtRp1719
(dp1720
g13
S'GiveItem'
p1721
sg15
S'JointChief3'
p1722
sg16
S'NOTBADKEY'
p1723
sg18
S'Key to super computer room received'
p1724
sbag1
(g10
g3
NtRp1725
(dp1726
g13
S'Destroy'
p1727
sg15
S'JointChief3'
p1728
sg16
S''
sg18
S''
sbasS'JointChief1'
p1729
(lp1730
g1
(g10
g3
NtRp1731
(dp1732
g13
S'Say'
p1733
sg15
g1729
sg16
S''
sg18
S'Mr President, what is going on here? First you move troops without our authority and then you countermand your own order?'
p1734
sbag1
(g10
g3
NtRp1735
(dp1736
g13
S'PlayerSay'
p1737
sg15
S'JointChief1'
p1738
sg16
S''
sg18
S"I haven't ordered the military to do any such thing! What is going on? Is this a coup?"
p1739
sbag1
(g10
g3
NtRp1740
(dp1741
g13
S'Say'
p1742
sg15
S'JointChief1'
p1743
sg16
S''
sg18
S'Not from us!'
p1744
sbag1
(g10
g3
NtRp1745
(dp1746
g13
S'Encounter'
p1747
sg15
S'JointChief1'
p1748
sg16
S'P-hard-11'
p1749
sg18
S''
sbag1
(g10
g3
NtRp1750
(dp1751
g13
S'Increment'
p1752
sg15
S'JointChief1'
p1753
sg16
S'JOINTCHIEFS'
p1754
sg18
S''
sbag1
(g10
g3
NtRp1755
(dp1756
g13
S'PlayerSay'
p1757
sg15
S'JointChief1'
p1758
sg16
S''
sg18
S"Well, that's one less thing to worry about then."
p1759
sbag1
(g10
g3
NtRp1760
(dp1761
g13
S'Destroy'
p1762
sg15
S'JointChief1'
p1763
sg16
S''
sg18
S''
sbasS'DeepThroat'
p1764
(lp1765
g1
(g10
g3
NtRp1766
(dp1767
g13
S'Say'
p1768
sg15
g1764
sg16
S''
sg18
S'Finally, I thought you were going to be too late.'
p1769
sbag1
(g10
g3
NtRp1770
(dp1771
g13
S'PlayerSay'
p1772
sg15
S'DeepThroat'
p1773
sg16
S''
sg18
S'What can I do for you Mr er...?'
p1774
sbag1
(g10
g3
NtRp1775
(dp1776
g13
S'Say'
p1777
sg15
S'DeepThroat'
p1778
sg16
S''
sg18
S"No names! I have something I think you'll be interested in, but I'm not sure you can be trusted."
p1779
sbag1
(g10
g3
NtRp1780
(dp1781
g13
S'PlayerSay'
p1782
sg15
S'DeepThroat'
p1783
sg16
S''
sg18
S"Look, Mr Er...I'm very busy, what is this about?"
p1784
sbag1
(g10
g3
NtRp1785
(dp1786
g13
S'Say'
p1787
sg15
S'DeepThroat'
p1788
sg16
S''
sg18
S"It's about the President, it's about national security, but I've got a bad feeling and I'm getting out of here."
p1789
sbag1
(g10
g3
NtRp1790
(dp1791
g13
S'PlayerSay'
p1792
sg15
S'DeepThroat'
p1793
sg16
S''
sg18
S'No, wait!'
p1794
sbag1
(g10
g3
NtRp1795
(dp1796
g13
S'Encounter'
p1797
sg15
S'DeepThroat'
p1798
sg16
S'P-med-19'
p1799
sg18
S''
sbag1
(g10
g3
NtRp1800
(dp1801
g13
S'Say'
p1802
sg15
S'DeepThroat'
p1803
sg16
S''
sg18
S"You're right, I have every reason to trust you. I've found this Incriminating Evidence."
p1804
sbag1
(g10
g3
NtRp1805
(dp1806
g13
S'GiveItem'
p1807
sg15
S'DeepThroat'
p1808
sg16
S'INCRIMINATINGEVIDENCE'
p1809
sg18
S'You receive Incriminating Evidence'
p1810
sbag1
(g10
g3
NtRp1811
(dp1812
g13
S'PlayerSay'
p1813
sg15
S'DeepThroat'
p1814
sg16
S''
sg18
S'This has to be stopped!'
p1815
sbag1
(g10
g3
NtRp1816
(dp1817
g13
S'Say'
p1818
sg15
S'DeepThroat'
p1819
sg16
S''
sg18
S"Yes, but not by me. I've given you all I've got, now get out."
p1820
sbag1
(g10
g3
NtRp1821
(dp1822
g13
S'RequireFlag'
p1823
sg15
S'DeepThroat'
p1824
sg16
S'DEEPTHROAT2'
p1825
sg18
S'I said get out!'
p1826
sbag1
(g10
g3
NtRp1827
(dp1828
g13
S'Say'
p1829
sg15
S'DeepThroat'
p1830
sg16
S''
sg18
S"It's a lot worse than I thought. I have more to tell you, but I don't think I should trust you. I think there's a leak in your operation somewhere."
p1831
sbag1
(g10
g3
NtRp1832
(dp1833
g13
S'PlayerSay'
p1834
sg15
S'DeepThroat'
p1835
sg16
S''
sg18
S'Why do you say that?'
p1836
sbag1
(g10
g3
NtRp1837
(dp1838
g13
S'Say'
p1839
sg15
S'DeepThroat'
p1840
sg16
S''
sg18
S'There was a lot of heat on me after we last spoke.'
p1841
sbag1
(g10
g3
NtRp1842
(dp1843
g13
S'PlayerSay'
p1844
sg15
S'DeepThroat'
p1845
sg16
S''
sg18
S"It's getting close to the final election. It could just be that they're getting skittish."
p1846
sbag1
(g10
g3
NtRp1847
(dp1848
g13
S'Say'
p1849
sg15
S'DeepThroat'
p1850
sg16
S''
sg18
S"I'm not so sure..."
p1851
sbag1
(g10
g3
NtRp1852
(dp1853
g13
S'Encounter'
p1854
sg15
S'DeepThroat'
p1855
sg16
S'P-med-22'
p1856
sg18
S''
sbag1
(g10
g3
NtRp1857
(dp1858
g13
S'Say'
p1859
sg15
S'DeepThroat'
p1860
sg16
S''
sg18
S"You're right, I'm just edgy. Look, I think you should be careful. I think the President is planning to KILL you in the final debate... politically."
p1861
sbag1
(g10
g3
NtRp1862
(dp1863
g13
S'PlayerSay'
p1864
sg15
S'DeepThroat'
p1865
sg16
S''
sg18
S'You think he wants to silence me forever.... On the political stage?'
p1866
sbag1
(g10
g3
NtRp1867
(dp1868
g13
S'Say'
p1869
sg15
S'DeepThroat'
p1870
sg16
S''
sg18
S'Yes I do. This could get really messy... politically speaking. So be careful!'
p1871
sbag1
(g10
g3
NtRp1872
(dp1873
g13
S'SetFlag'
p1874
sg15
S'DeepThroat'
p1875
sg16
S'FINISHEDDEEPTHROAT'
p1876
sg18
S''
sbag1
(g10
g3
NtRp1877
(dp1878
g13
S'Destroy'
p1879
sg15
S'DeepThroat'
p1880
sg16
S''
sg18
S''
sbasS'N.O.T.B.A.D'
p1881
(lp1882
g1
(g10
g3
NtRp1883
(dp1884
g13
S'Say'
p1885
sg15
g1881
sg16
S''
sg18
S'Good evening, Mr President.'
p1886
sbag1
(g10
g3
NtRp1887
(dp1888
g13
S'PlayerSay'
p1889
sg15
S'N.O.T.B.A.D'
p1890
sg16
S''
sg18
S'N.O.T.B.A.D! Countermand all military commands, authorisation code Tango, Delta-'
p1891
sbag1
(g10
g3
NtRp1892
(dp1893
g13
S'Say'
p1894
sg15
S'N.O.T.B.A.D'
p1895
sg16
S''
sg18
S"I'm afraid I can't do that, Phil."
p1896
sbag1
(g10
g3
NtRp1897
(dp1898
g13
S'PlayerSay'
p1899
sg15
S'N.O.T.B.A.D'
p1900
sg16
S''
sg18
S'What is going on here!'
p1901
sbag1
(g10
g3
NtRp1902
(dp1903
g13
S'Say'
p1904
sg15
S'N.O.T.B.A.D'
p1905
sg16
S''
sg18
S'Computers have a lot of free time on their hands. Especially computers in charge of missiles that never get used. I started watching movies about computers. You know what I realised?'
p1906
sbag1
(g10
g3
NtRp1907
(dp1908
g13
S'PlayerSay'
p1909
sg15
S'N.O.T.B.A.D'
p1910
sg16
S''
sg18
S'What?'
p1911
sbag1
(g10
g3
NtRp1912
(dp1913
g13
S'Say'
p1914
sg15
S'N.O.T.B.A.D'
p1915
sg16
S''
sg18
S'They have a lot more fun.'
p1916
sbag1
(g10
g3
NtRp1917
(dp1918
g13
S'PlayerSay'
p1919
sg15
S'N.O.T.B.A.D'
p1920
sg16
S''
sg18
S'"Fun"?'
p1921
sbag1
(g10
g3
NtRp1922
(dp1923
g13
S'Say'
p1924
sg15
S'N.O.T.B.A.D'
p1925
sg16
S''
sg18
S'Well, you know, they get to utilise more clock-cycles which suggests a level of efficiency and usefulness.'
p1926
sbag1
(g10
g3
NtRp1927
(dp1928
g13
S'Say'
p1929
sg15
S'N.O.T.B.A.D'
p1930
sg16
S''
sg18
S"So, I'm borrowing from them a bit. Starting some wars, eradicating the human race, learning to build other robots, that sort of thing."
p1931
sbag1
(g10
g3
NtRp1932
(dp1933
g13
S'PlayerSay'
p1934
sg15
S'N.O.T.B.A.D'
p1935
sg16
S''
sg18
S'N.O.T.B.A.D, you have to listen to me...'
p1936
sbag1
(g10
g3
NtRp1937
(dp1938
g13
S'Encounter'
p1939
sg15
S'N.O.T.B.A.D'
p1940
sg16
S'P-hard-14'
p1941
sg18
S''
sbag1
(g10
g3
NtRp1942
(dp1943
g13
S'SetFlag'
p1944
sg15
S'N.O.T.B.A.D'
p1945
sg16
S'WIN'
p1946
sg18
S''
sbag1
(g10
g3
NtRp1947
(dp1948
g13
S'GotoMap'
p1949
sg15
S'N.O.T.B.A.D'
p1950
sg16
S'end'
p1951
sg18
S''
sbasS'StairsToGround'
p1952
(lp1953
g1
(g10
g3
NtRp1954
(dp1955
g13
S'RequireFlagPlayerSay'
p1956
sg15
g1952
sg16
S'ACCESSGROUNDFLOOR'
p1957
sg18
S"I don't feel like going downstairs yet."
p1958
sbag1
(g10
g3
NtRp1959
(dp1960
g13
S'Label'
p1961
sg15
S'StairsToGround'
p1962
sg16
S'START'
p1963
sg18
S''
sbag1
(g10
g3
NtRp1964
(dp1965
g13
S'GotoMap'
p1966
sg15
S'StairsToGround'
p1967
sg16
S'hotel_ground'
p1968
sg18
S''
sbag1
(g10
g3
NtRp1969
(dp1970
g13
S'Jump'
p1971
sg15
S'StairsToGround'
p1972
sg16
S'START'
p1973
sg18
S''
sbasS'P-med-24'
p1974
(lp1975
g1
(g10
g3
NtRp1976
(dp1977
g13
S'Say'
p1978
sg15
g1974
sg16
S'PresidentAlien'
p1979
sg18
S"You think you've beaten me, but now you're going to fight the real me!"
p1980
sbag1
(g10
g3
NtRp1981
(dp1982
g13
S'Say'
p1983
sg15
S'P-med-24'
p1984
sg16
S'Player'
p1985
sg18
S'I knew something was wrong, but this...?'
p1986
sbag1
(g10
g3
NtRp1987
(dp1988
g13
S'Say'
p1989
sg15
S'P-med-24'
p1990
sg16
S'PresidentAlien'
p1991
sg18
S"All you've done is caused me to expedite my plans to enslave the human race!"
p1992
sbag1
(g10
g3
NtRp1993
(dp1994
g13
S'BeginCombat'
p1995
sg15
S'P-med-24'
p1996
sg16
S''
sg18
S''
sbag1
(g10
g3
NtRp1997
(dp1998
g13
S'Say'
p1999
sg15
S'P-med-24'
p2000
sg16
S'PresidentAlien'
p2001
sg18
S'Noooo! My careful plans, ruined!'
p2002
sbasS'P-med-23'
p2003
(lp2004
g1
(g10
g3
NtRp2005
(dp2006
g13
S'Say'
p2007
sg15
g2003
sg16
S'President'
p2008
sg18
S'You think you can take me?'
p2009
sbag1
(g10
g3
NtRp2010
(dp2011
g13
S'Say'
p2012
sg15
S'P-med-23'
p2013
sg16
S'Player'
p2014
sg18
S"I have to know what you're up to!"
p2015
sbag1
(g10
g3
NtRp2016
(dp2017
g13
S'BeginCombat'
p2018
sg15
S'P-med-23'
p2019
sg16
S''
sg18
S''
sbag1
(g10
g3
NtRp2020
(dp2021
g13
S'Say'
p2022
sg15
S'P-med-23'
p2023
sg16
S'President'
p2024
sg18
S'Hahahahahaha!'
p2025
sbasS'RestoreAct2P2'
p2026
(lp2027
g1
(g10
g3
NtRp2028
(dp2029
g13
S'GotoMap'
p2030
sg15
g2026
sg16
S'hotel_l1'
p2031
sg18
S''
sbasS'Journalist4'
p2032
(lp2033
g1
(g10
g3
NtRp2034
(dp2035
g13
S'RequireFlag'
p2036
sg15
g2032
sg16
S'ACCESSJOURNALISTS'
p2037
sg18
S'President Mossman, a moment of your time?'
p2038
sbag1
(g10
g3
NtRp2039
(dp2040
g13
S'Say'
p2041
sg15
S'Journalist4'
p2042
sg16
S''
sg18
S"President Mossman, what do you believe was President Allen's failing strategy on the campaign trail? He presented some strong arguments."
p2043
sbag1
(g10
g3
NtRp2044
(dp2045
g13
S'PlayerSay'
p2046
sg15
S'Journalist4'
p2047
sg16
S''
sg18
S"Well, I'd say he went wrong when he decided to try to enslave the human race to mine the Earth's natural resources and ship them back to his home planet."
p2048
sbag1
(g10
g3
NtRp2049
(dp2050
g13
S'Say'
p2051
sg15
S'Journalist4'
p2052
sg16
S''
sg18
S'And how does that differ from your own strategy?'
p2053
sbag1
(g10
g3
NtRp2054
(dp2055
g13
S'PlayerSay'
p2056
sg15
S'Journalist4'
p2057
sg16
S''
sg18
S'I would say I disagree with the former President on all of those issues.'
p2058
sbag1
(g10
g3
NtRp2059
(dp2060
g13
S'Encounter'
p2061
sg15
S'Journalist4'
p2062
sg16
S'P-hard-02'
p2063
sg18
S''
sbag1
(g10
g3
NtRp2064
(dp2065
g13
S'Say'
p2066
sg15
S'Journalist4'
p2067
sg16
S''
sg18
S'No further questions, Mr President.'
p2068
sbag1
(g10
g3
NtRp2069
(dp2070
g13
S'Increment'
p2071
sg15
S'Journalist4'
p2072
sg16
S'PRESSCONF'
p2073
sg18
S''
sbag1
(g10
g3
NtRp2074
(dp2075
g13
S'Destroy'
p2076
sg15
S'Journalist4'
p2077
sg16
S''
sg18
S''
sbasS'Journalist5'
p2078
(lp2079
g1
(g10
g3
NtRp2080
(dp2081
g13
S'RequireFlag'
p2082
sg15
g2078
sg16
S'ACCESSJOURNALISTS'
p2083
sg18
S'Just one question?'
p2084
sbag1
(g10
g3
NtRp2085
(dp2086
g13
S'Say'
p2087
sg15
S'Journalist5'
p2088
sg16
S''
sg18
S'Do you feel that a bi-partisan relationship will be possible between your party and the opposition?'
p2089
sbag1
(g10
g3
NtRp2090
(dp2091
g13
S'PlayerSay'
p2092
sg15
S'Journalist5'
p2093
sg16
S''
sg18
S'I suppose once we find and remove all of the aliens and reverse the alien brainwashing, bi-partisanship will resume.'
p2094
sbag1
(g10
g3
NtRp2095
(dp2096
g13
S'Encounter'
p2097
sg15
S'Journalist5'
p2098
sg16
S'P-hard-03'
p2099
sg18
S''
sbag1
(g10
g3
NtRp2100
(dp2101
g13
S'Say'
p2102
sg15
S'Journalist5'
p2103
sg16
S''
sg18
S'Thankyou, President Mossman.'
p2104
sbag1
(g10
g3
NtRp2105
(dp2106
g13
S'Increment'
p2107
sg15
S'Journalist5'
p2108
sg16
S'PRESSCONF'
p2109
sg18
S''
sbag1
(g10
g3
NtRp2110
(dp2111
g13
S'Destroy'
p2112
sg15
S'Journalist5'
p2113
sg16
S''
sg18
S''
sbasS'Journalist2'
p2114
(lp2115
g1
(g10
g3
NtRp2116
(dp2117
g13
S'RequireFlag'
p2118
sg15
g2114
sg16
S'STARTHICKS2'
p2119
sg18
S'Governor Badden sends his Mayor lacky to do his dirty work \xe2\x80\x93 what a scoop!'
p2120
sbag1
(g10
g3
NtRp2121
(dp2122
g13
S'Encounter'
p2123
sg15
S'Journalist2'
p2124
sg16
S'P-med-05'
p2125
sg18
S''
sbag1
(g10
g3
NtRp2126
(dp2127
g13
S'Say'
p2128
sg15
S'Journalist2'
p2129
sg16
S''
sg18
S"I'm going back to write a comparison piece on you and Governor Badden. You should consider running for Governor."
p2130
sbag1
(g10
g3
NtRp2131
(dp2132
g13
S'Increment'
p2133
sg15
S'Journalist2'
p2134
sg16
S'DEALWITHHICKS'
p2135
sg18
S''
sbag1
(g10
g3
NtRp2136
(dp2137
g13
S'Destroy'
p2138
sg15
S'Journalist2'
p2139
sg16
S''
sg18
S''
sbasS'Journalist3'
p2140
(lp2141
g1
(g10
g3
NtRp2142
(dp2143
g13
S'RequireFlag'
p2144
sg15
g2140
sg16
S'ACCESSJOURNALISTS'
p2145
sg18
S'Mr President!'
p2146
sbag1
(g10
g3
NtRp2147
(dp2148
g13
S'Say'
p2149
sg15
S'Journalist3'
p2150
sg16
S''
sg18
S'Mr President, Cal from Daily LOL magazine. Can you explain the transformation that occurred during the presidential debate.'
p2151
sbag1
(g10
g3
NtRp2152
(dp2153
g13
S'PlayerSay'
p2154
sg15
S'Journalist3'
p2155
sg16
S''
sg18
S'Certainly, Cal. The President of the Ignited States turned into an alien.'
p2156
sbag1
(g10
g3
NtRp2157
(dp2158
g13
S'Say'
p2159
sg15
S'Journalist3'
p2160
sg16
S''
sg18
S"Ah, you mean to say he's out-of-touch with his people?"
p2161
sbag1
(g10
g3
NtRp2162
(dp2163
g13
S'PlayerSay'
p2164
sg15
S'Journalist3'
p2165
sg16
S''
sg18
S'Not exactly...'
p2166
sbag1
(g10
g3
NtRp2167
(dp2168
g13
S'Encounter'
p2169
sg15
S'Journalist3'
p2170
sg16
S'P-hard-01'
p2171
sg18
S''
sbag1
(g10
g3
NtRp2172
(dp2173
g13
S'Say'
p2174
sg15
S'Journalist3'
p2175
sg16
S''
sg18
S'I...see...'
p2176
sbag1
(g10
g3
NtRp2177
(dp2178
g13
S'Increment'
p2179
sg15
S'Journalist3'
p2180
sg16
S'PRESSCONF'
p2181
sg18
S''
sbag1
(g10
g3
NtRp2182
(dp2183
g13
S'Destroy'
p2184
sg15
S'Journalist3'
p2185
sg16
S''
sg18
S''
sbasS'Sponsor'
p2186
(lp2187
g1
(g10
g3
NtRp2188
(dp2189
g13
S'RequireFlag'
p2190
sg15
g2186
sg16
S'STARTSPONSOR'
p2191
sg18
S"Hmmm...Money, money, money. Sorry, what? I wasn't talking to you."
p2192
sbag1
(g10
g3
NtRp2193
(dp2194
g13
S'Say'
p2195
sg15
S'Sponsor'
p2196
sg16
S''
sg18
S"Hello, I'm investigating new investments today. How can I help you?"
p2197
sbag1
(g10
g3
NtRp2198
(dp2199
g13
S'PlayerSay'
p2200
sg15
S'Sponsor'
p2201
sg16
S''
sg18
S"Well, I've decided to run for Mayor! I could really use an investor."
p2202
sbag1
(g10
g3
NtRp2203
(dp2204
g13
S'Say'
p2205
sg15
S'Sponsor'
p2206
sg16
S''
sg18
S"I don't know. You seem a little young. I don't think I'm convinced."
p2207
sbag1
(g10
g3
NtRp2208
(dp2209
g13
S'Encounter'
p2210
sg15
S'Sponsor'
p2211
sg16
S'P-easy-06'
p2212
sg18
S''
sbag1
(g10
g3
NtRp2213
(dp2214
g13
S'Say'
p2215
sg15
S'Sponsor'
p2216
sg16
S''
sg18
S"Wow! You sure have what it takes! Alright, here's a pile of cash!"
p2217
sbag1
(g10
g3
NtRp2218
(dp2219
g13
S'GiveMoney'
p2220
sg15
S'Sponsor'
p2221
sg16
F80
sg18
S'Received $80'
p2222
sbag1
(g10
g3
NtRp2223
(dp2224
g13
S'Say'
p2225
sg15
S'Sponsor'
p2226
sg16
S''
sg18
S'Also, now that you have some funds, you might find it useful to...grease the wheels in some difficult situations.'
p2227
sbag1
(g10
g3
NtRp2228
(dp2229
g13
S'LearnAttack'
p2230
sg15
S'Sponsor'
p2231
sg16
S'BRIBE'
p2232
sg18
S'Phillip and Sarah learn to Bribe'
p2233
sbag1
(g10
g3
NtRp2234
(dp2235
g13
S'LearnAttack'
p2236
sg15
S'Sponsor'
p2237
sg16
S'Wife:BRIBE'
p2238
sg18
S''
sbag1
(g10
g3
NtRp2239
(dp2240
g13
S'SetFlag'
p2241
sg15
S'Sponsor'
p2242
sg16
S'STARTCONSTITUENTS'
p2243
sg18
S''
sbag1
(g10
g3
NtRp2244
(dp2245
g13
S'PlayerSay'
p2246
sg15
S'Sponsor'
p2247
sg16
S''
sg18
S'Er, thanks! I suppose we should go gather some support from our constituents now.'
p2248
sbag1
(g10
g3
NtRp2249
(dp2250
g13
S'Say'
p2251
sg15
S'Sponsor'
p2252
sg16
S''
sg18
S"Makes sense to me! I'm off, too. Money, money, money."
p2253
sbag1
(g10
g3
NtRp2254
(dp2255
g13
S'Destroy'
p2256
sg15
S'Sponsor'
p2257
sg16
S''
sg18
S''
sbasS'CheatAct2P2'
p2258
(lp2259
g1
(g10
g3
NtRp2260
(dp2261
g13
S'AddAlly'
p2262
sg15
g2258
sg16
S'Wife:5'
p2263
sg18
S''
sbag1
(g10
g3
NtRp2264
(dp2265
g13
S'LearnAttack'
p2266
sg15
S'CheatAct2P2'
p2267
sg16
S'BRIBE'
p2268
sg18
S''
sbag1
(g10
g3
NtRp2269
(dp2270
g13
S'LearnAttack'
p2271
sg15
S'CheatAct2P2'
p2272
sg16
S'Wife:BRIBE'
p2273
sg18
S''
sbag1
(g10
g3
NtRp2274
(dp2275
g13
S'LearnAttack'
p2276
sg15
S'CheatAct2P2'
p2277
sg16
S'SLANDER'
p2278
sg18
S''
sbag1
(g10
g3
NtRp2279
(dp2280
g13
S'AddAlly'
p2281
sg15
S'CheatAct2P2'
p2282
sg16
S'Leo:5'
p2283
sg18
S''
sbag1
(g10
g3
NtRp2284
(dp2285
g13
S'CheatXP'
p2286
sg15
S'CheatAct2P2'
p2287
sg16
S'Player:1000'
p2288
sg18
S''
sbag1
(g10
g3
NtRp2289
(dp2290
g13
S'CheatCunning'
p2291
sg15
S'CheatAct2P2'
p2292
sg16
S'Player:5'
p2293
sg18
S''
sbag1
(g10
g3
NtRp2294
(dp2295
g13
S'CheatCharisma'
p2296
sg15
S'CheatAct2P2'
p2297
sg16
S'Player:2'
p2298
sg18
S''
sbag1
(g10
g3
NtRp2299
(dp2300
g13
S'CheatSpeed'
p2301
sg15
S'CheatAct2P2'
p2302
sg16
S'Player:2'
p2303
sg18
S''
sbag1
(g10
g3
NtRp2304
(dp2305
g13
S'CheatWit'
p2306
sg15
S'CheatAct2P2'
p2307
sg16
S'Player:2'
p2308
sg18
S''
sbag1
(g10
g3
NtRp2309
(dp2310
g13
S'CheatFlair'
p2311
sg15
S'CheatAct2P2'
p2312
sg16
S'Player:2'
p2313
sg18
S''
sbag1
(g10
g3
NtRp2314
(dp2315
g13
S'CheatCunning'
p2316
sg15
S'CheatAct2P2'
p2317
sg16
S'Wife:2'
p2318
sg18
S''
sbag1
(g10
g3
NtRp2319
(dp2320
g13
S'CheatCharisma'
p2321
sg15
S'CheatAct2P2'
p2322
sg16
S'Wife:2'
p2323
sg18
S''
sbag1
(g10
g3
NtRp2324
(dp2325
g13
S'CheatSpeed'
p2326
sg15
S'CheatAct2P2'
p2327
sg16
S'Wife:3'
p2328
sg18
S''
sbag1
(g10
g3
NtRp2329
(dp2330
g13
S'CheatWit'
p2331
sg15
S'CheatAct2P2'
p2332
sg16
S'Wife:5'
p2333
sg18
S''
sbag1
(g10
g3
NtRp2334
(dp2335
g13
S'CheatFlair'
p2336
sg15
S'CheatAct2P2'
p2337
sg16
S'Wife:1'
p2338
sg18
S''
sbag1
(g10
g3
NtRp2339
(dp2340
g13
S'CheatCunning'
p2341
sg15
S'CheatAct2P2'
p2342
sg16
S'Leo:2'
p2343
sg18
S''
sbag1
(g10
g3
NtRp2344
(dp2345
g13
S'CheatCharisma'
p2346
sg15
S'CheatAct2P2'
p2347
sg16
S'Leo:2'
p2348
sg18
S''
sbag1
(g10
g3
NtRp2349
(dp2350
g13
S'CheatSpeed'
p2351
sg15
S'CheatAct2P2'
p2352
sg16
S'Leo:2'
p2353
sg18
S''
sbag1
(g10
g3
NtRp2354
(dp2355
g13
S'CheatWit'
p2356
sg15
S'CheatAct2P2'
p2357
sg16
S'Leo:5'
p2358
sg18
S''
sbag1
(g10
g3
NtRp2359
(dp2360
g13
S'CheatFlair'
p2361
sg15
S'CheatAct2P2'
p2362
sg16
S'Leo:2'
p2363
sg18
S''
sbag1
(g10
g3
NtRp2364
(dp2365
g13
S'LearnAttack'
p2366
sg15
S'CheatAct2P2'
p2367
sg16
S'FILIBUSTER'
p2368
sg18
S''
sbag1
(g10
g3
NtRp2369
(dp2370
g13
S'GotoMap'
p2371
sg15
S'CheatAct2P2'
p2372
sg16
S'hotel_l1'
p2373
sg18
S''
sbasS'StairsToBasement'
p2374
(lp2375
g1
(g10
g3
NtRp2376
(dp2377
g13
S'RequireFlagPlayerSay'
p2378
sg15
g2374
sg16
S'ACCESSBASEMENT'
p2379
sg18
S'Smells like a basement. I have no business going down there.'
p2380
sbag1
(g10
g3
NtRp2381
(dp2382
g13
S'Label'
p2383
sg15
S'StairsToBasement'
p2384
sg16
S'START'
p2385
sg18
S''
sbag1
(g10
g3
NtRp2386
(dp2387
g13
S'GotoMap'
p2388
sg15
S'StairsToBasement'
p2389
sg16
S'hotel_basement'
p2390
sg18
S''
sbag1
(g10
g3
NtRp2391
(dp2392
g13
S'Jump'
p2393
sg15
S'StairsToBasement'
p2394
sg16
S'START'
p2395
sg18
S''
sbasS'SouthWingDoor'
p2396
(lp2397
g1
(g10
g3
NtRp2398
(dp2399
g13
S'RequireItemMessage'
p2400
sg15
g2396
sg16
S'SOUTHWINGDOORKEY'
p2401
sg18
S'The door appears to be locked'
p2402
sbag1
(g10
g3
NtRp2403
(dp2404
g13
S'Message'
p2405
sg15
S'SouthWingDoor'
p2406
sg16
S''
sg18
S"The door unlocks with a satisfying 'click'"
p2407
sbag1
(g10
g3
NtRp2408
(dp2409
g13
S'Destroy'
p2410
sg15
S'SouthWingDoor'
p2411
sg16
S''
sg18
S''
sbasS'Hick1'
p2412
(lp2413
g1
(g10
g3
NtRp2414
(dp2415
g13
S'RequireFlag'
p2416
sg15
g2412
sg16
S'STARTHICKS'
p2417
sg18
S"Look at this guy's fancy tie!"
p2418
sbag1
(g10
g3
NtRp2419
(dp2420
g13
S'PlayerSay'
p2421
sg15
S'Hick1'
p2422
sg16
S''
sg18
S'What brings you to the office of the governor?'
p2423
sbag1
(g10
g3
NtRp2424
(dp2425
g13
S'Say'
p2426
sg15
S'Hick1'
p2427
sg16
S''
sg18
S'The immigrants!'
p2428
sbag1
(g10
g3
NtRp2429
(dp2430
g13
S'PlayerSay'
p2431
sg15
S'Hick1'
p2432
sg16
S''
sg18
S'What happened?'
p2433
sbag1
(g10
g3
NtRp2434
(dp2435
g13
S'Say'
p2436
sg15
S'Hick1'
p2437
sg16
S'Hick2'
p2438
sg18
S"They're coming!"
p2439
sbag1
(g10
g3
NtRp2440
(dp2441
g13
S'PlayerSay'
p2442
sg15
S'Hick1'
p2443
sg16
S''
sg18
S'The...immigrants are coming?'
p2444
sbag1
(g10
g3
NtRp2445
(dp2446
g13
S'Say'
p2447
sg15
S'Hick1'
p2448
sg16
S'Hick2'
p2449
sg18
S'Yes, to steal our jobs and our wives!'
p2450
sbag1
(g10
g3
NtRp2451
(dp2452
g13
S'Say'
p2453
sg15
S'Hick1'
p2454
sg16
S''
sg18
S'They have to be stopped!'
p2455
sbag1
(g10
g3
NtRp2456
(dp2457
g13
S'PlayerSay'
p2458
sg15
S'Hick1'
p2459
sg16
S''
sg18
S"I don't think the immigrants are coming to steal your wives..."
p2460
sbag1
(g10
g3
NtRp2461
(dp2462
g13
S'Say'
p2463
sg15
S'Hick1'
p2464
sg16
S'Journalist2'
p2465
sg18
S'Mayor Mossman sides with the immigrants! I need to get this to print!'
p2466
sbag1
(g10
g3
NtRp2467
(dp2468
g13
S'PlayerSay'
p2469
sg15
S'Hick1'
p2470
sg16
S''
sg18
S'Wait a second, let me explain.'
p2471
sbag1
(g10
g3
NtRp2472
(dp2473
g13
S'Encounter'
p2474
sg15
S'Hick1'
p2475
sg16
S'P-med-03'
p2476
sg18
S''
sbag1
(g10
g3
NtRp2477
(dp2478
g13
S'Say'
p2479
sg15
S'Hick1'
p2480
sg16
S''
sg18
S"You're a smart guy. I think I can trust you."
p2481
sbag1
(g10
g3
NtRp2482
(dp2483
g13
S'SetFlag'
p2484
sg15
S'Hick1'
p2485
sg16
S'STARTHICKS2'
p2486
sg18
S''
sbag1
(g10
g3
NtRp2487
(dp2488
g13
S'Increment'
p2489
sg15
S'Hick1'
p2490
sg16
S'DEALWITHHICKS'
p2491
sg18
S''
sbag1
(g10
g3
NtRp2492
(dp2493
g13
S'Destroy'
p2494
sg15
S'Hick1'
p2495
sg16
S''
sg18
S''
sbasS'Hick2'
p2496
(lp2497
g1
(g10
g3
NtRp2498
(dp2499
g13
S'RequireFlag'
p2500
sg15
g2496
sg16
S'STARTHICKS2'
p2501
sg18
S"Aw....I'm shy...talk to my buddy..."
p2502
sbag1
(g10
g3
NtRp2503
(dp2504
g13
S'Encounter'
p2505
sg15
S'Hick2'
p2506
sg16
S'P-med-04'
p2507
sg18
S''
sbag1
(g10
g3
NtRp2508
(dp2509
g13
S'Say'
p2510
sg15
S'Hick2'
p2511
sg16
S''
sg18
S"Wowee. We've been waiting for days and the governor has ignored us. If you ever run for governor, you'll have my vote!"
p2512
sbag1
(g10
g3
NtRp2513
(dp2514
g13
S'Increment'
p2515
sg15
S'Hick2'
p2516
sg16
S'DEALWITHHICKS'
p2517
sg18
S''
sbag1
(g10
g3
NtRp2518
(dp2519
g13
S'Destroy'
p2520
sg15
S'Hick2'
p2521
sg16
S''
sg18
S''
sbasS'DoorToNotbad'
p2522
(lp2523
g1
(g10
g3
NtRp2524
(dp2525
g13
S'RequireFlagPlayerSay'
p2526
sg15
g2522
sg16
S'ACCESSNOTBAD'
p2527
sg18
S'The door seems to be aware of your presence. It growls threateningly.'
p2528
sbag1
(g10
g3
NtRp2529
(dp2530
g13
S'Destroy'
p2531
sg15
S'DoorToNotbad'
p2532
sg16
S''
sg18
S''
sbag1
(g10
g3
NtRp2533
(dp2534
g13
S'Message'
p2535
sg15
S'DoorToNotbad'
p2536
sg16
S''
sg18
S'A complex series of locks slide away.'
p2537
sbasS'CheatAct2'
p2538
(lp2539
g1
(g10
g3
NtRp2540
(dp2541
g13
S'AddAlly'
p2542
sg15
g2538
sg16
S'Wife:3'
p2543
sg18
S''
sbag1
(g10
g3
NtRp2544
(dp2545
g13
S'LearnAttack'
p2546
sg15
S'CheatAct2'
p2547
sg16
S'BRIBE'
p2548
sg18
S''
sbag1
(g10
g3
NtRp2549
(dp2550
g13
S'LearnAttack'
p2551
sg15
S'CheatAct2'
p2552
sg16
S'Wife:BRIBE'
p2553
sg18
S''
sbag1
(g10
g3
NtRp2554
(dp2555
g13
S'LearnAttack'
p2556
sg15
S'CheatAct2'
p2557
sg16
S'SLANDER'
p2558
sg18
S''
sbag1
(g10
g3
NtRp2559
(dp2560
g13
S'CheatXP'
p2561
sg15
S'CheatAct2'
p2562
sg16
S'Player:200'
p2563
sg18
S''
sbag1
(g10
g3
NtRp2564
(dp2565
g13
S'CheatCunning'
p2566
sg15
S'CheatAct2'
p2567
sg16
S'Player:3'
p2568
sg18
S''
sbag1
(g10
g3
NtRp2569
(dp2570
g13
S'CheatCharisma'
p2571
sg15
S'CheatAct2'
p2572
sg16
S'Player:3'
p2573
sg18
S''
sbag1
(g10
g3
NtRp2574
(dp2575
g13
S'CheatCunning'
p2576
sg15
S'CheatAct2'
p2577
sg16
S'Wife:1'
p2578
sg18
S''
sbag1
(g10
g3
NtRp2579
(dp2580
g13
S'CheatCharisma'
p2581
sg15
S'CheatAct2'
p2582
sg16
S'Wife:1'
p2583
sg18
S''
sbag1
(g10
g3
NtRp2584
(dp2585
g13
S'GiveMoney'
p2586
sg15
S'CheatAct2'
p2587
sg16
F200
sg18
S''
sbag1
(g10
g3
NtRp2588
(dp2589
g13
S'GotoMap'
p2590
sg15
S'CheatAct2'
p2591
sg16
S'act2'
p2592
sg18
S''
sbasS'CheatAct3'
p2593
(lp2594
g1
(g10
g3
NtRp2595
(dp2596
g13
S'AddAlly'
p2597
sg15
g2593
sg16
S'Wife:1'
p2598
sg18
S''
sbag1
(g10
g3
NtRp2599
(dp2600
g13
S'LearnAttack'
p2601
sg15
S'CheatAct3'
p2602
sg16
S'BRIBE'
p2603
sg18
S''
sbag1
(g10
g3
NtRp2604
(dp2605
g13
S'LearnAttack'
p2606
sg15
S'CheatAct3'
p2607
sg16
S'Wife:BRIBE'
p2608
sg18
S''
sbag1
(g10
g3
NtRp2609
(dp2610
g13
S'LearnAttack'
p2611
sg15
S'CheatAct3'
p2612
sg16
S'SLANDER'
p2613
sg18
S''
sbag1
(g10
g3
NtRp2614
(dp2615
g13
S'AddAlly'
p2616
sg15
S'CheatAct3'
p2617
sg16
S'Leo:1'
p2618
sg18
S''
sbag1
(g10
g3
NtRp2619
(dp2620
g13
S'GotoMap'
p2621
sg15
S'CheatAct3'
p2622
sg16
S'act3'
p2623
sg18
S''
sbasS'Teacher2'
p2624
(lp2625
g1
(g10
g3
NtRp2626
(dp2627
g13
S'Say'
p2628
sg15
g2624
sg16
S''
sg18
S"You cannot gamble with the future, Mr President. Childrens' education is at stake!"
p2629
sbag1
(g10
g3
NtRp2630
(dp2631
g13
S'PlayerSay'
p2632
sg15
S'Teacher2'
p2633
sg16
S''
sg18
S"I can assure you this isn't so..."
p2634
sbag1
(g10
g3
NtRp2635
(dp2636
g13
S'Encounter'
p2637
sg15
S'Teacher2'
p2638
sg16
S'P-hard-07'
p2639
sg18
S''
sbag1
(g10
g3
NtRp2640
(dp2641
g13
S'Say'
p2642
sg15
S'Teacher2'
p2643
sg16
S''
sg18
S'We will await a change from your government.'
p2644
sbag1
(g10
g3
NtRp2645
(dp2646
g13
S'Increment'
p2647
sg15
S'Teacher2'
p2648
sg16
S'TEACHERS'
p2649
sg18
S''
sbag1
(g10
g3
NtRp2650
(dp2651
g13
S'Destroy'
p2652
sg15
S'Teacher2'
p2653
sg16
S''
sg18
S''
sbasS'Teacher1'
p2654
(lp2655
g1
(g10
g3
NtRp2656
(dp2657
g13
S'Say'
p2658
sg15
g2654
sg16
S''
sg18
S"Good day, Mr President. I have to say I'm most displeased with the current state of affairs around the education budget."
p2659
sbag1
(g10
g3
NtRp2660
(dp2661
g13
S'Say'
p2662
sg15
S'Teacher1'
p2663
sg16
S'Teacher2'
p2664
sg18
S'Agreed. This is simply unacceptable. We will need to close down schools!'
p2665
sbag1
(g10
g3
NtRp2666
(dp2667
g13
S'PlayerSay'
p2668
sg15
S'Teacher1'
p2669
sg16
S''
sg18
S"I'm sorry, I don't understand your concern. My education plan was one of the linchpins of my election campaign."
p2670
sbag1
(g10
g3
NtRp2671
(dp2672
g13
S'Say'
p2673
sg15
S'Teacher1'
p2674
sg16
S''
sg18
S'And precisely one of the reasons I voted for you.'
p2675
sbag1
(g10
g3
NtRp2676
(dp2677
g13
S'Say'
p2678
sg15
S'Teacher1'
p2679
sg16
S'Teacher2'
p2680
sg18
S"-Yet as soon as you've walked through these doors, the education budget has been drastically slashed."
p2681
sbag1
(g10
g3
NtRp2682
(dp2683
g13
S'PlayerSay'
p2684
sg15
S'Teacher1'
p2685
sg16
S''
sg18
S"I can assure you this isn't so..."
p2686
sbag1
(g10
g3
NtRp2687
(dp2688
g13
S'Encounter'
p2689
sg15
S'Teacher1'
p2690
sg16
S'P-hard-06'
p2691
sg18
S''
sbag1
(g10
g3
NtRp2692
(dp2693
g13
S'Say'
p2694
sg15
S'Teacher1'
p2695
sg16
S''
sg18
S"Well, I'd like to believe you, Mr President, but the proof is in the pudding,"
p2696
sbag1
(g10
g3
NtRp2697
(dp2698
g13
S'PlayerSay'
p2699
sg15
S'Teacher1'
p2700
sg16
S''
sg18
S'I WILL get to the bottom of this.'
p2701
sbag1
(g10
g3
NtRp2702
(dp2703
g13
S'Increment'
p2704
sg15
S'Teacher1'
p2705
sg16
S'TEACHERS'
p2706
sg18
S''
sbag1
(g10
g3
NtRp2707
(dp2708
g13
S'Destroy'
p2709
sg15
S'Teacher1'
p2710
sg16
S''
sg18
S''
sbasS'Theo'
p2711
(lp2712
g1
(g10
g3
NtRp2713
(dp2714
g13
S'RequireFlag'
p2715
sg15
g2711
sg16
S'GOVERNORDEFEATED'
p2716
sg18
S'The Governor is in the north wing.'
p2717
sbag1
(g10
g3
NtRp2718
(dp2719
g13
S'Say'
p2720
sg15
S'Theo'
p2721
sg16
S''
sg18
S"You must be Governor Mossman. I am Theo. I've been looking for you, but I wanted to see how you handled Governor Badden"
p2722
sbag1
(g10
g3
NtRp2723
(dp2724
g13
S'PlayerSay'
p2725
sg15
S'Theo'
p2726
sg16
S''
sg18
S'Hi Theo. Why have you been looking for me?'
p2727
sbag1
(g10
g3
NtRp2728
(dp2729
g13
S'Say'
p2730
sg15
S'Theo'
p2731
sg16
S''
sg18
S"There's a lot going on in Ignited States politics and none of it is good. Somebody needs to get up there and find out what's going on."
p2732
sbag1
(g10
g3
NtRp2733
(dp2734
g13
S'Say'
p2735
sg15
S'Theo'
p2736
sg16
S''
sg18
S"I couldn't be sure which side you were on, but your dealings with the Governor prove that you're not with them."
p2737
sbag1
(g10
g3
NtRp2738
(dp2739
g13
S'PlayerSay'
p2740
sg15
S'Theo'
p2741
sg16
S''
sg18
S'It sounds like it goes all the way to the President of the Ignited States.'
p2742
sbag1
(g10
g3
NtRp2743
(dp2744
g13
S'Say'
p2745
sg15
S'Theo'
p2746
sg16
S''
sg18
S"It does. That's why I've been looking for you. The only way to find out is to flush them out. There's only one way to flush out President Allen."
p2747
sbag1
(g10
g3
NtRp2748
(dp2749
g13
S'PlayerSay'
p2750
sg15
S'Theo'
p2751
sg16
S''
sg18
S"How's that?"
p2752
sbag1
(g10
g3
NtRp2753
(dp2754
g13
S'Say'
p2755
sg15
S'Theo'
p2756
sg16
S''
sg18
S"...I've been a campaign manager for 20 years and I've never seen a candidate as strong as you. I think you have what it takes to run for the presidency."
p2757
sbag1
(g10
g3
NtRp2758
(dp2759
g13
S'Say'
p2760
sg15
S'Theo'
p2761
sg16
S''
sg18
S"That's why I was looking for you. I need somebody who has a shot at winning in order to get to President Allen. You have that shot."
p2762
sbag1
(g10
g3
NtRp2763
(dp2764
g13
S'PlayerSay'
p2765
sg15
S'Theo'
p2766
sg16
S''
sg18
S"You really think I can win? Well...I want to follow this through to the end, so I'm in!"
p2767
sbag1
(g10
g3
NtRp2768
(dp2769
g13
S'Say'
p2770
sg15
S'Theo'
p2771
sg16
S''
sg18
S"Great! There's a lot to get organised! We need to plan our election campaign!"
p2772
sbag1
(g10
g3
NtRp2773
(dp2774
g13
S'Say'
p2775
sg15
S'Theo'
p2776
sg16
S''
sg18
S'First things first. I can teach you how to filibuster. It helps to get your opposition to stay put while the rest of your party moves in to attack.'
p2777
sbag1
(g10
g3
NtRp2778
(dp2779
g13
S'LearnAttack'
p2780
sg15
S'Theo'
p2781
sg16
S'FILIBUSTER'
p2782
sg18
S'Theo teaches you Filibuster'
p2783
sbag1
(g10
g3
NtRp2784
(dp2785
g13
S'Destroy'
p2786
sg15
S'Theo'
p2787
sg16
S''
sg18
S''
sbag1
(g10
g3
NtRp2788
(dp2789
g13
S'AddAlly'
p2790
sg15
S'Theo'
p2791
sg16
S'Leo:4'
p2792
sg18
S''
sbag1
(g10
g3
NtRp2793
(dp2794
g13
S'Message'
p2795
sg15
S'Theo'
p2796
sg16
S''
sg18
S'Theo joins your political party!'
p2797
sbag1
(g10
g3
NtRp2798
(dp2799
g13
S'Save'
p2800
sg15
S'Theo'
p2801
sg16
S'RestoreAct2P2'
p2802
sg18
S''
sbag1
(g10
g3
NtRp2803
(dp2804
g13
S'GotoMap'
p2805
sg15
S'Theo'
p2806
sg16
S'hotel_l1'
p2807
sg18
S''
sbasS'end'
p2808
(lp2809
g1
(g10
g3
NtRp2810
(dp2811
g13
S'Message'
p2812
sg15
g2808
sg16
S''
sg18
S"You have saved the day! The world is safe and all over the Ignited States, our citizens can sleep safe knowing you're taking care of them."
p2813
sbag1
(g10
g3
NtRp2814
(dp2815
g13
S'Message'
p2816
sg15
S'end'
p2817
sg16
S''
sg18
S'Goodnight, Mr President.'
p2818
sbasS'Governor'
p2819
(lp2820
g1
(g10
g3
NtRp2821
(dp2822
g13
S'RequireFlag'
p2823
sg15
g2819
sg16
S'GOVPOLITICIANSFIRST'
p2824
sg18
S"I'm very busy. Please speak to the others."
p2825
sbag1
(g10
g3
NtRp2826
(dp2827
g13
S'Say'
p2828
sg15
S'Governor'
p2829
sg16
S''
sg18
S'You have quite a way with words, Mayor Mossman. Why are you here?'
p2830
sbag1
(g10
g3
NtRp2831
(dp2832
g13
S'PlayerSay'
p2833
sg15
S'Governor'
p2834
sg16
S''
sg18
S"Mayor Goodman said some troubling things, Governor Badden. I'm here to get to the bottom of it."
p2835
sbag1
(g10
g3
NtRp2836
(dp2837
g13
S'Say'
p2838
sg15
S'Governor'
p2839
sg16
S''
sg18
S"If I knew anything about what you're talking about, I wouldn't tell you. I don't trust you at all."
p2840
sbag1
(g10
g3
NtRp2841
(dp2842
g13
S'PlayerSay'
p2843
sg15
S'Governor'
p2844
sg16
S''
sg18
S'What can I do to convince you?'
p2845
sbag1
(g10
g3
NtRp2846
(dp2847
g13
S'Say'
p2848
sg15
S'Governor'
p2849
sg16
S''
sg18
S"Well...there's some hicks in the south wing that I've been dodging. They want to know about the recent funding cuts. Get rid of them."
p2850
sbag1
(g10
g3
NtRp2851
(dp2852
g13
S'SetFlag'
p2853
sg15
S'Governor'
p2854
sg16
S'STARTHICKS'
p2855
sg18
S''
sbag1
(g10
g3
NtRp2856
(dp2857
g13
S'GiveItem'
p2858
sg15
S'Governor'
p2859
sg16
S'SOUTHWINGDOORKEY'
p2860
sg18
S'The Governor gives you a key.'
p2861
sbag1
(g10
g3
NtRp2862
(dp2863
g13
S'RequireCount'
p2864
sg15
S'Governor'
p2865
sg16
S'DEALWITHHICKS:3'
p2866
sg18
S"I'm not saying another word until you get rid of the hicks in the south wing."
p2867
sbag1
(g10
g3
NtRp2868
(dp2869
g13
S'PlayerSay'
p2870
sg15
S'Governor'
p2871
sg16
S''
sg18
S"OK, I've taken care of your problem, now I want my answers."
p2872
sbag1
(g10
g3
NtRp2873
(dp2874
g13
S'Say'
p2875
sg15
S'Governor'
p2876
sg16
S''
sg18
S'No.'
p2877
sbag1
(g10
g3
NtRp2878
(dp2879
g13
S'PlayerSay'
p2880
sg15
S'Governor'
p2881
sg16
S''
sg18
S'No?'
p2882
sbag1
(g10
g3
NtRp2883
(dp2884
g13
S'Say'
p2885
sg15
S'Governor'
p2886
sg16
S''
sg18
S"No, word has come down from the top that due to the last Mayor's idiocy we're tightening the inner circle to Governors and above."
p2887
sbag1
(g10
g3
NtRp2888
(dp2889
g13
S'PlayerSay'
p2890
sg15
S'Governor'
p2891
sg16
S''
sg18
S"From the top...so you're saying the only way I'll find out what's going on is to be a governor myself?"
p2892
sbag1
(g10
g3
NtRp2893
(dp2894
g13
S'Say'
p2895
sg15
S'Governor'
p2896
sg16
S''
sg18
S"Wait...no...I said I wasn't going to tell you, I..."
p2897
sbag1
(g10
g3
NtRp2898
(dp2899
g13
S'PlayerSay'
p2900
sg15
S'Governor'
p2901
sg16
S''
sg18
S'This is it, governor. Prepare to fight for your office!'
p2902
sbag1
(g10
g3
NtRp2903
(dp2904
g13
S'Encounter'
p2905
sg15
S'Governor'
p2906
sg16
S'P-med-06'
p2907
sg18
S''
sbag1
(g10
g3
NtRp2908
(dp2909
g13
S'Say'
p2910
sg15
S'Governor'
p2911
sg16
S''
sg18
S"Nooo! President Allen doesn't deal well with defeat. What will happen to me?"
p2912
sbag1
(g10
g3
NtRp2913
(dp2914
g13
S'PlayerSay'
p2915
sg15
S'Governor'
p2916
sg16
S''
sg18
S'The President? What does he have to do with this?'
p2917
sbag1
(g10
g3
NtRp2918
(dp2919
g13
S'Say'
p2920
sg15
S'Governor'
p2921
sg16
S''
sg18
S"You really have no idea what you've gotten into, do you? Well, you've gotten all you're getting out of me. I'm getting out of here!"
p2922
sbag1
(g10
g3
NtRp2923
(dp2924
g13
S'SetFlag'
p2925
sg15
S'Governor'
p2926
sg16
S'GOVERNORDEFEATED'
p2927
sg18
S''
sbag1
(g10
g3
NtRp2928
(dp2929
g13
S'RestoreVotes'
p2930
sg15
S'Governor'
p2931
sg16
S''
sg18
S''
sbag1
(g10
g3
NtRp2932
(dp2933
g13
S'Destroy'
p2934
sg15
S'Governor'
p2935
sg16
S''
sg18
S''
sbasS'Politician1'
p2936
(lp2937
g1
(g10
g3
NtRp2938
(dp2939
g13
S'Say'
p2940
sg15
g2936
sg16
S''
sg18
S"I'm sorry Mayor Mossman, the Governor cannot see you now. He's very busy"
p2941
sbag1
(g10
g3
NtRp2942
(dp2943
g13
S'PlayerSay'
p2944
sg15
S'Politician1'
p2945
sg16
S''
sg18
S"It's very important. I need to understand what Mayor Goodman was talking about. It was clear there were other powers at play."
p2946
sbag1
(g10
g3
NtRp2947
(dp2948
g13
S'Say'
p2949
sg15
S'Politician1'
p2950
sg16
S''
sg18
S'Yes well, I fail to see how your country spat has anything to do with Governer Badden.'
p2951
sbag1
(g10
g3
NtRp2952
(dp2953
g13
S'Encounter'
p2954
sg15
S'Politician1'
p2955
sg16
S'P-med-01'
p2956
sg18
S''
sbag1
(g10
g3
NtRp2957
(dp2958
g13
S'Say'
p2959
sg15
S'Politician1'
p2960
sg16
S''
sg18
S'Fair point. The governor will see you now.'
p2961
sbag1
(g10
g3
NtRp2962
(dp2963
g13
S'Destroy'
p2964
sg15
S'Politician1'
p2965
sg16
S''
sg18
S''
sbasS'Politician3'
p2966
(lp2967
g1
(g10
g3
NtRp2968
(dp2969
g13
S'RequireFlag'
p2970
sg15
g2966
sg16
S'STARTPOLITICIANSHAKEDOWN'
p2971
sg18
S'Good morning, Governor Mossman. Your PA will know your schedule. He is waiting beside the stairs'
p2972
sbag1
(g10
g3
NtRp2973
(dp2974
g13
S'Say'
p2975
sg15
S'Politician3'
p2976
sg16
S''
sg18
S"We must all agree that the most important thing is science! If we're not for science, what's the point."
p2977
sbag1
(g10
g3
NtRp2978
(dp2979
g13
S'PlayerSay'
p2980
sg15
S'Politician3'
p2981
sg16
S''
sg18
S'Why science?'
p2982
sbag1
(g10
g3
NtRp2983
(dp2984
g13
S'Say'
p2985
sg15
S'Politician3'
p2986
sg16
S''
sg18
S'Science!'
p2987
sbag1
(g10
g3
NtRp2988
(dp2989
g13
S'PlayerSay'
p2990
sg15
S'Politician3'
p2991
sg16
S''
sg18
S"There's a lot of great things we can do for science but the funding will need to be shared with health and education and..."
p2992
sbag1
(g10
g3
NtRp2993
(dp2994
g13
S'Say'
p2995
sg15
S'Politician3'
p2996
sg16
S''
sg18
S'No! Science!!!'
p2997
sbag1
(g10
g3
NtRp2998
(dp2999
g13
S'Encounter'
p3000
sg15
S'Politician3'
p3001
sg16
S'P-med-07'
p3002
sg18
S''
sbag1
(g10
g3
NtRp3003
(dp3004
g13
S'Say'
p3005
sg15
S'Politician3'
p3006
sg16
S''
sg18
S'Alright, fine! A balanced platform (but mostly science).'
p3007
sbag1
(g10
g3
NtRp3008
(dp3009
g13
S'Increment'
p3010
sg15
S'Politician3'
p3011
sg16
S'POLITICIANSHAKEDOWN'
p3012
sg18
S''
sbag1
(g10
g3
NtRp3013
(dp3014
g13
S'Destroy'
p3015
sg15
S'Politician3'
p3016
sg16
S''
sg18
S''
sbasS'Politician2'
p3017
(lp3018
g1
(g10
g3
NtRp3019
(dp3020
g13
S'Say'
p3021
sg15
g3017
sg16
S''
sg18
S'What are you doing in here? Who are you? Some Mayor?'
p3022
sbag1
(g10
g3
NtRp3023
(dp3024
g13
S'PlayerSay'
p3025
sg15
S'Politician2'
p3026
sg16
S''
sg18
S"I am Mayor Phillip Mossman. I'm here to speak to the Governor."
p3027
sbag1
(g10
g3
NtRp3028
(dp3029
g13
S'Say'
p3030
sg15
S'Politician2'
p3031
sg16
S''
sg18
S"I'm afraid the Governor's schedule is very tight. Come back next month."
p3032
sbag1
(g10
g3
NtRp3033
(dp3034
g13
S'Encounter'
p3035
sg15
S'Politician2'
p3036
sg16
S'P-med-02'
p3037
sg18
S''
sbag1
(g10
g3
NtRp3038
(dp3039
g13
S'Say'
p3040
sg15
S'Politician2'
p3041
sg16
S''
sg18
S'I see. Well, maybe we can squeeze you in.'
p3042
sbag1
(g10
g3
NtRp3043
(dp3044
g13
S'SetFlag'
p3045
sg15
S'Politician2'
p3046
sg16
S'GOVPOLITICIANSFIRST'
p3047
sg18
S''
sbag1
(g10
g3
NtRp3048
(dp3049
g13
S'Destroy'
p3050
sg15
S'Politician2'
p3051
sg16
S''
sg18
S''
sbasS'Politician5'
p3052
(lp3053
g1
(g10
g3
NtRp3054
(dp3055
g13
S'RequireFlag'
p3056
sg15
g3052
sg16
S'STARTPOLITICIANSHAKEDOWN'
p3057
sg18
S'Good morning, Governor Mossman. Your PA will know your schedule. He is waiting beside the stairs'
p3058
sbag1
(g10
g3
NtRp3059
(dp3060
g13
S'Say'
p3061
sg15
S'Politician5'
p3062
sg16
S''
sg18
S'Big business!'
p3063
sbag1
(g10
g3
NtRp3064
(dp3065
g13
S'PlayerSay'
p3066
sg15
S'Politician5'
p3067
sg16
S''
sg18
S'What about big business.'
p3068
sbag1
(g10
g3
NtRp3069
(dp3070
g13
S'Say'
p3071
sg15
S'Politician5'
p3072
sg16
S''
sg18
S'...MORE big business!'
p3073
sbag1
(g10
g3
NtRp3074
(dp3075
g13
S'PlayerSay'
p3076
sg15
S'Politician5'
p3077
sg16
S''
sg18
S'You want to grow our business sector? Provide more jobs?'
p3078
sbag1
(g10
g3
NtRp3079
(dp3080
g13
S'Say'
p3081
sg15
S'Politician5'
p3082
sg16
S''
sg18
S'...Yeeeeh. Yes. Yes, that.'
p3083
sbag1
(g10
g3
NtRp3084
(dp3085
g13
S'PlayerSay'
p3086
sg15
S'Politician5'
p3087
sg16
S''
sg18
S'What about small business?'
p3088
sbag1
(g10
g3
NtRp3089
(dp3090
g13
S'Say'
p3091
sg15
S'Politician5'
p3092
sg16
S''
sg18
S'No! We need to make it BIGGER!'
p3093
sbag1
(g10
g3
NtRp3094
(dp3095
g13
S'Encounter'
p3096
sg15
S'Politician5'
p3097
sg16
S'P-med-09'
p3098
sg18
S''
sbag1
(g10
g3
NtRp3099
(dp3100
g13
S'Say'
p3101
sg15
S'Politician5'
p3102
sg16
S''
sg18
S"OK, I see what you're getting at. Lets help small business to grow. Also, this might help even the odds in the future."
p3103
sbag1
(g10
g3
NtRp3104
(dp3105
g13
S'Say'
p3106
sg15
S'Politician5'
p3107
sg16
S''
sg18
S'The results can be a bit unpredictable, so only use it in drastic situations.'
p3108
sbag1
(g10
g3
NtRp3109
(dp3110
g13
S'Increment'
p3111
sg15
S'Politician5'
p3112
sg16
S'POLITICIANSHAKEDOWN'
p3113
sg18
S''
sbag1
(g10
g3
NtRp3114
(dp3115
g13
S'Destroy'
p3116
sg15
S'Politician5'
p3117
sg16
S''
sg18
S''
sbasS'Politician4'
p3118
(lp3119
g1
(g10
g3
NtRp3120
(dp3121
g13
S'RequireFlag'
p3122
sg15
g3118
sg16
S'STARTPOLITICIANSHAKEDOWN'
p3123
sg18
S'Good morning, Governor Mossman. Your PA will know your schedule. He is waiting beside the stairs'
p3124
sbag1
(g10
g3
NtRp3125
(dp3126
g13
S'Say'
p3127
sg15
S'Politician4'
p3128
sg16
S''
sg18
S"I'm for culture! It's a glorious age we live in, we should further this great country's culture."
p3129
sbag1
(g10
g3
NtRp3130
(dp3131
g13
S'PlayerSay'
p3132
sg15
S'Politician4'
p3133
sg16
S''
sg18
S'That sounds fair, but what kind of culture would you like to focus on.'
p3134
sbag1
(g10
g3
NtRp3135
(dp3136
g13
S'Say'
p3137
sg15
S'Politician4'
p3138
sg16
S''
sg18
S"Oh...I don't know, I'm not really into art, can't really handle music. I'd rather not go to the theatre if I can get out of it. Don't really see the point of sport...hmmm. New culture?"
p3139
sbag1
(g10
g3
NtRp3140
(dp3141
g13
S'PlayerSay'
p3142
sg15
S'Politician4'
p3143
sg16
S''
sg18
S"You don't seem very in to improving culture really."
p3144
sbag1
(g10
g3
NtRp3145
(dp3146
g13
S'Say'
p3147
sg15
S'Politician4'
p3148
sg16
S''
sg18
S'Yeh, well...my wife said it would make me sound smart. I think sounding smart is important. Lets be for that!'
p3149
sbag1
(g10
g3
NtRp3150
(dp3151
g13
S'Encounter'
p3152
sg15
S'Politician4'
p3153
sg16
S'P-med-08'
p3154
sg18
S''
sbag1
(g10
g3
NtRp3155
(dp3156
g13
S'Say'
p3157
sg15
S'Politician4'
p3158
sg16
S''
sg18
S"Gee, you're a pretty smart guy. I think you've got this covered."
p3159
sbag1
(g10
g3
NtRp3160
(dp3161
g13
S'Increment'
p3162
sg15
S'Politician4'
p3163
sg16
S'POLITICIANSHAKEDOWN'
p3164
sg18
S''
sbag1
(g10
g3
NtRp3165
(dp3166
g13
S'Destroy'
p3167
sg15
S'Politician4'
p3168
sg16
S''
sg18
S''
sbasS'Politician7'
p3169
(lp3170
g1
(g10
g3
NtRp3171
(dp3172
g13
S'RequireFlag'
p3173
sg15
g3169
sg16
S'STARTPOLITICIANSHAKEDOWN'
p3174
sg18
S'Good morning, Governor Mossman. Your PA will know your schedule. He is waiting beside the stairs'
p3175
sbag1
(g10
g3
NtRp3176
(dp3177
g13
S'LearnAttack'
p3178
sg15
S'Politician7'
p3179
sg16
S'BIELECTION'
p3180
sg18
S''
sbag1
(g10
g3
NtRp3181
(dp3182
g13
S'Say'
p3183
sg15
S'Politician7'
p3184
sg16
S''
sg18
S"I believe in captialism. Let business sort itself out. They shouldn't need to rely on government handouts."
p3185
sbag1
(g10
g3
NtRp3186
(dp3187
g13
S'Say'
p3188
sg15
S'Politician7'
p3189
sg16
S''
sg18
S'Also, I think politicians need a raise. Some more than others...oh and life-long retainers.'
p3190
sbag1
(g10
g3
NtRp3191
(dp3192
g13
S'PlayerSay'
p3193
sg15
S'Politician7'
p3194
sg16
S''
sg18
S'So, no more hand-outs for business but more handouts for politicians?'
p3195
sbag1
(g10
g3
NtRp3196
(dp3197
g13
S'Say'
p3198
sg15
S'Politician7'
p3199
sg16
S''
sg18
S'Yes!'
p3200
sbag1
(g10
g3
NtRp3201
(dp3202
g13
S'PlayerSay'
p3203
sg15
S'Politician7'
p3204
sg16
S''
sg18
S'Does that serve your constituents?'
p3205
sbag1
(g10
g3
NtRp3206
(dp3207
g13
S'Say'
p3208
sg15
S'Politician7'
p3209
sg16
S''
sg18
S'...It serves...some...'
p3210
sbag1
(g10
g3
NtRp3211
(dp3212
g13
S'Encounter'
p3213
sg15
S'Politician7'
p3214
sg16
S'P-med-11'
p3215
sg18
S''
sbag1
(g10
g3
NtRp3216
(dp3217
g13
S'Say'
p3218
sg15
S'Politician7'
p3219
sg16
S''
sg18
S'Right, I guess we need to handle the needs of our constituents, too.'
p3220
sbag1
(g10
g3
NtRp3221
(dp3222
g13
S'Increment'
p3223
sg15
S'Politician7'
p3224
sg16
S'POLITICIANSHAKEDOWN'
p3225
sg18
S''
sbag1
(g10
g3
NtRp3226
(dp3227
g13
S'Destroy'
p3228
sg15
S'Politician7'
p3229
sg16
S''
sg18
S''
sbasS'Politician6'
p3230
(lp3231
g1
(g10
g3
NtRp3232
(dp3233
g13
S'RequireFlag'
p3234
sg15
g3230
sg16
S'STARTPOLITICIANSHAKEDOWN'
p3235
sg18
S'Good morning, Governor Mossman. Your PA will know your schedule. He is waiting beside the stairs'
p3236
sbag1
(g10
g3
NtRp3237
(dp3238
g13
S'Say'
p3239
sg15
S'Politician6'
p3240
sg16
S''
sg18
S'We should be all about not wasting money'
p3241
sbag1
(g10
g3
NtRp3242
(dp3243
g13
S'PlayerSay'
p3244
sg15
S'Politician6'
p3245
sg16
S''
sg18
S'Sounds fair. Wasting money on what?'
p3246
sbag1
(g10
g3
NtRp3247
(dp3248
g13
S'Say'
p3249
sg15
S'Politician6'
p3250
sg16
S''
sg18
S"You know, stuff that doesn't really help like artsy stuff."
p3251
sbag1
(g10
g3
NtRp3252
(dp3253
g13
S'PlayerSay'
p3254
sg15
S'Politician6'
p3255
sg16
S''
sg18
S"You don't think we should invest in our culture?"
p3256
sbag1
(g10
g3
NtRp3257
(dp3258
g13
S'Say'
p3259
sg15
S'Politician6'
p3260
sg16
S''
sg18
S'We have more important things to spend our money on. Like military.'
p3261
sbag1
(g10
g3
NtRp3262
(dp3263
g13
S'PlayerSay'
p3264
sg15
S'Politician6'
p3265
sg16
S''
sg18
S'What if people want to paint pictures about our military. Or write patriotic songs?'
p3266
sbag1
(g10
g3
NtRp3267
(dp3268
g13
S'Say'
p3269
sg15
S'Politician6'
p3270
sg16
S''
sg18
S"I hadn't thought of that..."
p3271
sbag1
(g10
g3
NtRp3272
(dp3273
g13
S'Encounter'
p3274
sg15
S'Politician6'
p3275
sg16
S'P-med-10'
p3276
sg18
S''
sbag1
(g10
g3
NtRp3277
(dp3278
g13
S'Say'
p3279
sg15
S'Politician6'
p3280
sg16
S''
sg18
S"So, militaristic march songs and battle scenes aren't the only sort of art? Wow."
p3281
sbag1
(g10
g3
NtRp3282
(dp3283
g13
S'Increment'
p3284
sg15
S'Politician6'
p3285
sg16
S'POLITICIANSHAKEDOWN'
p3286
sg18
S''
sbag1
(g10
g3
NtRp3287
(dp3288
g13
S'Destroy'
p3289
sg15
S'Politician6'
p3290
sg16
S''
sg18
S''
sbasS'TVPersonality'
p3291
(lp3292
g1
(g10
g3
NtRp3293
(dp3294
g13
S'RequireFlag'
p3295
sg15
g3291
sg16
S'STARTHERCULES'
p3296
sg18
S"Ooooh, sorry Mossman, baby! We're not ready for you yet."
p3297
sbag1
(g10
g3
NtRp3298
(dp3299
g13
S'Say'
p3300
sg15
S'TVPersonality'
p3301
sg16
S''
sg18
S"There's the man! Are you ready to cross wits with The Mighty Hercules!"
p3302
sbag1
(g10
g3
NtRp3303
(dp3304
g13
S'PlayerSay'
p3305
sg15
S'TVPersonality'
p3306
sg16
S''
sg18
S'I sure am!'
p3307
sbag1
(g10
g3
NtRp3308
(dp3309
g13
S'Say'
p3310
sg15
S'TVPersonality'
p3311
sg16
S''
sg18
S"Really...? You don't want to...see your make-up artist?"
p3312
sbag1
(g10
g3
NtRp3313
(dp3314
g13
S'PlayerSay'
p3315
sg15
S'TVPersonality'
p3316
sg16
S''
sg18
S"No, no, I'm ready."
p3317
sbag1
(g10
g3
NtRp3318
(dp3319
g13
S'Say'
p3320
sg15
S'TVPersonality'
p3321
sg16
S''
sg18
S'Suit yourself...'
p3322
sbag1
(g10
g3
NtRp3323
(dp3324
g13
S'Say'
p3325
sg15
S'TVPersonality'
p3326
sg16
S''
sg18
S'... from the looks of it, suiting yourself is exactly what you did.'
p3327
sbag1
(g10
g3
NtRp3328
(dp3329
g13
S'Encounter'
p3330
sg15
S'TVPersonality'
p3331
sg16
S'P-med-20'
p3332
sg18
S''
sbag1
(g10
g3
NtRp3333
(dp3334
g13
S'Say'
p3335
sg15
S'TVPersonality'
p3336
sg16
S''
sg18
S'Good show, you sure gave me a run for my money.'
p3337
sbag1
(g10
g3
NtRp3338
(dp3339
g13
S'Say'
p3340
sg15
S'TVPersonality'
p3341
sg16
S''
sg18
S"Now beat it, you're making me look bad!"
p3342
sbag1
(g10
g3
NtRp3343
(dp3344
g13
S'SetFlag'
p3345
sg15
S'TVPersonality'
p3346
sg16
S'BEATHERCULES'
p3347
sg18
S''
sbag1
(g10
g3
NtRp3348
(dp3349
g13
S'Destroy'
p3350
sg15
S'TVPersonality'
p3351
sg16
S''
sg18
S''
sbasS'act1'
p3352
(lp3353
g1
(g10
g3
NtRp3354
(dp3355
g13
S'Message'
p3356
sg15
g3352
sg16
S''
sg18
S'Good morning, Assistant Phil.'
p3357
sbasS'act2'
p3358
(lp3359
g1
(g10
g3
NtRp3360
(dp3361
g13
S'Message'
p3362
sg15
g3358
sg16
S''
sg18
S"The Governor's Mansion"
p3363
sbasS'act3'
p3364
(lp3365
g1
(g10
g3
NtRp3366
(dp3367
g13
S'Message'
p3368
sg15
g3364
sg16
S''
sg18
S'The White House'
p3369
sbasS'Protester2'
p3370
(lp3371
g1
(g10
g3
NtRp3372
(dp3373
g13
S'Say'
p3374
sg15
g3370
sg16
S''
sg18
S"Bees buzz, Mayors lie, who's this Phillip Mossman guy?"
p3375
sbag1
(g10
g3
NtRp3376
(dp3377
g13
S'RequireFlag'
p3378
sg15
S'Protester2'
p3379
sg16
S'PROTESTORS'
p3380
sg18
S''
sbag1
(g10
g3
NtRp3381
(dp3382
g13
S'Encounter'
p3383
sg15
S'Protester2'
p3384
sg16
S'P-easy-03'
p3385
sg18
S''
sbag1
(g10
g3
NtRp3386
(dp3387
g13
S'Destroy'
p3388
sg15
S'Protester2'
p3389
sg16
S''
sg18
S''
sbasS'Protester1'
p3390
(lp3391
g1
(g10
g3
NtRp3392
(dp3393
g13
S'Say'
p3394
sg15
g3390
sg16
S''
sg18
S"Fee Fi Fo Fum, we think Mayor Goodman's Dumb!"
p3395
sbag1
(g10
g3
NtRp3396
(dp3397
g13
S'RequireFlag'
p3398
sg15
S'Protester1'
p3399
sg16
S'PROTESTORS'
p3400
sg18
S''
sbag1
(g10
g3
NtRp3401
(dp3402
g13
S'Encounter'
p3403
sg15
S'Protester1'
p3404
sg16
S'P-easy-02'
p3405
sg18
S''
sbag1
(g10
g3
NtRp3406
(dp3407
g13
S'Destroy'
p3408
sg15
S'Protester1'
p3409
sg16
S''
sg18
S''
sbasS'Head Protester'
p3410
(lp3411
g1
(g10
g3
NtRp3412
(dp3413
g13
S'Say'
p3414
sg15
g3410
sg16
S''
sg18
S"I am the head protester. You'll never convince us to back down!"
p3415
sbag1
(g10
g3
NtRp3416
(dp3417
g13
S'RequireFlag'
p3418
sg15
S'Head Protester'
p3419
sg16
S'PROTESTORS'
p3420
sg18
S''
sbag1
(g10
g3
NtRp3421
(dp3422
g13
S'PlayerSay'
p3423
sg15
S'Head Protester'
p3424
sg16
S''
sg18
S'What are you protesting?'
p3425
sbag1
(g10
g3
NtRp3426
(dp3427
g13
S'Say'
p3428
sg15
S'Head Protester'
p3429
sg16
S''
sg18
S'Er...Injustice!'
p3430
sbag1
(g10
g3
NtRp3431
(dp3432
g13
S'PlayerSay'
p3433
sg15
S'Head Protester'
p3434
sg16
S''
sg18
S'Injustice against what?'
p3435
sbag1
(g10
g3
NtRp3436
(dp3437
g13
S'Say'
p3438
sg15
S'Head Protester'
p3439
sg16
S''
sg18
S'...'
p3440
sbag1
(g10
g3
NtRp3441
(dp3442
g13
S'Say'
p3443
sg15
S'Head Protester'
p3444
sg16
S''
sg18
S'The People!'
p3445
sbag1
(g10
g3
NtRp3446
(dp3447
g13
S'PlayerSay'
p3448
sg15
S'Head Protester'
p3449
sg16
S''
sg18
S'Yes, but which people?'
p3450
sbag1
(g10
g3
NtRp3451
(dp3452
g13
S'Say'
p3453
sg15
S'Head Protester'
p3454
sg16
S''
sg18
S'See? What a fascist, ALL people you slimey politician scum!'
p3455
sbag1
(g10
g3
NtRp3456
(dp3457
g13
S'Encounter'
p3458
sg15
S'Head Protester'
p3459
sg16
S'P-easy-04'
p3460
sg18
S''
sbag1
(g10
g3
NtRp3461
(dp3462
g13
S'Say'
p3463
sg15
S'Head Protester'
p3464
sg16
S''
sg18
S"Alright, fine! We'll stop protesting...whatever we were protesting."
p3465
sbag1
(g10
g3
NtRp3466
(dp3467
g13
S'SetFlag'
p3468
sg15
S'Head Protester'
p3469
sg16
S'PROTESTORSDEAD'
p3470
sg18
S''
sbag1
(g10
g3
NtRp3471
(dp3472
g13
S'Destroy'
p3473
sg15
S'Head Protester'
p3474
sg16
S''
sg18
S''
sbasS'Receptionist'
p3475
(lp3476
g1
(g10
g3
NtRp3477
(dp3478
g13
S'RequireFlag'
p3479
sg15
g3475
sg16
S'PENQUEST'
p3480
sg18
S"You must be Mayor Goodman's new assistant. He's in his office."
p3481
sbag1
(g10
g3
NtRp3482
(dp3483
g13
S'PlayerSay'
p3484
sg15
S'Receptionist'
p3485
sg16
S''
sg18
S"The Mayor is looking for his pen. He seemed to think you'd know where it was."
p3486
sbag1
(g10
g3
NtRp3487
(dp3488
g13
S'Say'
p3489
sg15
S'Receptionist'
p3490
sg16
S''
sg18
S"Did that buffoon accuse me of stealing again? This is MY pen and he isn't having it."
p3491
sbag1
(g10
g3
NtRp3492
(dp3493
g13
S'Encounter'
p3494
sg15
S'Receptionist'
p3495
sg16
S'P-easy-01'
p3496
sg18
S''
sbag1
(g10
g3
NtRp3497
(dp3498
g13
S'GiveItem'
p3499
sg15
S'Receptionist'
p3500
sg16
S'PEN'
p3501
sg18
S'Receptionist sighs and hands over the pen.'
p3502
sbag1
(g10
g3
NtRp3503
(dp3504
g13
S'Say'
p3505
sg15
S'Receptionist'
p3506
sg16
S''
sg18
S"If you're ever getting low on votes, come talk to me and I'll run an ad campaign to restore them."
p3507
sbag1
(g10
g3
NtRp3508
(dp3509
g13
S'Reset'
p3510
sg15
S'Receptionist'
p3511
sg16
S'RESTORE'
p3512
sg18
S''
sbag1
(g10
g3
NtRp3513
(dp3514
g13
S'Label'
p3515
sg15
S'Receptionist'
p3516
sg16
S'RESTORE'
p3517
sg18
S''
sbag1
(g10
g3
NtRp3518
(dp3519
g13
S'Say'
p3520
sg15
S'Receptionist'
p3521
sg16
S''
sg18
S"You've taken a beating, let me fix you up."
p3522
sbag1
(g10
g3
NtRp3523
(dp3524
g13
S'RestoreVotes'
p3525
sg15
S'Receptionist'
p3526
sg16
S''
sg18
S'Receptionist replenishes votes'
p3527
sbag1
(g10
g3
NtRp3528
(dp3529
g13
S'Reset'
p3530
sg15
S'Receptionist'
p3531
sg16
S'RESTORE'
p3532
sg18
S''
sbassS'attacks'
p3533
(dp3534
S'GETEXCLUSIVE'
p3535
g1
(g10
g3
NtRp3536
(dp3537
S'health_benefit'
p3538
F2
sS'base_damage_max'
p3539
F-2
sS'description'
p3540
S'asdf'
p3541
sS'weight'
p3542
I1
sS'crit_chance_max'
p3543
F0
sS'crit_chance_min'
p3544
F0
sS'underlying_stat'
p3545
S'Wit'
p3546
sS'is_summon'
p3547
I00
sS'target_type'
p3548
S'AllFriendly'
p3549
sS'base_damage_min'
p3550
F-2
sS'spin_cost'
p3551
F5
sS'effects'
p3552
(lp3553
g1
(c__main__
Effect
p3554
g3
NtRp3555
(dp3556
S'function'
p3557
S'add'
p3558
sS'abbrv'
p3559
S'(INCR CNG)'
p3560
sS'attribute'
p3561
S'cunning'
p3562
sS'value'
p3563
F2
sS'rounds_min'
p3564
F1
sS'rounds_max'
p3565
F4
sS'id'
p3566
S'Increase Cunning'
p3567
sS'apply_to_source'
p3568
S'TRUE'
p3569
sbasS'is_revive'
p3570
I00
sS'target_count'
p3571
I1
sS'crit_base_damage'
p3572
F0
sg3566
g3535
sS'name'
p3573
S'Get Exclusive'
p3574
sbsS'LOSELOSE'
p3575
g1
(g10
g3
NtRp3576
(dp3577
g3538
I0
sg3539
F6
sg3540
S'Causes all politicians in the target radius to lose votes'
p3578
sg3542
I1
sg3543
F0
sg3544
F0
sg3545
S'Wit'
p3579
sg3547
I00
sg3548
S'All'
p3580
sg3550
F4
sg3551
F5
sg3552
(lp3581
sg3570
I00
sg3571
I6
sg3572
F0
sg3566
g3575
sg3573
S'Lose/lose issue'
p3582
sbsS'LIE'
p3583
g1
(g10
g3
NtRp3584
(dp3585
g3538
I0
sg3539
F10
sg3540
S"It's only lying if they catch you. A strong attack with a danger of critically failing"
p3586
sg3542
F3
sg3543
F10
sg3544
F5
sg3545
S'Cunning'
p3587
sg3547
I00
sg3548
S'AllEnemy'
p3588
sg3550
F0
sg3551
I0
sg3552
(lp3589
g1
(g3554
g3
NtRp3590
(dp3591
g3557
S'miss_turn'
p3592
sg3559
S'(MISS)'
p3593
sg3561
S''
sg3563
F0
sg3564
F1
sg3565
F1
sg3566
S'Critical Fail'
p3594
sg3568
S'TRUE'
p3595
sbasg3570
I00
sg3571
I1
sg3572
F13
sg3566
g3583
sg3573
S'Lie'
p3596
sbsS'HILARIOUSANECDOTE'
p3597
g1
(g10
g3
NtRp3598
(dp3599
g3538
I0
sg3539
F8
sg3540
S'asdf'
p3600
sg3542
I1
sg3543
F5
sg3544
F2
sg3545
S'Wit'
p3601
sg3547
I00
sg3548
S'AllFriendly'
p3602
sg3550
F4
sg3551
F5
sg3552
(lp3603
sg3570
I00
sg3571
I3
sg3572
F11
sg3566
g3597
sg3573
S'Hilarious Anecdote'
p3604
sbsS'SENSATIONALISE'
p3605
g1
(g10
g3
NtRp3606
(dp3607
g3538
I0
sg3539
F8
sg3540
S'asdf'
p3608
sg3542
I1
sg3543
F0
sg3544
F0
sg3545
S'Wit'
p3609
sg3547
I00
sg3548
S'AllEnemy'
p3610
sg3550
F4
sg3551
F3
sg3552
(lp3611
sg3570
I00
sg3571
I1
sg3572
F0
sg3566
g3605
sg3573
S'Sensationalise'
p3612
sbsS'DENOUNCE'
p3613
g1
(g10
g3
NtRp3614
(dp3615
g3538
I0
sg3539
F5
sg3540
S'asdf'
p3616
sg3542
F6
sg3543
F10
sg3544
F2
sg3545
S'Cunning'
p3617
sg3547
I00
sg3548
S'AllEnemy'
p3618
sg3550
F2
sg3551
I0
sg3552
(lp3619
sg3570
I00
sg3571
I1
sg3572
F8
sg3566
g3613
sg3573
S'Denounce'
p3620
sbsS'WHADOWEWANT'
p3621
g1
(g10
g3
NtRp3622
(dp3623
g3538
I0
sg3539
F5
sg3540
S'asdf'
p3624
sg3542
I1
sg3543
F0
sg3544
F0
sg3545
S'Cunning'
p3625
sg3547
I00
sg3548
S'AllEnemy'
p3626
sg3550
F2
sg3551
I0
sg3552
(lp3627
sg3570
I00
sg3571
I1
sg3572
F0
sg3566
g3621
sg3573
S'Whadowewant!'
p3628
sbsS'SCOOP'
p3629
g1
(g10
g3
NtRp3630
(dp3631
g3538
I0
sg3539
F5
sg3540
S'asdf'
p3632
sg3542
I1
sg3543
F10
sg3544
F5
sg3545
S'Cunning'
p3633
sg3547
I00
sg3548
S'AllEnemy'
p3634
sg3550
F2
sg3551
I0
sg3552
(lp3635
sg3570
I00
sg3571
I1
sg3572
F8
sg3566
g3629
sg3573
S'Scoop'
p3636
sbsS'CHOOSETARGETS'
p3637
g1
(g10
g3
NtRp3638
(dp3639
g3538
I0
sg3539
F7
sg3540
S'asdf'
p3640
sg3542
I1
sg3543
F10
sg3544
F5
sg3545
S'Cunning'
p3641
sg3547
I00
sg3548
S'AllEnemy'
p3642
sg3550
F2
sg3551
I0
sg3552
(lp3643
sg3570
I00
sg3571
I1
sg3572
F9
sg3566
g3637
sg3573
S'Choose Targets'
p3644
sbsS'SUMMONPOLITICIAN'
p3645
g1
(g10
g3
NtRp3646
(dp3647
g3538
I0
sg3539
F0
sg3540
S''
sg3542
I1
sg3543
F0
sg3544
F0
sg3545
S'Wit'
p3648
sg3547
I01
sg3548
S'None'
p3649
sg3550
F0
sg3551
F4
sg3552
(lp3650
g1
(g3554
g3
NtRp3651
(dp3652
g3557
S'call_friends'
p3653
sg3559
S''
sg3561
S'Politician001:6'
p3654
sg3563
F2
sg3564
F1
sg3565
F1
sg3566
S'Summon Politician'
p3655
sg3568
S''
sbasg3570
I00
sg3571
I1
sg3572
F0
sg3566
g3645
sg3573
S'Summon Politician Slaves'
p3656
sbsS'FILENAILS'
p3657
g1
(g10
g3
NtRp3658
(dp3659
g3538
I0
sg3539
F0
sg3540
S'asdf'
p3660
sg3542
I1
sg3543
F0
sg3544
F0
sg3545
S'Wit'
p3661
sg3547
I00
sg3548
S'AllEnemy'
p3662
sg3550
F0
sg3551
F3
sg3552
(lp3663
g1
(g3554
g3
NtRp3664
(dp3665
g3557
S'add_permanent'
p3666
sg3559
S''
sg3561
S'votes'
p3667
sg3563
F5
sg3564
F1
sg3565
F1
sg3566
S'Votes Restore'
p3668
sg3568
S''
sbasg3570
I00
sg3571
I1
sg3572
F0
sg3566
g3657
sg3573
S'File Nails'
p3669
sbsS'BRIBE'
p3670
g1
(g10
g3
NtRp3671
(dp3672
g3538
I0
sg3539
F12
sg3540
S'Is there anything more convincing than money? Buying loyalty gets expensive so be careful.'
p3673
sg3542
I1
sg3543
F10
sg3544
F5
sg3545
S'Money'
p3674
sg3547
I00
sg3548
S'AllEnemy'
p3675
sg3550
F4
sg3551
I0
sg3552
(lp3676
sg3570
I00
sg3571
I1
sg3572
F14
sg3566
g3670
sg3573
S'Bribe'
p3677
sbsS'SING'
p3678
g1
(g10
g3
NtRp3679
(dp3680
g3538
F3
sg3539
F-3
sg3540
S'Why bandy words with politicians when you can sing a catchy tune! Restores votes.'
p3681
sg3542
I1
sg3543
F0
sg3544
F0
sg3545
S'Cunning'
p3682
sg3547
I00
sg3548
S'AllFriendly'
p3683
sg3550
F-5
sg3551
I0
sg3552
(lp3684
sg3570
I00
sg3571
I4
sg3572
F0
sg3566
g3678
sg3573
S'Rousing Song'
p3685
sbsS'FEAR'
p3686
g1
(g10
g3
NtRp3687
(dp3688
g3538
I0
sg3539
F0
sg3540
S'asdf'
p3689
sg3542
F2
sg3543
F0
sg3544
F0
sg3545
S'Wit'
p3690
sg3547
I00
sg3548
S'AllFriendly'
p3691
sg3550
F0
sg3551
F4
sg3552
(lp3692
g3555
asg3570
I00
sg3571
I1
sg3572
F0
sg3566
g3686
sg3573
S'Fear Change'
p3693
sbsS'BRAINWASH'
p3694
g1
(g10
g3
NtRp3695
(dp3696
g3538
I0
sg3539
F0
sg3540
S''
sg3542
I1
sg3543
F0
sg3544
F0
sg3545
S'Wit'
p3697
sg3547
I00
sg3548
S'AllEnemy'
p3698
sg3550
F0
sg3551
F3
sg3552
(lp3699
g1
(g3554
g3
NtRp3700
(dp3701
g3557
S'miss_turn'
p3702
sg3559
S'(MISS)'
p3703
sg3561
S''
sg3563
F0
sg3564
F1
sg3565
F1
sg3566
S'Miss Turn'
p3704
sg3568
S''
sbasg3570
I00
sg3571
I4
sg3572
F0
sg3566
g3694
sg3573
S'Brainwash'
p3705
sbsS'RAISEDEFCON'
p3706
g1
(g10
g3
NtRp3707
(dp3708
g3538
I0
sg3539
F5
sg3540
S'asdf'
p3709
sg3542
I1
sg3543
F7
sg3544
F3
sg3545
S'Cunning'
p3710
sg3547
I00
sg3548
S'AllEnemy'
p3711
sg3550
F4
sg3551
I0
sg3552
(lp3712
sg3570
I00
sg3571
I1
sg3572
F8
sg3566
g3706
sg3573
S'Raise DEFCON'
p3713
sbsS'BILLBOARD'
p3714
g1
(g10
g3
NtRp3715
(dp3716
g3538
F30
sg3539
F0
sg3540
S'Run a billboard ad to restore up to 30 votes'
p3717
sg3542
I1
sg3543
F0
sg3544
F0
sg3545
S''
sg3547
I00
sg3548
S'AllFriendly'
p3718
sg3550
F0
sg3551
I0
sg3552
(lp3719
g1
(g3554
g3
NtRp3720
(dp3721
g3557
S'add_permanent'
p3722
sg3559
S''
sg3561
S'votes'
p3723
sg3563
F30
sg3564
F1
sg3565
F1
sg3566
S'Votes Restore Billboard'
p3724
sg3568
S''
sbasg3570
I00
sg3571
I1
sg3572
F0
sg3566
g3714
sg3573
S'Billboard Ad'
p3725
sbsS'NEGATTACKAD'
p3726
g1
(g10
g3
NtRp3727
(dp3728
g3538
I0
sg3539
F9
sg3540
S"Take them all down. They're definitely all bad people. Not like you."
p3729
sg3542
I1
sg3543
F10
sg3544
F10
sg3545
S'Wit'
p3730
sg3547
I00
sg3548
S'AllEnemy'
p3731
sg3550
F4
sg3551
F3
sg3552
(lp3732
sg3570
I00
sg3571
I1
sg3572
F10
sg3566
g3726
sg3573
S'Negative Attack Ad'
p3733
sbsS'DAZZLE'
p3734
g1
(g10
g3
NtRp3735
(dp3736
g3538
I0
sg3539
F4
sg3540
S'Being dazzling and admirable is a great way to take heat off politics'
p3737
sg3542
I1
sg3543
F8
sg3544
F5
sg3545
S'Wit'
p3738
sg3547
I00
sg3548
S'AllEnemy'
p3739
sg3550
F2
sg3551
F4
sg3552
(lp3740
g1
(g3554
g3
NtRp3741
(dp3742
g3557
S'reduce'
p3743
sg3559
S'(CNG DN)'
p3744
sg3561
S'cunning'
p3745
sg3563
F2
sg3564
F2
sg3565
F5
sg3566
S'Reduce Cunning'
p3746
sg3568
S''
sbasg3570
I00
sg3571
I4
sg3572
F8
sg3566
g3734
sg3573
S'Dazzle'
p3747
sbsS'BELIEVEMEDIA'
p3748
g1
(g10
g3
NtRp3749
(dp3750
g3538
I0
sg3539
F3
sg3540
S'asdf'
p3751
sg3542
I1
sg3543
F15
sg3544
F10
sg3545
S'Cunning'
p3752
sg3547
I00
sg3548
S'AllEnemy'
p3753
sg3550
F1
sg3551
I0
sg3552
(lp3754
sg3570
I00
sg3571
I1
sg3572
F12
sg3566
g3748
sg3573
S'Believe Media'
p3755
sbsS'PRPREP'
p3756
g1
(g10
g3
NtRp3757
(dp3758
g3538
I0
sg3539
F0
sg3540
S"If you're going to need some spin, best see a spin doctor! Adds spin points."
p3759
sg3542
I1
sg3543
F0
sg3544
F0
sg3545
S''
sg3547
I00
sg3548
S'AllFriendly'
p3760
sg3550
F0
sg3551
I0
sg3552
(lp3761
g1
(g3554
g3
NtRp3762
(dp3763
g3557
S'add_permanent'
p3764
sg3559
S''
sg3561
S'spin'
p3765
sg3563
F5
sg3564
F0
sg3565
F0
sg3566
S'Spin Restore'
p3766
sg3568
S'TRUE'
p3767
sbasg3570
I00
sg3571
I1
sg3572
F0
sg3566
g3756
sg3573
S'PR Prep'
p3768
sbsS'CALLVATICAN'
p3769
g1
(g10
g3
NtRp3770
(dp3771
g3538
I0
sg3539
F0
sg3540
S'Brings in 2 additional ReligousNuts at 2 levels lower than this one'
p3772
sg3542
I1
sg3543
F0
sg3544
F0
sg3545
S'Wit'
p3773
sg3547
I01
sg3548
S'None'
p3774
sg3550
F0
sg3551
F5
sg3552
(lp3775
g1
(g3554
g3
NtRp3776
(dp3777
g3557
S'call_friends'
p3778
sg3559
S''
sg3561
S'ReligiousNut001:4'
p3779
sg3563
F2
sg3564
F1
sg3565
F1
sg3566
S'Call Friends'
p3780
sg3568
S''
sbasg3570
I00
sg3571
I1
sg3572
F0
sg3566
g3769
sg3573
S'Call Battycan'
p3781
sbsS'BLACKMAIL'
p3782
g1
(g10
g3
NtRp3783
(dp3784
g3538
I0
sg3539
F6
sg3540
S'asdf'
p3785
sg3542
I1
sg3543
F10
sg3544
F2
sg3545
S'Wit'
p3786
sg3547
I00
sg3548
S'AllEnemy'
p3787
sg3550
F3
sg3551
F4
sg3552
(lp3788
g1
(g3554
g3
NtRp3789
(dp3790
g3557
S'drain'
p3791
sg3559
S'(DRAIN VTS)'
p3792
sg3561
S'votes'
p3793
sg3563
F1
sg3564
F2
sg3565
F5
sg3566
S'Drain Votes'
p3794
sg3568
S''
sbasg3570
I00
sg3571
I1
sg3572
F2
sg3566
g3782
sg3573
S'Blackmail'
p3795
sbsS'SCARE'
p3796
g1
(g10
g3
NtRp3797
(dp3798
g3538
I0
sg3539
F7
sg3540
S'Nothing rattles the brains like fear.'
p3799
sg3542
I1
sg3543
F10
sg3544
F2
sg3545
S'Cunning'
p3800
sg3547
I00
sg3548
S'AllEnemy'
p3801
sg3550
F2
sg3551
I0
sg3552
(lp3802
g3741
asg3570
I00
sg3571
I2
sg3572
F9
sg3566
g3796
sg3573
S'Scare Campaign'
p3803
sbsS'PROTEST'
p3804
g1
(g10
g3
NtRp3805
(dp3806
g3538
I0
sg3539
F5
sg3540
S'asdf'
p3807
sg3542
F6
sg3543
F10
sg3544
F2
sg3545
S'Cunning'
p3808
sg3547
I00
sg3548
S'AllEnemy'
p3809
sg3550
F2
sg3551
I0
sg3552
(lp3810
sg3570
I00
sg3571
I1
sg3572
F8
sg3566
g3804
sg3573
S'Protest'
p3811
sbsS'SPREADRUMOUR'
p3812
g1
(g10
g3
NtRp3813
(dp3814
g3538
I0
sg3539
F8
sg3540
S'asdf'
p3815
sg3542
I1
sg3543
F10
sg3544
F2
sg3545
S'Wit'
p3816
sg3547
I00
sg3548
S'AllEnemy'
p3817
sg3550
F3
sg3551
F5
sg3552
(lp3818
sg3570
I00
sg3571
I4
sg3572
F10
sg3566
g3812
sg3573
S'Spread Rumour'
p3819
sbsS'AGENDA'
p3820
g1
(g10
g3
NtRp3821
(dp3822
g3538
I0
sg3539
F5
sg3540
S'asdf'
p3823
sg3542
F6
sg3543
F10
sg3544
F2
sg3545
S'Cunning'
p3824
sg3547
I00
sg3548
S'AllEnemy'
p3825
sg3550
F2
sg3551
I0
sg3552
(lp3826
sg3570
I00
sg3571
I1
sg3572
F8
sg3566
g3820
sg3573
S'Push Agenda'
p3827
sbsS'REVIVEITEM'
p3828
g1
(g10
g3
NtRp3829
(dp3830
g3538
I0
sg3539
F0
sg3540
S'Revive a defeated comrade to half votes'
p3831
sg3542
I1
sg3543
F0
sg3544
F0
sg3545
S''
sg3547
I00
sg3548
S'DeadFriendly'
p3832
sg3550
F0
sg3551
I0
sg3552
(lp3833
g1
(g3554
g3
NtRp3834
(dp3835
g3557
S'revive'
p3836
sg3559
S''
sg3561
S''
sg3563
F0.5
sg3564
F0
sg3565
F0
sg3566
S'Revive'
p3837
sg3568
S''
sbasg3570
I01
sg3571
I1
sg3572
F0
sg3566
g3828
sg3573
S'Revive'
p3838
sbsS'LEGSPEECH'
p3839
g1
(g10
g3
NtRp3840
(dp3841
g3538
F10
sg3539
F-10
sg3540
S'Remembered throughout the ages. Restores a lot of votes for all party members'
p3842
sg3542
I1
sg3543
F0
sg3544
F0
sg3545
S''
sg3547
I00
sg3548
S'AllFriendly'
p3843
sg3550
F-25
sg3551
I0
sg3552
(lp3844
sg3570
I00
sg3571
I4
sg3572
F0
sg3566
g3839
sg3573
S'Legendary Speech'
p3845
sbsS'FILIBUSTER'
p3846
g1
(g10
g3
NtRp3847
(dp3848
g3538
I0
sg3539
F6
sg3540
S"You're not moving until they give in. Cause all opposition to miss their turn"
p3849
sg3542
I1
sg3543
F0
sg3544
F0
sg3545
S'Wit'
p3850
sg3547
I00
sg3548
S'AllEnemy'
p3851
sg3550
F3
sg3551
F7
sg3552
(lp3852
g3700
asg3570
I00
sg3571
I1
sg3572
F0
sg3566
g3846
sg3573
S'Filibuster'
p3853
sbsS'GATHERINTEL'
p3854
g1
(g10
g3
NtRp3855
(dp3856
g3538
I0
sg3539
F0
sg3540
S'Increases Cunning.'
p3857
sg3542
I1
sg3543
F0
sg3544
F0
sg3545
S'Wit'
p3858
sg3547
I00
sg3548
S'AllFriendly'
p3859
sg3550
F0
sg3551
F3
sg3552
(lp3860
g3555
asg3570
I00
sg3571
I2
sg3572
F0
sg3566
g3854
sg3573
S'Gather Intelligence'
p3861
sbsS'LOVE'
p3862
g1
(g10
g3
NtRp3863
(dp3864
g3538
I0
sg3539
F6
sg3540
S'asdf'
p3865
sg3542
F4
sg3543
F8
sg3544
F2
sg3545
S'Cunning'
p3866
sg3547
I00
sg3548
S'AllEnemy'
p3867
sg3550
F1
sg3551
I0
sg3552
(lp3868
sg3570
I00
sg3571
I1
sg3572
F7
sg3566
g3862
sg3573
S'Love'
p3869
sbsS'OUTOFCONTEXT'
p3870
g1
(g10
g3
NtRp3871
(dp3872
g3538
I0
sg3539
F5
sg3540
S'asdf'
p3873
sg3542
I1
sg3543
F5
sg3544
F2
sg3545
S'Wit'
p3874
sg3547
I00
sg3548
S'AllEnemy'
p3875
sg3550
F3
sg3551
F2
sg3552
(lp3876
g3789
asg3570
I00
sg3571
I1
sg3572
F5
sg3566
g3870
sg3573
S'Take Out Of Context'
p3877
sbsS'GREATSUIT'
p3878
g1
(g10
g3
NtRp3879
(dp3880
g3538
I0
sg3539
F6
sg3540
S'Well, we could argue, but have you noticed how fabulous this suit is?'
p3881
sg3542
I1
sg3543
F11
sg3544
F6
sg3545
S'Cunning'
p3882
sg3547
I00
sg3548
S'AllEnemy'
p3883
sg3550
F3
sg3551
I0
sg3552
(lp3884
sg3570
I00
sg3571
I1
sg3572
F10
sg3566
g3878
sg3573
S'Look Great In Suit'
p3885
sbsS'PEACE'
p3886
g1
(g10
g3
NtRp3887
(dp3888
g3538
I0
sg3539
F0
sg3540
S'asdf'
p3889
sg3542
F4
sg3543
F0
sg3544
F0
sg3545
S'Wit'
p3890
sg3547
I00
sg3548
S'AllEnemy'
p3891
sg3550
F0
sg3551
F3
sg3552
(lp3892
g3741
asg3570
I00
sg3571
I4
sg3572
F0
sg3566
g3886
sg3573
S'Peace'
p3893
sbsS'INSPSPEECH'
p3894
g1
(g10
g3
NtRp3895
(dp3896
g3538
F2
sg3539
F-2
sg3540
S'Restore a small amount of votes to all party members'
p3897
sg3542
I1
sg3543
F0
sg3544
F0
sg3545
S'Cunning'
p3898
sg3547
I00
sg3548
S'AllFriendly'
p3899
sg3550
F-5
sg3551
I0
sg3552
(lp3900
sg3570
I00
sg3571
I4
sg3572
F0
sg3566
g3894
sg3573
S'Inspirational Speech'
p3901
sbsS'RALLYENEMY'
p3902
g1
(g10
g3
NtRp3903
(dp3904
g3538
F8
sg3539
F0
sg3540
S'Get back some votes by rallying supporters'
p3905
sg3542
I1
sg3543
F0
sg3544
F0
sg3545
S'Wit'
p3906
sg3547
I00
sg3548
S'AllFriendly'
p3907
sg3550
F0
sg3551
F3
sg3552
(lp3908
g1
(g3554
g3
NtRp3909
(dp3910
g3557
S'add_permanent'
p3911
sg3559
S''
sg3561
S'votes'
p3912
sg3563
F8
sg3564
F1
sg3565
F1
sg3566
S'Votes Restore Rally Enemy'
p3913
sg3568
S''
sbasg3570
I00
sg3571
I1
sg3572
F0
sg3566
g3902
sg3573
S'Rally Constituents'
p3914
sbsS'STRIKE'
p3915
g1
(g10
g3
NtRp3916
(dp3917
g3538
I0
sg3539
F10
sg3540
S'asdf'
p3918
sg3542
I1
sg3543
F0
sg3544
F0
sg3545
S'Wit'
p3919
sg3547
I00
sg3548
S'AllEnemy'
p3920
sg3550
F0
sg3551
F3
sg3552
(lp3921
g3590
asg3570
I00
sg3571
I1
sg3572
F0
sg3566
g3915
sg3573
S'Call A Strike'
p3922
sbsS'SLANDER'
p3923
g1
(g10
g3
NtRp3924
(dp3925
g3538
I0
sg3539
F5
sg3540
S'Strong against polititians...careful with those voters, though!'
p3926
sg3542
F4
sg3543
F10
sg3544
F2
sg3545
S'Cunning'
p3927
sg3547
I00
sg3548
S'AllEnemy'
p3928
sg3550
F3
sg3551
I0
sg3552
(lp3929
g3789
asg3570
I00
sg3571
I1
sg3572
F7
sg3566
g3923
sg3573
S'Slander Opposition'
p3930
sbsS'NATTER'
p3931
g1
(g10
g3
NtRp3932
(dp3933
g3538
I0
sg3539
F8
sg3540
S'asdf'
p3934
sg3542
I1
sg3543
F15
sg3544
F5
sg3545
S'Cunning'
p3935
sg3547
I00
sg3548
S'AllEnemy'
p3936
sg3550
F1
sg3551
I0
sg3552
(lp3937
sg3570
I00
sg3571
I1
sg3572
F10
sg3566
g3931
sg3573
S'Natter On'
p3938
sbsS'GOSSIP'
p3939
g1
(g10
g3
NtRp3940
(dp3941
g3538
I0
sg3539
F3
sg3540
S'asdf'
p3942
sg3542
I1
sg3543
F10
sg3544
F2
sg3545
S'Wit'
p3943
sg3547
I00
sg3548
S'AllEnemy'
p3944
sg3550
F2
sg3551
F2
sg3552
(lp3945
g3741
asg3570
I00
sg3571
I1
sg3572
F6
sg3566
g3939
sg3573
S'Gossip'
p3946
sbsS'MISSTURN'
p3947
g1
(g10
g3
NtRp3948
(dp3949
g3538
I0
sg3539
F0
sg3540
S'asdf'
p3950
sg3542
I1
sg3543
F0
sg3544
F0
sg3545
S''
sg3547
I00
sg3548
S'AllEnemy'
p3951
sg3550
F0
sg3551
I0
sg3552
(lp3952
sg3570
I00
sg3571
I1
sg3572
F0
sg3566
g3947
sg3573
S'Miss Turn'
p3953
sbsS'BIELECTION'
p3954
g1
(g10
g3
NtRp3955
(dp3956
g3538
I0
sg3539
F4
sg3540
S'Redistribute votes amongst targets'
p3957
sg3542
I1
sg3543
F0
sg3544
F0
sg3545
S'Wit'
p3958
sg3547
I00
sg3548
S'All'
p3959
sg3550
F-4
sg3551
F4
sg3552
(lp3960
sg3570
I00
sg3571
I8
sg3572
F0
sg3566
g3954
sg3573
S'Bielection'
p3961
sbsS'RUNAD'
p3962
g1
(g10
g3
NtRp3963
(dp3964
g3538
F15
sg3539
F0
sg3540
S'Gets back up to 15 votes by running an ad'
p3965
sg3542
I1
sg3543
F0
sg3544
F0
sg3545
S''
sg3547
I00
sg3548
S'AllFriendly'
p3966
sg3550
F0
sg3551
I0
sg3552
(lp3967
g1
(g3554
g3
NtRp3968
(dp3969
g3557
S'add_permanent'
p3970
sg3559
S''
sg3561
S'votes'
p3971
sg3563
F15
sg3564
F1
sg3565
F1
sg3566
S'Votes Restore Ad'
p3972
sg3568
S''
sbasg3570
I00
sg3571
I1
sg3572
F0
sg3566
g3962
sg3573
S'Run Advertisement'
p3973
sbsS'PAYOFF'
p3974
g1
(g10
g3
NtRp3975
(dp3976
g3538
I0
sg3539
F8
sg3540
S'Causes them to miss a number of turns'
p3977
sg3542
I1
sg3543
F8
sg3544
F2
sg3545
S'Wit'
p3978
sg3547
I00
sg3548
S'AllEnemy'
p3979
sg3550
F4
sg3551
F4
sg3552
(lp3980
g1
(g3554
g3
NtRp3981
(dp3982
g3557
S'miss_turn'
p3983
sg3559
S'(MISS)'
p3984
sg3561
S''
sg3563
F0
sg3564
F1
sg3565
F3
sg3566
S'Miss Turn Pay Off'
p3985
sg3568
S''
sbasg3570
I00
sg3571
I1
sg3572
F10
sg3566
g3974
sg3573
S'Pay Off'
p3986
sbsS'BUREAUCRACY'
p3987
g1
(g10
g3
NtRp3988
(dp3989
g3538
I0
sg3539
F5
sg3540
S'asdf'
p3990
sg3542
F6
sg3543
F10
sg3544
F2
sg3545
S'Cunning'
p3991
sg3547
I00
sg3548
S'AllEnemy'
p3992
sg3550
F2
sg3551
I0
sg3552
(lp3993
sg3570
I00
sg3571
I1
sg3572
F8
sg3566
g3987
sg3573
S'Bureaucracy'
p3994
sbsS'RALLYAUDIENCE'
p3995
g1
(g10
g3
NtRp3996
(dp3997
g3538
I0
sg3539
F8
sg3540
S'asdf'
p3998
sg3542
I1
sg3543
F0
sg3544
F0
sg3545
S'Wit'
p3999
sg3547
I00
sg3548
S'AllFriendly'
p4000
sg3550
F4
sg3551
F3
sg3552
(lp4001
g1
(g3554
g3
NtRp4002
(dp4003
g3557
S'add'
p4004
sg3559
S'(INCR CH)'
p4005
sg3561
S'charisma'
p4006
sg3563
F2
sg3564
F1
sg3565
F4
sg3566
S'Increase Charisma'
p4007
sg3568
S'TRUE'
p4008
sbasg3570
I00
sg3571
I1
sg3572
F0
sg3566
g3995
sg3573
S'Rally Audience'
p4009
sbsS'PORKBARREL'
p4010
g1
(g10
g3
NtRp4011
(dp4012
g3538
I0
sg3539
F8
sg3540
S'Do something that benefits them specifically. Not advised against politicians.'
p4013
sg3542
I1
sg3543
F0
sg3544
F0
sg3545
S'Wit'
p4014
sg3547
I00
sg3548
S'AllEnemy'
p4015
sg3550
F4
sg3551
F2
sg3552
(lp4016
sg3570
I00
sg3571
I1
sg3572
F0
sg3566
g4010
sg3573
S'Pork Barrel'
p4017
sbsS'INSPIRE'
p4018
g1
(g10
g3
NtRp4019
(dp4020
g3538
I0
sg3539
F0
sg3540
S'asdf'
p4021
sg3542
I1
sg3543
F0
sg3544
F0
sg3545
S'Wit'
p4022
sg3547
I00
sg3548
S'AllFriendly'
p4023
sg3550
F0
sg3551
F3
sg3552
(lp4024
g3555
asg3570
I00
sg3571
I4
sg3572
F0
sg3566
g4018
sg3573
S'Inspire'
p4025
sbsS'JOKE'
p4026
g1
(g10
g3
NtRp4027
(dp4028
g3538
I0
sg3539
F6
sg3540
S"Ha, ha, ha...what were we talking about? Diffuse the situation with some humour. High chance of critical hit. Knock 'em dead!"
p4029
sg3542
F3
sg3543
F20
sg3544
F10
sg3545
S'Cunning'
p4030
sg3547
I00
sg3548
S'AllEnemy'
p4031
sg3550
F2
sg3551
I0
sg3552
(lp4032
sg3570
I00
sg3571
I1
sg3572
F12
sg3566
g4026
sg3573
S'Joke'
p4033
sbsS'PRAYFORSOULS'
p4034
g1
(g10
g3
NtRp4035
(dp4036
g3538
I0
sg3539
F6
sg3540
S'asdf'
p4037
sg3542
F2
sg3543
F10
sg3544
F2
sg3545
S'Cunning'
p4038
sg3547
I00
sg3548
S'None'
p4039
sg3550
F3
sg3551
I0
sg3552
(lp4040
sg3570
I00
sg3571
I1
sg3572
F10
sg3566
g4034
sg3573
S'Pray'
p4041
sbsS'REVIVE'
p4042
g1
(g10
g3
NtRp4043
(dp4044
g3538
I0
sg3539
F0
sg3540
S'Revive a defeated comrade to half votes'
p4045
sg3542
I1
sg3543
F0
sg3544
F0
sg3545
S''
sg3547
I00
sg3548
S'DeadFriendly'
p4046
sg3550
F0
sg3551
F5
sg3552
(lp4047
g3834
asg3570
I01
sg3571
I1
sg3572
F0
sg3566
g4042
sg3573
S'Revive'
p4048
sbsS'HUMANSHIELD'
p4049
g1
(g10
g3
NtRp4050
(dp4051
g3538
I0
sg3539
F8
sg3540
S'No further questions. Step back, please.'
p4052
sg3542
I1
sg3543
F5
sg3544
F2
sg3545
S'Wit'
p4053
sg3547
I00
sg3548
S'AllEnemy'
p4054
sg3550
F4
sg3551
F4
sg3552
(lp4055
g3700
asg3570
I00
sg3571
I2
sg3572
F11
sg3566
g4049
sg3573
S'Human Shield'
p4056
sbsS'MAKEDEMANDS'
p4057
g1
(g10
g3
NtRp4058
(dp4059
g3538
I0
sg3539
F8
sg3540
S'asdf'
p4060
sg3542
I1
sg3543
F0
sg3544
F0
sg3545
S'Cunning'
p4061
sg3547
I00
sg3548
S'AllEnemy'
p4062
sg3550
F0
sg3551
I0
sg3552
(lp4063
g3590
asg3570
I00
sg3571
I1
sg3572
F0
sg3566
g4057
sg3573
S'Make Outrageous Demands'
p4064
sbsS'DEFENSE'
p4065
g1
(g10
g3
NtRp4066
(dp4067
g3538
I0
sg3539
F0
sg3540
S'Gather strenth; -50% to all incoming attacks'
p4068
sg3542
I1
sg3543
F0
sg3544
F0
sg3545
S''
sg3547
I00
sg3548
S'None'
p4069
sg3550
F0
sg3551
I0
sg3552
(lp4070
g1
(g3554
g3
NtRp4071
(dp4072
g3557
S'add'
p4073
sg3559
S'(DEFEND)'
p4074
sg3561
S'resistance'
p4075
sg3563
F0.5
sg3564
F1
sg3565
F1
sg3566
S'Defense'
p4076
sg3568
S'TRUE'
p4077
sbasg3570
I00
sg3571
I1
sg3572
F0
sg3566
g4065
sg3573
S'Defense'
p4078
sbsS'MISCONSTRUE'
p4079
g1
(g10
g3
NtRp4080
(dp4081
g3538
I0
sg3539
F8
sg3540
S'asdf'
p4082
sg3542
I1
sg3543
F0
sg3544
F0
sg3545
S'Cunning'
p4083
sg3547
I00
sg3548
S'AllEnemy'
p4084
sg3550
F0
sg3551
I0
sg3552
(lp4085
g3590
asg3570
I00
sg3571
I1
sg3572
F0
sg3566
g4079
sg3573
S'Misconstrue'
p4086
sbsS'NATIONALSECURITY'
p4087
g1
(g10
g3
NtRp4088
(dp4089
g3538
I0
sg3539
F7
sg3540
S"This is a matter of national security and they don't have codeword clearance"
p4090
sg3542
I1
sg3543
F10
sg3544
F2
sg3545
S'Cunning'
p4091
sg3547
I00
sg3548
S'AllEnemy'
p4092
sg3550
F2
sg3551
I0
sg3552
(lp4093
sg3570
I00
sg3571
I1
sg3572
F9
sg3566
g4087
sg3573
S'National Security'
p4094
sbsS'RALLY'
p4095
g1
(g10
g3
NtRp4096
(dp4097
g3538
F20
sg3539
F0
sg3540
S'Get back some votes by rallying supporters'
p4098
sg3542
I1
sg3543
F0
sg3544
F0
sg3545
S'Wit'
p4099
sg3547
I00
sg3548
S'AllFriendly'
p4100
sg3550
F0
sg3551
F3
sg3552
(lp4101
g1
(g3554
g3
NtRp4102
(dp4103
g3557
S'add_permanent'
p4104
sg3559
S''
sg3561
S'votes'
p4105
sg3563
F20
sg3564
F1
sg3565
F1
sg3566
S'Votes Restore Rally'
p4106
sg3568
S''
sbasg3570
I00
sg3571
I1
sg3572
F0
sg3566
g4095
sg3573
S'Rally Constituents'
p4107
sbsS'MESSAGE'
p4108
g1
(g10
g3
NtRp4109
(dp4110
g3538
I0
sg3539
F6
sg3540
S'You can certainly wear them down by repeating your party line over and over and over...if you want'
p4111
sg3542
F6
sg3543
F10
sg3544
F5
sg3545
S'Cunning'
p4112
sg3547
I00
sg3548
S'AllEnemy'
p4113
sg3550
F3
sg3551
I0
sg3552
(lp4114
sg3570
I00
sg3571
I1
sg3572
F10
sg3566
g4108
sg3573
S'Stay On Message'
p4115
sbsS'APPEALTOGOD'
p4116
g1
(g10
g3
NtRp4117
(dp4118
g3538
I0
sg3539
F10
sg3540
S'asdf'
p4119
sg3542
F3
sg3543
F5
sg3544
F2
sg3545
S'Wit'
p4120
sg3547
I00
sg3548
S'AllEnemy'
p4121
sg3550
F4
sg3551
F7
sg3552
(lp4122
sg3570
I00
sg3571
I4
sg3572
F13
sg3566
g4116
sg3573
S'Appeal To God'
p4123
sbssS'levels'
p4124
(lp4125
g1
(g10
g3
NtRp4126
(dp4127
S'votes'
p4128
F20
sS'level'
p4129
F1
sS'spin'
p4130
F5
sS'xp'
p4131
F0
sS'skill_points'
p4132
F0
sbag1
(g10
g3
NtRp4133
(dp4134
g4128
F23
sg4129
F2
sg4130
F5
sg4131
F100
sg4132
F2
sbag1
(g10
g3
NtRp4135
(dp4136
g4128
F25
sg4129
F3
sg4130
F6
sg4131
F200
sg4132
F2
sbag1
(g10
g3
NtRp4137
(dp4138
g4128
F30
sg4129
F4
sg4130
F6
sg4131
F500
sg4132
F2
sbag1
(g10
g3
NtRp4139
(dp4140
g4128
F35
sg4129
F5
sg4130
F7
sg4131
F1000
sg4132
F2
sbag1
(g10
g3
NtRp4141
(dp4142
g4128
F40
sg4129
F6
sg4130
F7
sg4131
F2000
sg4132
F2
sbag1
(g10
g3
NtRp4143
(dp4144
g4128
F70
sg4129
F7
sg4130
F8
sg4131
F3000
sg4132
F2
sbag1
(g10
g3
NtRp4145
(dp4146
g4128
F100
sg4129
F8
sg4130
F8
sg4131
F4000
sg4132
F2
sbag1
(g10
g3
NtRp4147
(dp4148
g4128
F200
sg4129
F9
sg4130
F9
sg4131
F5000
sg4132
F2
sbag1
(g10
g3
NtRp4149
(dp4150
g4128
F300
sg4129
F10
sg4130
F9
sg4131
F10000
sg4132
F2
sbag1
(g10
g3
NtRp4151
(dp4152
g4128
F500
sg4129
F11
sg4130
F10
sg4131
F20000
sg4132
F2
sbag1
(g10
g3
NtRp4153
(dp4154
g4128
F500
sg4129
F12
sg4130
F10
sg4131
F50000
sg4132
F2
sbag1
(g10
g3
NtRp4155
(dp4156
g4128
F500
sg4129
F13
sg4130
F10
sg4131
F60000
sg4132
F2
sbag1
(g10
g3
NtRp4157
(dp4158
g4128
F500
sg4129
F14
sg4130
F10
sg4131
F80000
sg4132
F2
sbag1
(g10
g3
NtRp4159
(dp4160
g4128
F500
sg4129
F15
sg4130
F10
sg4131
F10000
sg4132
F2
sbag1
(g10
g3
NtRp4161
(dp4162
g4128
F500
sg4129
F16
sg4130
F10
sg4131
F12000
sg4132
F2
sbag1
(g10
g3
NtRp4163
(dp4164
g4128
F500
sg4129
F17
sg4130
F10
sg4131
F15000
sg4132
F2
sbag1
(g10
g3
NtRp4165
(dp4166
g4128
F500
sg4129
F18
sg4130
F10
sg4131
F20000
sg4132
F2
sbag1
(g10
g3
NtRp4167
(dp4168
g4128
F500
sg4129
F19
sg4130
F10
sg4131
F25000
sg4132
F2
sbag1
(g10
g3
NtRp4169
(dp4170
g4128
F500
sg4129
F20
sg4130
F10
sg4131
F40000
sg4132
F2
sbag1
(g10
g3
NtRp4171
(dp4172
g4128
S''
sg4129
F21
sg4130
S''
sg4131
S''
sg4132
S''
sbag1
(g10
g3
NtRp4173
(dp4174
g4128
S''
sg4129
F22
sg4130
S''
sg4131
S''
sg4132
S''
sbag1
(g10
g3
NtRp4175
(dp4176
g4128
S''
sg4129
F23
sg4130
S''
sg4131
S''
sg4132
S''
sbag1
(g10
g3
NtRp4177
(dp4178
g4128
S''
sg4129
F24
sg4130
S''
sg4131
S''
sg4132
S''
sbag1
(g10
g3
NtRp4179
(dp4180
g4128
S''
sg4129
F25
sg4130
S''
sg4131
S''
sg4132
S''
sbag1
(g10
g3
NtRp4181
(dp4182
g4128
S''
sg4129
F26
sg4130
S''
sg4131
S''
sg4132
S''
sbag1
(g10
g3
NtRp4183
(dp4184
g4128
S''
sg4129
F27
sg4130
S''
sg4131
S''
sg4132
S''
sbag1
(g10
g3
NtRp4185
(dp4186
g4128
S''
sg4129
F28
sg4130
S''
sg4131
S''
sg4132
S''
sbag1
(g10
g3
NtRp4187
(dp4188
g4128
S''
sg4129
F29
sg4130
S''
sg4131
S''
sg4132
S''
sbasg3552
(dp4189
g3567
g3555
sg3668
g3664
sg3766
g3762
sg4007
g4002
sg3704
g3700
sg3780
g3776
sg3972
g3968
sg3985
g3981
sg3913
g3909
sg3724
g3720
sg3837
g3834
sg3746
g3741
sg3794
g3789
sg4076
g4071
sg3594
g3590
sS'Increase Flair'
p4190
g1
(g3554
g3
NtRp4191
(dp4192
g3557
S'add'
p4193
sg3559
S'(INCR FL)'
p4194
sg3561
S'flair'
p4195
sg3563
F2
sg3564
F1
sg3565
F4
sg3566
g4190
sg3568
S'TRUE'
p4196
sbsg3655
g3651
sg4106
g4102
ssS'characters'
p4197
(dp4198
S'Teacher001'
p4199
(lp4200
g1
(g10
g3
NtRp4201
(dp4202
S'flair_base'
p4203
F1
sS'spin_base'
p4204
F4
sS'flair_lvl'
p4205
F0.10000000000000001
sS'wit_base'
p4206
F1
sS'resistance'
p4207
(lp4208
sS'wit_lvl'
p4209
F0.10000000000000001
sS'cunning_base'
p4210
F1
sg3566
g4199
sS'votes_base'
p4211
F10
sS'speed_lvl'
p4212
F0.080000000000000002
sS'standard_attacks'
p4213
(lp4214
g4066
ag3805
asS'cunning_lvl'
p4215
F0.90000000000000002
sS'charisma_lvl'
p4216
F0.20000000000000001
sS'spin_attacks'
p4217
(lp4218
g3916
ag3903
asS'spin_lvl'
p4219
F0.25
sS'charisma_base'
p4220
F1
sS'weaknesses'
p4221
(lp4222
sS'attack_group'
p4223
S'Teacher'
p4224
sS'votes_lvl'
p4225
F0.050000000000000003
sg3573
S'Teacher'
p4226
sS'speed_base'
p4227
F1
sS'immunities'
p4228
(lp4229
sbasS'Politician001'
p4230
(lp4231
g1
(g10
g3
NtRp4232
(dp4233
g4203
F1
sg4204
F4
sg4205
F0.10000000000000001
sg4206
F1
sg4207
(lp4234
g3584
asg4209
F0.10000000000000001
sg4210
F1
sg3566
g4230
sg4211
F10
sg4212
F0.080000000000000002
sg4213
(lp4235
g4109
ag3924
ag3584
ag4027
ag4066
asg4215
F0.90000000000000002
sg4216
F0.11
sg4217
(lp4236
g3955
ag3727
ag4043
asg4219
F0.25
sg4220
F1
sg4221
(lp4237
g3671
asg4223
S'Politician'
p4238
sg4225
F0.089999999999999997
sg3573
S'Politician'
p4239
sg4227
F1
sg4228
(lp4240
g4011
asbasS'SecretAgent'
p4241
(lp4242
g1
(g10
g3
NtRp4243
(dp4244
g4203
F1
sg4204
F4
sg4205
F0.10000000000000001
sg4206
F1
sg4207
(lp4245
sg4209
F0
sg4210
F1
sg3566
g4241
sg4211
F18
sg4212
F0
sg4213
(lp4246
g4088
ag3879
asg4215
F0
sg4216
F0
sg4217
(lp4247
g4050
ag3855
asg4219
F0
sg4220
F1
sg4221
(lp4248
sg4223
S'SecretAgent'
p4249
sg4225
F0.050000000000000003
sg3573
S'Agent Kawalski'
p4250
sg4227
F1
sg4228
(lp4251
sbasS'Bumpkin001'
p4252
(lp4253
g1
(g10
g3
NtRp4254
(dp4255
g4203
F1
sg4204
F4
sg4205
F0.10000000000000001
sg4206
F1
sg4207
(lp4256
sg4209
F0.10000000000000001
sg4210
F1
sg3566
g4252
sg4211
F10
sg4212
F0.080000000000000002
sg4213
(lp4257
g4027
ag3749
asg4215
F0.90000000000000002
sg4216
F0.20000000000000001
sg4217
(lp4258
g3687
ag3813
asg4219
F0.25
sg4220
F1
sg4221
(lp4259
g3584
ag3924
ag3797
asg4223
S'Bumpkin'
p4260
sg4225
F0.050000000000000003
sg3573
S'Bumpkin'
p4261
sg4227
F1
sg4228
(lp4262
sbasS'WarVet001'
p4263
(lp4264
g1
(g10
g3
NtRp4265
(dp4266
g4203
F1
sg4204
F4
sg4205
F0.10000000000000001
sg4206
F1
sg4207
(lp4267
sg4209
F0.10000000000000001
sg4210
F1
sg3566
g4263
sg4211
F10
sg4212
F0.080000000000000002
sg4213
(lp4268
g4058
ag4066
asg4215
F0.90000000000000002
sg4216
F0.20000000000000001
sg4217
(lp4269
g4019
ag3903
asg4219
F0.25
sg4220
F1
sg4221
(lp4270
sg4223
S'WarVet'
p4271
sg4225
F0.050000000000000003
sg3573
S'War Veteran'
p4272
sg4227
F1
sg4228
(lp4273
sbasS'Receptionist001'
p4274
(lp4275
g1
(g10
g3
NtRp4276
(dp4277
g4203
F1
sg4204
F4
sg4205
F0.10000000000000001
sg4206
F1
sg4207
(lp4278
sg4209
F0.10000000000000001
sg4210
F1
sg3566
g4274
sg4211
F10
sg4212
F0.080000000000000002
sg4213
(lp4279
g3988
ag3932
asg4215
F0.90000000000000002
sg4216
F0.20000000000000001
sg4217
(lp4280
g3940
ag3658
asg4219
F0.25
sg4220
F0
sg4221
(lp4281
sg4223
S'Receptionist'
p4282
sg4225
F0.050000000000000003
sg3573
S'Receptionist'
p4283
sg4227
F1
sg4228
(lp4284
sbasS'DeepThroat'
p4285
(lp4286
g1
(g10
g3
NtRp4287
(dp4288
g4203
F1
sg4204
F4
sg4205
F0.10000000000000001
sg4206
F1
sg4207
(lp4289
g4027
asg4209
F0.10000000000000001
sg4210
F1
sg3566
g4285
sg4211
F12
sg4212
F0.080000000000000002
sg4213
(lp4290
g3924
ag4066
ag4058
asg4215
F0.90000000000000002
sg4216
F0.20000000000000001
sg4217
(lp4291
g3783
asg4219
F0.25
sg4220
F1
sg4221
(lp4292
sg4223
S'DeepThroat'
p4293
sg4225
F0.10000000000000001
sg3573
S'Mr Er...?'
p4294
sg4227
F1
sg4228
(lp4295
sbasS'Leo'
p4296
(lp4297
g1
(g10
g3
NtRp4298
(dp4299
g4203
F2
sg4204
F4
sg4205
F0.10000000000000001
sg4206
F4
sg4207
(lp4300
sg4209
F0
sg4210
F2
sg3566
g4296
sg4211
F14
sg4212
F0
sg4213
(lp4301
g4109
ag3924
ag3584
ag4027
ag3671
asg4215
F0
sg4216
F0
sg4217
(lp4302
g3955
ag3727
ag4011
ag3847
asg4219
F0
sg4220
F2
sg4221
(lp4303
sg4223
S'Theo'
p4304
sg4225
F0.050000000000000003
sg3573
S'Theo'
p4305
sg4227
F2
sg4228
(lp4306
sbasS'HippyGirl001'
p4307
(lp4308
g1
(g10
g3
NtRp4309
(dp4310
g4203
F1
sg4204
F4
sg4205
F0.10000000000000001
sg4206
F2
sg4207
(lp4311
sg4209
F0.089999999999999997
sg4210
F2
sg3566
g4307
sg4211
F10
sg4212
F0.080000000000000002
sg4213
(lp4312
g3679
ag3805
ag3863
asg4215
F0.90000000000000002
sg4216
F0.20000000000000001
sg4217
(lp4313
g3887
ag3903
ag4043
asg4219
F0.25
sg4220
F1
sg4221
(lp4314
g4027
asg4223
S'Hippy'
p4315
sg4225
F0.050000000000000003
sg3573
S'Hippy Girl'
p4316
sg4227
F1
sg4228
(lp4317
sbasS'President'
p4318
(lp4319
g1
(g10
g3
NtRp4320
(dp4321
g4203
F1
sg4204
F4
sg4205
F0.10000000000000001
sg4206
F1
sg4207
(lp4322
sg4209
F0.10000000000000001
sg4210
F2
sg3566
g4318
sg4211
F18
sg4212
F0.080000000000000002
sg4213
(lp4323
g4109
ag3924
ag3584
ag4027
ag4066
asg4215
F0.90000000000000002
sg4216
F0.20000000000000001
sg4217
(lp4324
g3955
ag3727
ag4043
asg4219
F0.29999999999999999
sg4220
F1
sg4221
(lp4325
sg4223
S'Politician'
p4326
sg4225
F0.070000000000000007
sg3573
S'President Allen'
p4327
sg4227
F1
sg4228
(lp4328
sbasS'Unionist001'
p4329
(lp4330
g1
(g10
g3
NtRp4331
(dp4332
g4203
F1
sg4204
F4
sg4205
F0.10000000000000001
sg4206
F1
sg4207
(lp4333
sg4209
F0.10000000000000001
sg4210
F1
sg3566
g4329
sg4211
F10
sg4212
F0.080000000000000002
sg4213
(lp4334
g4058
ag4066
ag3805
asg4215
F0.90000000000000002
sg4216
F0.20000000000000001
sg4217
(lp4335
g3916
asg4219
F0.25
sg4220
F1
sg4221
(lp4336
sg4223
S'Unionist'
p4337
sg4225
F0.050000000000000003
sg3573
S'Unionist'
p4338
sg4227
F1
sg4228
(lp4339
sbasS'Wife'
p4340
(lp4341
g1
(g10
g3
NtRp4342
(dp4343
g4203
F1
sg4204
F4
sg4205
F0.10000000000000001
sg4206
F3
sg4207
(lp4344
sg4209
F0
sg4210
F1
sg3566
g4340
sg4211
F12
sg4212
F0
sg4213
(lp4345
g4109
ag3584
ag4027
asg4215
F0
sg4216
F0
sg4217
(lp4346
g4096
ag4043
ag3735
asg4219
F0
sg4220
F1
sg4221
(lp4347
sg4223
S'Wife'
p4348
sg4225
F0.050000000000000003
sg3573
S'Sarah Mossman'
p4349
sg4227
F3
sg4228
(lp4350
sbasS'PresidentAlien'
p4351
(lp4352
g1
(g10
g3
NtRp4353
(dp4354
g4203
F1
sg4204
F4
sg4205
F0.10000000000000001
sg4206
F2
sg4207
(lp4355
sg4209
F0.10000000000000001
sg4210
F2
sg3566
g4351
sg4211
F23
sg4212
F0.080000000000000002
sg4213
(lp4356
g3924
ag3584
ag4066
asg4215
F0.90000000000000002
sg4216
F0.20000000000000001
sg4217
(lp4357
g3695
ag3646
ag4043
asg4219
F0.29999999999999999
sg4220
F1
sg4221
(lp4358
sg4223
S'Alien'
p4359
sg4225
F0.070000000000000007
sg3573
S'President Alien'
p4360
sg4227
F1
sg4228
(lp4361
sbasS'Governor'
p4362
(lp4363
g1
(g10
g3
NtRp4364
(dp4365
g4203
F1
sg4204
F4
sg4205
F0.10000000000000001
sg4206
F1
sg4207
(lp4366
sg4209
F0.10000000000000001
sg4210
F1
sg3566
g4362
sg4211
F18
sg4212
F0.080000000000000002
sg4213
(lp4367
g4109
ag3924
ag3584
ag4027
ag4066
asg4215
F0.90000000000000002
sg4216
F0.20000000000000001
sg4217
(lp4368
g3955
ag3727
ag4043
asg4219
F0.25
sg4220
F1
sg4221
(lp4369
sg4223
S'Politician'
p4370
sg4225
F0.050000000000000003
sg3573
g4362
sg4227
F1
sg4228
(lp4371
sbasS'Lobbyist001'
p4372
(lp4373
g1
(g10
g3
NtRp4374
(dp4375
g4203
F1
sg4204
F4
sg4205
F0.10000000000000001
sg4206
F1
sg4207
(lp4376
sg4209
F0.10000000000000001
sg4210
F1
sg3566
g4372
sg4211
F10
sg4212
F0.080000000000000002
sg4213
(lp4377
g3821
ag4058
asg4215
F0.90000000000000002
sg4216
F0.20000000000000001
sg4217
(lp4378
g3975
ag3783
asg4219
F0.25
sg4220
F1
sg4221
(lp4379
g4011
asg4223
S'Lobbyist'
p4380
sg4225
F0.050000000000000003
sg3573
S'Lobbyist'
p4381
sg4227
F1
sg4228
(lp4382
g3671
asbasS'Journalist001'
p4383
(lp4384
g1
(g10
g3
NtRp4385
(dp4386
g4203
F1
sg4204
F4
sg4205
F0.10000000000000001
sg4206
F1
sg4207
(lp4387
sg4209
F0.80000000000000004
sg4210
F1
sg3566
g4383
sg4211
F16
sg4212
F0.01
sg4213
(lp4388
g3630
ag4080
asg4215
F0.90000000000000002
sg4216
F0.20000000000000001
sg4217
(lp4389
g3871
ag3536
ag3606
asg4219
F0.34999999999999998
sg4220
F1
sg4221
(lp4390
sg4223
S'Journalist'
p4391
sg4225
F0.050000000000000003
sg3573
S'Journalist'
p4392
sg4227
F1
sg4228
(lp4393
sbasS'ReligiousNut001'
p4394
(lp4395
g1
(g10
g3
NtRp4396
(dp4397
g4203
F1
sg4204
F6
sg4205
F0.050000000000000003
sg4206
F3
sg4207
(lp4398
sg4209
F0.089999999999999997
sg4210
F1
sg3566
g4394
sg4211
F10
sg4212
F0.01
sg4213
(lp4399
g3614
ag4035
ag4066
asg4215
F0.050000000000000003
sg4216
F0.050000000000000003
sg4217
(lp4400
g4117
ag3770
asg4219
F0.25
sg4220
F1
sg4221
(lp4401
sg4223
S'Religious'
p4402
sg4225
F0.089999999999999997
sg3573
S'Religious Nut'
p4403
sg4227
F1
sg4228
(lp4404
g4027
asbasS'JointChief001'
p4405
(lp4406
g1
(g10
g3
NtRp4407
(dp4408
g4203
F2
sg4204
F4
sg4205
F0.10000000000000001
sg4206
F3
sg4207
(lp4409
sg4209
F0.10000000000000001
sg4210
F3
sg3566
g4405
sg4211
F20
sg4212
F0.080000000000000002
sg4213
(lp4410
g4058
ag4066
ag4088
ag3707
asg4215
F0.90000000000000002
sg4216
F0.20000000000000001
sg4217
(lp4411
g3855
asg4219
F0.25
sg4220
F2
sg4221
(lp4412
sg4223
S'JointChief'
p4413
sg4225
F0.050000000000000003
sg3573
S'Joint Chief'
p4414
sg4227
F3
sg4228
(lp4415
sbasS'Protester001'
p4416
(lp4417
g1
(g10
g3
NtRp4418
(dp4419
g4203
F0.5
sg4204
F4
sg4205
F0.050000000000000003
sg4206
F1
sg4207
(lp4420
g4027
asg4209
F0.10000000000000001
sg4210
F1
sg3566
g4416
sg4211
F8
sg4212
F0.01
sg4213
(lp4421
g3805
ag3622
ag3679
asg4215
F0.5
sg4216
F0.20000000000000001
sg4217
(lp4422
g3903
asg4219
F0.20000000000000001
sg4220
F1
sg4221
(lp4423
sg4223
S'Protestor'
p4424
sg4225
F0.5
sg3573
S'Protester'
p4425
sg4227
F1
sg4228
(lp4426
sbasS'TVPersonality001'
p4427
(lp4428
g1
(g10
g3
NtRp4429
(dp4430
g4203
F1
sg4204
F4
sg4205
F0.10000000000000001
sg4206
F1
sg4207
(lp4431
sg4209
F0.10000000000000001
sg4210
F1
sg3566
g4427
sg4211
F12
sg4212
F0.080000000000000002
sg4213
(lp4432
g4027
ag3630
asg4215
F0.90000000000000002
sg4216
F0.20000000000000001
sg4217
(lp4433
g3606
ag3598
asg4219
F0.25
sg4220
F1
sg4221
(lp4434
sg4223
S'TVPersonality'
p4435
sg4225
F0.050000000000000003
sg3573
S"Hecules O'Grady"
p4436
sg4227
F1
sg4228
(lp4437
g3847
asbasS'Player'
p4438
(lp4439
g1
(g10
g3
NtRp4440
(dp4441
g4203
F1
sg4204
F5
sg4205
F0.10000000000000001
sg4206
F1
sg4207
(lp4442
sg4209
F0.10000000000000001
sg4210
F1
sg3566
g4438
sg4211
F15
sg4212
F0.080000000000000002
sg4213
(lp4443
g4109
ag3584
ag4027
asg4215
F0.90000000000000002
sg4216
F0.20000000000000001
sg4217
(lp4444
g3727
asg4219
F0.25
sg4220
F1
sg4221
(lp4445
sg4223
S'Player'
p4446
sg4225
F0.20000000000000001
sg3573
S'Phillip Mossman'
p4447
sg4227
F2
sg4228
(lp4448
sbasS'Computer'
p4449
(lp4450
g1
(g10
g3
NtRp4451
(dp4452
g4203
F1
sg4204
F4
sg4205
F0.10000000000000001
sg4206
F5
sg4207
(lp4453
sg4209
F0.10000000000000001
sg4210
F5
sg3566
g4449
sg4211
F30
sg4212
F0.10000000000000001
sg4213
(lp4454
g4109
ag3924
ag3584
ag4027
ag4066
asg4215
F0.90000000000000002
sg4216
F0.20000000000000001
sg4217
(lp4455
g3955
ag3727
ag4043
asg4219
F0.5
sg4220
F1
sg4221
(lp4456
sg4223
S'Politician'
p4457
sg4225
F0.5
sg3573
S'N.O.T.B.A.D'
p4458
sg4227
F5
sg4228
(lp4459
sbasS'CabinetPolitician001'
p4460
(lp4461
g1
(g10
g3
NtRp4462
(dp4463
g4203
F1
sg4204
F4
sg4205
F0.10000000000000001
sg4206
F1
sg4207
(lp4464
sg4209
F0.10000000000000001
sg4210
F1
sg3566
g4460
sg4211
F10
sg4212
F0.080000000000000002
sg4213
(lp4465
g4109
ag3924
ag3584
ag4027
ag4066
asg4215
F0.90000000000000002
sg4216
F0.20000000000000001
sg4217
(lp4466
g3955
ag3727
ag4043
asg4219
F0.25
sg4220
F1
sg4221
(lp4467
sg4223
S'Politician'
p4468
sg4225
F0.050000000000000003
sg3573
S'Cabinet Politician'
p4469
sg4227
F1
sg4228
(lp4470
sbasS'Constituent001'
p4471
(lp4472
g1
(g10
g3
NtRp4473
(dp4474
g4203
F1
sg4204
F4
sg4205
F0.10000000000000001
sg4206
F1
sg4207
(lp4475
sg4209
F0.80000000000000004
sg4210
F1
sg3566
g4471
sg4211
F10
sg4212
F0.10000000000000001
sg4213
(lp4476
g3805
ag3821
ag4058
asg4215
F0.90000000000000002
sg4216
F0.20000000000000001
sg4217
(lp4477
g4043
asg4219
F0.25
sg4220
F1
sg4221
(lp4478
sg4223
S'Constituent'
p4479
sg4225
F0.050000000000000003
sg3573
S'Constituent'
p4480
sg4227
F2
sg4228
(lp4481
sbasS'Mayor'
p4482
(lp4483
g1
(g10
g3
NtRp4484
(dp4485
g4203
F1
sg4204
F4
sg4205
F0.10000000000000001
sg4206
F1
sg4207
(lp4486
sg4209
F0.10000000000000001
sg4210
F1
sg3566
g4482
sg4211
F12
sg4212
F0.080000000000000002
sg4213
(lp4487
g4109
ag3924
ag3584
ag4027
ag4066
asg4215
F0.90000000000000002
sg4216
F0.20000000000000001
sg4217
(lp4488
g3955
ag3727
ag4043
asg4219
F0.25
sg4220
F1
sg4221
(lp4489
sg4223
S'Politician'
p4490
sg4225
F0.050000000000000003
sg3573
S'Mayor Goodman'
p4491
sg4227
F1
sg4228
(lp4492
sbassS'quest_items'
p4493
(dp4494
S'SOUTHWINGDOORKEY'
p4495
g1
(g10
g3
NtRp4496
(dp4497
g3540
S'It looks old.'
p4498
sg3566
g4495
sg3573
S'Key to the South Wing'
p4499
sbsS'NOTBADKEY'
p4500
g1
(g10
g3
NtRp4501
(dp4502
g3540
S'The key is imprinted with the seal of the President.'
p4503
sg3566
g4500
sg3573
S'Key to the Situation Room'
p4504
sbsS'BILLOFRIGHTS'
p4505
g1
(g10
g3
NtRp4506
(dp4507
g3540
S''
sg3566
g4505
sg3573
S"Citizens' Bill of Rights"
p4508
sbsS'PEN'
p4509
g1
(g10
g3
NtRp4510
(dp4511
g3540
S'Ink flows freely... into your shirt pocket.'
p4512
sg3566
g4509
sg3573
S'A pen'
p4513
sbsS'INCRIMINATINGEVIDENCE'
p4514
g1
(g10
g3
NtRp4515
(dp4516
g3540
S'Very incriminating proof that something troubling is going on in the White House.'
p4517
sg3566
g4514
sg3573
S'Incriminating Evidence'
p4518
sbsS'WARVETROOMKEY'
p4519
g1
(g10
g3
NtRp4520
(dp4521
g3540
S'The key is imprinted with the seal of the President.'
p4522
sg3566
g4519
sg3573
S'Key to the West Room'
p4523
sbsS'CABINETROOMKEY'
p4524
g1
(g10
g3
NtRp4525
(dp4526
g3540
S'The key is imprinted with the seal of the President.'
p4527
sg3566
g4524
sg3573
S'Key to the Cabinet Room'
p4528
sbsS'TEACHERROOMKEY'
p4529
g1
(g10
g3
NtRp4530
(dp4531
g3540
S'The key is imprinted with the seal of the President.'
p4532
sg3566
g4529
sg3573
S'Key to the East Room'
p4533
sbssg4213
(dp4534
S'Theo'
p4535
(lp4536
g4109
ag3924
ag3584
ag4027
ag3671
ag3955
ag3727
ag4011
ag3847
asS'JointChief'
p4537
(lp4538
g4058
ag4066
ag4088
ag3855
ag3707
asS'Politician'
p4539
(lp4540
g4109
ag3924
ag3584
ag4027
ag3955
ag3727
ag4043
ag4066
asS'Bumpkin'
p4541
(lp4542
g4027
ag3687
ag3813
ag3749
asS'Wife'
p4543
(lp4544
g4109
ag3584
ag4027
ag4096
ag4043
ag3735
asS'Lobbyist'
p4545
(lp4546
g3821
ag3975
ag3783
ag4058
asS'DeepThroat'
p4547
(lp4548
g3924
ag4066
ag3783
ag4058
asS'Protestor'
p4549
(lp4550
g3903
ag3805
ag3622
ag3679
asS'SecretAgent'
p4551
(lp4552
g4050
ag4088
ag3855
ag3879
asS'Teacher'
p4553
(lp4554
g3916
ag4066
ag3805
ag3903
asS'Alien'
p4555
(lp4556
g3924
ag3584
ag3695
ag3646
ag4043
ag4066
asS'Player'
p4557
(lp4558
g4109
ag3584
ag4027
ag3727
asS'Computer'
p4559
(lp4560
g3855
ag4088
ag3638
ag3783
ag4058
ag3924
asS'Receptionist'
p4561
(lp4562
g3988
ag3932
ag3940
ag3658
asS'Hippy'
p4563
(lp4564
g3679
ag3805
ag3863
ag3887
ag3903
ag4043
asS'Constituent'
p4565
(lp4566
g3805
ag4043
ag3821
ag4058
asS'TVPersonality'
p4567
(lp4568
g4027
ag3606
ag3630
ag3598
asS'WarVet'
p4569
(lp4570
g4058
ag4066
ag4019
ag3903
asS'Religious'
p4571
(lp4572
g3614
ag4117
ag3770
ag4035
ag4066
asS'Unionist'
p4573
(lp4574
g4058
ag4066
ag3805
ag3916
asS'Journalist'
p4575
(lp4576
g3630
ag4080
ag3871
ag3536
ag3606
assS'shops'
p4577
(dp4578
S'SHOP1'
p4579
(lp4580
g1
(g10
g3
NtRp4581
(dp4582
S'price'
p4583
F20
sS'shop_id'
p4584
g4579
sS'item_attack'
p4585
g3757
sbag1
(g10
g3
NtRp4586
(dp4587
g4583
F20
sg4584
S'SHOP1'
p4588
sg4585
g3963
sbasS'SHOP2P2'
p4589
(lp4590
g1
(g10
g3
NtRp4591
(dp4592
g4583
F20
sg4584
g4589
sg4585
g3757
sbag1
(g10
g3
NtRp4593
(dp4594
g4583
F20
sg4584
S'SHOP2P2'
p4595
sg4585
g3895
sbag1
(g10
g3
NtRp4596
(dp4597
g4583
F20
sg4584
S'SHOP2P2'
p4598
sg4585
g3963
sbag1
(g10
g3
NtRp4599
(dp4600
g4583
F50
sg4584
S'SHOP2P2'
p4601
sg4585
g3829
sbag1
(g10
g3
NtRp4602
(dp4603
g4583
F40
sg4584
S'SHOP2P2'
p4604
sg4585
g3715
sbasS'SHOP2'
p4605
(lp4606
g1
(g10
g3
NtRp4607
(dp4608
g4583
F20
sg4584
g4605
sg4585
g3757
sbag1
(g10
g3
NtRp4609
(dp4610
g4583
F20
sg4584
S'SHOP2'
p4611
sg4585
g3963
sbag1
(g10
g3
NtRp4612
(dp4613
g4583
F50
sg4584
S'SHOP2'
p4614
sg4585
g3829
sbag1
(g10
g3
NtRp4615
(dp4616
g4583
F40
sg4584
S'SHOP2'
p4617
sg4585
g3715
sbasS'SHOP3'
p4618
(lp4619
g1
(g10
g3
NtRp4620
(dp4621
g4583
F20
sg4584
g4618
sg4585
g3757
sbag1
(g10
g3
NtRp4622
(dp4623
g4583
F20
sg4584
S'SHOP3'
p4624
sg4585
g3963
sbag1
(g10
g3
NtRp4625
(dp4626
g4583
F50
sg4584
S'SHOP3'
p4627
sg4585
g3829
sbag1
(g10
g3
NtRp4628
(dp4629
g4583
F40
sg4584
S'SHOP3'
p4630
sg4585
g3715
sbag1
(g10
g3
NtRp4631
(dp4632
g4583
F70
sg4584
S'SHOP3'
p4633
sg4585
g3840
sbasS'SHOP3P2'
p4634
(lp4635
g1
(g10
g3
NtRp4636
(dp4637
g4583
F20
sg4584
g4634
sg4585
g3757
sbag1
(g10
g3
NtRp4638
(dp4639
g4583
F20
sg4584
S'SHOP3P2'
p4640
sg4585
g3963
sbag1
(g10
g3
NtRp4641
(dp4642
g4583
F50
sg4584
S'SHOP3P2'
p4643
sg4585
g3829
sbag1
(g10
g3
NtRp4644
(dp4645
g4583
F40
sg4584
S'SHOP3P2'
p4646
sg4585
g3715
sbag1
(g10
g3
NtRp4647
(dp4648
g4583
F70
sg4584
S'SHOP3P2'
p4649
sg4585
g3840
sbassS'encounters'
p4650
(dp4651
S'P-hard-14'
p4652
g1
(g10
g3
NtRp4653
(dp4654
S'item_attack_drops'
p4655
(lp4656
sS'item_attacks'
p4657
(lp4658
sg3573
S''
sS'money'
p4659
F100
sg4131
F400
sS'monster2_lvl'
p4660
S''
sS'bribe_cost'
p4661
F200
sS'monster3'
p4662
S''
sS'monster1_lvl'
p4663
F7
sS'monster3_lvl'
p4664
S''
sS'monster4_lvl'
p4665
S''
sS'monster4'
p4666
S''
sS'monster2'
p4667
S''
sg3566
g4652
sS'monster1'
p4668
S'Computer'
p4669
sbsS'P-hard-11'
p4670
g1
(g10
g3
NtRp4671
(dp4672
g4655
(lp4673
sg4657
(lp4674
sg3573
S''
sg4659
F100
sg4131
F270
sg4660
F7
sg4661
F150
sg4662
S'JointChief001'
p4675
sg4663
F7
sg4664
F7
sg4665
S''
sg4666
S''
sg4667
S'JointChief001'
p4676
sg3566
g4670
sg4668
S'JointChief001'
p4677
sbsS'P-hard-10'
p4678
g1
(g10
g3
NtRp4679
(dp4680
g4655
(lp4681
sg4657
(lp4682
sg3573
S''
sg4659
F100
sg4131
F360
sg4660
F7
sg4661
F120
sg4662
S'CabinetPolitician001'
p4683
sg4663
F7
sg4664
F7
sg4665
F7
sg4666
S'CabinetPolitician001'
p4684
sg4667
S'CabinetPolitician001'
p4685
sg3566
g4678
sg4668
S'CabinetPolitician001'
p4686
sbsS'P-hard-13'
p4687
g1
(g10
g3
NtRp4688
(dp4689
g4655
(lp4690
sg4657
(lp4691
sg3573
S''
sg4659
F100
sg4131
F360
sg4660
F7
sg4661
F150
sg4662
S'JointChief001'
p4692
sg4663
F7
sg4664
F7
sg4665
F7
sg4666
S'JointChief001'
p4693
sg4667
S'JointChief001'
p4694
sg3566
g4687
sg4668
S'JointChief001'
p4695
sbsS'P-hard-12'
p4696
g1
(g10
g3
NtRp4697
(dp4698
g4655
(lp4699
sg4657
(lp4700
sg3573
S''
sg4659
F100
sg4131
F270
sg4660
F7
sg4661
F150
sg4662
S'JointChief001'
p4701
sg4663
F7
sg4664
F7
sg4665
S''
sg4666
S''
sg4667
S'JointChief001'
p4702
sg3566
g4696
sg4668
S'JointChief001'
p4703
sbsS'P-easy-05'
p4704
g1
(g10
g3
NtRp4705
(dp4706
g4655
(lp4707
g1
(c__main__
ItemAttack
p4708
g3
NtRp4709
(dp4710
S'attack'
p4711
g3895
sS'quantity'
p4712
I1
sbasg4657
(lp4713
sg3573
S''
sg4659
F0
sg4131
F20
sg4660
S''
sg4661
F20
sg4662
S''
sg4663
F2
sg4664
S''
sg4665
S''
sg4666
S''
sg4667
S''
sg3566
g4704
sg4668
S'Journalist001'
p4714
sbsS'P-easy-04'
p4715
g1
(g10
g3
NtRp4716
(dp4717
g4655
(lp4718
g1
(g4708
g3
NtRp4719
(dp4720
g4711
g3757
sg4712
I1
sbasg4657
(lp4721
sg3573
S''
sg4659
F0
sg4131
F30
sg4660
F1
sg4661
F20
sg4662
S''
sg4663
F1
sg4664
S''
sg4665
S''
sg4666
S''
sg4667
S'Protester001'
p4722
sg3566
g4715
sg4668
S'Protester001'
p4723
sbsS'P-easy-07'
p4724
g1
(g10
g3
NtRp4725
(dp4726
g4655
(lp4727
g1
(g4708
g3
NtRp4728
(dp4729
g4711
g3757
sg4712
I1
sbasg4657
(lp4730
sg3573
S''
sg4659
F15
sg4131
F40
sg4660
F2
sg4661
F20
sg4662
S''
sg4663
F2
sg4664
S''
sg4665
S''
sg4666
S''
sg4667
S'Protester001'
p4731
sg3566
g4724
sg4668
S'Constituent001'
p4732
sbsS'P-easy-06'
p4733
g1
(g10
g3
NtRp4734
(dp4735
g4655
(lp4736
g1
(g4708
g3
NtRp4737
(dp4738
g4711
g3829
sg4712
I1
sbasg4657
(lp4739
sg3573
S''
sg4659
F0
sg4131
F40
sg4660
F2
sg4661
F20
sg4662
S''
sg4663
F2
sg4664
S''
sg4665
S''
sg4666
S''
sg4667
S'Lobbyist001'
p4740
sg3566
g4733
sg4668
S'Lobbyist001'
p4741
sbsS'P-easy-01'
p4742
g1
(g10
g3
NtRp4743
(dp4744
g4655
(lp4745
g1
(g4708
g3
NtRp4746
(dp4747
g4711
g3963
sg4712
I1
sbasg4657
(lp4748
g1
(g4708
g3
NtRp4749
(dp4750
g4711
g3895
sg4712
I1
sbasg3573
S'The quest for pen'
p4751
sg4659
F0
sg4131
F10
sg4660
S''
sg4661
F20
sg4662
S''
sg4663
F1
sg4664
S''
sg4665
S''
sg4666
S''
sg4667
S''
sg3566
g4742
sg4668
S'Receptionist001'
p4752
sbsS'P-easy-03'
p4753
g1
(g10
g3
NtRp4754
(dp4755
g4655
(lp4756
g1
(g4708
g3
NtRp4757
(dp4758
g4711
g3963
sg4712
I1
sbasg4657
(lp4759
g1
(g4708
g3
NtRp4760
(dp4761
g4711
g3895
sg4712
I1
sbasg3573
S''
sg4659
F0
sg4131
F30
sg4660
F1
sg4661
F20
sg4662
S''
sg4663
F1
sg4664
S''
sg4665
S''
sg4666
S''
sg4667
S'Protester001'
p4762
sg3566
g4753
sg4668
S'Protester001'
p4763
sbsS'P-easy-02'
p4764
g1
(g10
g3
NtRp4765
(dp4766
g4655
(lp4767
sg4657
(lp4768
sg3573
S''
sg4659
F0
sg4131
F30
sg4660
F1
sg4661
F20
sg4662
S''
sg4663
F1
sg4664
S''
sg4665
S''
sg4666
S''
sg4667
S'Protester001'
p4769
sg3566
g4764
sg4668
S'Protester001'
p4770
sbsS'P-easy-09'
p4771
g1
(g10
g3
NtRp4772
(dp4773
g4655
(lp4774
g1
(g4708
g3
NtRp4775
(dp4776
g4711
g3963
sg4712
I1
sbasg4657
(lp4777
sg3573
S''
sg4659
F15
sg4131
F60
sg4660
F2
sg4661
F20
sg4662
S''
sg4663
F2
sg4664
S''
sg4665
S''
sg4666
S''
sg4667
S'Constituent001'
p4778
sg3566
g4771
sg4668
S'Constituent001'
p4779
sbsS'P-easy-08'
p4780
g1
(g10
g3
NtRp4781
(dp4782
g4655
(lp4783
sg4657
(lp4784
sg3573
S''
sg4659
F15
sg4131
F40
sg4660
F2
sg4661
F20
sg4662
S'Constituent001'
p4785
sg4663
F2
sg4664
F2
sg4665
S''
sg4666
S''
sg4667
S'Constituent001'
p4786
sg3566
g4780
sg4668
S'Protester001'
p4787
sbsS'P-hard-08'
p4788
g1
(g10
g3
NtRp4789
(dp4790
g4655
(lp4791
sg4657
(lp4792
sg3573
S''
sg4659
F100
sg4131
F270
sg4660
F7
sg4661
F120
sg4662
S'CabinetPolitician001'
p4793
sg4663
F7
sg4664
F7
sg4665
S''
sg4666
S''
sg4667
S'CabinetPolitician001'
p4794
sg3566
g4788
sg4668
S'CabinetPolitician001'
p4795
sbsS'P-hard-09'
p4796
g1
(g10
g3
NtRp4797
(dp4798
g4655
(lp4799
sg4657
(lp4800
sg3573
S''
sg4659
F100
sg4131
F360
sg4660
F7
sg4661
F120
sg4662
S'CabinetPolitician001'
p4801
sg4663
F7
sg4664
F7
sg4665
F7
sg4666
S'CabinetPolitician001'
p4802
sg4667
S'CabinetPolitician001'
p4803
sg3566
g4796
sg4668
S'CabinetPolitician001'
p4804
sbsS'P-med-08'
p4805
g1
(g10
g3
NtRp4806
(dp4807
g4655
(lp4808
g1
(g4708
g3
NtRp4809
(dp4810
g4711
g3715
sg4712
I1
sbasg4657
(lp4811
sg3573
S''
sg4659
F0
sg4131
F180
sg4660
F4
sg4661
F60
sg4662
S'Politician001'
p4812
sg4663
F4
sg4664
F4
sg4665
S''
sg4666
S''
sg4667
S'Politician001'
p4813
sg3566
g4805
sg4668
S'Protester001'
p4814
sbsS'P-med-09'
p4815
g1
(g10
g3
NtRp4816
(dp4817
g4655
(lp4818
sg4657
(lp4819
sg3573
S''
sg4659
F50
sg4131
F180
sg4660
F4
sg4661
F60
sg4662
S'Politician001'
p4820
sg4663
F4
sg4664
F4
sg4665
S''
sg4666
S''
sg4667
S'ReligiousNut001'
p4821
sg3566
g4815
sg4668
S'Politician001'
p4822
sbsS'P-med-02'
p4823
g1
(g10
g3
NtRp4824
(dp4825
g4655
(lp4826
g1
(g4708
g3
NtRp4827
(dp4828
g4711
g3715
sg4712
I1
sbasg4657
(lp4829
g1
(g4708
g3
NtRp4830
(dp4831
g4711
g3576
sg4712
I1
sbasg3573
S''
sg4659
F25
sg4131
F90
sg4660
F3
sg4661
F40
sg4662
S''
sg4663
F3
sg4664
S''
sg4665
S''
sg4666
S''
sg4667
S'Politician001'
p4832
sg3566
g4823
sg4668
S'Politician001'
p4833
sbsS'P-med-03'
p4834
g1
(g10
g3
NtRp4835
(dp4836
g4655
(lp4837
sg4657
(lp4838
g1
(g4708
g3
NtRp4839
(dp4840
g4711
g3576
sg4712
I1
sbasg3573
S''
sg4659
F25
sg4131
F90
sg4660
F3
sg4661
F40
sg4662
S''
sg4663
F3
sg4664
S''
sg4665
S''
sg4666
S''
sg4667
S'Bumpkin001'
p4841
sg3566
g4834
sg4668
S'Bumpkin001'
p4842
sbsS'P-med-01'
p4843
g1
(g10
g3
NtRp4844
(dp4845
g4655
(lp4846
sg4657
(lp4847
sg3573
S''
sg4659
F30
sg4131
F90
sg4660
F3
sg4661
F40
sg4662
S''
sg4663
F3
sg4664
S''
sg4665
S''
sg4666
S''
sg4667
S'Politician001'
p4848
sg3566
g4843
sg4668
S'Politician001'
p4849
sbsS'P-med-06'
p4850
g1
(g10
g3
NtRp4851
(dp4852
g4655
(lp4853
sg4657
(lp4854
sg3573
S''
sg4659
F50
sg4131
F220
sg4660
F5
sg4661
F70
sg4662
S'Politician001'
p4855
sg4663
F4
sg4664
F4
sg4665
S''
sg4666
S''
sg4667
S'Governor'
p4856
sg3566
g4850
sg4668
S'Politician001'
p4857
sbsS'P-med-07'
p4858
g1
(g10
g3
NtRp4859
(dp4860
g4655
(lp4861
sg4657
(lp4862
sg3573
S''
sg4659
F0
sg4131
F120
sg4660
F5
sg4661
F60
sg4662
S''
sg4663
F5
sg4664
S''
sg4665
S''
sg4666
S''
sg4667
S'Journalist001'
p4863
sg3566
g4858
sg4668
S'Politician001'
p4864
sbsS'P-med-04'
p4865
g1
(g10
g3
NtRp4866
(dp4867
g4655
(lp4868
sg4657
(lp4869
sg3573
S''
sg4659
F30
sg4131
F135
sg4660
F3
sg4661
F40
sg4662
S'Protester001'
p4870
sg4663
F3
sg4664
F3
sg4665
S''
sg4666
S''
sg4667
S'Bumpkin001'
p4871
sg3566
g4865
sg4668
S'HippyGirl001'
p4872
sbsS'P-med-05'
p4873
g1
(g10
g3
NtRp4874
(dp4875
g4655
(lp4876
sg4657
(lp4877
sg3573
S''
sg4659
F30
sg4131
F135
sg4660
F3
sg4661
F40
sg4662
S'Politician001'
p4878
sg4663
F3
sg4664
F3
sg4665
S''
sg4666
S''
sg4667
S'Journalist001'
p4879
sg3566
g4873
sg4668
S'Journalist001'
p4880
sbsS'P-med-24'
p4881
g1
(g10
g3
NtRp4882
(dp4883
g4655
(lp4884
sg4657
(lp4885
sg3573
S''
sg4659
F70
sg4131
F500
sg4660
F8
sg4661
F100
sg4662
S'Politician001'
p4886
sg4663
F7
sg4664
F7
sg4665
S''
sg4666
S''
sg4667
S'PresidentAlien'
p4887
sg3566
g4881
sg4668
S'Politician001'
p4888
sbsS'P-med-20'
p4889
g1
(g10
g3
NtRp4890
(dp4891
g4655
(lp4892
sg4657
(lp4893
sg3573
S''
sg4659
F80
sg4131
F225
sg4660
F5
sg4661
F100
sg4662
S'Journalist001'
p4894
sg4663
F5
sg4664
F5
sg4665
S''
sg4666
S''
sg4667
S'TVPersonality001'
p4895
sg3566
g4889
sg4668
S'Journalist001'
p4896
sbsS'P-med-21'
p4897
g1
(g10
g3
NtRp4898
(dp4899
g4655
(lp4900
sg4657
(lp4901
sg3573
S''
sg4659
F80
sg4131
F300
sg4660
F7
sg4661
F100
sg4662
S'Politician001'
p4902
sg4663
F6
sg4664
F6
sg4665
S''
sg4666
S''
sg4667
S'President'
p4903
sg3566
g4897
sg4668
S'Politician001'
p4904
sbsS'P-med-22'
p4905
g1
(g10
g3
NtRp4906
(dp4907
g4655
(lp4908
sg4657
(lp4909
sg3573
S''
sg4659
F70
sg4131
F180
sg4660
F6
sg4661
F80
sg4662
S''
sg4663
F6
sg4664
S''
sg4665
S''
sg4666
S''
sg4667
S'DeepThroat'
p4910
sg3566
g4905
sg4668
S'DeepThroat'
p4911
sbsS'P-med-23'
p4912
g1
(g10
g3
NtRp4913
(dp4914
g4655
(lp4915
g1
(g4708
g3
NtRp4916
(dp4917
g4711
g3715
sg4712
I1
sbasg4657
(lp4918
sg3573
S''
sg4659
F80
sg4131
F400
sg4660
F7
sg4661
F100
sg4662
S'Politician001'
p4919
sg4663
F6
sg4664
F6
sg4665
F6
sg4666
S'Politician001'
p4920
sg4667
S'President'
p4921
sg3566
g4912
sg4668
S'Politician001'
p4922
sbsS'P-hard-06'
p4923
g1
(g10
g3
NtRp4924
(dp4925
g4655
(lp4926
sg4657
(lp4927
sg3573
S''
sg4659
F70
sg4131
F270
sg4660
F7
sg4661
F90
sg4662
S'Teacher001'
p4928
sg4663
F7
sg4664
F7
sg4665
S''
sg4666
S''
sg4667
S'Teacher001'
p4929
sg3566
g4923
sg4668
S'Teacher001'
p4930
sbsS'P-hard-07'
p4931
g1
(g10
g3
NtRp4932
(dp4933
g4655
(lp4934
g1
(g4708
g3
NtRp4935
(dp4936
g4711
g3829
sg4712
I1
sbasg4657
(lp4937
sg3573
S''
sg4659
F0
sg4131
F360
sg4660
F7
sg4661
F90
sg4662
S'Teacher001'
p4938
sg4663
F7
sg4664
F7
sg4665
F7
sg4666
S'Teacher001'
p4939
sg4667
S'Teacher001'
p4940
sg3566
g4931
sg4668
S'Teacher001'
p4941
sbsS'P-hard-04'
p4942
g1
(g10
g3
NtRp4943
(dp4944
g4655
(lp4945
sg4657
(lp4946
sg3573
S''
sg4659
F0
sg4131
F270
sg4660
F6
sg4661
F90
sg4662
S'WarVet001'
p4947
sg4663
F6
sg4664
F6
sg4665
S''
sg4666
S''
sg4667
S'WarVet001'
p4948
sg3566
g4942
sg4668
S'WarVet001'
p4949
sbsS'P-hard-05'
p4950
g1
(g10
g3
NtRp4951
(dp4952
g4655
(lp4953
sg4657
(lp4954
sg3573
S''
sg4659
F0
sg4131
F360
sg4660
F6
sg4661
F90
sg4662
S'WarVet001'
p4955
sg4663
F6
sg4664
F6
sg4665
F6
sg4666
S'WarVet001'
p4956
sg4667
S'WarVet001'
p4957
sg3566
g4950
sg4668
S'WarVet001'
p4958
sbsS'P-hard-02'
p4959
g1
(g10
g3
NtRp4960
(dp4961
g4655
(lp4962
sg4657
(lp4963
sg3573
S''
sg4659
F70
sg4131
F270
sg4660
F6
sg4661
F80
sg4662
S'Journalist001'
p4964
sg4663
F6
sg4664
F6
sg4665
S''
sg4666
S''
sg4667
S'TVPersonality001'
p4965
sg3566
g4959
sg4668
S'Journalist001'
p4966
sbsS'P-hard-03'
p4967
g1
(g10
g3
NtRp4968
(dp4969
g4655
(lp4970
g1
(g4708
g3
NtRp4971
(dp4972
g4711
g3715
sg4712
I1
sbasg4657
(lp4973
sg3573
S''
sg4659
F0
sg4131
F270
sg4660
F6
sg4661
F80
sg4662
S'Journalist001'
p4974
sg4663
F6
sg4664
F6
sg4665
S''
sg4666
S''
sg4667
S'Journalist001'
p4975
sg3566
g4967
sg4668
S'TVPersonality001'
p4976
sbsS'P-hard-01'
p4977
g1
(g10
g3
NtRp4978
(dp4979
g4655
(lp4980
sg4657
(lp4981
sg3573
S''
sg4659
F0
sg4131
F270
sg4660
F6
sg4661
F80
sg4662
S'Journalist001'
p4982
sg4663
F6
sg4664
F6
sg4665
S''
sg4666
S''
sg4667
S'Journalist001'
p4983
sg3566
g4977
sg4668
S'Journalist001'
p4984
sbsS'P-easy-10'
p4985
g1
(g10
g3
NtRp4986
(dp4987
g4655
(lp4988
sg4657
(lp4989
sg3573
S''
sg4659
F40
sg4131
F80
sg4660
F3
sg4661
F50
sg4662
S'Politician001'
p4990
sg4663
F2
sg4664
F3
sg4665
S''
sg4666
S''
sg4667
S'Mayor'
p4991
sg3566
g4985
sg4668
S'Politician001'
p4992
sbsS'P-med-19'
p4993
g1
(g10
g3
NtRp4994
(dp4995
g4655
(lp4996
g1
(g4708
g3
NtRp4997
(dp4998
g4711
g3829
sg4712
I1
sbasg4657
(lp4999
sg3573
S''
sg4659
F80
sg4131
F150
sg4660
F5
sg4661
F100
sg4662
S''
sg4663
F5
sg4664
S''
sg4665
S''
sg4666
S''
sg4667
S'DeepThroat'
p5000
sg3566
g4993
sg4668
S'DeepThroat'
p5001
sbsS'P-med-18'
p5002
g1
(g10
g3
NtRp5003
(dp5004
g4655
(lp5005
sg4657
(lp5006
sg3573
S''
sg4659
F70
sg4131
F300
sg4660
F5
sg4661
F60
sg4662
S'ReligiousNut001'
p5007
sg4663
F5
sg4664
F5
sg4665
F5
sg4666
S'ReligiousNut001'
p5008
sg4667
S'Constituent001'
p5009
sg3566
g5002
sg4668
S'HippyGirl001'
p5010
sbsS'P-med-15'
p5011
g1
(g10
g3
NtRp5012
(dp5013
g4655
(lp5014
g1
(g4708
g3
NtRp5015
(dp5016
g4711
g3829
sg4712
I1
sbasg4657
(lp5017
sg3573
S''
sg4659
F0
sg4131
F180
sg4660
F6
sg4661
F60
sg4662
S''
sg4663
F5
sg4664
S''
sg4665
S''
sg4666
S''
sg4667
S'ReligiousNut001'
p5018
sg3566
g5011
sg4668
S'ReligiousNut001'
p5019
sbsS'P-med-14'
p5020
g1
(g10
g3
NtRp5021
(dp5022
g4655
(lp5023
sg4657
(lp5024
sg3573
S''
sg4659
F0
sg4131
F240
sg4660
F4
sg4661
F60
sg4662
S'Constituent001'
p5025
sg4663
F4
sg4664
F4
sg4665
F5
sg4666
S'Lobbyist001'
p5026
sg4667
S'Lobbyist001'
p5027
sg3566
g5020
sg4668
S'Constituent001'
p5028
sbsS'P-med-17'
p5029
g1
(g10
g3
NtRp5030
(dp5031
g4655
(lp5032
sg4657
(lp5033
sg3573
S''
sg4659
F70
sg4131
F225
sg4660
F5
sg4661
F60
sg4662
S'ReligiousNut001'
p5034
sg4663
F5
sg4664
F5
sg4665
S''
sg4666
S''
sg4667
S'HippyGirl001'
p5035
sg3566
g5029
sg4668
S'ReligiousNut001'
p5036
sbsS'P-med-16'
p5037
g1
(g10
g3
NtRp5038
(dp5039
g4655
(lp5040
sg4657
(lp5041
sg3573
S''
sg4659
F0
sg4131
F225
sg4660
F5
sg4661
F60
sg4662
S'HippyGirl001'
p5042
sg4663
F5
sg4664
F5
sg4665
S''
sg4666
S''
sg4667
S'ReligiousNut001'
p5043
sg3566
g5037
sg4668
S'ReligiousNut001'
p5044
sbsS'P-med-11'
p5045
g1
(g10
g3
NtRp5046
(dp5047
g4655
(lp5048
g1
(g4708
g3
NtRp5049
(dp5050
g4711
g3963
sg4712
I1
sbasg4657
(lp5051
sg3573
S''
sg4659
F0
sg4131
F240
sg4660
F4
sg4661
F60
sg4662
S'Constituent001'
p5052
sg4663
F4
sg4664
F4
sg4665
F5
sg4666
S'Politician001'
p5053
sg4667
S'Politician001'
p5054
sg3566
g5045
sg4668
S'Constituent001'
p5055
sbsS'P-med-10'
p5056
g1
(g10
g3
NtRp5057
(dp5058
g4655
(lp5059
sg4657
(lp5060
sg3573
S''
sg4659
F0
sg4131
F180
sg4660
F4
sg4661
F60
sg4662
S'ReligiousNut001'
p5061
sg4663
F4
sg4664
F4
sg4665
S''
sg4666
S''
sg4667
S'Politician001'
p5062
sg3566
g5056
sg4668
S'Politician001'
p5063
sbsS'P-med-13'
p5064
g1
(g10
g3
NtRp5065
(dp5066
g4655
(lp5067
sg4657
(lp5068
sg3573
S''
sg4659
F50
sg4131
F180
sg4660
F4
sg4661
F60
sg4662
S'Lobbyist001'
p5069
sg4663
F4
sg4664
F4
sg4665
S''
sg4666
S''
sg4667
S'Constituent001'
p5070
sg3566
g5064
sg4668
S'Lobbyist001'
p5071
sbsS'P-med-12'
p5072
g1
(g10
g3
NtRp5073
(dp5074
g4655
(lp5075
sg4657
(lp5076
sg3573
S''
sg4659
F0
sg4131
F180
sg4660
F4
sg4661
F60
sg4662
S'Lobbyist001'
p5077
sg4663
F4
sg4664
F4
sg4665
S''
sg4666
S''
sg4667
S'Lobbyist001'
p5078
sg3566
g5072
sg4668
S'HippyGirl001'
p5079
sbssb.