ccopy_reg
_reconstructor
p1
(c__main__
GameData
p2
c__builtin__
object
p3
NtRp4
(dp5
S'script'
p6
(dp7
S'#----------------------------------------------------------------------------------------ACT 3 ----------------------------------------------------------------------------------------------------------------------------------------------------------------------------------------'
p8
(lp9
g1
(c__main__
TableRow
p10
g3
NtRp11
(dp12
S'action'
p13
S''
sS'trigger'
p14
g8
sS'param'
p15
S''
sS'dialog'
p16
S''
sbasS'Hick1'
p17
(lp18
g1
(g10
g3
NtRp19
(dp20
g13
S'RequireFlag'
p21
sg14
g17
sg15
S'STARTHICKS'
p22
sg16
S"Look at this guy's fancy tie!"
p23
sbag1
(g10
g3
NtRp24
(dp25
g13
S'PlayerSay'
p26
sg14
S'Hick1'
p27
sg15
S''
sg16
S'What brings you to the office of the governor?'
p28
sbag1
(g10
g3
NtRp29
(dp30
g13
S'Say'
p31
sg14
S'Hick1'
p32
sg15
S''
sg16
S'The immigrants!'
p33
sbag1
(g10
g3
NtRp34
(dp35
g13
S'PlayerSay'
p36
sg14
S'Hick1'
p37
sg15
S''
sg16
S'What happened?'
p38
sbag1
(g10
g3
NtRp39
(dp40
g13
S'Say'
p41
sg14
S'Hick1'
p42
sg15
S'Hick2'
p43
sg16
S"They're coming!"
p44
sbag1
(g10
g3
NtRp45
(dp46
g13
S'PlayerSay'
p47
sg14
S'Hick1'
p48
sg15
S''
sg16
S'The...immigrants are coming?'
p49
sbag1
(g10
g3
NtRp50
(dp51
g13
S'Say'
p52
sg14
S'Hick1'
p53
sg15
S'Hick2'
p54
sg16
S'Yes, to steal our jobs and our wives!'
p55
sbag1
(g10
g3
NtRp56
(dp57
g13
S'Say'
p58
sg14
S'Hick1'
p59
sg15
S''
sg16
S'They have to be stopped!'
p60
sbag1
(g10
g3
NtRp61
(dp62
g13
S'PlayerSay'
p63
sg14
S'Hick1'
p64
sg15
S''
sg16
S"I don't think the immigrants are coming to steal your wives..."
p65
sbag1
(g10
g3
NtRp66
(dp67
g13
S'Say'
p68
sg14
S'Hick1'
p69
sg15
S'Journalist2'
p70
sg16
S'Mayor Mossman sides with the immigrants! I need to get this to print!'
p71
sbag1
(g10
g3
NtRp72
(dp73
g13
S'PlayerSay'
p74
sg14
S'Hick1'
p75
sg15
S''
sg16
S'Wait a second, let me explain.'
p76
sbag1
(g10
g3
NtRp77
(dp78
g13
S'Encounter'
p79
sg14
S'Hick1'
p80
sg15
S'P-med-03'
p81
sg16
S''
sbag1
(g10
g3
NtRp82
(dp83
g13
S'Say'
p84
sg14
S'Hick1'
p85
sg15
S''
sg16
S"You're a smart guy. I think I can trust you."
p86
sbag1
(g10
g3
NtRp87
(dp88
g13
S'SetFlag'
p89
sg14
S'Hick1'
p90
sg15
S'STARTHICKS2'
p91
sg16
S''
sbag1
(g10
g3
NtRp92
(dp93
g13
S'Increment'
p94
sg14
S'Hick1'
p95
sg15
S'DEALWITHHICKS'
p96
sg16
S''
sbag1
(g10
g3
NtRp97
(dp98
g13
S'Destroy'
p99
sg14
S'Hick1'
p100
sg15
S''
sg16
S''
sbasS'Hick2'
p101
(lp102
g1
(g10
g3
NtRp103
(dp104
g13
S'RequireFlag'
p105
sg14
g101
sg15
S'STARTHICKS2'
p106
sg16
S"Aw....I'm shy...talk to my buddy..."
p107
sbag1
(g10
g3
NtRp108
(dp109
g13
S'Encounter'
p110
sg14
S'Hick2'
p111
sg15
S'P-med-04'
p112
sg16
S''
sbag1
(g10
g3
NtRp113
(dp114
g13
S'Say'
p115
sg14
S'Hick2'
p116
sg15
S''
sg16
S"Wowee. We've been waiting for days and the governor has ignored us. If you ever run for governor, you'll have my vote!"
p117
sbag1
(g10
g3
NtRp118
(dp119
g13
S'Increment'
p120
sg14
S'Hick2'
p121
sg15
S'DEALWITHHICKS'
p122
sg16
S''
sbag1
(g10
g3
NtRp123
(dp124
g13
S'Destroy'
p125
sg14
S'Hick2'
p126
sg15
S''
sg16
S''
sbasS'Politician7'
p127
(lp128
g1
(g10
g3
NtRp129
(dp130
g13
S'RequireFlag'
p131
sg14
g127
sg15
S'STARTPOLITICIANSHAKEDOWN'
p132
sg16
S'Good morning, Governor Mossman. Your PA will know your schedule. He is waiting in your room.'
p133
sbag1
(g10
g3
NtRp134
(dp135
g13
S'Say'
p136
sg14
S'Politician7'
p137
sg15
S''
sg16
S"I believe in captialism. Let business sort itself out. They shouldn't need to rely on government handouts."
p138
sbag1
(g10
g3
NtRp139
(dp140
g13
S'Say'
p141
sg14
S'Politician7'
p142
sg15
S''
sg16
S'Also, I think politicians need a raise. Some more than others...oh and life-long retainers.'
p143
sbag1
(g10
g3
NtRp144
(dp145
g13
S'PlayerSay'
p146
sg14
S'Politician7'
p147
sg15
S''
sg16
S'So, no more hand-outs for business but more handouts for politicians?'
p148
sbag1
(g10
g3
NtRp149
(dp150
g13
S'Say'
p151
sg14
S'Politician7'
p152
sg15
S''
sg16
S'Yes!'
p153
sbag1
(g10
g3
NtRp154
(dp155
g13
S'PlayerSay'
p156
sg14
S'Politician7'
p157
sg15
S''
sg16
S'Does that serve your constituents?'
p158
sbag1
(g10
g3
NtRp159
(dp160
g13
S'Say'
p161
sg14
S'Politician7'
p162
sg15
S''
sg16
S'...It serves...some...'
p163
sbag1
(g10
g3
NtRp164
(dp165
g13
S'Encounter'
p166
sg14
S'Politician7'
p167
sg15
S'P-med-11'
p168
sg16
S''
sbag1
(g10
g3
NtRp169
(dp170
g13
S'Say'
p171
sg14
S'Politician7'
p172
sg15
S''
sg16
S'Right, I guess we need to handle the needs of our constituents, too.'
p173
sbag1
(g10
g3
NtRp174
(dp175
g13
S'Increment'
p176
sg14
S'Politician7'
p177
sg15
S'POLITICIANSHAKEDOWN'
p178
sg16
S''
sbag1
(g10
g3
NtRp179
(dp180
g13
S'Destroy'
p181
sg14
S'Politician7'
p182
sg15
S''
sg16
S''
sbasS'TVDebate'
p183
(lp184
g1
(g10
g3
NtRp185
(dp186
g13
S'RequireFlag'
p187
sg14
g183
sg15
S'STARTDEBATE'
p188
sg16
S"Hmmm? Oh, sorry, I'm on the phone to the studio."
p189
sbag1
(g10
g3
NtRp190
(dp191
g13
S'Say'
p192
sg14
S'TVDebate'
p193
sg15
S''
sg16
S"Good evening, Governor Mossman. If you'll follow me, I'll take you to the studio."
p194
sbag1
(g10
g3
NtRp195
(dp196
g13
S'Encounter'
p197
sg14
S'TVDebate'
p198
sg15
S'P-med-21'
p199
sg16
S''
sbag1
(g10
g3
NtRp200
(dp201
g13
S'Say'
p202
sg14
S'TVDebate'
p203
sg15
S''
sg16
S'Great work tonight, Governor Mossman and congratulations on the win!'
p204
sbag1
(g10
g3
NtRp205
(dp206
g13
S'SetFlag'
p207
sg14
S'TVDebate'
p208
sg15
S'DEBATECOMPLETE'
p209
sg16
S''
sbag1
(g10
g3
NtRp210
(dp211
g13
S'Destroy'
p212
sg14
S'TVDebate'
p213
sg15
S''
sg16
S''
sbasS'Lobbyist2'
p214
(lp215
g1
(g10
g3
NtRp216
(dp217
g13
S'RequireFlag'
p218
sg14
g214
sg15
S'STARTLOBBYISTS'
p219
sg16
S'Humph'
p220
sbag1
(g10
g3
NtRp221
(dp222
g13
S'Say'
p223
sg14
S'Lobbyist2'
p224
sg15
S''
sg16
S'I represent the Python Software Foundation. What will you do to promote, protect and advance the Python programming language.'
p225
sbag1
(g10
g3
NtRp226
(dp227
g13
S'PlayerSay'
p228
sg14
S'Lobbyist2'
p229
sg15
S''
sg16
S"Ah yes, the Python cause! I'm a big advocate of Python."
p230
sbag1
(g10
g3
NtRp231
(dp232
g13
S'Encounter'
p233
sg14
S'Lobbyist2'
p234
sg15
S'P-med-12'
p235
sg16
S''
sbag1
(g10
g3
NtRp236
(dp237
g13
S'Increment'
p238
sg14
S'Lobbyist2'
p239
sg15
S'LOBBYISTS'
p240
sg16
S''
sbag1
(g10
g3
NtRp241
(dp242
g13
S'Say'
p243
sg14
S'Lobbyist2'
p244
sg15
S''
sg16
S'I think we can help each other out.'
p245
sbag1
(g10
g3
NtRp246
(dp247
g13
S'Destroy'
p248
sg14
S'Lobbyist2'
p249
sg15
S''
sg16
S''
sbasS'CheatAct2'
p250
(lp251
g1
(g10
g3
NtRp252
(dp253
g13
S'AddAlly'
p254
sg14
g250
sg15
S'Wife:1'
p255
sg16
S''
sbag1
(g10
g3
NtRp256
(dp257
g13
S'LearnAttack'
p258
sg14
S'CheatAct2'
p259
sg15
S'BRIBE'
p260
sg16
S''
sbag1
(g10
g3
NtRp261
(dp262
g13
S'LearnAttack'
p263
sg14
S'CheatAct2'
p264
sg15
S'Wife:BRIBE'
p265
sg16
S''
sbag1
(g10
g3
NtRp266
(dp267
g13
S'LearnAttack'
p268
sg14
S'CheatAct2'
p269
sg15
S'SLANDER'
p270
sg16
S''
sbag1
(g10
g3
NtRp271
(dp272
g13
S'GotoMap'
p273
sg14
S'CheatAct2'
p274
sg15
S'act2'
p275
sg16
S''
sbasS'CheatAct3'
p276
(lp277
g1
(g10
g3
NtRp278
(dp279
g13
S'AddAlly'
p280
sg14
g276
sg15
S'Wife:1'
p281
sg16
S''
sbag1
(g10
g3
NtRp282
(dp283
g13
S'LearnAttack'
p284
sg14
S'CheatAct3'
p285
sg15
S'BRIBE'
p286
sg16
S''
sbag1
(g10
g3
NtRp287
(dp288
g13
S'LearnAttack'
p289
sg14
S'CheatAct3'
p290
sg15
S'Wife:BRIBE'
p291
sg16
S''
sbag1
(g10
g3
NtRp292
(dp293
g13
S'LearnAttack'
p294
sg14
S'CheatAct3'
p295
sg15
S'SLANDER'
p296
sg16
S''
sbag1
(g10
g3
NtRp297
(dp298
g13
S'AddAlly'
p299
sg14
S'CheatAct3'
p300
sg15
S'Leo:1'
p301
sg16
S''
sbag1
(g10
g3
NtRp302
(dp303
g13
S'GotoMap'
p304
sg14
S'CheatAct3'
p305
sg15
S'act3'
p306
sg16
S''
sbasS'WarVet2'
p307
(lp308
g1
(g10
g3
NtRp309
(dp310
g13
S'RequireFlag'
p311
sg14
g307
sg15
S'AFTERWILFRED'
p312
sg16
S'Eh? Speak up, boy.'
p313
sbag1
(g10
g3
NtRp314
(dp315
g13
S'Encounter'
p316
sg14
S'WarVet2'
p317
sg15
S'P-hard-05'
p318
sg16
S''
sbag1
(g10
g3
NtRp319
(dp320
g13
S'Say'
p321
sg14
S'WarVet2'
p322
sg15
S''
sg16
S"We'll head home, but you can expect us back if we see anything else suspicious ."
p323
sbag1
(g10
g3
NtRp324
(dp325
g13
S'Increment'
p326
sg14
S'WarVet2'
p327
sg15
S'WARVETS'
p328
sg16
S''
sbag1
(g10
g3
NtRp329
(dp330
g13
S'Destroy'
p331
sg14
S'WarVet2'
p332
sg15
S''
sg16
S''
sbasS'WarVet1'
p333
(lp334
g1
(g10
g3
NtRp335
(dp336
g13
S'Say'
p337
sg14
g333
sg15
S''
sg16
S"You think you can fool me? I wasn't born yesterday, you know."
p338
sbag1
(g10
g3
NtRp339
(dp340
g13
S'PlayerSay'
p341
sg14
S'WarVet1'
p342
sg15
S''
sg16
S"I'm sorry, sir, but what seems to be the problem."
p343
sbag1
(g10
g3
NtRp344
(dp345
g13
S'Say'
p346
sg14
S'WarVet1'
p347
sg15
S''
sg16
S"You think I don't know a mobilising army when I see one? You're clearly readying for war and you think you don't even need to mention it to the people."
p348
sbag1
(g10
g3
NtRp349
(dp350
g13
S'Say'
p351
sg14
S'WarVet1'
p352
sg15
S'WarVet2'
p353
sg16
S"And don't forget that he's barely a cadet, Wilfred."
p354
sbag1
(g10
g3
NtRp355
(dp356
g13
S'Say'
p357
sg14
S'WarVet1'
p358
sg15
S''
sg16
S"Right you are, Arnold, You've barely set foot in this building and you're already leading us to war. Who do you think you're dealing with? We won't stand."
p359
sbag1
(g10
g3
NtRp360
(dp361
g13
S'Encounter'
p362
sg14
S'WarVet1'
p363
sg15
S'P-hard-04'
p364
sg16
S''
sbag1
(g10
g3
NtRp365
(dp366
g13
S'Say'
p367
sg14
S'WarVet1'
p368
sg15
S''
sg16
S"Seems like a flimsy excuse, you didn't know. Better get your troops in line if you want 'em to march, boy."
p369
sbag1
(g10
g3
NtRp370
(dp371
g13
S'Increment'
p372
sg14
S'WarVet1'
p373
sg15
S'WARVETS'
p374
sg16
S''
sbag1
(g10
g3
NtRp375
(dp376
g13
S'SetFlag'
p377
sg14
S'WarVet1'
p378
sg15
S'AFTERWILFRED'
p379
sg16
S''
sbag1
(g10
g3
NtRp380
(dp381
g13
S'Destroy'
p382
sg14
S'WarVet1'
p383
sg15
S''
sg16
S''
sbasS'Kawalski'
p384
(lp385
g1
(g10
g3
NtRp386
(dp387
g13
S'Say'
p388
sg14
g384
sg15
S''
sg16
S'A pleasure to meet you, President Mossman. I am Agent Kawalski, your security detail.'
p389
sbag1
(g10
g3
NtRp390
(dp391
g13
S'PlayerSay'
p392
sg14
S'Kawalski'
p393
sg15
S''
sg16
S'Great to meet you, Agent Kawalski. What do I need to know?'
p394
sbag1
(g10
g3
NtRp395
(dp396
g13
S'Say'
p397
sg14
S'Kawalski'
p398
sg15
S''
sg16
S'Well actually, it does have to do with your security. Something terrible is happening at the White House.'
p399
sbag1
(g10
g3
NtRp400
(dp401
g13
S'PlayerSay'
p402
sg14
S'Kawalski'
p403
sg15
S''
sg16
S"If you're trying to warn me about the aliens, it's under control."
p404
sbag1
(g10
g3
NtRp405
(dp406
g13
S'Say'
p407
sg14
S'Kawalski'
p408
sg15
S''
sg16
S'No, no, this is different. I think somebody is trying to take over the White House.'
p409
sbag1
(g10
g3
NtRp410
(dp411
g13
S'PlayerSay'
p412
sg14
S'Kawalski'
p413
sg15
S''
sg16
S"Wouldn't we know?"
p414
sbag1
(g10
g3
NtRp415
(dp416
g13
S'Say'
p417
sg14
S'Kawalski'
p418
sg15
S''
sg16
S"It's too early for those kind of details. I just want you to keep your eyes open, Mr President."
p419
sbag1
(g10
g3
NtRp420
(dp421
g13
S'PlayerSay'
p422
sg14
S'Kawalski'
p423
sg15
S''
sg16
S'No problem.'
p424
sbag1
(g10
g3
NtRp425
(dp426
g13
S'Destroy'
p427
sg14
S'Kawalski'
p428
sg15
S''
sg16
S''
sbag1
(g10
g3
NtRp429
(dp430
g13
S'AddAlly'
p431
sg14
S'Kawalski'
p432
sg15
S'SecretAgent:1'
p433
sg16
S'Kawalski joins your political party!'
p434
sbag1
(g10
g3
NtRp435
(dp436
g13
S'SetFlag'
p437
sg14
S'Kawalski'
p438
sg15
S'KAWALSKIJOIN'
p439
sg16
S''
sbasS'Theo'
p440
(lp441
g1
(g10
g3
NtRp442
(dp443
g13
S'RequireFlag'
p444
sg14
g440
sg15
S'GOVERNORDEFEATED'
p445
sg16
S'The Governor is in the north wing.'
p446
sbag1
(g10
g3
NtRp447
(dp448
g13
S'Say'
p449
sg14
S'Theo'
p450
sg15
S''
sg16
S"You must be Governor Mossman. I am Theo. I've been looking for you, but I wanted to see how you handled Governor Badden"
p451
sbag1
(g10
g3
NtRp452
(dp453
g13
S'PlayerSay'
p454
sg14
S'Theo'
p455
sg15
S''
sg16
S'Hi Theo. Why have you been looking for me?'
p456
sbag1
(g10
g3
NtRp457
(dp458
g13
S'Say'
p459
sg14
S'Theo'
p460
sg15
S''
sg16
S"There's a lot going on in Ignited States politics and none of it is good. Somebody needs to get up there and find out what's going on."
p461
sbag1
(g10
g3
NtRp462
(dp463
g13
S'Say'
p464
sg14
S'Theo'
p465
sg15
S''
sg16
S"I couldn't be sure which side you were on, but your dealings with the Governor prove that you're not with them."
p466
sbag1
(g10
g3
NtRp467
(dp468
g13
S'PlayerSay'
p469
sg14
S'Theo'
p470
sg15
S''
sg16
S'It sounds like it goes all the way to the President of the Ignited States.'
p471
sbag1
(g10
g3
NtRp472
(dp473
g13
S'Say'
p474
sg14
S'Theo'
p475
sg15
S''
sg16
S"It does. That's why I've been looking for you. The only way to find out is to flush them out. There's only one way to flush out President Allen."
p476
sbag1
(g10
g3
NtRp477
(dp478
g13
S'PlayerSay'
p479
sg14
S'Theo'
p480
sg15
S''
sg16
S"How's that?"
p481
sbag1
(g10
g3
NtRp482
(dp483
g13
S'Say'
p484
sg14
S'Theo'
p485
sg15
S''
sg16
S"...I've been a campaign manager for 20 years and I've never seen a candidate as strong as you. I think you have what it takes to run for the presidency."
p486
sbag1
(g10
g3
NtRp487
(dp488
g13
S'Say'
p489
sg14
S'Theo'
p490
sg15
S''
sg16
S"That's why I was looking for you. I need somebody who has a shot at winning in order to get to President Allen. You have that shot."
p491
sbag1
(g10
g3
NtRp492
(dp493
g13
S'PlayerSay'
p494
sg14
S'Theo'
p495
sg15
S''
sg16
S"You really think I can win? Well...I want to follow this through to the end, so I'm in!"
p496
sbag1
(g10
g3
NtRp497
(dp498
g13
S'Say'
p499
sg14
S'Theo'
p500
sg15
S''
sg16
S"Great! There's a lot to get organised! We need to plan our election campaign!"
p501
sbag1
(g10
g3
NtRp502
(dp503
g13
S'Destroy'
p504
sg14
S'Theo'
p505
sg15
S''
sg16
S''
sbag1
(g10
g3
NtRp506
(dp507
g13
S'AddAlly'
p508
sg14
S'Theo'
p509
sg15
S'Leo:1'
p510
sg16
S''
sbag1
(g10
g3
NtRp511
(dp512
g13
S'Message'
p513
sg14
S'Theo'
p514
sg15
S''
sg16
S'Theo joins your political party!'
p515
sbasS'Religious4'
p516
(lp517
g1
(g10
g3
NtRp518
(dp519
g13
S'Say'
p520
sg14
g516
sg15
S''
sg16
S'Do not be swayed by the seductive powers of tea!'
p521
sbag1
(g10
g3
NtRp522
(dp523
g13
S'Encounter'
p524
sg14
S'Religious4'
p525
sg15
S'P-med-18'
p526
sg16
S''
sbag1
(g10
g3
NtRp527
(dp528
g13
S'Increment'
p529
sg14
S'Religious4'
p530
sg15
S'RELIGIOUSNUTS'
p531
sg16
S''
sbag1
(g10
g3
NtRp532
(dp533
g13
S'Say'
p534
sg14
S'Religious4'
p535
sg15
S''
sg16
S'The Battycan will be satisfied with this news.'
p536
sbag1
(g10
g3
NtRp537
(dp538
g13
S'Destroy'
p539
sg14
S'Religious4'
p540
sg15
S''
sg16
S''
sbasS'Religious1'
p541
(lp542
g1
(g10
g3
NtRp543
(dp544
g13
S'Say'
p545
sg14
g541
sg15
S''
sg16
S'Have you had your morning prayer?'
p546
sbag1
(g10
g3
NtRp547
(dp548
g13
S'Encounter'
p549
sg14
S'Religious1'
p550
sg15
S'P-med-16'
p551
sg16
S''
sbag1
(g10
g3
NtRp552
(dp553
g13
S'Increment'
p554
sg14
S'Religious1'
p555
sg15
S'RELIGIOUSNUTS'
p556
sg16
S''
sbag1
(g10
g3
NtRp557
(dp558
g13
S'Say'
p559
sg14
S'Religious1'
p560
sg15
S''
sg16
S'Some people pray upwards of 5 times a day, but this can cause hallucinations.'
p561
sbag1
(g10
g3
NtRp562
(dp563
g13
S'Destroy'
p564
sg14
S'Religious1'
p565
sg15
S''
sg16
S''
sbasS'Religious3'
p566
(lp567
g1
(g10
g3
NtRp568
(dp569
g13
S'Say'
p570
sg14
g566
sg15
S''
sg16
S'Mmmmmm...Coffee....ommmmm'
p571
sbag1
(g10
g3
NtRp572
(dp573
g13
S'Encounter'
p574
sg14
S'Religious3'
p575
sg15
S'P-med-17'
p576
sg16
S''
sbag1
(g10
g3
NtRp577
(dp578
g13
S'Increment'
p579
sg14
S'Religious3'
p580
sg15
S'RELIGIOUSNUTS'
p581
sg16
S''
sbag1
(g10
g3
NtRp582
(dp583
g13
S'Say'
p584
sg14
S'Religious3'
p585
sg15
S''
sg16
S'I must return to my meditation.'
p586
sbag1
(g10
g3
NtRp587
(dp588
g13
S'Destroy'
p589
sg14
S'Religious3'
p590
sg15
S''
sg16
S''
sbasS'Religious2'
p591
(lp592
g1
(g10
g3
NtRp593
(dp594
g13
S'Say'
p595
sg14
g591
sg15
S''
sg16
S'Welcome, my child. We have travelled here from Battycan City to be assured you are a man of faith before we endorse you.'
p596
sbag1
(g10
g3
NtRp597
(dp598
g13
S'PlayerSay'
p599
sg14
S'Religious2'
p600
sg15
S''
sg16
S'Er, what faith is that?'
p601
sbag1
(g10
g3
NtRp602
(dp603
g13
S'Say'
p604
sg14
S'Religious2'
p605
sg15
S''
sg16
S'Why, the one true god: Coffee.'
p606
sbag1
(g10
g3
NtRp607
(dp608
g13
S'PlayerSay'
p609
sg14
S'Religious2'
p610
sg15
S''
sg16
S'...Coffee?'
p611
sbag1
(g10
g3
NtRp612
(dp613
g13
S'Say'
p614
sg14
S'Religious2'
p615
sg15
S''
sg16
S"Yes of course. He who lifts you up when you're feeling low, who is your inspiration in the dark and who can achieve miraculous feats of effort with dedicated prayer."
p616
sbag1
(g10
g3
NtRp617
(dp618
g13
S'PlayerSay'
p619
sg14
S'Religious2'
p620
sg15
S''
sg16
S'This may be a religion I can get behind.'
p621
sbag1
(g10
g3
NtRp622
(dp623
g13
S'Encounter'
p624
sg14
S'Religious2'
p625
sg15
S'P-med-15'
p626
sg16
S''
sbag1
(g10
g3
NtRp627
(dp628
g13
S'Increment'
p629
sg14
S'Religious2'
p630
sg15
S'RELIGIOUSNUTS'
p631
sg16
S''
sbag1
(g10
g3
NtRp632
(dp633
g13
S'Say'
p634
sg14
S'Religious2'
p635
sg15
S''
sg16
S'Wonderful, the Battycan will be most pleased.'
p636
sbag1
(g10
g3
NtRp637
(dp638
g13
S'Destroy'
p639
sg14
S'Religious2'
p640
sg15
S''
sg16
S''
sbasS'Constituent2'
p641
(lp642
g1
(g10
g3
NtRp643
(dp644
g13
S'RequireFlag'
p645
sg14
g641
sg15
S'STARTCONSTITUENTS'
p646
sg16
S'What?'
p647
sbag1
(g10
g3
NtRp648
(dp649
g13
S'PlayerSay'
p650
sg14
S'Constituent2'
p651
sg15
S''
sg16
S'Vote Phillip Mossman for Mayor!'
p652
sbag1
(g10
g3
NtRp653
(dp654
g13
S'Say'
p655
sg14
S'Constituent2'
p656
sg15
S''
sg16
S'But Mayor Goodman has always taken care of me.'
p657
sbag1
(g10
g3
NtRp658
(dp659
g13
S'Encounter'
p660
sg14
S'Constituent2'
p661
sg15
S'P-easy-08'
p662
sg16
S''
sbag1
(g10
g3
NtRp663
(dp664
g13
S'Say'
p665
sg14
S'Constituent2'
p666
sg15
S''
sg16
S"I think it's time for a change!"
p667
sbag1
(g10
g3
NtRp668
(dp669
g13
S'Destroy'
p670
sg14
S'Constituent2'
p671
sg15
S''
sg16
S''
sbasS'Constituent3'
p672
(lp673
g1
(g10
g3
NtRp674
(dp675
g13
S'RequireFlag'
p676
sg14
g672
sg15
S'STARTCONSTITUENTS'
p677
sg16
S'What?'
p678
sbag1
(g10
g3
NtRp679
(dp680
g13
S'PlayerSay'
p681
sg14
S'Constituent3'
p682
sg15
S''
sg16
S'Vote Phillip Mossman for Mayor!'
p683
sbag1
(g10
g3
NtRp684
(dp685
g13
S'Say'
p686
sg14
S'Constituent3'
p687
sg15
S''
sg16
S'But Mayor Goodman has always taken care of me.'
p688
sbag1
(g10
g3
NtRp689
(dp690
g13
S'Encounter'
p691
sg14
S'Constituent3'
p692
sg15
S'P-easy-09'
p693
sg16
S''
sbag1
(g10
g3
NtRp694
(dp695
g13
S'Say'
p696
sg14
S'Constituent3'
p697
sg15
S''
sg16
S"I think it's time for a change!"
p698
sbag1
(g10
g3
NtRp699
(dp700
g13
S'PlayerSay'
p701
sg14
S'Constituent3'
p702
sg15
S''
sg16
S"I think I'm ready to take on Mayor Goodman now!"
p703
sbag1
(g10
g3
NtRp704
(dp705
g13
S'SetFlag'
p706
sg14
S'Constituent3'
p707
sg15
S'CONSTITUENTSWON'
p708
sg16
S''
sbag1
(g10
g3
NtRp709
(dp710
g13
S'Destroy'
p711
sg14
S'Constituent3'
p712
sg15
S''
sg16
S''
sbasS'DeepThroat'
p713
(lp714
g1
(g10
g3
NtRp715
(dp716
g13
S'Say'
p717
sg14
g713
sg15
S''
sg16
S'Finally, I thought you were going to be too late.'
p718
sbag1
(g10
g3
NtRp719
(dp720
g13
S'PlayerSay'
p721
sg14
S'DeepThroat'
p722
sg15
S''
sg16
S'What can I do for you Mr er...?'
p723
sbag1
(g10
g3
NtRp724
(dp725
g13
S'Say'
p726
sg14
S'DeepThroat'
p727
sg15
S''
sg16
S"No names! I have something I think you'll be interested in, but I'm not sure you can be trusted."
p728
sbag1
(g10
g3
NtRp729
(dp730
g13
S'PlayerSay'
p731
sg14
S'DeepThroat'
p732
sg15
S''
sg16
S"Look, Mr Er...I'm very busy, what is this about."
p733
sbag1
(g10
g3
NtRp734
(dp735
g13
S'Say'
p736
sg14
S'DeepThroat'
p737
sg15
S''
sg16
S"It's about the President, it's about national security, but I've got a bad feeling and I'm getting out of here."
p738
sbag1
(g10
g3
NtRp739
(dp740
g13
S'PlayerSay'
p741
sg14
S'DeepThroat'
p742
sg15
S''
sg16
S'No, wait!'
p743
sbag1
(g10
g3
NtRp744
(dp745
g13
S'Encounter'
p746
sg14
S'DeepThroat'
p747
sg15
S'P-med-19'
p748
sg16
S''
sbag1
(g10
g3
NtRp749
(dp750
g13
S'Say'
p751
sg14
S'DeepThroat'
p752
sg15
S''
sg16
S"You're right, I have every reason to trust you. I've found this Incriminating Evidence."
p753
sbag1
(g10
g3
NtRp754
(dp755
g13
S'GiveItem'
p756
sg14
S'DeepThroat'
p757
sg15
S'INCRIMINATINGEVIDENCE'
p758
sg16
S'You receive Incriminating Evidence'
p759
sbag1
(g10
g3
NtRp760
(dp761
g13
S'PlayerSay'
p762
sg14
S'DeepThroat'
p763
sg15
S''
sg16
S'This has to be stopped!'
p764
sbag1
(g10
g3
NtRp765
(dp766
g13
S'Say'
p767
sg14
S'DeepThroat'
p768
sg15
S''
sg16
S"Yes, but not by me. I've given you all I've got, now get out."
p769
sbag1
(g10
g3
NtRp770
(dp771
g13
S'RequireFlag'
p772
sg14
S'DeepThroat'
p773
sg15
S'DEEPTHROAT2'
p774
sg16
S'I said get out!'
p775
sbag1
(g10
g3
NtRp776
(dp777
g13
S'Say'
p778
sg14
S'DeepThroat'
p779
sg15
S''
sg16
S"It's a lot worse than I thought. I have more to tell you, but I don't think I should trust you. I think there's a leak in your operation somewhere."
p780
sbag1
(g10
g3
NtRp781
(dp782
g13
S'PlayerSay'
p783
sg14
S'DeepThroat'
p784
sg15
S''
sg16
S'Why do you say that?'
p785
sbag1
(g10
g3
NtRp786
(dp787
g13
S'Say'
p788
sg14
S'DeepThroat'
p789
sg15
S''
sg16
S'There was a lot of heat on me after we last spoke.'
p790
sbag1
(g10
g3
NtRp791
(dp792
g13
S'PlayerSay'
p793
sg14
S'DeepThroat'
p794
sg15
S''
sg16
S"It's getting close to the final election. It could just be that they're getting skittish."
p795
sbag1
(g10
g3
NtRp796
(dp797
g13
S'Say'
p798
sg14
S'DeepThroat'
p799
sg15
S''
sg16
S"I'm not so sure..."
p800
sbag1
(g10
g3
NtRp801
(dp802
g13
S'Encounter'
p803
sg14
S'DeepThroat'
p804
sg15
S'P-med-22'
p805
sg16
S''
sbag1
(g10
g3
NtRp806
(dp807
g13
S'Say'
p808
sg14
S'DeepThroat'
p809
sg15
S''
sg16
S"You're right, I'm just edgy. Look, I think you should be careful. I think the President is planning to KILL you in the final debate...politically."
p810
sbag1
(g10
g3
NtRp811
(dp812
g13
S'PlayerSay'
p813
sg14
S'DeepThroat'
p814
sg15
S''
sg16
S'You think he wants to silence me forever....on the political stage?'
p815
sbag1
(g10
g3
NtRp816
(dp817
g13
S'Say'
p818
sg14
S'DeepThroat'
p819
sg15
S''
sg16
S'Yes I do. This could get really messy...politically speaking. So be careful!'
p820
sbag1
(g10
g3
NtRp821
(dp822
g13
S'SetFlag'
p823
sg14
S'DeepThroat'
p824
sg15
S'FINISHEDDEEPTHROAT'
p825
sg16
S''
sbag1
(g10
g3
NtRp826
(dp827
g13
S'Destroy'
p828
sg14
S'DeepThroat'
p829
sg15
S''
sg16
S''
sbasS'Constituent1'
p830
(lp831
g1
(g10
g3
NtRp832
(dp833
g13
S'RequireFlag'
p834
sg14
g830
sg15
S'STARTCONSTITUENTS'
p835
sg16
S'Yes?'
p836
sbag1
(g10
g3
NtRp837
(dp838
g13
S'PlayerSay'
p839
sg14
S'Constituent1'
p840
sg15
S''
sg16
S'Vote Phillip Mossman for Mayor!'
p841
sbag1
(g10
g3
NtRp842
(dp843
g13
S'Say'
p844
sg14
S'Constituent1'
p845
sg15
S''
sg16
S'Who?'
p846
sbag1
(g10
g3
NtRp847
(dp848
g13
S'PlayerSay'
p849
sg14
S'Constituent1'
p850
sg15
S''
sg16
S'Er, me!'
p851
sbag1
(g10
g3
NtRp852
(dp853
g13
S'Say'
p854
sg14
S'Constituent1'
p855
sg15
S''
sg16
S'Why? How will you help local business?'
p856
sbag1
(g10
g3
NtRp857
(dp858
g13
S'Encounter'
p859
sg14
S'Constituent1'
p860
sg15
S'P-easy-07'
p861
sg16
S''
sbag1
(g10
g3
NtRp862
(dp863
g13
S'Say'
p864
sg14
S'Constituent1'
p865
sg15
S''
sg16
S'You make a good case!'
p866
sbag1
(g10
g3
NtRp867
(dp868
g13
S'Destroy'
p869
sg14
S'Constituent1'
p870
sg15
S''
sg16
S''
sbasS'PA'
p871
(lp872
g1
(g10
g3
NtRp873
(dp874
g13
S'Say'
p875
sg14
g871
sg15
S''
sg16
S'Good morning, Governor Mossman. I am your personal assistant, Sampson'
p876
sbag1
(g10
g3
NtRp877
(dp878
g13
S'Say'
p879
sg14
S'PA'
p880
sg15
S''
sg16
S"You've a busy schedule, so let's get going! We've called together our entire political party in order for you to get them all to agree on a platform. We had to keep them separated, so they're in the adjoining rooms."
p881
sbag1
(g10
g3
NtRp882
(dp883
g13
S'SetFlag'
p884
sg14
S'PA'
p885
sg15
S'STARTPOLITICIANSHAKEDOWN'
p886
sg16
S''
sbag1
(g10
g3
NtRp887
(dp888
g13
S'RequireCount'
p889
sg14
S'PA'
p890
sg15
S'POLITICIANSHAKEDOWN:5'
p891
sg16
S'Please try to stay on schedule. The politicians are in the adjoining rooms.'
p892
sbag1
(g10
g3
NtRp893
(dp894
g13
S'Say'
p895
sg14
S'PA'
p896
sg15
S''
sg16
S'Hmmm, falling behind already, Better get a move on! We need some funds for our war chest so you have a meeting now with some lobbyists to see if you can come to an agreement.'
p897
sbag1
(g10
g3
NtRp898
(dp899
g13
S'SetFlag'
p900
sg14
S'PA'
p901
sg15
S'STARTLOBBYISTS'
p902
sg16
S''
sbag1
(g10
g3
NtRp903
(dp904
g13
S'RequireCount'
p905
sg14
S'PA'
p906
sg15
S'LOBBYISTS:3'
p907
sg16
S'Go get those funds!'
p908
sbag1
(g10
g3
NtRp909
(dp910
g13
S'Say'
p911
sg14
S'PA'
p912
sg15
S''
sg16
S"No time for lunch! A flock of religious nuts has taken up residence in the room across the hall. You'll need to go in and...try to reason with them."
p913
sbag1
(g10
g3
NtRp914
(dp915
g13
S'RequireCount'
p916
sg14
S'PA'
p917
sg15
S'RELIGIOUSNUTS:4'
p918
sg16
S"Quick! Before the religious nuts inflict crazy on us! They're across the hall!"
p919
sbag1
(g10
g3
NtRp920
(dp921
g13
S'Say'
p922
sg14
S'PA'
p923
sg15
S''
sg16
S'Wow, you got those crazies to back us?'
p924
sbag1
(g10
g3
NtRp925
(dp926
g13
S'PlayerSay'
p927
sg14
S'PA'
p928
sg15
S''
sg16
S'And a lifetime supply of French Roast!'
p929
sbag1
(g10
g3
NtRp930
(dp931
g13
S'Say'
p932
sg14
S'PA'
p933
sg15
S''
sg16
S'Right...well, moving on, we received a very strange phonecall from the guy staying in the North East room. He was insistent that you see him today.'
p934
sbag1
(g10
g3
NtRp935
(dp936
g13
S'Say'
p937
sg14
S'PA'
p938
sg15
S''
sg16
S"OH MY GOD where have you been? We will NEVER get the schedule back on track now. Hurry, you're due to appear on the Hercules O'Grady show!"
p939
sbag1
(g10
g3
NtRp940
(dp941
g13
S'SetFlag'
p942
sg14
S'PA'
p943
sg15
S'STARTHERCULES'
p944
sg16
S''
sbag1
(g10
g3
NtRp945
(dp946
g13
S'RequireFlag'
p947
sg14
S'PA'
p948
sg15
S'BEATHERCULES'
p949
sg16
S"Look your best, get ready and don't say anything stupid! They're filming live in the south-east hotel room. Get over there, quick!"
p950
sbag1
(g10
g3
NtRp951
(dp952
g13
S'Say'
p953
sg14
S'PA'
p954
sg15
S''
sg16
S"This close to Super Tuesday, it's back-to-back TV appearances. It's time for your big debate with President Allen!"
p955
sbag1
(g10
g3
NtRp956
(dp957
g13
S'SetFlag'
p958
sg14
S'PA'
p959
sg15
S'STARTDEBATE'
p960
sg16
S''
sbag1
(g10
g3
NtRp961
(dp962
g13
S'RequireFlag'
p963
sg14
S'PA'
p964
sg15
S'DEBATECOMPLETE'
p965
sg16
S'The TV representative is waiting in the hall to take you to the studio.'
p966
sbag1
(g10
g3
NtRp967
(dp968
g13
S'Say'
p969
sg14
S'PA'
p970
sg15
S''
sg16
S'Ugh, that weird guy from the North-East room has been calling non-stop again. He insisted that you go and see him again before you do anything else.'
p971
sbag1
(g10
g3
NtRp972
(dp973
g13
S'SetFlag'
p974
sg14
S'PA'
p975
sg15
S'DEEPTHROAT2'
p976
sg16
S''
sbag1
(g10
g3
NtRp977
(dp978
g13
S'RequireFlag'
p979
sg14
S'PA'
p980
sg15
S'FINISHEDDEEPTHROAT'
p981
sg16
S"You'd best hurry! It's nearly time for the final debate. Go see that strange shady guy again."
p982
sbag1
(g10
g3
NtRp983
(dp984
g13
S'Say'
p985
sg14
S'PA'
p986
sg15
S''
sg16
S"There's nothing left to say except good luck, Governor Mossman!"
p987
sbag1
(g10
g3
NtRp988
(dp989
g13
S'Encounter'
p990
sg14
S'PA'
p991
sg15
S'P-med-23'
p992
sg16
S''
sbag1
(g10
g3
NtRp993
(dp994
g13
S'Encounter'
p995
sg14
S'PA'
p996
sg15
S'P-med-24'
p997
sg16
S''
sbag1
(g10
g3
NtRp998
(dp999
g13
S'GotoMap'
p1000
sg14
S'PA'
p1001
sg15
S'act3'
p1002
sg16
S''
sbasS'Receptionist'
p1003
(lp1004
g1
(g10
g3
NtRp1005
(dp1006
g13
S'Encounter'
p1007
sg14
g1003
sg15
S'P-easy-01'
p1008
sg16
S'Message box'
p1009
sbag1
(g10
g3
NtRp1010
(dp1011
g13
S'RequireFlag'
p1012
sg14
S'Receptionist'
p1013
sg15
S'PENQUEST'
p1014
sg16
S"You must be Mayor Goodman's new assistant. He's in his office."
p1015
sbag1
(g10
g3
NtRp1016
(dp1017
g13
S'PlayerSay'
p1018
sg14
S'Receptionist'
p1019
sg15
S''
sg16
S"The Mayor is looking for his pen. He seemed to think you'd know where it was."
p1020
sbag1
(g10
g3
NtRp1021
(dp1022
g13
S'Say'
p1023
sg14
S'Receptionist'
p1024
sg15
S''
sg16
S"Did that buffoon accuse me of stealing again? This is MY pen and he isn't having it."
p1025
sbag1
(g10
g3
NtRp1026
(dp1027
g13
S'Encounter'
p1028
sg14
S'Receptionist'
p1029
sg15
S'P-easy-01'
p1030
sg16
S''
sbag1
(g10
g3
NtRp1031
(dp1032
g13
S'GiveItem'
p1033
sg14
S'Receptionist'
p1034
sg15
S'PEN'
p1035
sg16
S'Receptionist sighs and hands over the pen.'
p1036
sbag1
(g10
g3
NtRp1037
(dp1038
g13
S'Destroy'
p1039
sg14
S'Receptionist'
p1040
sg15
S''
sg16
S''
sbasS'#P-med-23'
p1041
(lp1042
g1
(g10
g3
NtRp1043
(dp1044
g13
S'President'
p1045
sg14
g1041
sg15
S'You think you can take me?'
p1046
sg16
S''
sbag1
(g10
g3
NtRp1047
(dp1048
g13
S'Player'
p1049
sg14
S'#P-med-23'
p1050
sg15
S"I have to know what you're up to!"
p1051
sg16
S''
sbasS'Wife'
p1052
(lp1053
g1
(g10
g3
NtRp1054
(dp1055
g13
S'RequireFlag'
p1056
sg14
g1052
sg15
S'GOHOMETOWIFE'
p1057
sg16
S'What are you doing here, Phillip? You should be at work!'
p1058
sbag1
(g10
g3
NtRp1059
(dp1060
g13
S'Say'
p1061
sg14
S'Wife'
p1062
sg15
S''
sg16
S'Welcome home, Phillip! How was your workday?'
p1063
sbag1
(g10
g3
NtRp1064
(dp1065
g13
S'PlayerSay'
p1066
sg14
S'Wife'
p1067
sg15
S''
sg16
S'...'
p1068
sbag1
(g10
g3
NtRp1069
(dp1070
g13
S'Say'
p1071
sg14
S'Wife'
p1072
sg15
S''
sg16
S"That good, huh? You know this isn't what you want. Why don't you strike out on your own?"
p1073
sbag1
(g10
g3
NtRp1074
(dp1075
g13
S'PlayerSay'
p1076
sg14
S'Wife'
p1077
sg15
S''
sg16
S"I didn't think I knew where to start to be a Mayor, but Mayor Goodman makes it look easy."
p1078
sbag1
(g10
g3
NtRp1079
(dp1080
g13
S'Say'
p1081
sg14
S'Wife'
p1082
sg15
S''
sg16
S"That's the spirit! You can do it! All you need is some money and support."
p1083
sbag1
(g10
g3
NtRp1084
(dp1085
g13
S'PlayerSay'
p1086
sg14
S'Wife'
p1087
sg15
S''
sg16
S'Well...OK! Lets start with money. We need a sponsor.'
p1088
sbag1
(g10
g3
NtRp1089
(dp1090
g13
S'Say'
p1091
sg14
S'Wife'
p1092
sg15
S''
sg16
S'OK, lets go get one!'
p1093
sbag1
(g10
g3
NtRp1094
(dp1095
g13
S'AddAlly'
p1096
sg14
S'Wife'
p1097
sg15
S'Wife:1'
p1098
sg16
S'Sarah Mossman Joins Your Political Party!'
p1099
sbag1
(g10
g3
NtRp1100
(dp1101
g13
S'SetFlag'
p1102
sg14
S'Wife'
p1103
sg15
S'STARTSPONSOR'
p1104
sg16
S''
sbag1
(g10
g3
NtRp1105
(dp1106
g13
S'Destroy'
p1107
sg14
S'Wife'
p1108
sg15
S''
sg16
S''
sbasS'Journalist4'
p1109
(lp1110
g1
(g10
g3
NtRp1111
(dp1112
g13
S'Say'
p1113
sg14
g1109
sg15
S''
sg16
S"President Mossman, what do you believe was President Allen's failing strategy on the campaign trail. He looked like a strong platform."
p1114
sbag1
(g10
g3
NtRp1115
(dp1116
g13
S'PlayerSay'
p1117
sg14
S'Journalist4'
p1118
sg15
S''
sg16
S"Well, I'd say he went wrong when he decided to try to enslave the human race to mine the Earth's natural resources and ship them back to their home planet."
p1119
sbag1
(g10
g3
NtRp1120
(dp1121
g13
S'Say'
p1122
sg14
S'Journalist4'
p1123
sg15
S''
sg16
S'And how does that differ from your own strategy?'
p1124
sbag1
(g10
g3
NtRp1125
(dp1126
g13
S'PlayerSay'
p1127
sg14
S'Journalist4'
p1128
sg15
S''
sg16
S'I would say I disagree with the former President on all of those issues.'
p1129
sbag1
(g10
g3
NtRp1130
(dp1131
g13
S'Encounter'
p1132
sg14
S'Journalist4'
p1133
sg15
S'P-hard-02'
p1134
sg16
S''
sbag1
(g10
g3
NtRp1135
(dp1136
g13
S'Say'
p1137
sg14
S'Journalist4'
p1138
sg15
S''
sg16
S'No further questions, Mr President.'
p1139
sbag1
(g10
g3
NtRp1140
(dp1141
g13
S'Increment'
p1142
sg14
S'Journalist4'
p1143
sg15
S'PRESSCONF'
p1144
sg16
S''
sbag1
(g10
g3
NtRp1145
(dp1146
g13
S'Destroy'
p1147
sg14
S'Journalist4'
p1148
sg15
S''
sg16
S''
sbasS'Governor'
p1149
(lp1150
g1
(g10
g3
NtRp1151
(dp1152
g13
S'RequireFlag'
p1153
sg14
g1149
sg15
S'GOVPOLITICIANSFIRST'
p1154
sg16
S"I'm very busy. Please speak to the others."
p1155
sbag1
(g10
g3
NtRp1156
(dp1157
g13
S'Say'
p1158
sg14
S'Governor'
p1159
sg15
S''
sg16
S'You have quite a way with words, Mayor Mossman. Why are you here?'
p1160
sbag1
(g10
g3
NtRp1161
(dp1162
g13
S'PlayerSay'
p1163
sg14
S'Governor'
p1164
sg15
S''
sg16
S"Mayor Goodman said some troubling things, Governor Badden. I'm here to get to the bottom of it."
p1165
sbag1
(g10
g3
NtRp1166
(dp1167
g13
S'Say'
p1168
sg14
S'Governor'
p1169
sg15
S''
sg16
S"If I knew anything about what you're talking about, I wouldn't tell you. I don't trust you at all."
p1170
sbag1
(g10
g3
NtRp1171
(dp1172
g13
S'PlayerSay'
p1173
sg14
S'Governor'
p1174
sg15
S''
sg16
S'What can I do to convince you?'
p1175
sbag1
(g10
g3
NtRp1176
(dp1177
g13
S'Say'
p1178
sg14
S'Governor'
p1179
sg15
S''
sg16
S"Well...there's some hicks in the south wing that I've been dodging. They want to know about the recent funding cuts. Get rid of them."
p1180
sbag1
(g10
g3
NtRp1181
(dp1182
g13
S'SetFlag'
p1183
sg14
S'Governor'
p1184
sg15
S'STARTHICKS'
p1185
sg16
S''
sbag1
(g10
g3
NtRp1186
(dp1187
g13
S'RequireCount'
p1188
sg14
S'Governor'
p1189
sg15
S'DEALWITHHICKS:3'
p1190
sg16
S"I'm not saying another word until you get rid of the hicks in the south wing."
p1191
sbag1
(g10
g3
NtRp1192
(dp1193
g13
S'PlayerSay'
p1194
sg14
S'Governor'
p1195
sg15
S''
sg16
S"OK, I've taken care of your problem, now I want my answers."
p1196
sbag1
(g10
g3
NtRp1197
(dp1198
g13
S'Say'
p1199
sg14
S'Governor'
p1200
sg15
S''
sg16
S'No.'
p1201
sbag1
(g10
g3
NtRp1202
(dp1203
g13
S'PlayerSay'
p1204
sg14
S'Governor'
p1205
sg15
S''
sg16
S'No?'
p1206
sbag1
(g10
g3
NtRp1207
(dp1208
g13
S'Say'
p1209
sg14
S'Governor'
p1210
sg15
S''
sg16
S"No, word has come down from the top that due to the last Mayor's idiocy we're tightening the inner circle to Governors and above."
p1211
sbag1
(g10
g3
NtRp1212
(dp1213
g13
S'PlayerSay'
p1214
sg14
S'Governor'
p1215
sg15
S''
sg16
S"From the top...so you're saying the only way I'll find out what's going on is to be a governor myself?"
p1216
sbag1
(g10
g3
NtRp1217
(dp1218
g13
S'Say'
p1219
sg14
S'Governor'
p1220
sg15
S''
sg16
S"Wait...no...I said I wasn't going to tell you, I..."
p1221
sbag1
(g10
g3
NtRp1222
(dp1223
g13
S'PlayerSay'
p1224
sg14
S'Governor'
p1225
sg15
S''
sg16
S'This is it, governor. Prepare to fight for your office!'
p1226
sbag1
(g10
g3
NtRp1227
(dp1228
g13
S'Encounter'
p1229
sg14
S'Governor'
p1230
sg15
S'P-med-06'
p1231
sg16
S''
sbag1
(g10
g3
NtRp1232
(dp1233
g13
S'Say'
p1234
sg14
S'Governor'
p1235
sg15
S''
sg16
S"Nooo! President Allen doesn't deal well with defeat. What will happen to me?"
p1236
sbag1
(g10
g3
NtRp1237
(dp1238
g13
S'PlayerSay'
p1239
sg14
S'Governor'
p1240
sg15
S''
sg16
S'The President? What does he have to do with this?'
p1241
sbag1
(g10
g3
NtRp1242
(dp1243
g13
S'Say'
p1244
sg14
S'Governor'
p1245
sg15
S''
sg16
S"You really have no idea what you've gotten into, do you? Well, you've gotten all you're getting out of me. I'm getting out of here!"
p1246
sbag1
(g10
g3
NtRp1247
(dp1248
g13
S'SetFlag'
p1249
sg14
S'Governor'
p1250
sg15
S'GOVERNORDEFEATED'
p1251
sg16
S''
sbag1
(g10
g3
NtRp1252
(dp1253
g13
S'Destroy'
p1254
sg14
S'Governor'
p1255
sg15
S''
sg16
S''
sbasS'Politician1'
p1256
(lp1257
g1
(g10
g3
NtRp1258
(dp1259
g13
S'Say'
p1260
sg14
g1256
sg15
S''
sg16
S"I'm sorry Mayor Mossman, the Governor cannot see you now. He's very busy"
p1261
sbag1
(g10
g3
NtRp1262
(dp1263
g13
S'PlayerSay'
p1264
sg14
S'Politician1'
p1265
sg15
S''
sg16
S"It's very important. I need to understand what Mayor Goodman was talking about. It was clear there were other powers at play."
p1266
sbag1
(g10
g3
NtRp1267
(dp1268
g13
S'Say'
p1269
sg14
S'Politician1'
p1270
sg15
S''
sg16
S'Yes well, I fail to see how your country spat has anything to do with Governer Badden.'
p1271
sbag1
(g10
g3
NtRp1272
(dp1273
g13
S'Encounter'
p1274
sg14
S'Politician1'
p1275
sg15
S'P-med-01'
p1276
sg16
S''
sbag1
(g10
g3
NtRp1277
(dp1278
g13
S'Say'
p1279
sg14
S'Politician1'
p1280
sg15
S''
sg16
S'Fair point. The governor will see you now.'
p1281
sbag1
(g10
g3
NtRp1282
(dp1283
g13
S'Destroy'
p1284
sg14
S'Politician1'
p1285
sg15
S''
sg16
S''
sbasS'Lobbyist4'
p1286
(lp1287
g1
(g10
g3
NtRp1288
(dp1289
g13
S'RequireFlag'
p1290
sg14
g1286
sg15
S'STARTLOBBYISTS'
p1291
sg16
S'Please tend to your other meetings so that we can see you.'
p1292
sbag1
(g10
g3
NtRp1293
(dp1294
g13
S'Say'
p1295
sg14
S'Lobbyist4'
p1296
sg15
S''
sg16
S"Storyteller's Guild"
p1297
sbag1
(g10
g3
NtRp1298
(dp1299
g13
S'Encounter'
p1300
sg14
S'Lobbyist4'
p1301
sg15
S'P-med-14'
p1302
sg16
S''
sbag1
(g10
g3
NtRp1303
(dp1304
g13
S'Increment'
p1305
sg14
S'Lobbyist4'
p1306
sg15
S'LOBBYISTS'
p1307
sg16
S''
sbag1
(g10
g3
NtRp1308
(dp1309
g13
S'Say'
p1310
sg14
S'Lobbyist4'
p1311
sg15
S''
sg16
S"It's a start."
p1312
sbag1
(g10
g3
NtRp1313
(dp1314
g13
S'Destroy'
p1315
sg14
S'Lobbyist4'
p1316
sg15
S''
sg16
S''
sbasS'Politician3'
p1317
(lp1318
g1
(g10
g3
NtRp1319
(dp1320
g13
S'RequireFlag'
p1321
sg14
g1317
sg15
S'STARTPOLITICIANSHAKEDOWN'
p1322
sg16
S'Good morning, Governor Mossman. Your PA will know your schedule. He is waiting in your room.'
p1323
sbag1
(g10
g3
NtRp1324
(dp1325
g13
S'Say'
p1326
sg14
S'Politician3'
p1327
sg15
S''
sg16
S"We must all agree that the most important thing is science! If we're not for science, what's the point."
p1328
sbag1
(g10
g3
NtRp1329
(dp1330
g13
S'PlayerSay'
p1331
sg14
S'Politician3'
p1332
sg15
S''
sg16
S'Why science?'
p1333
sbag1
(g10
g3
NtRp1334
(dp1335
g13
S'Say'
p1336
sg14
S'Politician3'
p1337
sg15
S''
sg16
S'Science!'
p1338
sbag1
(g10
g3
NtRp1339
(dp1340
g13
S'PlayerSay'
p1341
sg14
S'Politician3'
p1342
sg15
S''
sg16
S"There's a lot of great things we can do for science but the funding will need to be shared with health and education and..."
p1343
sbag1
(g10
g3
NtRp1344
(dp1345
g13
S'Say'
p1346
sg14
S'Politician3'
p1347
sg15
S''
sg16
S'No! Science!!!'
p1348
sbag1
(g10
g3
NtRp1349
(dp1350
g13
S'Encounter'
p1351
sg14
S'Politician3'
p1352
sg15
S'P-med-07'
p1353
sg16
S''
sbag1
(g10
g3
NtRp1354
(dp1355
g13
S'Say'
p1356
sg14
S'Politician3'
p1357
sg15
S''
sg16
S'Alright, fine! A balanced platform (but mostly science).'
p1358
sbag1
(g10
g3
NtRp1359
(dp1360
g13
S'Increment'
p1361
sg14
S'Politician3'
p1362
sg15
S'POLITICIANSHAKEDOWN'
p1363
sg16
S''
sbag1
(g10
g3
NtRp1364
(dp1365
g13
S'Destroy'
p1366
sg14
S'Politician3'
p1367
sg15
S''
sg16
S''
sbasS'Politician2'
p1368
(lp1369
g1
(g10
g3
NtRp1370
(dp1371
g13
S'Say'
p1372
sg14
g1368
sg15
S''
sg16
S'What are you doing in here? Who are you? Some Mayor?'
p1373
sbag1
(g10
g3
NtRp1374
(dp1375
g13
S'PlayerSay'
p1376
sg14
S'Politician2'
p1377
sg15
S''
sg16
S"I am Mayor Phillip Mossman. I'm here to speak to the Governor."
p1378
sbag1
(g10
g3
NtRp1379
(dp1380
g13
S'Say'
p1381
sg14
S'Politician2'
p1382
sg15
S''
sg16
S"I'm afraid the Governor's schedule is very tight. Come back next month."
p1383
sbag1
(g10
g3
NtRp1384
(dp1385
g13
S'Encounter'
p1386
sg14
S'Politician2'
p1387
sg15
S'P-med-02'
p1388
sg16
S''
sbag1
(g10
g3
NtRp1389
(dp1390
g13
S'Say'
p1391
sg14
S'Politician2'
p1392
sg15
S''
sg16
S'I see. Well, maybe we can squeeze you in.'
p1393
sbag1
(g10
g3
NtRp1394
(dp1395
g13
S'SetFlag'
p1396
sg14
S'Politician2'
p1397
sg15
S'GOVPOLITICIANSFIRST'
p1398
sg16
S''
sbag1
(g10
g3
NtRp1399
(dp1400
g13
S'Destroy'
p1401
sg14
S'Politician2'
p1402
sg15
S''
sg16
S''
sbasS'Politician5'
p1403
(lp1404
g1
(g10
g3
NtRp1405
(dp1406
g13
S'RequireFlag'
p1407
sg14
g1403
sg15
S'STARTPOLITICIANSHAKEDOWN'
p1408
sg16
S'Good morning, Governor Mossman. Your PA will know your schedule. He is waiting in your room.'
p1409
sbag1
(g10
g3
NtRp1410
(dp1411
g13
S'Say'
p1412
sg14
S'Politician5'
p1413
sg15
S''
sg16
S'Big business!'
p1414
sbag1
(g10
g3
NtRp1415
(dp1416
g13
S'PlayerSay'
p1417
sg14
S'Politician5'
p1418
sg15
S''
sg16
S'What about big business.'
p1419
sbag1
(g10
g3
NtRp1420
(dp1421
g13
S'Say'
p1422
sg14
S'Politician5'
p1423
sg15
S''
sg16
S'...MORE big business!'
p1424
sbag1
(g10
g3
NtRp1425
(dp1426
g13
S'PlayerSay'
p1427
sg14
S'Politician5'
p1428
sg15
S''
sg16
S'You want to grow our business sector? Provide more jobs?'
p1429
sbag1
(g10
g3
NtRp1430
(dp1431
g13
S'Say'
p1432
sg14
S'Politician5'
p1433
sg15
S''
sg16
S'...Yeeeeh. Yes. Yes, that.'
p1434
sbag1
(g10
g3
NtRp1435
(dp1436
g13
S'PlayerSay'
p1437
sg14
S'Politician5'
p1438
sg15
S''
sg16
S'What about small business?'
p1439
sbag1
(g10
g3
NtRp1440
(dp1441
g13
S'Say'
p1442
sg14
S'Politician5'
p1443
sg15
S''
sg16
S'No! We need to make it BIGGER!'
p1444
sbag1
(g10
g3
NtRp1445
(dp1446
g13
S'Encounter'
p1447
sg14
S'Politician5'
p1448
sg15
S'P-med-09'
p1449
sg16
S''
sbag1
(g10
g3
NtRp1450
(dp1451
g13
S'Say'
p1452
sg14
S'Politician5'
p1453
sg15
S''
sg16
S"OK, I see what you're getting at. Lets help small business to grow."
p1454
sbag1
(g10
g3
NtRp1455
(dp1456
g13
S'Increment'
p1457
sg14
S'Politician5'
p1458
sg15
S'POLITICIANSHAKEDOWN'
p1459
sg16
S''
sbag1
(g10
g3
NtRp1460
(dp1461
g13
S'Destroy'
p1462
sg14
S'Politician5'
p1463
sg15
S''
sg16
S''
sbasS'Journalist'
p1464
(lp1465
g1
(g10
g3
NtRp1466
(dp1467
g13
S'RequireFlag'
p1468
sg14
g1464
sg15
S'INTERVIEWSTART'
p1469
sg16
S'Leave me alone, kid I need to get this done before my deadline!'
p1470
sbag1
(g10
g3
NtRp1471
(dp1472
g13
S'Say'
p1473
sg14
S'Journalist'
p1474
sg15
S''
sg16
S"Hey, where's the Mayor?"
p1475
sbag1
(g10
g3
NtRp1476
(dp1477
g13
S'PlayerSay'
p1478
sg14
S'Journalist'
p1479
sg15
S''
sg16
S"He couldn't make it. I'll be taking the interview."
p1480
sbag1
(g10
g3
NtRp1481
(dp1482
g13
S'Say'
p1483
sg14
S'Journalist'
p1484
sg15
S''
sg16
S'Great! Easy pickings! Lets go.'
p1485
sbag1
(g10
g3
NtRp1486
(dp1487
g13
S'Encounter'
p1488
sg14
S'Journalist'
p1489
sg15
S'P-easy-05'
p1490
sg16
S''
sbag1
(g10
g3
NtRp1491
(dp1492
g13
S'Say'
p1493
sg14
S'Journalist'
p1494
sg15
S''
sg16
S"SNORE! Fine, if I can't get anything juicy here I'll do another puff piece on my poodle Frank."
p1495
sbag1
(g10
g3
NtRp1496
(dp1497
g13
S'SetFlag'
p1498
sg14
S'Journalist'
p1499
sg15
S'JOURNALISTINTERVIEW'
p1500
sg16
S''
sbag1
(g10
g3
NtRp1501
(dp1502
g13
S'Destroy'
p1503
sg14
S'Journalist'
p1504
sg15
S''
sg16
S''
sbasS'#----------------------------------------------------------------------------------------ACT 2 \xe2\x80\x93 Part 2---------------------------------------------------------------------------------------------------------------------------------------------------'
p1505
(lp1506
g1
(g10
g3
NtRp1507
(dp1508
g13
S''
sg14
g1505
sg15
S''
sg16
S''
sbasS'Politician6'
p1509
(lp1510
g1
(g10
g3
NtRp1511
(dp1512
g13
S'RequireFlag'
p1513
sg14
g1509
sg15
S'STARTPOLITICIANSHAKEDOWN'
p1514
sg16
S'Good morning, Governor Mossman. Your PA will know your schedule. He is waiting in your room.'
p1515
sbag1
(g10
g3
NtRp1516
(dp1517
g13
S'Say'
p1518
sg14
S'Politician6'
p1519
sg15
S''
sg16
S'We should be all about not wasting money'
p1520
sbag1
(g10
g3
NtRp1521
(dp1522
g13
S'PlayerSay'
p1523
sg14
S'Politician6'
p1524
sg15
S''
sg16
S'Sounds fair. Wasting money on what?'
p1525
sbag1
(g10
g3
NtRp1526
(dp1527
g13
S'Say'
p1528
sg14
S'Politician6'
p1529
sg15
S''
sg16
S"You know, stuff that doesn't really help like artsy stuff."
p1530
sbag1
(g10
g3
NtRp1531
(dp1532
g13
S'PlayerSay'
p1533
sg14
S'Politician6'
p1534
sg15
S''
sg16
S"You don't think we should invest in our culture?"
p1535
sbag1
(g10
g3
NtRp1536
(dp1537
g13
S'Say'
p1538
sg14
S'Politician6'
p1539
sg15
S''
sg16
S'We have more important things to spend our money on. Like military.'
p1540
sbag1
(g10
g3
NtRp1541
(dp1542
g13
S'PlayerSay'
p1543
sg14
S'Politician6'
p1544
sg15
S''
sg16
S'What if people want to paint pictures about our military. Or write patriotic songs?'
p1545
sbag1
(g10
g3
NtRp1546
(dp1547
g13
S'Say'
p1548
sg14
S'Politician6'
p1549
sg15
S''
sg16
S"I hadn't thought of that..."
p1550
sbag1
(g10
g3
NtRp1551
(dp1552
g13
S'Encounter'
p1553
sg14
S'Politician6'
p1554
sg15
S'P-med-10'
p1555
sg16
S''
sbag1
(g10
g3
NtRp1556
(dp1557
g13
S'Say'
p1558
sg14
S'Politician6'
p1559
sg15
S''
sg16
S"So, militaristic march songs and battle scenes aren't the only sort of art? Wow."
p1560
sbag1
(g10
g3
NtRp1561
(dp1562
g13
S'Increment'
p1563
sg14
S'Politician6'
p1564
sg15
S'POLITICIANSHAKEDOWN'
p1565
sg16
S''
sbag1
(g10
g3
NtRp1566
(dp1567
g13
S'Destroy'
p1568
sg14
S'Politician6'
p1569
sg15
S''
sg16
S''
sbasS'Journalist3'
p1570
(lp1571
g1
(g10
g3
NtRp1572
(dp1573
g13
S'Say'
p1574
sg14
g1570
sg15
S''
sg16
S'Mr President, Cal from Daily LOL magazine. Can you explain the transformation that occurred during the presidential debate.'
p1575
sbag1
(g10
g3
NtRp1576
(dp1577
g13
S'PlayerSay'
p1578
sg14
S'Journalist3'
p1579
sg15
S''
sg16
S'Certainly, Cal. The President of the Ignited States turned into an alien.'
p1580
sbag1
(g10
g3
NtRp1581
(dp1582
g13
S'Say'
p1583
sg14
S'Journalist3'
p1584
sg15
S''
sg16
S"Ah, you mean to say he's out-of-touch with his people?"
p1585
sbag1
(g10
g3
NtRp1586
(dp1587
g13
S'PlayerSay'
p1588
sg14
S'Journalist3'
p1589
sg15
S''
sg16
S'Not exactly...'
p1590
sbag1
(g10
g3
NtRp1591
(dp1592
g13
S'Encounter'
p1593
sg14
S'Journalist3'
p1594
sg15
S'P-hard-01'
p1595
sg16
S''
sbag1
(g10
g3
NtRp1596
(dp1597
g13
S'Say'
p1598
sg14
S'Journalist3'
p1599
sg15
S''
sg16
S'I...see...'
p1600
sbag1
(g10
g3
NtRp1601
(dp1602
g13
S'Increment'
p1603
sg14
S'Journalist3'
p1604
sg15
S'PRESSCONF'
p1605
sg16
S''
sbag1
(g10
g3
NtRp1606
(dp1607
g13
S'Destroy'
p1608
sg14
S'Journalist3'
p1609
sg15
S''
sg16
S''
sbasS'PA2'
p1610
(lp1611
g1
(g10
g3
NtRp1612
(dp1613
g13
S'Say'
p1614
sg14
g1610
sg15
S''
sg16
S"Welcome to the White House, President Mossman. It was a long campaign trail with a very strange final debate, but we won and we're here."
p1615
sbag1
(g10
g3
NtRp1616
(dp1617
g13
S'Say'
p1618
sg14
S'PA2'
p1619
sg15
S''
sg16
S'Now is the real test where we see how well we can run a country.'
p1620
sbag1
(g10
g3
NtRp1621
(dp1622
g13
S'Say'
p1623
sg14
S'PA2'
p1624
sg15
S''
sg16
S'The first step is to give your first press conference as President to explain the...situation...with President Alien *cough* I mean Allen.'
p1625
sbag1
(g10
g3
NtRp1626
(dp1627
g13
S'RequireCount'
p1628
sg14
S'PA2'
p1629
sg15
S'PRESSCONF:3'
p1630
sg16
S"They're waiting for you in the Press Room, Mr President."
p1631
sbag1
(g10
g3
NtRp1632
(dp1633
g13
S'Say'
p1634
sg14
S'PA2'
p1635
sg15
S''
sg16
S'I think that went as well as could be expected.'
p1636
sbag1
(g10
g3
NtRp1637
(dp1638
g13
S'Say'
p1639
sg14
S'PA2'
p1640
sg15
S''
sg16
S'Your secret service detail is waiting over here in the corridor to have a word with you about security protocol.'
p1641
sbag1
(g10
g3
NtRp1642
(dp1643
g13
S'RequireFlag'
p1644
sg14
S'PA2'
p1645
sg15
S'KAWALSKIJOIN'
p1646
sg16
S"You'd better speak to the secret service agent. Your security is paramount."
p1647
sbag1
(g10
g3
NtRp1648
(dp1649
g13
S'Say'
p1650
sg14
S'PA2'
p1651
sg15
S''
sg16
S"Some war veterans would like to speak to you about some recent decisions you've made. I don't dare turn them away. You'd better speak to them."
p1652
sbag1
(g10
g3
NtRp1653
(dp1654
g13
S'PlayerSay'
p1655
sg14
S'PA2'
p1656
sg15
S''
sg16
S'Of course.'
p1657
sbag1
(g10
g3
NtRp1658
(dp1659
g13
S'RequireCount'
p1660
sg14
S'PA2'
p1661
sg15
S'WARVETS:2'
p1662
sg16
S''
sbag1
(g10
g3
NtRp1663
(dp1664
g13
S'Say'
p1665
sg14
S'PA2'
p1666
sg15
S''
sg16
S'What was that about?'
p1667
sbag1
(g10
g3
NtRp1668
(dp1669
g13
S'PlayerSay'
p1670
sg14
S'PA2'
p1671
sg15
S''
sg16
S"I'd like to know as well. Find me the documents that ordered troop movement today and get me a meeting with the Joint Chiefs."
p1672
sbasS'Journalist5'
p1673
(lp1674
g1
(g10
g3
NtRp1675
(dp1676
g13
S'Say'
p1677
sg14
g1673
sg15
S''
sg16
S'Do you feel that a bi-partisan relationship will be possible between your party and the opposition?'
p1678
sbag1
(g10
g3
NtRp1679
(dp1680
g13
S'PlayerSay'
p1681
sg14
S'Journalist5'
p1682
sg15
S''
sg16
S'I suppose once we find and remove all of the aliens and reverse the alien brainwashing, bi-partisanship will resume.'
p1683
sbag1
(g10
g3
NtRp1684
(dp1685
g13
S'Encounter'
p1686
sg14
S'Journalist5'
p1687
sg15
S'P-hard-03'
p1688
sg16
S''
sbag1
(g10
g3
NtRp1689
(dp1690
g13
S'Say'
p1691
sg14
S'Journalist5'
p1692
sg15
S''
sg16
S'Thankyou, President Mossman.'
p1693
sbag1
(g10
g3
NtRp1694
(dp1695
g13
S'Increment'
p1696
sg14
S'Journalist5'
p1697
sg15
S'PRESSCONF'
p1698
sg16
S''
sbag1
(g10
g3
NtRp1699
(dp1700
g13
S'Destroy'
p1701
sg14
S'Journalist5'
p1702
sg15
S''
sg16
S''
sbasS'Journalist2'
p1703
(lp1704
g1
(g10
g3
NtRp1705
(dp1706
g13
S'RequireFlag'
p1707
sg14
g1703
sg15
S'STARTHICKS2'
p1708
sg16
S'Governor Badden sends his Mayor lacky to do his dirty work \xe2\x80\x93 what a scoop!'
p1709
sbag1
(g10
g3
NtRp1710
(dp1711
g13
S'Encounter'
p1712
sg14
S'Journalist2'
p1713
sg15
S'P-med-05'
p1714
sg16
S''
sbag1
(g10
g3
NtRp1715
(dp1716
g13
S'Say'
p1717
sg14
S'Journalist2'
p1718
sg15
S''
sg16
S"I'm going back to write a comparison piece on you and Governor Badden. You should consider running for Governor."
p1719
sbag1
(g10
g3
NtRp1720
(dp1721
g13
S'Increment'
p1722
sg14
S'Journalist2'
p1723
sg15
S'DEALWITHHICKS'
p1724
sg16
S''
sbag1
(g10
g3
NtRp1725
(dp1726
g13
S'Destroy'
p1727
sg14
S'Journalist2'
p1728
sg15
S''
sg16
S''
sbasS'#P-med-24'
p1729
(lp1730
g1
(g10
g3
NtRp1731
(dp1732
g13
S'PresidentAlien'
p1733
sg14
g1729
sg15
S"You think you've beaten me, but now you're going to fight the real me!"
p1734
sg16
S''
sbag1
(g10
g3
NtRp1735
(dp1736
g13
S'Player'
p1737
sg14
S'#P-med-24'
p1738
sg15
S'I knew something was wrong, but this...?'
p1739
sg16
S''
sbag1
(g10
g3
NtRp1740
(dp1741
g13
S'PresidentAlien'
p1742
sg14
S'#P-med-24'
p1743
sg15
S"All you've done is caused me to expedite my plans to enslave the human race!"
p1744
sg16
S''
sbasS'TVPersonality'
p1745
(lp1746
g1
(g10
g3
NtRp1747
(dp1748
g13
S'RequireFlag'
p1749
sg14
g1745
sg15
S'STARTHERCULES'
p1750
sg16
S"Ooooh, sorry Mossman, baby! We're not ready for you yet."
p1751
sbag1
(g10
g3
NtRp1752
(dp1753
g13
S'Say'
p1754
sg14
S'TVPersonality'
p1755
sg15
S''
sg16
S"There's the man! Are you ready to cross wits with The Mighty Hercules!"
p1756
sbag1
(g10
g3
NtRp1757
(dp1758
g13
S'PlayerSay'
p1759
sg14
S'TVPersonality'
p1760
sg15
S''
sg16
S'I sure am!'
p1761
sbag1
(g10
g3
NtRp1762
(dp1763
g13
S'Say'
p1764
sg14
S'TVPersonality'
p1765
sg15
S''
sg16
S"Really...? You don't want to...see your make-up artist?"
p1766
sbag1
(g10
g3
NtRp1767
(dp1768
g13
S'PlayerSay'
p1769
sg14
S'TVPersonality'
p1770
sg15
S''
sg16
S"No, no, I'm really ready."
p1771
sbag1
(g10
g3
NtRp1772
(dp1773
g13
S'Say'
p1774
sg14
S'TVPersonality'
p1775
sg15
S''
sg16
S'Suit yourself...and from the looks of it, suiting yourself is exactly what you did...ew.'
p1776
sbag1
(g10
g3
NtRp1777
(dp1778
g13
S'Encounter'
p1779
sg14
S'TVPersonality'
p1780
sg15
S'P-med-20'
p1781
sg16
S''
sbag1
(g10
g3
NtRp1782
(dp1783
g13
S'Say'
p1784
sg14
S'TVPersonality'
p1785
sg15
S''
sg16
S"Good show, you sure gave me a run for my money, now beat it, you're making me look bad!"
p1786
sbag1
(g10
g3
NtRp1787
(dp1788
g13
S'SetFlag'
p1789
sg14
S'TVPersonality'
p1790
sg15
S'BEATHERCULES'
p1791
sg16
S''
sbag1
(g10
g3
NtRp1792
(dp1793
g13
S'Destroy'
p1794
sg14
S'TVPersonality'
p1795
sg15
S''
sg16
S''
sbasS'Protester2'
p1796
(lp1797
g1
(g10
g3
NtRp1798
(dp1799
g13
S'Say'
p1800
sg14
g1796
sg15
S''
sg16
S"Bees buzz, Mayors lie, who's this Phillip Mossman guy?"
p1801
sbag1
(g10
g3
NtRp1802
(dp1803
g13
S'RequireFlag'
p1804
sg14
S'Protester2'
p1805
sg15
S'PROTESTORS'
p1806
sg16
S''
sbag1
(g10
g3
NtRp1807
(dp1808
g13
S'Encounter'
p1809
sg14
S'Protester2'
p1810
sg15
S'P-easy-03'
p1811
sg16
S''
sbag1
(g10
g3
NtRp1812
(dp1813
g13
S'Destroy'
p1814
sg14
S'Protester2'
p1815
sg15
S''
sg16
S''
sbasS'Protester1'
p1816
(lp1817
g1
(g10
g3
NtRp1818
(dp1819
g13
S'Say'
p1820
sg14
g1816
sg15
S''
sg16
S"Fee Fi Fo Fum, we think Mayor Goodman's Dumb!"
p1821
sbag1
(g10
g3
NtRp1822
(dp1823
g13
S'RequireFlag'
p1824
sg14
S'Protester1'
p1825
sg15
S'PROTESTORS'
p1826
sg16
S''
sbag1
(g10
g3
NtRp1827
(dp1828
g13
S'Encounter'
p1829
sg14
S'Protester1'
p1830
sg15
S'P-easy-02'
p1831
sg16
S''
sbag1
(g10
g3
NtRp1832
(dp1833
g13
S'Destroy'
p1834
sg14
S'Protester1'
p1835
sg15
S''
sg16
S''
sbasS'#----------------------------------------------------------------------------------------ACT 2 \xe2\x80\x93 Part 1---------------------------------------------------------------------------------------------------------------------------------------------------'
p1836
(lp1837
g1
(g10
g3
NtRp1838
(dp1839
g13
S''
sg14
g1836
sg15
S''
sg16
S''
sbasS'Head Protester'
p1840
(lp1841
g1
(g10
g3
NtRp1842
(dp1843
g13
S'Say'
p1844
sg14
g1840
sg15
S''
sg16
S"I am the head protester. You'll never convince us to back down!"
p1845
sbag1
(g10
g3
NtRp1846
(dp1847
g13
S'RequireFlag'
p1848
sg14
S'Head Protester'
p1849
sg15
S'PROTESTORS'
p1850
sg16
S''
sbag1
(g10
g3
NtRp1851
(dp1852
g13
S'PlayerSay'
p1853
sg14
S'Head Protester'
p1854
sg15
S''
sg16
S'What are you protesting?'
p1855
sbag1
(g10
g3
NtRp1856
(dp1857
g13
S'Say'
p1858
sg14
S'Head Protester'
p1859
sg15
S''
sg16
S'Er...Injustice!'
p1860
sbag1
(g10
g3
NtRp1861
(dp1862
g13
S'PlayerSay'
p1863
sg14
S'Head Protester'
p1864
sg15
S''
sg16
S'Injustice against what?'
p1865
sbag1
(g10
g3
NtRp1866
(dp1867
g13
S'Say'
p1868
sg14
S'Head Protester'
p1869
sg15
S''
sg16
S'...'
p1870
sbag1
(g10
g3
NtRp1871
(dp1872
g13
S'Say'
p1873
sg14
S'Head Protester'
p1874
sg15
S''
sg16
S'The People!'
p1875
sbag1
(g10
g3
NtRp1876
(dp1877
g13
S'PlayerSay'
p1878
sg14
S'Head Protester'
p1879
sg15
S''
sg16
S'Yes, but which people?'
p1880
sbag1
(g10
g3
NtRp1881
(dp1882
g13
S'Say'
p1883
sg14
S'Head Protester'
p1884
sg15
S''
sg16
S'See? What a fascist, ALL people you slimey politician scum!'
p1885
sbag1
(g10
g3
NtRp1886
(dp1887
g13
S'Encounter'
p1888
sg14
S'Head Protester'
p1889
sg15
S'P-easy-04'
p1890
sg16
S''
sbag1
(g10
g3
NtRp1891
(dp1892
g13
S'Say'
p1893
sg14
S'Head Protester'
p1894
sg15
S''
sg16
S"Alright, fine! We'll stop protesting...whatever we were protesting."
p1895
sbag1
(g10
g3
NtRp1896
(dp1897
g13
S'SetFlag'
p1898
sg14
S'Head Protester'
p1899
sg15
S'PROTESTORSDEAD'
p1900
sg16
S''
sbag1
(g10
g3
NtRp1901
(dp1902
g13
S'Destroy'
p1903
sg14
S'Head Protester'
p1904
sg15
S''
sg16
S''
sbasS'Sponsor'
p1905
(lp1906
g1
(g10
g3
NtRp1907
(dp1908
g13
S'RequireFlag'
p1909
sg14
g1905
sg15
S'STARTSPONSOR'
p1910
sg16
S"Hmmm...Money, money, money. Sorry, what? I wasn't talking to you."
p1911
sbag1
(g10
g3
NtRp1912
(dp1913
g13
S'Say'
p1914
sg14
S'Sponsor'
p1915
sg15
S''
sg16
S"Hello, I'm investigating new investments today. How can I help you?"
p1916
sbag1
(g10
g3
NtRp1917
(dp1918
g13
S'PlayerSay'
p1919
sg14
S'Sponsor'
p1920
sg15
S''
sg16
S"Well, I've decided to run for Mayor! I could really use an investor."
p1921
sbag1
(g10
g3
NtRp1922
(dp1923
g13
S'Say'
p1924
sg14
S'Sponsor'
p1925
sg15
S''
sg16
S"I don't know. You seem a little young. I don't think I'm convinced."
p1926
sbag1
(g10
g3
NtRp1927
(dp1928
g13
S'Encounter'
p1929
sg14
S'Sponsor'
p1930
sg15
S'P-easy-06'
p1931
sg16
S''
sbag1
(g10
g3
NtRp1932
(dp1933
g13
S'Say'
p1934
sg14
S'Sponsor'
p1935
sg15
S''
sg16
S"Wow! You sure have what it takes! Alright, he's a pile of cash!"
p1936
sbag1
(g10
g3
NtRp1937
(dp1938
g13
S'Say'
p1939
sg14
S'Sponsor'
p1940
sg15
S''
sg16
S'Also, now that you have some funds, you might find it useful to...grease the wheels in some difficult situations.'
p1941
sbag1
(g10
g3
NtRp1942
(dp1943
g13
S'LearnAttack'
p1944
sg14
S'Sponsor'
p1945
sg15
S'BRIBE'
p1946
sg16
S'Phillip and Sarah learn to Bribe'
p1947
sbag1
(g10
g3
NtRp1948
(dp1949
g13
S'LearnAttack'
p1950
sg14
S'Sponsor'
p1951
sg15
S'Wife:BRIBE'
p1952
sg16
S''
sbag1
(g10
g3
NtRp1953
(dp1954
g13
S'SetFlag'
p1955
sg14
S'Sponsor'
p1956
sg15
S'STARTCONSTITUENTS'
p1957
sg16
S''
sbag1
(g10
g3
NtRp1958
(dp1959
g13
S'PlayerSay'
p1960
sg14
S'Sponsor'
p1961
sg15
S''
sg16
S'Er, thanks! I suppose we should go gather some support from our constituents now.'
p1962
sbag1
(g10
g3
NtRp1963
(dp1964
g13
S'Say'
p1965
sg14
S'Sponsor'
p1966
sg15
S''
sg16
S"Makes sense to me! I'm off, too. Money, money, money."
p1967
sbag1
(g10
g3
NtRp1968
(dp1969
g13
S'Destroy'
p1970
sg14
S'Sponsor'
p1971
sg15
S''
sg16
S''
sbasS'CheatAct2P2'
p1972
(lp1973
g1
(g10
g3
NtRp1974
(dp1975
g13
S'AddAlly'
p1976
sg14
g1972
sg15
S'Wife:1'
p1977
sg16
S''
sbag1
(g10
g3
NtRp1978
(dp1979
g13
S'LearnAttack'
p1980
sg14
S'CheatAct2P2'
p1981
sg15
S'BRIBE'
p1982
sg16
S''
sbag1
(g10
g3
NtRp1983
(dp1984
g13
S'LearnAttack'
p1985
sg14
S'CheatAct2P2'
p1986
sg15
S'Wife:BRIBE'
p1987
sg16
S''
sbag1
(g10
g3
NtRp1988
(dp1989
g13
S'LearnAttack'
p1990
sg14
S'CheatAct2P2'
p1991
sg15
S'SLANDER'
p1992
sg16
S''
sbag1
(g10
g3
NtRp1993
(dp1994
g13
S'AddAlly'
p1995
sg14
S'CheatAct2P2'
p1996
sg15
S'Leo:1'
p1997
sg16
S''
sbag1
(g10
g3
NtRp1998
(dp1999
g13
S'GotoMap'
p2000
sg14
S'CheatAct2P2'
p2001
sg15
S'act2campaign'
p2002
sg16
S''
sbasS'P-med-12'
p2003
(lp2004
g1
(g10
g3
NtRp2005
(dp2006
g13
S'Say'
p2007
sg14
g2003
sg15
S'Lobbyist001'
p2008
sg16
S'import combat'
p2009
sbasS'Lobbyist3'
p2010
(lp2011
g1
(g10
g3
NtRp2012
(dp2013
g13
S'RequireFlag'
p2014
sg14
g2010
sg15
S'STARTLOBBYISTS'
p2015
sg16
S'Mutter, mutter'
p2016
sbag1
(g10
g3
NtRp2017
(dp2018
g13
S'Say'
p2019
sg14
S'Lobbyist3'
p2020
sg15
S''
sg16
S'Protection of internet memes'
p2021
sbag1
(g10
g3
NtRp2022
(dp2023
g13
S'Encounter'
p2024
sg14
S'Lobbyist3'
p2025
sg15
S'P-med-13'
p2026
sg16
S''
sbag1
(g10
g3
NtRp2027
(dp2028
g13
S'Increment'
p2029
sg14
S'Lobbyist3'
p2030
sg15
S'LOBBYISTS'
p2031
sg16
S''
sbag1
(g10
g3
NtRp2032
(dp2033
g13
S'Say'
p2034
sg14
S'Lobbyist3'
p2035
sg15
S''
sg16
S"It's a start."
p2036
sbag1
(g10
g3
NtRp2037
(dp2038
g13
S'Destroy'
p2039
sg14
S'Lobbyist3'
p2040
sg15
S''
sg16
S''
sbasS'Mayor'
p2041
(lp2042
g1
(g10
g3
NtRp2043
(dp2044
g13
S'Say'
p2045
sg14
g2041
sg15
S''
sg16
S"Hello, I'm the Mayor!"
p2046
sbag1
(g10
g3
NtRp2047
(dp2048
g13
S'PlayerSay'
p2049
sg14
S'Mayor'
p2050
sg15
S''
sg16
S"Hello, Mayor Goodman, I'm Philip Mossman."
p2051
sbag1
(g10
g3
NtRp2052
(dp2053
g13
S'Say'
p2054
sg14
S'Mayor'
p2055
sg15
S''
sg16
S"Ah yes, you're my new assistant. A good thing, too."
p2056
sbag1
(g10
g3
NtRp2057
(dp2058
g13
S'Say'
p2059
sg14
S'Mayor'
p2060
sg15
S''
sg16
S"I've been searching for minutes and haven't been able to find my pen! I bet my receptionist stole it. She has sticky fingers."
p2061
sbag1
(g10
g3
NtRp2062
(dp2063
g13
S'Say'
p2064
sg14
S'Mayor'
p2065
sg15
S''
sg16
S"Well, don't just stand there, go and get it!"
p2066
sbag1
(g10
g3
NtRp2067
(dp2068
g13
S'SetFlag'
p2069
sg14
S'Mayor'
p2070
sg15
S'PENQUEST'
p2071
sg16
S''
sbag1
(g10
g3
NtRp2072
(dp2073
g13
S'RequireItem'
p2074
sg14
S'Mayor'
p2075
sg15
S'PEN'
p2076
sg16
S'Are you simple? Go and get my pen from that thieving receptionist.'
p2077
sbag1
(g10
g3
NtRp2078
(dp2079
g13
S'Say'
p2080
sg14
S'Mayor'
p2081
sg15
S''
sg16
S"Great! I know she can give you a bit of a tongue-lashing, but she's a fantastic receptionist."
p2082
sbag1
(g10
g3
NtRp2083
(dp2084
g13
S'Say'
p2085
sg14
S'Mayor'
p2086
sg15
S''
sg16
S"You seem a little down, don't take her to heart"
p2087
sbag1
(g10
g3
NtRp2088
(dp2089
g13
S'RestoreVotes'
p2090
sg14
S'Mayor'
p2091
sg15
S''
sg16
S'Mayor Goodman restores votes.'
p2092
sbag1
(g10
g3
NtRp2093
(dp2094
g13
S'Say'
p2095
sg14
S'Mayor'
p2096
sg15
S''
sg16
S"I'm sure you want to learn a thing or two about politics \xe2\x80\x93 who doesn't? - so lets get started"
p2097
sbag1
(g10
g3
NtRp2098
(dp2099
g13
S'SetFlag'
p2100
sg14
S'Mayor'
p2101
sg15
S'PROTESTORS'
p2102
sg16
S''
sbag1
(g10
g3
NtRp2103
(dp2104
g13
S'RequireFlag'
p2105
sg14
S'Mayor'
p2106
sg15
S'PROTESTORSDEAD'
p2107
sg16
S'Run outside and tell those protesters to scram, will you?'
p2108
sbag1
(g10
g3
NtRp2109
(dp2110
g13
S'Say'
p2111
sg14
S'Mayor'
p2112
sg15
S''
sg16
S"Hope they didn't give you too much trouble!"
p2113
sbag1
(g10
g3
NtRp2114
(dp2115
g13
S'Say'
p2116
sg14
S'Mayor'
p2117
sg15
S''
sg16
S"Now that's sorted, there's a journalist from the local newspaper coming for an interview."
p2118
sbag1
(g10
g3
NtRp2119
(dp2120
g13
S'Say'
p2121
sg14
S'Mayor'
p2122
sg15
S''
sg16
S"I certainly don't have time for it, so you can do the interview."
p2123
sbag1
(g10
g3
NtRp2124
(dp2125
g13
S'Say'
p2126
sg14
S'Mayor'
p2127
sg15
S''
sg16
S"Be careful not to give too much away and if you could throw a few punches at the opposition that'd help."
p2128
sbag1
(g10
g3
NtRp2129
(dp2130
g13
S'PlayerSay'
p2131
sg14
S'Mayor'
p2132
sg15
S''
sg16
S'You want me to...throw a punch?'
p2133
sbag1
(g10
g3
NtRp2134
(dp2135
g13
S'Say'
p2136
sg14
S'Mayor'
p2137
sg15
S''
sg16
S"You're in politics and don't know how to fight dirty? Sheesh! Here, let me show you."
p2138
sbag1
(g10
g3
NtRp2139
(dp2140
g13
S'LearnAttack'
p2141
sg14
S'Mayor'
p2142
sg15
S'SLANDER'
p2143
sg16
S'Mayor teaches Phillip to Slander Opposition'
p2144
sbag1
(g10
g3
NtRp2145
(dp2146
g13
S'Say'
p2147
sg14
S'Mayor'
p2148
sg15
S''
sg16
S"It's a pretty great tactic because it keeps eating away at them long after you've done it."
p2149
sbag1
(g10
g3
NtRp2150
(dp2151
g13
S'SetFlag'
p2152
sg14
S'Mayor'
p2153
sg15
S'INTERVIEWSTART'
p2154
sg16
S''
sbag1
(g10
g3
NtRp2155
(dp2156
g13
S'RequireFlag'
p2157
sg14
S'Mayor'
p2158
sg15
S'JOURNALISTINTERVIEW'
p2159
sg16
S'Go handle that interview and remember to slander the opposition.'
p2160
sbag1
(g10
g3
NtRp2161
(dp2162
g13
S'SetFlag'
p2163
sg14
S'Mayor'
p2164
sg15
S'GOHOMETOWIFE'
p2165
sg16
S''
sbag1
(g10
g3
NtRp2166
(dp2167
g13
S'Say'
p2168
sg14
S'Mayor'
p2169
sg15
S''
sg16
S'OK, fine, now could you buzz off for a while? I need to get some work done.'
p2170
sbag1
(g10
g3
NtRp2171
(dp2172
g13
S'RequireFlag'
p2173
sg14
S'Mayor'
p2174
sg15
S'CONSTITUENTSWON'
p2175
sg16
S"Go home to your family. I have things to do that don't involve you."
p2176
sbag1
(g10
g3
NtRp2177
(dp2178
g13
S'Say'
p2179
sg14
S'Mayor'
p2180
sg15
S''
sg16
S"What's this I hear about you campaigning for Mayor? After everything I've taught you!"
p2181
sbag1
(g10
g3
NtRp2182
(dp2183
g13
S'PlayerSay'
p2184
sg14
S'Mayor'
p2185
sg15
S''
sg16
S"I'm sorry Mayor Goodman, but it's time for someone who's ready to make a difference for our town."
p2186
sbag1
(g10
g3
NtRp2187
(dp2188
g13
S'Say'
p2189
sg14
S'Mayor'
p2190
sg15
S''
sg16
S"You really are a fool. Do you think He's going to allow that?"
p2191
sbag1
(g10
g3
NtRp2192
(dp2193
g13
S'Encounter'
p2194
sg14
S'Mayor'
p2195
sg15
S'P-easy-10'
p2196
sg16
S''
sbag1
(g10
g3
NtRp2197
(dp2198
g13
S'Say'
p2199
sg14
S'Mayor'
p2200
sg15
S''
sg16
S"Well, you've beaten me but you don't have a clue what you're in for. I hope you're up to this kid!"
p2201
sbag1
(g10
g3
NtRp2202
(dp2203
g13
S'Destroy'
p2204
sg14
S'Mayor'
p2205
sg15
S''
sg16
S''
sbasS'Politician4'
p2206
(lp2207
g1
(g10
g3
NtRp2208
(dp2209
g13
S'RequireFlag'
p2210
sg14
g2206
sg15
S'STARTPOLITICIANSHAKEDOWN'
p2211
sg16
S'Good morning, Governor Mossman. Your PA will know your schedule. He is waiting in your room.'
p2212
sbag1
(g10
g3
NtRp2213
(dp2214
g13
S'Say'
p2215
sg14
S'Politician4'
p2216
sg15
S''
sg16
S"I'm for culture! It's a glorious age we live in, we should further this great country's culture."
p2217
sbag1
(g10
g3
NtRp2218
(dp2219
g13
S'PlayerSay'
p2220
sg14
S'Politician4'
p2221
sg15
S''
sg16
S'That sounds fair, but what kind of culture would you like to focus on.'
p2222
sbag1
(g10
g3
NtRp2223
(dp2224
g13
S'Say'
p2225
sg14
S'Politician4'
p2226
sg15
S''
sg16
S"Oh...I don't know, I'm not really into art, can't really handle music. I'd rather not go to the theatre if I can get out of it. Don't really see the point of sport...hmmm. New culture?"
p2227
sbag1
(g10
g3
NtRp2228
(dp2229
g13
S'PlayerSay'
p2230
sg14
S'Politician4'
p2231
sg15
S''
sg16
S"You don't seem very in to improving culture really."
p2232
sbag1
(g10
g3
NtRp2233
(dp2234
g13
S'Say'
p2235
sg14
S'Politician4'
p2236
sg15
S''
sg16
S'Yeh, well...my wife said it would make me sound smart. I think sounding smart is important. Lets be for that!'
p2237
sbag1
(g10
g3
NtRp2238
(dp2239
g13
S'Encounter'
p2240
sg14
S'Politician4'
p2241
sg15
S'P-med-08'
p2242
sg16
S''
sbag1
(g10
g3
NtRp2243
(dp2244
g13
S'Say'
p2245
sg14
S'Politician4'
p2246
sg15
S''
sg16
S"Gee, you're a pretty smart guy. I think you've got this covered."
p2247
sbag1
(g10
g3
NtRp2248
(dp2249
g13
S'Increment'
p2250
sg14
S'Politician4'
p2251
sg15
S'POLITICIANSHAKEDOWN'
p2252
sg16
S''
sbag1
(g10
g3
NtRp2253
(dp2254
g13
S'Destroy'
p2255
sg14
S'Politician4'
p2256
sg15
S''
sg16
S''
sbassS'attacks'
p2257
(dp2258
S'GETEXCLUSIVE'
p2259
g1
(g10
g3
NtRp2260
(dp2261
S'base_damage_max'
p2262
F4
sS'description'
p2263
S'asdf'
p2264
sS'weight'
p2265
I1
sS'crit_chance_max'
p2266
F5
sS'crit_chance_min'
p2267
F2
sS'underlying_stat'
p2268
S'Wit'
p2269
sS'target_type'
p2270
S'AllFriendly'
p2271
sS'base_damage_min'
p2272
F2
sS'spin_cost'
p2273
F5
sS'effects'
p2274
(lp2275
g1
(c__main__
Effect
p2276
g3
NtRp2277
(dp2278
S'function'
p2279
S'add'
p2280
sS'abbrv'
p2281
S'(INCREASE)'
p2282
sS'attribute'
p2283
S'cunning'
p2284
sS'value'
p2285
F2
sS'rounds_min'
p2286
F1
sS'rounds_max'
p2287
F4
sS'id'
p2288
S'Increase Cunning'
p2289
sS'apply_to_source'
p2290
S'TRUE'
p2291
sbasS'target_count'
p2292
I1
sS'crit_base_damage'
p2293
F8
sg2288
g2259
sS'name'
p2294
S'Get Exclusive'
p2295
sbsS'LOSELOSE'
p2296
g1
(g10
g3
NtRp2297
(dp2298
g2262
F4
sg2263
S'Causes all politicians in the target radius to lose votes'
p2299
sg2265
I1
sg2266
F0
sg2267
F0
sg2268
S'Cunning'
p2300
sg2270
S'All'
p2301
sg2272
F4
sg2273
I0
sg2274
(lp2302
sg2292
I6
sg2293
F0
sg2288
g2296
sg2294
S'Lose/lose issue'
p2303
sbsS'LIE'
p2304
g1
(g10
g3
NtRp2305
(dp2306
g2262
F6
sg2263
S"It's only lying if they catch you. A strong attack with a danger of failing entirely and leaving you high and dry."
p2307
sg2265
F3
sg2266
F10
sg2267
F2
sg2268
S'Wit'
p2308
sg2270
S'AllEnemy'
p2309
sg2272
F0
sg2273
I0
sg2274
(lp2310
g1
(g2276
g3
NtRp2311
(dp2312
g2279
S'miss_turn'
p2313
sg2281
S'(MISS)'
p2314
sg2283
S''
sg2285
F0
sg2286
F1
sg2287
F1
sg2288
S'Critical Fail'
p2315
sg2290
S'TRUE'
p2316
sbasg2292
I1
sg2293
F10
sg2288
g2304
sg2294
S'Lie'
p2317
sbsS'HILARIOUSANECDOTE'
p2318
g1
(g10
g3
NtRp2319
(dp2320
g2262
F8
sg2263
S'asdf'
p2321
sg2265
I1
sg2266
F0
sg2267
F0
sg2268
S'Wit'
p2322
sg2270
S'AllFriendly'
p2323
sg2272
F4
sg2273
F5
sg2274
(lp2324
g1
(g2276
g3
NtRp2325
(dp2326
g2279
S'add'
p2327
sg2281
S'(INCREASE)'
p2328
sg2283
S'flair'
p2329
sg2285
F2
sg2286
F1
sg2287
F4
sg2288
S'Increase Flair'
p2330
sg2290
S'TRUE'
p2331
sbasg2292
I1
sg2293
F0
sg2288
g2318
sg2294
S'Hilarious Anecdote'
p2332
sbsS'SENSATIONALISE'
p2333
g1
(g10
g3
NtRp2334
(dp2335
g2262
F8
sg2263
S'asdf'
p2336
sg2265
I1
sg2266
F0
sg2267
F0
sg2268
S'Wit'
p2337
sg2270
S'AllEnemy'
p2338
sg2272
F4
sg2273
F3
sg2274
(lp2339
sg2292
I1
sg2293
F0
sg2288
g2333
sg2294
S'Sensationalise'
p2340
sbsS'DENOUNCE'
p2341
g1
(g10
g3
NtRp2342
(dp2343
g2262
F5
sg2263
S'asdf'
p2344
sg2265
F6
sg2266
F10
sg2267
F2
sg2268
S'Cunning'
p2345
sg2270
S'AllEnemy'
p2346
sg2272
F2
sg2273
I0
sg2274
(lp2347
sg2292
I1
sg2293
F8
sg2288
g2341
sg2294
S'Denounce'
p2348
sbsS'WHADOWEWANT'
p2349
g1
(g10
g3
NtRp2350
(dp2351
g2262
F6
sg2263
S'asdf'
p2352
sg2265
I1
sg2266
F0
sg2267
F0
sg2268
S'Cunning'
p2353
sg2270
S'AllEnemy'
p2354
sg2272
F3
sg2273
I0
sg2274
(lp2355
sg2292
I1
sg2293
F0
sg2288
g2349
sg2294
S'Whadowewant!'
p2356
sbsS'SCOOP'
p2357
g1
(g10
g3
NtRp2358
(dp2359
g2262
F5
sg2263
S'asdf'
p2360
sg2265
I1
sg2266
F10
sg2267
F5
sg2268
S'Cunning'
p2361
sg2270
S'AllEnemy'
p2362
sg2272
F2
sg2273
I0
sg2274
(lp2363
sg2292
I1
sg2293
F8
sg2288
g2357
sg2294
S'Scoop'
p2364
sbsS'CHOOSETARGETS'
p2365
g1
(g10
g3
NtRp2366
(dp2367
g2262
F7
sg2263
S'asdf'
p2368
sg2265
I1
sg2266
F10
sg2267
F5
sg2268
S'Cunning'
p2369
sg2270
S'AllEnemy'
p2370
sg2272
F2
sg2273
I0
sg2274
(lp2371
sg2292
I1
sg2293
F9
sg2288
g2365
sg2294
S'Choose Targets'
p2372
sbsS'FILENAILS'
p2373
g1
(g10
g3
NtRp2374
(dp2375
g2262
F0
sg2263
S'asdf'
p2376
sg2265
I1
sg2266
F0
sg2267
F0
sg2268
S'Wit'
p2377
sg2270
S'AllEnemy'
p2378
sg2272
F0
sg2273
F3
sg2274
(lp2379
g1
(g2276
g3
NtRp2380
(dp2381
g2279
S'add_permanent'
p2382
sg2281
S''
sg2283
S'votes'
p2383
sg2285
F5
sg2286
F1
sg2287
F1
sg2288
S'Votes Restore'
p2384
sg2290
S'TRUE'
p2385
sbasg2292
I1
sg2293
F0
sg2288
g2373
sg2294
S'File Nails'
p2386
sbsS'BRIBE'
p2387
g1
(g10
g3
NtRp2388
(dp2389
g2262
F1
sg2263
S'Is there anything more convincing than money? Buying loyalty gets expensive so be careful.'
p2390
sg2265
I1
sg2266
F1
sg2267
F1
sg2268
S'Money'
p2391
sg2270
S'AllEnemy'
p2392
sg2272
F2
sg2273
I0
sg2274
(lp2393
sg2292
I1
sg2293
F1
sg2288
g2387
sg2294
S'Bribe'
p2394
sbsS'SING'
p2395
g1
(g10
g3
NtRp2396
(dp2397
g2262
F-3
sg2263
S'Why bandy words with politicians when you can sing a catchy tune! Restores votes.'
p2398
sg2265
I1
sg2266
F0
sg2267
F0
sg2268
S'Wit'
p2399
sg2270
S'AllFriendly'
p2400
sg2272
F-5
sg2273
I0
sg2274
(lp2401
sg2292
I4
sg2293
F0
sg2288
g2395
sg2294
S'Rousing Song'
p2402
sbsS'FEAR'
p2403
g1
(g10
g3
NtRp2404
(dp2405
g2262
F0
sg2263
S'asdf'
p2406
sg2265
F2
sg2266
F0
sg2267
F0
sg2268
S'Wit'
p2407
sg2270
S'AllFriendly'
p2408
sg2272
F0
sg2273
F4
sg2274
(lp2409
g2277
asg2292
I1
sg2293
F0
sg2288
g2403
sg2294
S'Fear Change'
p2410
sbsS'RAISEDEFCON'
p2411
g1
(g10
g3
NtRp2412
(dp2413
g2262
F5
sg2263
S'asdf'
p2414
sg2265
I1
sg2266
F7
sg2267
F3
sg2268
S'Cunning'
p2415
sg2270
S'AllEnemy'
p2416
sg2272
F4
sg2273
I0
sg2274
(lp2417
sg2292
I1
sg2293
F8
sg2288
g2411
sg2294
S'Raise DEFCON'
p2418
sbsS'NEGATTACKAD'
p2419
g1
(g10
g3
NtRp2420
(dp2421
g2262
F8
sg2263
S"Take them all down. They're definitely all bad people. Not like you."
p2422
sg2265
I1
sg2266
F10
sg2267
F10
sg2268
S'Cunning'
p2423
sg2270
S'AllEnemy'
p2424
sg2272
F3
sg2273
F5
sg2274
(lp2425
sg2292
I1
sg2293
F10
sg2288
g2419
sg2294
S'Negative Attack Ad'
p2426
sbsS'DAZZLE'
p2427
g1
(g10
g3
NtRp2428
(dp2429
g2262
F3
sg2263
S'Being dazzling and admirable is a great way to take heat off politics'
p2430
sg2265
I1
sg2266
F8
sg2267
F5
sg2268
S'Wit'
p2431
sg2270
S'AllEnemy'
p2432
sg2272
F2
sg2273
F3
sg2274
(lp2433
g1
(g2276
g3
NtRp2434
(dp2435
g2279
S'reduce'
p2436
sg2281
S'(REDUCE)'
p2437
sg2283
S'cunning'
p2438
sg2285
F2
sg2286
F2
sg2287
F5
sg2288
S'Reduce Cunning'
p2439
sg2290
S''
sbasg2292
I4
sg2293
F8
sg2288
g2427
sg2294
S'Dazzle'
p2440
sbsS'BELIEVEMEDIA'
p2441
g1
(g10
g3
NtRp2442
(dp2443
g2262
F3
sg2263
S'asdf'
p2444
sg2265
I1
sg2266
F15
sg2267
F5
sg2268
S'Cunning'
p2445
sg2270
S'AllEnemy'
p2446
sg2272
F1
sg2273
I0
sg2274
(lp2447
sg2292
I1
sg2293
F12
sg2288
g2441
sg2294
S'Believe Media'
p2448
sbsS'PRPREP'
p2449
g1
(g10
g3
NtRp2450
(dp2451
g2262
F0
sg2263
S"If you're going to need some spin, best see a spin doctor! Adds spin points."
p2452
sg2265
I1
sg2266
F0
sg2267
F0
sg2268
S''
sg2270
S'AllFriendly'
p2453
sg2272
F0
sg2273
I0
sg2274
(lp2454
g1
(g2276
g3
NtRp2455
(dp2456
g2279
S'add_permanent'
p2457
sg2281
S''
sg2283
S'spin'
p2458
sg2285
F5
sg2286
F0
sg2287
F0
sg2288
S'Spin Restore'
p2459
sg2290
S'TRUE'
p2460
sbasg2292
I1
sg2293
F0
sg2288
g2449
sg2294
S'PR Prep'
p2461
sbsS'CALLVATICAN'
p2462
g1
(g10
g3
NtRp2463
(dp2464
g2262
F0
sg2263
S'Brings in 2 additional ReligousNuts at 2 levels lower than this one'
p2465
sg2265
I1
sg2266
F0
sg2267
F0
sg2268
S'Wit'
p2466
sg2270
S'None'
p2467
sg2272
F0
sg2273
F5
sg2274
(lp2468
g1
(g2276
g3
NtRp2469
(dp2470
g2279
S'call_friends'
p2471
sg2281
S''
sg2283
S'ReligiousNut001:1'
p2472
sg2285
F2
sg2286
F1
sg2287
F1
sg2288
S'Call Friends'
p2473
sg2290
S''
sbasg2292
I1
sg2293
F0
sg2288
g2462
sg2294
S'Call Battycan'
p2474
sbsS'BLACKMAIL'
p2475
g1
(g10
g3
NtRp2476
(dp2477
g2262
F6
sg2263
S'asdf'
p2478
sg2265
I1
sg2266
F10
sg2267
F2
sg2268
S'Wit'
p2479
sg2270
S'AllEnemy'
p2480
sg2272
F3
sg2273
F4
sg2274
(lp2481
g1
(g2276
g3
NtRp2482
(dp2483
g2279
S'drain'
p2484
sg2281
S'(DRAIN)'
p2485
sg2283
S'votes'
p2486
sg2285
F1
sg2286
F2
sg2287
F5
sg2288
S'Drain Votes'
p2487
sg2290
S''
sbasg2292
I1
sg2293
F2
sg2288
g2475
sg2294
S'Blackmail'
p2488
sbsS'RUNAD'
p2489
g1
(g10
g3
NtRp2490
(dp2491
g2262
F0
sg2263
S'Gets back some votes by running an ad'
p2492
sg2265
I1
sg2266
F0
sg2267
F0
sg2268
S''
sg2270
S'AllFriendly'
p2493
sg2272
F0
sg2273
I0
sg2274
(lp2494
g1
(g2276
g3
NtRp2495
(dp2496
g2279
S'add_permanent'
p2497
sg2281
S''
sg2283
S'votes'
p2498
sg2285
F10
sg2286
F1
sg2287
F1
sg2288
S'Votes Restore Ad'
p2499
sg2290
S'TRUE'
p2500
sbasg2292
I1
sg2293
F0
sg2288
g2489
sg2294
S'Run Advertisement'
p2501
sbsS'PROTEST'
p2502
g1
(g10
g3
NtRp2503
(dp2504
g2262
F5
sg2263
S'asdf'
p2505
sg2265
F6
sg2266
F10
sg2267
F2
sg2268
S'Cunning'
p2506
sg2270
S'AllEnemy'
p2507
sg2272
F2
sg2273
I0
sg2274
(lp2508
sg2292
I1
sg2293
F8
sg2288
g2502
sg2294
S'Protest'
p2509
sbsS'SPREADRUMOUR'
p2510
g1
(g10
g3
NtRp2511
(dp2512
g2262
F6
sg2263
S'asdf'
p2513
sg2265
I1
sg2266
F10
sg2267
F2
sg2268
S'Wit'
p2514
sg2270
S'AllEnemy'
p2515
sg2272
F2
sg2273
F3
sg2274
(lp2516
sg2292
I4
sg2293
F8
sg2288
g2510
sg2294
S'Spread Rumour'
p2517
sbsS'AGENDA'
p2518
g1
(g10
g3
NtRp2519
(dp2520
g2262
F5
sg2263
S'asdf'
p2521
sg2265
F6
sg2266
F10
sg2267
F2
sg2268
S'Cunning'
p2522
sg2270
S'AllEnemy'
p2523
sg2272
F2
sg2273
I0
sg2274
(lp2524
sg2292
I1
sg2293
F8
sg2288
g2518
sg2294
S'Push Agenda'
p2525
sbsS'FILIBUSTER'
p2526
g1
(g10
g3
NtRp2527
(dp2528
g2262
F0
sg2263
S"You're not moving until they give in. Cause all opposition to miss their turn"
p2529
sg2265
I1
sg2266
F0
sg2267
F0
sg2268
S'Wit'
p2530
sg2270
S'AllEnemy'
p2531
sg2272
F0
sg2273
F8
sg2274
(lp2532
g1
(g2276
g3
NtRp2533
(dp2534
g2279
S'miss_turn'
p2535
sg2281
S'(MISS)'
p2536
sg2283
S''
sg2285
F0
sg2286
F1
sg2287
F1
sg2288
S'Miss Turn'
p2537
sg2290
S''
sbasg2292
I1
sg2293
F0
sg2288
g2526
sg2294
S'Filibuster'
p2538
sbsS'GATHERINTEL'
p2539
g1
(g10
g3
NtRp2540
(dp2541
g2262
F0
sg2263
S'Increases Cunning.'
p2542
sg2265
I1
sg2266
F0
sg2267
F0
sg2268
S'Wit'
p2543
sg2270
S'AllFriendly'
p2544
sg2272
F0
sg2273
F3
sg2274
(lp2545
g2277
asg2292
I2
sg2293
F0
sg2288
g2539
sg2294
S'Gather Intelligence'
p2546
sbsS'LOVE'
p2547
g1
(g10
g3
NtRp2548
(dp2549
g2262
F6
sg2263
S'asdf'
p2550
sg2265
F2
sg2266
F8
sg2267
F2
sg2268
S'Cunning'
p2551
sg2270
S'AllEnemy'
p2552
sg2272
F1
sg2273
I0
sg2274
(lp2553
sg2292
I1
sg2293
F7
sg2288
g2547
sg2294
S'Love'
p2554
sbsS'OUTOFCONTEXT'
p2555
g1
(g10
g3
NtRp2556
(dp2557
g2262
F3
sg2263
S'asdf'
p2558
sg2265
I1
sg2266
F5
sg2267
F2
sg2268
S'Wit'
p2559
sg2270
S'AllEnemy'
p2560
sg2272
F2
sg2273
F2
sg2274
(lp2561
g2482
asg2292
I1
sg2293
F5
sg2288
g2555
sg2294
S'Take Out Of Context'
p2562
sbsS'GREATSUIT'
p2563
g1
(g10
g3
NtRp2564
(dp2565
g2262
F6
sg2263
S'Well, we could argue, but have you noticed how fabulous this suit is?'
p2566
sg2265
I1
sg2266
F11
sg2267
F6
sg2268
S'Cunning'
p2567
sg2270
S'AllEnemy'
p2568
sg2272
F3
sg2273
I0
sg2274
(lp2569
sg2292
I1
sg2293
F12
sg2288
g2563
sg2294
S'Look Great In Suit'
p2570
sbsS'PEACE'
p2571
g1
(g10
g3
NtRp2572
(dp2573
g2262
F0
sg2263
S'asdf'
p2574
sg2265
I1
sg2266
F0
sg2267
F0
sg2268
S'Wit'
p2575
sg2270
S'AllEnemy'
p2576
sg2272
F0
sg2273
F3
sg2274
(lp2577
g2434
asg2292
I4
sg2293
F0
sg2288
g2571
sg2294
S'Peace'
p2578
sbsS'INSPSPEECH'
p2579
g1
(g10
g3
NtRp2580
(dp2581
g2262
F-2
sg2263
S'Restore votes to all party members'
p2582
sg2265
I1
sg2266
F0
sg2267
F0
sg2268
S'Cunning'
p2583
sg2270
S'AllFriendly'
p2584
sg2272
F-2
sg2273
I0
sg2274
(lp2585
sg2292
I4
sg2293
F0
sg2288
g2579
sg2294
S'Inspirational Speech'
p2586
sbsS'STRIKE'
p2587
g1
(g10
g3
NtRp2588
(dp2589
g2262
F8
sg2263
S'asdf'
p2590
sg2265
I1
sg2266
F0
sg2267
F0
sg2268
S'Wit'
p2591
sg2270
S'AllEnemy'
p2592
sg2272
F0
sg2273
F3
sg2274
(lp2593
g2311
asg2292
I1
sg2293
F0
sg2288
g2587
sg2294
S'Call A Strike'
p2594
sbsS'SLANDER'
p2595
g1
(g10
g3
NtRp2596
(dp2597
g2262
F3
sg2263
S'Strong against polititians...careful with those voters, though!'
p2598
sg2265
F4
sg2266
F10
sg2267
F2
sg2268
S'Wit'
p2599
sg2270
S'AllEnemy'
p2600
sg2272
F2
sg2273
I0
sg2274
(lp2601
g2482
asg2292
I1
sg2293
F5
sg2288
g2595
sg2294
S'Slander Opposition'
p2602
sbsS'NATTER'
p2603
g1
(g10
g3
NtRp2604
(dp2605
g2262
F8
sg2263
S'asdf'
p2606
sg2265
I1
sg2266
F15
sg2267
F5
sg2268
S'Cunning'
p2607
sg2270
S'AllEnemy'
p2608
sg2272
F1
sg2273
I0
sg2274
(lp2609
sg2292
I1
sg2293
F10
sg2288
g2603
sg2294
S'Natter On'
p2610
sbsS'GOSSIP'
p2611
g1
(g10
g3
NtRp2612
(dp2613
g2262
F3
sg2263
S'asdf'
p2614
sg2265
I1
sg2266
F10
sg2267
F2
sg2268
S'Wit'
p2615
sg2270
S'AllEnemy'
p2616
sg2272
F1
sg2273
F2
sg2274
(lp2617
g2434
asg2292
I1
sg2293
F6
sg2288
g2611
sg2294
S'Gossip'
p2618
sbsS'MISSTURN'
p2619
g1
(g10
g3
NtRp2620
(dp2621
g2262
F0
sg2263
S'asdf'
p2622
sg2265
I1
sg2266
F0
sg2267
F0
sg2268
S''
sg2270
S'AllEnemy'
p2623
sg2272
F0
sg2273
I0
sg2274
(lp2624
sg2292
I1
sg2293
F0
sg2288
g2619
sg2294
S'Miss Turn'
p2625
sbsS'BIELECTION'
p2626
g1
(g10
g3
NtRp2627
(dp2628
g2262
F4
sg2263
S'Redistribute votes amongst targets'
p2629
sg2265
I1
sg2266
F0
sg2267
F0
sg2268
S'Cunning'
p2630
sg2270
S'All'
p2631
sg2272
F-4
sg2273
F4
sg2274
(lp2632
sg2292
I8
sg2293
F0
sg2288
g2626
sg2294
S'Bielection'
p2633
sbsS'SCARE'
p2634
g1
(g10
g3
NtRp2635
(dp2636
g2262
F7
sg2263
S'Nothing rattles the brains like fear.'
p2637
sg2265
I1
sg2266
F10
sg2267
F2
sg2268
S'Wit'
p2638
sg2270
S'AllEnemy'
p2639
sg2272
F2
sg2273
I0
sg2274
(lp2640
g2434
asg2292
I2
sg2293
F9
sg2288
g2634
sg2294
S'Scare Campaign'
p2641
sbsS'PAYOFF'
p2642
g1
(g10
g3
NtRp2643
(dp2644
g2262
F7
sg2263
S'causes them to miss a number of turns'
p2645
sg2265
I1
sg2266
F8
sg2267
F2
sg2268
S'Wit'
p2646
sg2270
S'AllEnemy'
p2647
sg2272
F2
sg2273
F4
sg2274
(lp2648
g1
(g2276
g3
NtRp2649
(dp2650
g2279
S'miss_turn'
p2651
sg2281
S'(MISS)'
p2652
sg2283
S''
sg2285
F0
sg2286
F1
sg2287
F3
sg2288
S'Miss Turn Pay Off'
p2653
sg2290
S''
sbasg2292
I1
sg2293
F9
sg2288
g2642
sg2294
S'Pay Off'
p2654
sbsS'BUREAUCRACY'
p2655
g1
(g10
g3
NtRp2656
(dp2657
g2262
F5
sg2263
S'asdf'
p2658
sg2265
F6
sg2266
F10
sg2267
F2
sg2268
S'Cunning'
p2659
sg2270
S'AllEnemy'
p2660
sg2272
F2
sg2273
I0
sg2274
(lp2661
sg2292
I1
sg2293
F8
sg2288
g2655
sg2294
S'Bureaucracy'
p2662
sbsS'RALLYAUDIENCE'
p2663
g1
(g10
g3
NtRp2664
(dp2665
g2262
F8
sg2263
S'asdf'
p2666
sg2265
I1
sg2266
F0
sg2267
F0
sg2268
S'Wit'
p2667
sg2270
S'AllFriendly'
p2668
sg2272
F4
sg2273
F3
sg2274
(lp2669
g1
(g2276
g3
NtRp2670
(dp2671
g2279
S'add'
p2672
sg2281
S'(INCREASE)'
p2673
sg2283
S'charisma'
p2674
sg2285
F2
sg2286
F1
sg2287
F4
sg2288
S'Increase Charisma'
p2675
sg2290
S'TRUE'
p2676
sbasg2292
I1
sg2293
F0
sg2288
g2663
sg2294
S'Rally Audience'
p2677
sbsS'PORKBARREL'
p2678
g1
(g10
g3
NtRp2679
(dp2680
g2262
F6
sg2263
S'Do something that benefits them specifically. Not advised against politicians.'
p2681
sg2265
I1
sg2266
F0
sg2267
F0
sg2268
S'Wit'
p2682
sg2270
S'AllEnemy'
p2683
sg2272
F2
sg2273
F2
sg2274
(lp2684
sg2292
I1
sg2293
F0
sg2288
g2678
sg2294
S'Pork Barrel'
p2685
sbsS'INSPIRE'
p2686
g1
(g10
g3
NtRp2687
(dp2688
g2262
F0
sg2263
S'asdf'
p2689
sg2265
I1
sg2266
F0
sg2267
F0
sg2268
S'Wit'
p2690
sg2270
S'AllFriendly'
p2691
sg2272
F0
sg2273
F3
sg2274
(lp2692
g2277
asg2292
I4
sg2293
F0
sg2288
g2686
sg2294
S'Inspire'
p2693
sbsS'JOKE'
p2694
g1
(g10
g3
NtRp2695
(dp2696
g2262
F3
sg2263
S"Ha, ha, ha...what were we talking about? Diffuse the situation with some humour. Not good if it falls flat, but if they get it, it'll knock 'em dead."
p2697
sg2265
F3
sg2266
F30
sg2267
F10
sg2268
S'Wit'
p2698
sg2270
S'AllEnemy'
p2699
sg2272
F2
sg2273
I0
sg2274
(lp2700
sg2292
I1
sg2293
F10
sg2288
g2694
sg2294
S'Joke'
p2701
sbsS'PRAYFORSOULS'
p2702
g1
(g10
g3
NtRp2703
(dp2704
g2262
F6
sg2263
S'asdf'
p2705
sg2265
F2
sg2266
F10
sg2267
F2
sg2268
S'Cunning'
p2706
sg2270
S'None'
p2707
sg2272
F3
sg2273
I0
sg2274
(lp2708
sg2292
I1
sg2293
F10
sg2288
g2702
sg2294
S'Pray'
p2709
sbsS'REVIVE'
p2710
g1
(g10
g3
NtRp2711
(dp2712
g2262
F0
sg2263
S'Revive a defeated comrade to half votes'
p2713
sg2265
I1
sg2266
F0
sg2267
F0
sg2268
S''
sg2270
S'DeadFriendly'
p2714
sg2272
F0
sg2273
F3
sg2274
(lp2715
g1
(g2276
g3
NtRp2716
(dp2717
g2279
S'revive'
p2718
sg2281
S''
sg2283
S''
sg2285
F0.5
sg2286
F0
sg2287
F0
sg2288
S'Revive'
p2719
sg2290
S''
sbasg2292
I1
sg2293
F0
sg2288
g2710
sg2294
S'Revive'
p2720
sbsS'HUMANSHIELD'
p2721
g1
(g10
g3
NtRp2722
(dp2723
g2262
F5
sg2263
S'No further questions. Step back, please.'
p2724
sg2265
I1
sg2266
F5
sg2267
F2
sg2268
S'Wit'
p2725
sg2270
S'AllEnemy'
p2726
sg2272
F2
sg2273
F4
sg2274
(lp2727
g2533
asg2292
I2
sg2293
F12
sg2288
g2721
sg2294
S'Human Shield'
p2728
sbsS'MAKEDEMANDS'
p2729
g1
(g10
g3
NtRp2730
(dp2731
g2262
F8
sg2263
S'asdf'
p2732
sg2265
I1
sg2266
F0
sg2267
F0
sg2268
S'Cunning'
p2733
sg2270
S'AllEnemy'
p2734
sg2272
F0
sg2273
I0
sg2274
(lp2735
g2311
asg2292
I1
sg2293
F0
sg2288
g2729
sg2294
S'Make Outrageous Demands'
p2736
sbsS'DEFENSE'
p2737
g1
(g10
g3
NtRp2738
(dp2739
g2262
F0
sg2263
S'Gather strenth; -50% to all incoming attacks'
p2740
sg2265
I1
sg2266
F0
sg2267
F0
sg2268
S''
sg2270
S'None'
p2741
sg2272
F0
sg2273
I0
sg2274
(lp2742
g1
(g2276
g3
NtRp2743
(dp2744
g2279
S'add'
p2745
sg2281
S'(DFND)'
p2746
sg2283
S'resistance'
p2747
sg2285
F0.5
sg2286
F1
sg2287
F1
sg2288
S'Defense'
p2748
sg2290
S'TRUE'
p2749
sbasg2292
I1
sg2293
F0
sg2288
g2737
sg2294
S'Defense'
p2750
sbsS'MISCONSTRUE'
p2751
g1
(g10
g3
NtRp2752
(dp2753
g2262
F8
sg2263
S'asdf'
p2754
sg2265
I1
sg2266
F0
sg2267
F0
sg2268
S'Cunning'
p2755
sg2270
S'AllEnemy'
p2756
sg2272
F0
sg2273
I0
sg2274
(lp2757
g2311
asg2292
I1
sg2293
F0
sg2288
g2751
sg2294
S'Misconstrue'
p2758
sbsS'NATIONALSECURITY'
p2759
g1
(g10
g3
NtRp2760
(dp2761
g2262
F7
sg2263
S"This is a matter of national security and they don't have codeword clearance"
p2762
sg2265
I1
sg2266
F10
sg2267
F2
sg2268
S'Cunning'
p2763
sg2270
S'AllEnemy'
p2764
sg2272
F2
sg2273
I0
sg2274
(lp2765
sg2292
I1
sg2293
F9
sg2288
g2759
sg2294
S'National Security'
p2766
sbsS'RALLY'
p2767
g1
(g10
g3
NtRp2768
(dp2769
g2262
F-2
sg2263
S'Get back some votes by rallying supporters'
p2770
sg2265
I1
sg2266
F0
sg2267
F0
sg2268
S'Wit'
p2771
sg2270
S'AllFriendly'
p2772
sg2272
F-4
sg2273
F2
sg2274
(lp2773
sg2292
I1
sg2293
F0
sg2288
g2767
sg2294
S'Rally Constituents'
p2774
sbsS'MESSAGE'
p2775
g1
(g10
g3
NtRp2776
(dp2777
g2262
F5
sg2263
S'You can certainly wear them down by repeating your party line over and over and over...if you want'
p2778
sg2265
F6
sg2266
F10
sg2267
F2
sg2268
S'Wit'
p2779
sg2270
S'AllEnemy'
p2780
sg2272
F2
sg2273
I0
sg2274
(lp2781
sg2292
I1
sg2293
F8
sg2288
g2775
sg2294
S'Stay On Message'
p2782
sbsS'APPEALTOGOD'
p2783
g1
(g10
g3
NtRp2784
(dp2785
g2262
F6
sg2263
S'asdf'
p2786
sg2265
F3
sg2266
F0
sg2267
F0
sg2268
S'Wit'
p2787
sg2270
S'AllEnemy'
p2788
sg2272
F4
sg2273
F7
sg2274
(lp2789
sg2292
I4
sg2293
F0
sg2288
g2783
sg2294
S'Appeal To God'
p2790
sbssS'levels'
p2791
(lp2792
g1
(g10
g3
NtRp2793
(dp2794
S'votes'
p2795
F10
sS'level'
p2796
F1
sS'spin'
p2797
F5
sS'xp'
p2798
F0
sS'skill_points'
p2799
F0
sbag1
(g10
g3
NtRp2800
(dp2801
g2795
F12
sg2796
F2
sg2797
F5
sg2798
F100
sg2799
F2
sbag1
(g10
g3
NtRp2802
(dp2803
g2795
F15
sg2796
F3
sg2797
F6
sg2798
F200
sg2799
F2
sbag1
(g10
g3
NtRp2804
(dp2805
g2795
F20
sg2796
F4
sg2797
F6
sg2798
F500
sg2799
F2
sbag1
(g10
g3
NtRp2806
(dp2807
g2795
F25
sg2796
F5
sg2797
F7
sg2798
F1000
sg2799
F2
sbag1
(g10
g3
NtRp2808
(dp2809
g2795
F30
sg2796
F6
sg2797
F7
sg2798
F2000
sg2799
F2
sbag1
(g10
g3
NtRp2810
(dp2811
g2795
F35
sg2796
F7
sg2797
F8
sg2798
F5000
sg2799
F2
sbag1
(g10
g3
NtRp2812
(dp2813
g2795
F40
sg2796
F8
sg2797
F8
sg2798
F10000
sg2799
F2
sbag1
(g10
g3
NtRp2814
(dp2815
g2795
F45
sg2796
F9
sg2797
F9
sg2798
F15000
sg2799
F2
sbag1
(g10
g3
NtRp2816
(dp2817
g2795
F50
sg2796
F10
sg2797
F9
sg2798
F20000
sg2799
F2
sbag1
(g10
g3
NtRp2818
(dp2819
g2795
F55
sg2796
F11
sg2797
F10
sg2798
F40000
sg2799
F2
sbag1
(g10
g3
NtRp2820
(dp2821
g2795
S''
sg2796
F12
sg2797
S''
sg2798
S''
sg2799
S''
sbag1
(g10
g3
NtRp2822
(dp2823
g2795
S''
sg2796
F13
sg2797
S''
sg2798
S''
sg2799
S''
sbag1
(g10
g3
NtRp2824
(dp2825
g2795
S''
sg2796
F14
sg2797
S''
sg2798
S''
sg2799
S''
sbag1
(g10
g3
NtRp2826
(dp2827
g2795
S''
sg2796
F15
sg2797
S''
sg2798
S''
sg2799
S''
sbag1
(g10
g3
NtRp2828
(dp2829
g2795
S''
sg2796
F16
sg2797
S''
sg2798
S''
sg2799
S''
sbag1
(g10
g3
NtRp2830
(dp2831
g2795
S''
sg2796
F17
sg2797
S''
sg2798
S''
sg2799
S''
sbag1
(g10
g3
NtRp2832
(dp2833
g2795
S''
sg2796
F18
sg2797
S''
sg2798
S''
sg2799
S''
sbag1
(g10
g3
NtRp2834
(dp2835
g2795
S''
sg2796
F19
sg2797
S''
sg2798
S''
sg2799
S''
sbag1
(g10
g3
NtRp2836
(dp2837
g2795
S''
sg2796
F20
sg2797
S''
sg2798
S''
sg2799
S''
sbag1
(g10
g3
NtRp2838
(dp2839
g2795
S''
sg2796
F21
sg2797
S''
sg2798
S''
sg2799
S''
sbag1
(g10
g3
NtRp2840
(dp2841
g2795
S''
sg2796
F22
sg2797
S''
sg2798
S''
sg2799
S''
sbag1
(g10
g3
NtRp2842
(dp2843
g2795
S''
sg2796
F23
sg2797
S''
sg2798
S''
sg2799
S''
sbag1
(g10
g3
NtRp2844
(dp2845
g2795
S''
sg2796
F24
sg2797
S''
sg2798
S''
sg2799
S''
sbag1
(g10
g3
NtRp2846
(dp2847
g2795
S''
sg2796
F25
sg2797
S''
sg2798
S''
sg2799
S''
sbag1
(g10
g3
NtRp2848
(dp2849
g2795
S''
sg2796
F26
sg2797
S''
sg2798
S''
sg2799
S''
sbag1
(g10
g3
NtRp2850
(dp2851
g2795
S''
sg2796
F27
sg2797
S''
sg2798
S''
sg2799
S''
sbag1
(g10
g3
NtRp2852
(dp2853
g2795
S''
sg2796
F28
sg2797
S''
sg2798
S''
sg2799
S''
sbag1
(g10
g3
NtRp2854
(dp2855
g2795
S''
sg2796
F29
sg2797
S''
sg2798
S''
sg2799
S''
sbasg2274
(dp2856
g2289
g2277
sg2384
g2380
sg2459
g2455
sg2675
g2670
sg2537
g2533
sg2473
g2469
sg2499
g2495
sg2653
g2649
sg2719
g2716
sg2439
g2434
sg2487
g2482
sg2748
g2743
sg2315
g2311
sg2330
g2325
ssS'characters'
p2857
(dp2858
S'Teacher001'
p2859
(lp2860
g1
(g10
g3
NtRp2861
(dp2862
S'flair_base'
p2863
F1
sS'spin_base'
p2864
F4
sS'flair_lvl'
p2865
F1.1499999999999999
sS'wit_base'
p2866
F1
sS'resistance'
p2867
(lp2868
sS'wit_lvl'
p2869
F1.0900000000000001
sS'cunning_base'
p2870
F1
sg2288
g2859
sS'votes_base'
p2871
F10
sS'speed_lvl'
p2872
F1.0800000000000001
sS'standard_attacks'
p2873
(lp2874
g2738
ag2503
asS'cunning_lvl'
p2875
F1.1000000000000001
sS'charisma_lvl'
p2876
F1.1499999999999999
sS'spin_attacks'
p2877
(lp2878
g2588
ag2768
asS'spin_lvl'
p2879
F1.0800000000000001
sS'charisma_base'
p2880
F1
sS'weaknesses'
p2881
(lp2882
sS'attack_group'
p2883
S'Teacher'
p2884
sS'votes_lvl'
p2885
F1.2
sg2294
S'Teacher'
p2886
sS'speed_base'
p2887
F1
sS'immunities'
p2888
(lp2889
sbasS'Politician001'
p2890
(lp2891
g1
(g10
g3
NtRp2892
(dp2893
g2863
F1
sg2864
F4
sg2865
F1.1499999999999999
sg2866
F1
sg2867
(lp2894
g2305
asg2869
F1.0900000000000001
sg2870
F1
sg2288
g2890
sg2871
F10
sg2872
F1.0800000000000001
sg2873
(lp2895
g2776
ag2596
ag2305
ag2695
ag2738
asg2875
F1.1000000000000001
sg2876
F1.1499999999999999
sg2877
(lp2896
g2627
ag2420
ag2711
asg2879
F1.0800000000000001
sg2880
F1
sg2881
(lp2897
g2388
asg2883
S'Politician'
p2898
sg2885
F1.2
sg2294
S'Politician'
p2899
sg2887
F1
sg2888
(lp2900
g2679
asbasS'SecretAgent'
p2901
(lp2902
g1
(g10
g3
NtRp2903
(dp2904
g2863
F1
sg2864
F4
sg2865
F1.1499999999999999
sg2866
F1
sg2867
(lp2905
sg2869
F1.0900000000000001
sg2870
F1
sg2288
g2901
sg2871
F18
sg2872
F1.0800000000000001
sg2873
(lp2906
g2738
ag2760
ag2564
asg2875
F1.1000000000000001
sg2876
F1.1499999999999999
sg2877
(lp2907
g2722
ag2540
asg2879
F1.0800000000000001
sg2880
F1
sg2881
(lp2908
sg2883
S'SecretAgent'
p2909
sg2885
F1.2
sg2294
S'Agent Kawalski'
p2910
sg2887
F1
sg2888
(lp2911
sbasS'Bumpkin001'
p2912
(lp2913
g1
(g10
g3
NtRp2914
(dp2915
g2863
F1
sg2864
F4
sg2865
F1.1499999999999999
sg2866
F1
sg2867
(lp2916
sg2869
F1.0900000000000001
sg2870
F1
sg2288
g2912
sg2871
F10
sg2872
F1.0800000000000001
sg2873
(lp2917
g2695
ag2442
asg2875
F1.1000000000000001
sg2876
F1.1499999999999999
sg2877
(lp2918
g2404
ag2511
asg2879
F1.0800000000000001
sg2880
F1
sg2881
(lp2919
g2305
ag2596
ag2635
asg2883
S'Bumpkin'
p2920
sg2885
F1.2
sg2294
S'Bumpkin'
p2921
sg2887
F1
sg2888
(lp2922
sbasS'WarVet001'
p2923
(lp2924
g1
(g10
g3
NtRp2925
(dp2926
g2863
F1
sg2864
F4
sg2865
F1.1499999999999999
sg2866
F1
sg2867
(lp2927
sg2869
F1.0900000000000001
sg2870
F1
sg2288
g2923
sg2871
F10
sg2872
F1.0800000000000001
sg2873
(lp2928
g2730
ag2738
asg2875
F1.1000000000000001
sg2876
F1.1499999999999999
sg2877
(lp2929
g2687
ag2768
asg2879
F1.0800000000000001
sg2880
F1
sg2881
(lp2930
sg2883
S'WarVet'
p2931
sg2885
F1.2
sg2294
S'War Veteran'
p2932
sg2887
F1
sg2888
(lp2933
sbasS'Receptionist001'
p2934
(lp2935
g1
(g10
g3
NtRp2936
(dp2937
g2863
F1
sg2864
F4
sg2865
F1.1499999999999999
sg2866
F1
sg2867
(lp2938
sg2869
F1.0900000000000001
sg2870
F1
sg2288
g2934
sg2871
F10
sg2872
F1.0800000000000001
sg2873
(lp2939
g2656
ag2604
asg2875
F1.1000000000000001
sg2876
F1.1499999999999999
sg2877
(lp2940
g2612
ag2374
asg2879
F1.0800000000000001
sg2880
F1
sg2881
(lp2941
sg2883
S'Receptionist'
p2942
sg2885
F1.2
sg2294
S'Receptionist'
p2943
sg2887
F1
sg2888
(lp2944
sbasS'DeepThroat'
p2945
(lp2946
g1
(g10
g3
NtRp2947
(dp2948
g2863
F1
sg2864
F4
sg2865
F1.1499999999999999
sg2866
F1
sg2867
(lp2949
sg2869
F1.0900000000000001
sg2870
F1
sg2288
g2945
sg2871
F10
sg2872
F1.0800000000000001
sg2873
(lp2950
g2596
ag2738
ag2730
asg2875
F1.1000000000000001
sg2876
F1.1499999999999999
sg2877
(lp2951
g2476
asg2879
F1.0800000000000001
sg2880
F1
sg2881
(lp2952
sg2883
S'DeepThroat'
p2953
sg2885
F1.2
sg2294
S'Mr Er...?'
p2954
sg2887
F1
sg2888
(lp2955
sbasS'Leo'
p2956
(lp2957
g1
(g10
g3
NtRp2958
(dp2959
g2863
F1
sg2864
F4
sg2865
F1.1499999999999999
sg2866
F1
sg2867
(lp2960
sg2869
F1.0900000000000001
sg2870
F1
sg2288
g2956
sg2871
F14
sg2872
F1.0800000000000001
sg2873
(lp2961
g2776
ag2596
ag2305
ag2695
ag2388
asg2875
F1.1000000000000001
sg2876
F1.1499999999999999
sg2877
(lp2962
g2627
ag2420
ag2679
ag2527
asg2879
F1.0800000000000001
sg2880
F1
sg2881
(lp2963
sg2883
S'Theo'
p2964
sg2885
F1.2
sg2294
S'Theo'
p2965
sg2887
F1
sg2888
(lp2966
sbasS'HippyGirl001'
p2967
(lp2968
g1
(g10
g3
NtRp2969
(dp2970
g2863
F1
sg2864
F4
sg2865
F1.1499999999999999
sg2866
F1
sg2867
(lp2971
sg2869
F1.0900000000000001
sg2870
F1
sg2288
g2967
sg2871
F10
sg2872
F1.0800000000000001
sg2873
(lp2972
g2396
ag2503
ag2548
asg2875
F1.1000000000000001
sg2876
F1.1499999999999999
sg2877
(lp2973
g2572
ag2768
ag2711
asg2879
F1.0800000000000001
sg2880
F1
sg2881
(lp2974
g2695
asg2883
S'Hippy'
p2975
sg2885
F1.2
sg2294
S'Hippy Girl'
p2976
sg2887
F1
sg2888
(lp2977
sbasS'President'
p2978
(lp2979
g1
(g10
g3
NtRp2980
(dp2981
g2863
F1
sg2864
F4
sg2865
F1.1499999999999999
sg2866
F1
sg2867
(lp2982
sg2869
F1.0900000000000001
sg2870
F1
sg2288
g2978
sg2871
F10
sg2872
F1.0800000000000001
sg2873
(lp2983
g2776
ag2596
ag2305
ag2695
ag2738
asg2875
F1.1000000000000001
sg2876
F1.1499999999999999
sg2877
(lp2984
g2627
ag2420
ag2711
asg2879
F1.0800000000000001
sg2880
F1
sg2881
(lp2985
sg2883
S'Politician'
p2986
sg2885
F1.2
sg2294
S'President Allen'
p2987
sg2887
F1
sg2888
(lp2988
sbasS'Unionist001'
p2989
(lp2990
g1
(g10
g3
NtRp2991
(dp2992
g2863
F1
sg2864
F4
sg2865
F1.1499999999999999
sg2866
F1
sg2867
(lp2993
sg2869
F1.0900000000000001
sg2870
F1
sg2288
g2989
sg2871
F10
sg2872
F1.0800000000000001
sg2873
(lp2994
g2730
ag2738
ag2503
asg2875
F1.1000000000000001
sg2876
F1.1499999999999999
sg2877
(lp2995
g2588
asg2879
F1.0800000000000001
sg2880
F1
sg2881
(lp2996
sg2883
S'Unionist'
p2997
sg2885
F1.2
sg2294
S'Unionist'
p2998
sg2887
F1
sg2888
(lp2999
sbasS'Wife'
p3000
(lp3001
g1
(g10
g3
NtRp3002
(dp3003
g2863
F1
sg2864
F4
sg2865
F1.1499999999999999
sg2866
F1
sg2867
(lp3004
sg2869
F1.0900000000000001
sg2870
F1
sg2288
g3000
sg2871
F12
sg2872
F1.0800000000000001
sg2873
(lp3005
g2738
ag2776
asg2875
F1.1000000000000001
sg2876
F1.1499999999999999
sg2877
(lp3006
g2768
ag2711
ag2428
asg2879
F1.0800000000000001
sg2880
F1
sg2881
(lp3007
sg2883
S'Wife'
p3008
sg2885
F1.2
sg2294
S'Sarah Mossman'
p3009
sg2887
F1
sg2888
(lp3010
sbasS'PresidentAlien'
p3011
(lp3012
g1
(g10
g3
NtRp3013
(dp3014
g2863
F1
sg2864
F4
sg2865
F1.1499999999999999
sg2866
F1
sg2867
(lp3015
sg2869
F1.0900000000000001
sg2870
F1
sg2288
g3011
sg2871
F10
sg2872
F1.0800000000000001
sg2873
(lp3016
g2776
ag2596
ag2305
ag2695
ag2738
asg2875
F1.1000000000000001
sg2876
F1.1499999999999999
sg2877
(lp3017
g2627
ag2420
ag2711
asg2879
F1.0800000000000001
sg2880
F1
sg2881
(lp3018
sg2883
S'Politician'
p3019
sg2885
F1.2
sg2294
S'President Alien'
p3020
sg2887
F1
sg2888
(lp3021
sbasS'Governor'
p3022
(lp3023
g1
(g10
g3
NtRp3024
(dp3025
g2863
F1
sg2864
F4
sg2865
F1.1499999999999999
sg2866
F1
sg2867
(lp3026
sg2869
F1.0900000000000001
sg2870
F1
sg2288
g3022
sg2871
F10
sg2872
F1.0800000000000001
sg2873
(lp3027
g2776
ag2596
ag2305
ag2695
ag2738
asg2875
F1.1000000000000001
sg2876
F1.1499999999999999
sg2877
(lp3028
g2627
ag2420
ag2711
asg2879
F1.0800000000000001
sg2880
F1
sg2881
(lp3029
sg2883
S'Politician'
p3030
sg2885
F1.2
sg2294
g3022
sg2887
F1
sg2888
(lp3031
sbasS'Lobbyist001'
p3032
(lp3033
g1
(g10
g3
NtRp3034
(dp3035
g2863
F1
sg2864
F4
sg2865
F1.1499999999999999
sg2866
F1
sg2867
(lp3036
sg2869
F1.0900000000000001
sg2870
F1
sg2288
g3032
sg2871
F10
sg2872
F1.0800000000000001
sg2873
(lp3037
g2519
ag2730
asg2875
F1.1000000000000001
sg2876
F1.1499999999999999
sg2877
(lp3038
g2643
ag2476
asg2879
F1.0800000000000001
sg2880
F1
sg2881
(lp3039
g2679
asg2883
S'Lobbyist'
p3040
sg2885
F1.2
sg2294
S'Lobbyist'
p3041
sg2887
F1
sg2888
(lp3042
g2388
asbasS'Journalist001'
p3043
(lp3044
g1
(g10
g3
NtRp3045
(dp3046
g2863
F1
sg2864
F4
sg2865
F1.1499999999999999
sg2866
F1
sg2867
(lp3047
sg2869
F1.0900000000000001
sg2870
F1
sg2288
g3043
sg2871
F10
sg2872
F1.0800000000000001
sg2873
(lp3048
g2358
ag2752
asg2875
F1.1000000000000001
sg2876
F1.1499999999999999
sg2877
(lp3049
g2556
ag2260
ag2334
asg2879
F1.0800000000000001
sg2880
F1
sg2881
(lp3050
sg2883
S'Journalist'
p3051
sg2885
F1.2
sg2294
S'Journalist'
p3052
sg2887
F1
sg2888
(lp3053
sbasS'ReligiousNut001'
p3054
(lp3055
g1
(g10
g3
NtRp3056
(dp3057
g2863
F1
sg2864
F4
sg2865
F1.1499999999999999
sg2866
F1
sg2867
(lp3058
sg2869
F1.0900000000000001
sg2870
F1
sg2288
g3054
sg2871
F10
sg2872
F1.0800000000000001
sg2873
(lp3059
g2342
ag2703
ag2738
asg2875
F1.1000000000000001
sg2876
F1.1499999999999999
sg2877
(lp3060
g2784
ag2463
asg2879
F1.0800000000000001
sg2880
F1
sg2881
(lp3061
sg2883
S'Religious'
p3062
sg2885
F1.2
sg2294
S'Religious Nut'
p3063
sg2887
F1
sg2888
(lp3064
g2695
asbasS'JointChief001'
p3065
(lp3066
g1
(g10
g3
NtRp3067
(dp3068
g2863
F1
sg2864
F4
sg2865
F1.1499999999999999
sg2866
F1
sg2867
(lp3069
sg2869
F1.0900000000000001
sg2870
F1
sg2288
g3065
sg2871
F10
sg2872
F1.0800000000000001
sg2873
(lp3070
g2730
ag2738
ag2760
ag2412
asg2875
F1.1000000000000001
sg2876
F1.1499999999999999
sg2877
(lp3071
g2540
asg2879
F1.0800000000000001
sg2880
F1
sg2881
(lp3072
sg2883
S'JointChief'
p3073
sg2885
F1.2
sg2294
S'Joint Chief'
p3074
sg2887
F1
sg2888
(lp3075
sbasS'Protester001'
p3076
(lp3077
g1
(g10
g3
NtRp3078
(dp3079
g2863
F1
sg2864
F4
sg2865
F1.1499999999999999
sg2866
F1
sg2867
(lp3080
sg2869
F1.0900000000000001
sg2870
F1
sg2288
g3076
sg2871
F10
sg2872
F1.0800000000000001
sg2873
(lp3081
g2503
ag2350
ag2396
asg2875
F1.1000000000000001
sg2876
F1.1499999999999999
sg2877
(lp3082
g2768
asg2879
F1.0800000000000001
sg2880
F1
sg2881
(lp3083
sg2883
S'Protestor'
p3084
sg2885
F1.2
sg2294
S'Protester'
p3085
sg2887
F1
sg2888
(lp3086
sbasS'TVPersonality001'
p3087
(lp3088
g1
(g10
g3
NtRp3089
(dp3090
g2863
F1
sg2864
F4
sg2865
F1.1499999999999999
sg2866
F1
sg2867
(lp3091
sg2869
F1.0900000000000001
sg2870
F1
sg2288
g3087
sg2871
F10
sg2872
F1.0800000000000001
sg2873
(lp3092
g2695
ag2358
asg2875
F1.1000000000000001
sg2876
F1.1499999999999999
sg2877
(lp3093
g2334
ag2319
asg2879
F1.0800000000000001
sg2880
F1
sg2881
(lp3094
sg2883
S'TVPersonality'
p3095
sg2885
F1.2
sg2294
S"Hecules O'Grady"
p3096
sg2887
F1
sg2888
(lp3097
sbasS'Player'
p3098
(lp3099
g1
(g10
g3
NtRp3100
(dp3101
g2863
F1
sg2864
F5
sg2865
F1.1499999999999999
sg2866
F1
sg2867
(lp3102
sg2869
F1.0900000000000001
sg2870
F1
sg2288
g3098
sg2871
F15
sg2872
F1.0800000000000001
sg2873
(lp3103
g2776
ag2305
ag2695
asg2875
F1.1000000000000001
sg2876
F1.1499999999999999
sg2877
(lp3104
g2627
ag2420
ag2768
asg2879
F1.0800000000000001
sg2880
F1
sg2881
(lp3105
sg2883
S'Player'
p3106
sg2885
F1.2
sg2294
S'Phillip Mossman'
p3107
sg2887
F2
sg2888
(lp3108
sbasS'Computer'
p3109
(lp3110
g1
(g10
g3
NtRp3111
(dp3112
g2863
F1
sg2864
F4
sg2865
F1.1499999999999999
sg2866
F1
sg2867
(lp3113
sg2869
F1.0900000000000001
sg2870
F1
sg2288
g3109
sg2871
F10
sg2872
F1.0800000000000001
sg2873
(lp3114
g2776
ag2596
ag2305
ag2695
ag2738
asg2875
F1.1000000000000001
sg2876
F1.1499999999999999
sg2877
(lp3115
g2627
ag2420
ag2711
asg2879
F1.0800000000000001
sg2880
F1
sg2881
(lp3116
sg2883
S'Politician'
p3117
sg2885
F1.2
sg2294
S'N.O.T.B.A.D'
p3118
sg2887
F1
sg2888
(lp3119
sbasS'CabinetPolitician001'
p3120
(lp3121
g1
(g10
g3
NtRp3122
(dp3123
g2863
F1
sg2864
F4
sg2865
F1.1499999999999999
sg2866
F1
sg2867
(lp3124
sg2869
F1.0900000000000001
sg2870
F1
sg2288
g3120
sg2871
F10
sg2872
F1.0800000000000001
sg2873
(lp3125
g2776
ag2596
ag2305
ag2695
ag2738
asg2875
F1.1000000000000001
sg2876
F1.1499999999999999
sg2877
(lp3126
g2627
ag2420
ag2711
asg2879
F1.0800000000000001
sg2880
F1
sg2881
(lp3127
sg2883
S'Politician'
p3128
sg2885
F1.2
sg2294
S'Cabinet Politician'
p3129
sg2887
F1
sg2888
(lp3130
sbasS'Constituent001'
p3131
(lp3132
g1
(g10
g3
NtRp3133
(dp3134
g2863
F1
sg2864
F4
sg2865
F1.1499999999999999
sg2866
F1
sg2867
(lp3135
sg2869
F1.0900000000000001
sg2870
F1
sg2288
g3131
sg2871
F10
sg2872
F1.0800000000000001
sg2873
(lp3136
g2503
ag2519
ag2730
asg2875
F1.1000000000000001
sg2876
F1.1499999999999999
sg2877
(lp3137
g2711
asg2879
F1.0800000000000001
sg2880
F1
sg2881
(lp3138
sg2883
S'Constituent'
p3139
sg2885
F1.2
sg2294
S'Constituent'
p3140
sg2887
F1
sg2888
(lp3141
sbasS'Mayor'
p3142
(lp3143
g1
(g10
g3
NtRp3144
(dp3145
g2863
F1
sg2864
F4
sg2865
F1.1499999999999999
sg2866
F1
sg2867
(lp3146
sg2869
F1.0900000000000001
sg2870
F1
sg2288
g3142
sg2871
F10
sg2872
F1.0800000000000001
sg2873
(lp3147
g2776
ag2596
ag2305
ag2695
ag2738
asg2875
F1.1000000000000001
sg2876
F1.1499999999999999
sg2877
(lp3148
g2627
ag2420
ag2711
asg2879
F1.0800000000000001
sg2880
F1
sg2881
(lp3149
sg2883
S'Politician'
p3150
sg2885
F1.2
sg2294
S'Mayor Goodman'
p3151
sg2887
F1
sg2888
(lp3152
sbassS'quest_items'
p3153
(dp3154
S'PEN'
p3155
g1
(g10
g3
NtRp3156
(dp3157
g2263
S''
sg2288
g3155
sg2294
S'A pen'
p3158
sbsS'INCRIMINATINGEVIDENCE'
p3159
g1
(g10
g3
NtRp3160
(dp3161
g2263
S''
sg2288
g3159
sg2294
S'Very incriminating proof that something troubling is going on in the White House.'
p3162
sbsS'BILLOFRIGHTS'
p3163
g1
(g10
g3
NtRp3164
(dp3165
g2263
S''
sg2288
g3163
sg2294
S"Citizens' Bill of Rights"
p3166
sbssg2873
(dp3167
S'Theo'
p3168
(lp3169
g2776
ag2596
ag2305
ag2695
ag2388
ag2627
ag2420
ag2679
ag2527
asS'JointChief'
p3170
(lp3171
g2730
ag2738
ag2760
ag2540
ag2412
asS'Politician'
p3172
(lp3173
g2776
ag2596
ag2305
ag2695
ag2627
ag2420
ag2711
ag2738
asS'Bumpkin'
p3174
(lp3175
g2695
ag2404
ag2511
ag2442
asS'TVPersonality'
p3176
(lp3177
g2695
ag2334
ag2358
ag2319
asS'SecretAgent'
p3178
(lp3179
g2738
ag2722
ag2760
ag2540
ag2564
asS'DeepThroat'
p3180
(lp3181
g2596
ag2738
ag2476
ag2730
asS'Protestor'
p3182
(lp3183
g2768
ag2503
ag2350
ag2396
asS'Lobbyist'
p3184
(lp3185
g2519
ag2643
ag2476
ag2730
asS'Teacher'
p3186
(lp3187
g2588
ag2738
ag2503
ag2768
asS'Player'
p3188
(lp3189
g2776
ag2305
ag2695
ag2627
ag2420
ag2768
asS'Computer'
p3190
(lp3191
g2540
ag2760
ag2366
ag2476
ag2730
ag2596
asS'Receptionist'
p3192
(lp3193
g2656
ag2604
ag2612
ag2374
asS'Hippy'
p3194
(lp3195
g2396
ag2503
ag2548
ag2572
ag2768
ag2711
asS'Constituent'
p3196
(lp3197
g2503
ag2711
ag2519
ag2730
asS'Wife'
p3198
(lp3199
g2768
ag2711
ag2738
ag2776
ag2428
asS'WarVet'
p3200
(lp3201
g2730
ag2738
ag2687
ag2768
asS'Religious'
p3202
(lp3203
g2342
ag2784
ag2463
ag2703
ag2738
asS'Unionist'
p3204
(lp3205
g2730
ag2738
ag2503
ag2588
asS'Journalist'
p3206
(lp3207
g2358
ag2752
ag2556
ag2260
ag2334
assS'shops'
p3208
(dp3209
sS'encounters'
p3210
(dp3211
S'P-easy-05'
p3212
g1
(g10
g3
NtRp3213
(dp3214
S'item_attack_drops'
p3215
(lp3216
g1
(c__main__
ItemAttack
p3217
g3
NtRp3218
(dp3219
S'attack'
p3220
g2580
sS'quantity'
p3221
I1
sbasS'item_attacks'
p3222
(lp3223
sg2294
S''
sg2798
F10
sS'monster2_lvl'
p3224
S''
sS'bribe_cost'
p3225
F50
sS'monster3'
p3226
S''
sS'monster1_lvl'
p3227
F1
sS'monster3_lvl'
p3228
S''
sS'monster4_lvl'
p3229
S''
sS'monster4'
p3230
S''
sS'monster2'
p3231
S''
sg2288
g3212
sS'monster1'
p3232
S'Journalist001'
p3233
sbsS'P-easy-04'
p3234
g1
(g10
g3
NtRp3235
(dp3236
g3215
(lp3237
g1
(g3217
g3
NtRp3238
(dp3239
g3220
g2450
sg3221
I1
sbasg3222
(lp3240
sg2294
S''
sg2798
F10
sg3224
F1
sg3225
F50
sg3226
S'Protester001'
p3241
sg3227
F1
sg3228
F1
sg3229
S''
sg3230
S''
sg3231
S'Protester001'
p3242
sg2288
g3234
sg3232
S'Protester001'
p3243
sbsS'P-easy-07'
p3244
g1
(g10
g3
NtRp3245
(dp3246
g3215
(lp3247
g1
(g3217
g3
NtRp3248
(dp3249
g3220
g2450
sg3221
I1
sbasg3222
(lp3250
sg2294
S''
sg2798
F10
sg3224
S''
sg3225
F50
sg3226
S''
sg3227
F1
sg3228
S''
sg3229
S''
sg3230
S''
sg3231
S''
sg2288
g3244
sg3232
S'Constituent001'
p3251
sbsS'P-easy-06'
p3252
g1
(g10
g3
NtRp3253
(dp3254
g3215
(lp3255
g1
(g3217
g3
NtRp3256
(dp3257
g3220
g2711
sg3221
I1
sbasg3222
(lp3258
sg2294
S''
sg2798
F10
sg3224
F1
sg3225
F50
sg3226
S''
sg3227
F1
sg3228
S''
sg3229
S''
sg3230
S''
sg3231
S'Lobbyist001'
p3259
sg2288
g3252
sg3232
S'Lobbyist001'
p3260
sbsS'P-easy-01'
p3261
g1
(g10
g3
NtRp3262
(dp3263
g3215
(lp3264
g1
(g3217
g3
NtRp3265
(dp3266
g3220
g2490
sg3221
I1
sbasg3222
(lp3267
g1
(g3217
g3
NtRp3268
(dp3269
g3220
g2580
sg3221
I1
sbasg2294
S'The quest for pen'
p3270
sg2798
F100
sg3224
S''
sg3225
F50
sg3226
S''
sg3227
F1
sg3228
S''
sg3229
S''
sg3230
S''
sg3231
S''
sg2288
g3261
sg3232
S'Receptionist001'
p3271
sbsS'P-easy-03'
p3272
g1
(g10
g3
NtRp3273
(dp3274
g3215
(lp3275
g1
(g3217
g3
NtRp3276
(dp3277
g3220
g2490
sg3221
I1
sbasg3222
(lp3278
sg2294
S''
sg2798
F10
sg3224
F1
sg3225
F50
sg3226
S''
sg3227
F1
sg3228
S''
sg3229
S''
sg3230
S''
sg3231
S'Protester001'
p3279
sg2288
g3272
sg3232
S'Protester001'
p3280
sbsS'P-easy-02'
p3281
g1
(g10
g3
NtRp3282
(dp3283
g3215
(lp3284
sg3222
(lp3285
sg2294
S''
sg2798
F10
sg3224
F1
sg3225
F50
sg3226
S''
sg3227
F1
sg3228
S''
sg3229
S''
sg3230
S''
sg3231
S'Protester001'
p3286
sg2288
g3281
sg3232
S'Protester001'
p3287
sbsS'P-easy-09'
p3288
g1
(g10
g3
NtRp3289
(dp3290
g3215
(lp3291
g1
(g3217
g3
NtRp3292
(dp3293
g3220
g2490
sg3221
I1
sbasg3222
(lp3294
sg2294
S''
sg2798
F10
sg3224
F1
sg3225
F50
sg3226
S'Constituent001'
p3295
sg3227
F1
sg3228
F1
sg3229
S''
sg3230
S''
sg3231
S'Constituent001'
p3296
sg2288
g3288
sg3232
S'Constituent001'
p3297
sbsS'P-easy-08'
p3298
g1
(g10
g3
NtRp3299
(dp3300
g3215
(lp3301
sg3222
(lp3302
sg2294
S''
sg2798
F10
sg3224
F1
sg3225
F50
sg3226
S''
sg3227
F1
sg3228
S''
sg3229
S''
sg3230
S''
sg3231
S'Constituent001'
p3303
sg2288
g3298
sg3232
S'Constituent001'
p3304
sbsS'P-med-08'
p3305
g1
(g10
g3
NtRp3306
(dp3307
g3215
(lp3308
sg3222
(lp3309
sg2294
S''
sg2798
F10
sg3224
F1
sg3225
F50
sg3226
S'Politician001'
p3310
sg3227
F1
sg3228
F1
sg3229
S''
sg3230
S''
sg3231
S'Politician001'
p3311
sg2288
g3305
sg3232
S'Politician001'
p3312
sbsS'P-med-09'
p3313
g1
(g10
g3
NtRp3314
(dp3315
g3215
(lp3316
sg3222
(lp3317
sg2294
S''
sg2798
F10
sg3224
F1
sg3225
F50
sg3226
S'Politician001'
p3318
sg3227
F1
sg3228
F1
sg3229
S''
sg3230
S''
sg3231
S'ReligiousNut001'
p3319
sg2288
g3313
sg3232
S'Politician001'
p3320
sbsS'P-med-02'
p3321
g1
(g10
g3
NtRp3322
(dp3323
g3215
(lp3324
sg3222
(lp3325
sg2294
S''
sg2798
F10
sg3224
F1
sg3225
F50
sg3226
S''
sg3227
F1
sg3228
S''
sg3229
S''
sg3230
S''
sg3231
S'Politician001'
p3326
sg2288
g3321
sg3232
S'Politician001'
p3327
sbsS'P-med-03'
p3328
g1
(g10
g3
NtRp3329
(dp3330
g3215
(lp3331
sg3222
(lp3332
sg2294
S''
sg2798
F10
sg3224
F1
sg3225
F50
sg3226
S''
sg3227
F1
sg3228
S''
sg3229
S''
sg3230
S''
sg3231
S'Bumpkin001'
p3333
sg2288
g3328
sg3232
S'Bumpkin001'
p3334
sbsS'P-med-01'
p3335
g1
(g10
g3
NtRp3336
(dp3337
g3215
(lp3338
sg3222
(lp3339
sg2294
S''
sg2798
F10
sg3224
F1
sg3225
F50
sg3226
S''
sg3227
F1
sg3228
S''
sg3229
S''
sg3230
S''
sg3231
S'Politician001'
p3340
sg2288
g3335
sg3232
S'Politician001'
p3341
sbsS'P-med-06'
p3342
g1
(g10
g3
NtRp3343
(dp3344
g3215
(lp3345
sg3222
(lp3346
sg2294
S''
sg2798
F10
sg3224
F1
sg3225
F50
sg3226
S'Politician001'
p3347
sg3227
F1
sg3228
F1
sg3229
S''
sg3230
S''
sg3231
S'Governor'
p3348
sg2288
g3342
sg3232
S'Politician001'
p3349
sbsS'P-med-07'
p3350
g1
(g10
g3
NtRp3351
(dp3352
g3215
(lp3353
sg3222
(lp3354
sg2294
S''
sg2798
F10
sg3224
F1
sg3225
F50
sg3226
S''
sg3227
F1
sg3228
S''
sg3229
S''
sg3230
S''
sg3231
S'Journalist001'
p3355
sg2288
g3350
sg3232
S'Politician001'
p3356
sbsS'P-med-04'
p3357
g1
(g10
g3
NtRp3358
(dp3359
g3215
(lp3360
sg3222
(lp3361
sg2294
S''
sg2798
F10
sg3224
F1
sg3225
F50
sg3226
S'Bumpkin001'
p3362
sg3227
F1
sg3228
F1
sg3229
S''
sg3230
S''
sg3231
S'Bumpkin001'
p3363
sg2288
g3357
sg3232
S'Bumpkin001'
p3364
sbsS'P-med-05'
p3365
g1
(g10
g3
NtRp3366
(dp3367
g3215
(lp3368
sg3222
(lp3369
sg2294
S''
sg2798
F10
sg3224
F1
sg3225
F50
sg3226
S'Politician001'
p3370
sg3227
F1
sg3228
F1
sg3229
S''
sg3230
S''
sg3231
S'Journalist001'
p3371
sg2288
g3365
sg3232
S'Journalist001'
p3372
sbsS'P-med-24'
p3373
g1
(g10
g3
NtRp3374
(dp3375
g3215
(lp3376
sg3222
(lp3377
sg2294
S''
sg2798
F10
sg3224
F1
sg3225
F50
sg3226
S'Politician001'
p3378
sg3227
F1
sg3228
F1
sg3229
S''
sg3230
S''
sg3231
S'PresidentAlien'
p3379
sg2288
g3373
sg3232
S'Politician001'
p3380
sbsS'P-med-20'
p3381
g1
(g10
g3
NtRp3382
(dp3383
g3215
(lp3384
sg3222
(lp3385
sg2294
S''
sg2798
F10
sg3224
F1
sg3225
F50
sg3226
S'Journalist001'
p3386
sg3227
F1
sg3228
F1
sg3229
S''
sg3230
S''
sg3231
S'TVPersonality001'
p3387
sg2288
g3381
sg3232
S'Journalist001'
p3388
sbsS'P-med-21'
p3389
g1
(g10
g3
NtRp3390
(dp3391
g3215
(lp3392
sg3222
(lp3393
sg2294
S''
sg2798
F10
sg3224
F1
sg3225
F50
sg3226
S'Politician001'
p3394
sg3227
F1
sg3228
F1
sg3229
S''
sg3230
S''
sg3231
S'President'
p3395
sg2288
g3389
sg3232
S'Politician001'
p3396
sbsS'P-med-22'
p3397
g1
(g10
g3
NtRp3398
(dp3399
g3215
(lp3400
sg3222
(lp3401
sg2294
S''
sg2798
F10
sg3224
F1
sg3225
F50
sg3226
S''
sg3227
F1
sg3228
S''
sg3229
S''
sg3230
S''
sg3231
S'DeepThroat'
p3402
sg2288
g3397
sg3232
S'DeepThroat'
p3403
sbsS'P-med-23'
p3404
g1
(g10
g3
NtRp3405
(dp3406
g3215
(lp3407
sg3222
(lp3408
sg2294
S''
sg2798
F10
sg3224
F1
sg3225
F50
sg3226
S'Politician001'
p3409
sg3227
F1
sg3228
F1
sg3229
F1
sg3230
S'Politician001'
p3410
sg3231
S'President'
p3411
sg2288
g3404
sg3232
S'Politician001'
p3412
sbsS'P-hard-04'
p3413
g1
(g10
g3
NtRp3414
(dp3415
g3215
(lp3416
sg3222
(lp3417
sg2294
S''
sg2798
F10
sg3224
F1
sg3225
F50
sg3226
S'WarVet001'
p3418
sg3227
F1
sg3228
F1
sg3229
S''
sg3230
S''
sg3231
S'WarVet001'
p3419
sg2288
g3413
sg3232
S'WarVet001'
p3420
sbsS'P-hard-05'
p3421
g1
(g10
g3
NtRp3422
(dp3423
g3215
(lp3424
sg3222
(lp3425
sg2294
S''
sg2798
F10
sg3224
F1
sg3225
F50
sg3226
S'WarVet001'
p3426
sg3227
F1
sg3228
F1
sg3229
F1
sg3230
S'WarVet001'
p3427
sg3231
S'WarVet001'
p3428
sg2288
g3421
sg3232
S'WarVet001'
p3429
sbsS'P-hard-02'
p3430
g1
(g10
g3
NtRp3431
(dp3432
g3215
(lp3433
sg3222
(lp3434
sg2294
S''
sg2798
F10
sg3224
F1
sg3225
F50
sg3226
S'Journalist001'
p3435
sg3227
F1
sg3228
F1
sg3229
S''
sg3230
S''
sg3231
S'TVPersonality001'
p3436
sg2288
g3430
sg3232
S'Journalist001'
p3437
sbsS'P-hard-03'
p3438
g1
(g10
g3
NtRp3439
(dp3440
g3215
(lp3441
sg3222
(lp3442
sg2294
S''
sg2798
F10
sg3224
F1
sg3225
F50
sg3226
S'Journalist001'
p3443
sg3227
F1
sg3228
F1
sg3229
S''
sg3230
S''
sg3231
S'Journalist001'
p3444
sg2288
g3438
sg3232
S'TVPersonality001'
p3445
sbsS'P-hard-01'
p3446
g1
(g10
g3
NtRp3447
(dp3448
g3215
(lp3449
sg3222
(lp3450
sg2294
S''
sg2798
F10
sg3224
F1
sg3225
F50
sg3226
S'Journalist001'
p3451
sg3227
F1
sg3228
F1
sg3229
S''
sg3230
S''
sg3231
S'Journalist001'
p3452
sg2288
g3446
sg3232
S'Journalist001'
p3453
sbsS'P-easy-10'
p3454
g1
(g10
g3
NtRp3455
(dp3456
g3215
(lp3457
sg3222
(lp3458
sg2294
S''
sg2798
F10
sg3224
F1
sg3225
F50
sg3226
S'Politician001'
p3459
sg3227
F1
sg3228
F1
sg3229
S''
sg3230
S''
sg3231
S'Mayor'
p3460
sg2288
g3454
sg3232
S'Politician001'
p3461
sbsS'P-med-19'
p3462
g1
(g10
g3
NtRp3463
(dp3464
g3215
(lp3465
sg3222
(lp3466
sg2294
S''
sg2798
F10
sg3224
F1
sg3225
F50
sg3226
S''
sg3227
F1
sg3228
S''
sg3229
S''
sg3230
S''
sg3231
S'DeepThroat'
p3467
sg2288
g3462
sg3232
S'DeepThroat'
p3468
sbsS'P-med-18'
p3469
g1
(g10
g3
NtRp3470
(dp3471
g3215
(lp3472
sg3222
(lp3473
sg2294
S''
sg2798
F10
sg3224
F1
sg3225
F50
sg3226
S'ReligiousNut001'
p3474
sg3227
F1
sg3228
F1
sg3229
F1
sg3230
S'ReligiousNut001'
p3475
sg3231
S'ReligiousNut001'
p3476
sg2288
g3469
sg3232
S'ReligiousNut001'
p3477
sbsS'P-med-15'
p3478
g1
(g10
g3
NtRp3479
(dp3480
g3215
(lp3481
sg3222
(lp3482
sg2294
S''
sg2798
F10
sg3224
F1
sg3225
F50
sg3226
S''
sg3227
F1
sg3228
S''
sg3229
S''
sg3230
S''
sg3231
S'ReligiousNut001'
p3483
sg2288
g3478
sg3232
S'ReligiousNut001'
p3484
sbsS'P-med-14'
p3485
g1
(g10
g3
NtRp3486
(dp3487
g3215
(lp3488
sg3222
(lp3489
sg2294
S''
sg2798
F10
sg3224
F1
sg3225
F50
sg3226
S'Lobbyist001'
p3490
sg3227
F1
sg3228
F1
sg3229
F1
sg3230
S'Lobbyist001'
p3491
sg3231
S'Lobbyist001'
p3492
sg2288
g3485
sg3232
S'Lobbyist001'
p3493
sbsS'P-med-17'
p3494
g1
(g10
g3
NtRp3495
(dp3496
g3215
(lp3497
sg3222
(lp3498
sg2294
S''
sg2798
F10
sg3224
F1
sg3225
F50
sg3226
S'ReligiousNut001'
p3499
sg3227
F1
sg3228
F1
sg3229
S''
sg3230
S''
sg3231
S'ReligiousNut001'
p3500
sg2288
g3494
sg3232
S'ReligiousNut001'
p3501
sbsS'P-med-16'
p3502
g1
(g10
g3
NtRp3503
(dp3504
g3215
(lp3505
sg3222
(lp3506
sg2294
S''
sg2798
F10
sg3224
F1
sg3225
F50
sg3226
S'ReligiousNut001'
p3507
sg3227
F1
sg3228
F1
sg3229
S''
sg3230
S''
sg3231
S'ReligiousNut001'
p3508
sg2288
g3502
sg3232
S'ReligiousNut001'
p3509
sbsS'P-med-11'
p3510
g1
(g10
g3
NtRp3511
(dp3512
g3215
(lp3513
sg3222
(lp3514
sg2294
S''
sg2798
F10
sg3224
F1
sg3225
F50
sg3226
S'Politician001'
p3515
sg3227
F1
sg3228
F1
sg3229
F1
sg3230
S'Politician001'
p3516
sg3231
S'Politician001'
p3517
sg2288
g3510
sg3232
S'Politician001'
p3518
sbsS'P-med-10'
p3519
g1
(g10
g3
NtRp3520
(dp3521
g3215
(lp3522
sg3222
(lp3523
sg2294
S''
sg2798
F10
sg3224
F1
sg3225
F50
sg3226
S'ReligiousNut001'
p3524
sg3227
F1
sg3228
F1
sg3229
S''
sg3230
S''
sg3231
S'Politician001'
p3525
sg2288
g3519
sg3232
S'Politician001'
p3526
sbsS'P-med-13'
p3527
g1
(g10
g3
NtRp3528
(dp3529
g3215
(lp3530
sg3222
(lp3531
sg2294
S''
sg2798
F10
sg3224
F1
sg3225
F50
sg3226
S'Lobbyist001'
p3532
sg3227
F1
sg3228
F1
sg3229
S''
sg3230
S''
sg3231
S'Lobbyist001'
p3533
sg2288
g3527
sg3232
S'Lobbyist001'
p3534
sbsS'P-med-12'
p3535
g1
(g10
g3
NtRp3536
(dp3537
g3215
(lp3538
sg3222
(lp3539
sg2294
S''
sg2798
F10
sg3224
F1
sg3225
F50
sg3226
S'Lobbyist001'
p3540
sg3227
F1
sg3228
F1
sg3229
S''
sg3230
S''
sg3231
S'Lobbyist001'
p3541
sg2288
g3535
sg3232
S'Lobbyist001'
p3542
sbssb.