ccopy_reg
_reconstructor
p1
(c__main__
GameData
p2
c__builtin__
object
p3
NtRp4
(dp5
S'attacks'
p6
(lp7
g1
(c__main__
TableRow
p8
g3
NtRp9
(dp10
S'base_damage_max'
p11
F5
sS'description'
p12
S'abc'
p13
sS'name'
p14
S'Stay On Message'
p15
sS'crit_chance_max'
p16
F10
sS'crit_chance_min'
p17
F2
sS'base_damage_min'
p18
F2
sS'effects'
p19
(lp20
sS'crit_base_damage'
p21
F8
sS'underlying_stat'
p22
S'Cunning'
p23
sbag1
(g8
g3
NtRp24
(dp25
g11
F3
sg12
S'def'
p26
sg14
S'Slander Opposition'
p27
sg16
F10
sg17
F2
sg18
F1
sg19
(lp28
g1
(c__main__
Effect
p29
g3
NtRp30
(dp31
S'function'
p32
S'drain'
p33
sS'attribute'
p34
S'votes'
p35
sS'rounds_max'
p36
F5
sS'rounds_min'
p37
F2
sS'value'
p38
F1
sS'id'
p39
S'Drain Votes'
p40
sS'apply_to_source'
p41
S''
sbasg21
F5
sg22
S'Cunning'
p42
sbag1
(g8
g3
NtRp43
(dp44
g11
F8
sg12
S'ghi'
p45
sg14
S'Lie'
p46
sg16
F10
sg17
F2
sg18
F0
sg19
(lp47
g1
(g29
g3
NtRp48
(dp49
g32
S'miss_turn'
p50
sg34
S''
sg36
F1
sg37
F1
sg38
F0
sg39
S'Critical Fail'
p51
sg41
S'TRUE'
p52
sbasg21
F15
sg22
S'Cunning'
p53
sbag1
(g8
g3
NtRp54
(dp55
g11
F3
sg12
S'jkl'
p56
sg14
S'Joke'
p57
sg16
F10
sg17
F2
sg18
F1
sg19
(lp58
g1
(g29
g3
NtRp59
(dp60
g32
S'reduce'
p61
sg34
S'cunning'
p62
sg36
F5
sg37
F2
sg38
F2
sg39
S'Reduce Cunning'
p63
sg41
S''
sbasg21
F6
sg22
S'Wit'
p64
sbag1
(g8
g3
NtRp65
(dp66
g11
F1
sg12
S'mno'
p67
sg14
S'Bribe'
p68
sg16
F1
sg17
F1
sg18
F1
sg19
(lp69
sg21
F1
sg22
S'Money'
p70
sbasS'encounters'
p71
(dp72
S'P-easy-01'
p73
g1
(g8
g3
NtRp74
(dp75
S'monster2_lvl'
p76
F1
sg39
g73
sS'monster1_lvl'
p77
F1
sS'monster3_lvl'
p78
F1
sS'monster4_lvl'
p79
S''
sS'monster4'
p80
S''
sS'monster2'
p81
S'Politician001'
p82
sS'monster3'
p83
S'Politician001'
p84
sS'monster1'
p85
S'Politician001'
p86
sbssg19
(dp87
g51
g48
sg63
g59
sg40
g30
ssS'characters'
p88
(dp89
S'Player'
p90
(lp91
g1
(g8
g3
NtRp92
(dp93
S'flair_base'
p94
F1
sS'charisma_lvl'
p95
F1.1499999999999999
sS'spin_lvl'
p96
F1.0800000000000001
sS'cunning_base'
p97
F2
sS'votes_lvl'
p98
F1.2
sS'charisma_base'
p99
F2
sS'wit_base'
p100
F2
sS'speed_base'
p101
F2
sS'votes_base'
p102
F10
sS'spin_base'
p103
F5
sS'wit_lvl'
p104
F1.0900000000000001
sS'speed_lvl'
p105
F1.0800000000000001
sS'cunning_lvl'
p106
F1.1000000000000001
sS'flair_lvl'
p107
F1.1499999999999999
sg39
g90
sbasS'ReligiousNut001'
p108
(lp109
g1
(g8
g3
NtRp110
(dp111
g94
S''
sg95
S''
sg96
S''
sg97
S''
sg98
S''
sg99
S''
sg100
S''
sg101
S''
sg102
S''
sg103
S''
sg104
S''
sg105
S''
sg106
S''
sg107
S''
sg39
g108
sbasS'Lobbyist001'
p112
(lp113
g1
(g8
g3
NtRp114
(dp115
g94
S''
sg95
S''
sg96
S''
sg97
S''
sg98
S''
sg99
S''
sg100
S''
sg101
S''
sg102
S''
sg103
S''
sg104
S''
sg105
S''
sg106
S''
sg107
S''
sg39
g112
sbasS'Politician001'
p116
(lp117
g1
(g8
g3
NtRp118
(dp119
g94
F1
sg95
F1.1499999999999999
sg96
F1.0800000000000001
sg97
F1
sg98
F1.2
sg99
F1
sg100
F1
sg101
F1
sg102
F20
sg103
F4
sg104
F1.0900000000000001
sg105
F1.0800000000000001
sg106
F1.1000000000000001
sg107
F1.1499999999999999
sg39
g116
sbasS'Bumpkin001'
p120
(lp121
g1
(g8
g3
NtRp122
(dp123
g94
S''
sg95
S''
sg96
S''
sg97
S''
sg98
S''
sg99
S''
sg100
S''
sg101
S''
sg102
S''
sg103
S''
sg104
S''
sg105
S''
sg106
S''
sg107
S''
sg39
g120
sbassb.