ccopy_reg
_reconstructor
p1
(c__main__
GameData
p2
c__builtin__
object
p3
NtRp4
(dp5
S'attacks'
p6
(lp7
g1
(c__main__
TableRow
p8
g3
NtRp9
(dp10
S'base_damage_max'
p11
F5
sS'stat'
p12
S'Cunning'
p13
sS'description'
p14
S'abc'
p15
sS'crit_chance_max'
p16
F10
sS'crit_chance_min'
p17
F2
sS'base_damage_min'
p18
F2
sS'effects'
p19
S'None'
p20
sS'crit_base_damage'
p21
F8
sS'name'
p22
S'Stay On Message'
p23
sbag1
(g8
g3
NtRp24
(dp25
g11
F3
sg12
S'Cunning'
p26
sg14
S'def'
p27
sg16
F10
sg17
F2
sg18
F1
sg19
S'Drain Votes'
p28
sg21
F5
sg22
S'Slander Opposition'
p29
sbag1
(g8
g3
NtRp30
(dp31
g11
F8
sg12
S'Cunning'
p32
sg14
S'ghi'
p33
sg16
F10
sg17
F2
sg18
F0
sg19
S'Critical Fail'
p34
sg21
F15
sg22
S'Lie'
p35
sbag1
(g8
g3
NtRp36
(dp37
g11
F3
sg12
S'Wit'
p38
sg14
S'jkl'
p39
sg16
F10
sg17
F2
sg18
F1
sg19
S'Reduce Cunning'
p40
sg21
F6
sg22
S'Joke'
p41
sbasS'encounters'
p42
(dp43
S'P-easy-01'
p44
g1
(g8
g3
NtRp45
(dp46
S'monster2_lvl'
p47
F1
sS'id'
p48
g44
sS'monster1_lvl'
p49
F1
sS'monster3_lvl'
p50
F1
sS'monster4_lvl'
p51
F100
sS'monster4'
p52
S''
sS'monster2'
p53
S'Politician001'
p54
sS'monster3'
p55
S'Politician001'
p56
sS'monster1'
p57
S'Politician001'
p58
sbssS'characters'
p59
(dp60
S'Player'
p61
(lp62
g1
(g8
g3
NtRp63
(dp64
S'flair_base'
p65
F1
sS'charisma_lvl'
p66
F1.1499999999999999
sS'spin_lvl'
p67
F1.0800000000000001
sS'cunning_base'
p68
F2
sS'votes_lvl'
p69
F1.2
sS'charisma_base'
p70
F2
sS'wit_base'
p71
F2
sS'speed_base'
p72
F2
sS'votes_base'
p73
F10
sS'spin_base'
p74
F5
sS'wit_lvl'
p75
F1.0900000000000001
sS'speed_lvl'
p76
F1.0800000000000001
sS'cunning_lvl'
p77
F1.1000000000000001
sS'flair_lvl'
p78
F1.1499999999999999
sg48
g61
sbasS'Politician001'
p79
(lp80
g1
(g8
g3
NtRp81
(dp82
g65
F1
sg66
F1.1499999999999999
sg67
F1.0800000000000001
sg68
F1
sg69
F1.2
sg70
F1
sg71
F1
sg72
F1
sg73
F20
sg74
F4
sg75
F1.0900000000000001
sg76
F1.0800000000000001
sg77
F1.1000000000000001
sg78
F1.1499999999999999
sg48
g79
sbassb.