ccopy_reg
_reconstructor
p1
(c__main__
GameData
p2
c__builtin__
object
p3
NtRp4
(dp5
S'script'
p6
(dp7
S'StairsToWhiteHouse'
p8
(lp9
g1
(c__main__
TableRow
p10
g3
NtRp11
(dp12
S'action'
p13
S'Label'
p14
sS'trigger'
p15
g8
sS'param'
p16
S'START'
p17
sS'dialog'
p18
S''
sbag1
(g10
g3
NtRp19
(dp20
g13
S'PlayerSay'
p21
sg15
S'StairsToWhiteHouse'
p22
sg16
S''
sg18
S"I can't go upstairs now, I have a job to do!"
p23
sbag1
(g10
g3
NtRp24
(dp25
g13
S'Jump'
p26
sg15
S'StairsToWhiteHouse'
p27
sg16
S'START'
p28
sg18
S''
sbasS'Lobbyist3'
p29
(lp30
g1
(g10
g3
NtRp31
(dp32
g13
S'RequireFlag'
p33
sg15
g29
sg16
S'STARTLOBBYISTS'
p34
sg18
S'Mutter, mutter'
p35
sbag1
(g10
g3
NtRp36
(dp37
g13
S'Say'
p38
sg15
S'Lobbyist3'
p39
sg16
S''
sg18
S"To get the support of my organisation, you'll need to tell me what you can do for the conservation of internet memes."
p40
sbag1
(g10
g3
NtRp41
(dp42
g13
S'PlayerSay'
p43
sg15
S'Lobbyist3'
p44
sg16
S''
sg18
S'For...internet memes?'
p45
sbag1
(g10
g3
NtRp46
(dp47
g13
S'Say'
p48
sg15
S'Lobbyist3'
p49
sg16
S''
sg18
S"Yes, these are serious times. Who remembers hitting the giant crab for massive damage.There's another console release. I bet you can't even remember what you had to do to get massive damage."
p50
sbag1
(g10
g3
NtRp51
(dp52
g13
S'PlayerSay'
p53
sg15
S'Lobbyist3'
p54
sg16
S''
sg18
S'Giant...crab...?'
p55
sbag1
(g10
g3
NtRp56
(dp57
g13
S'Say'
p58
sg15
S'Lobbyist3'
p59
sg16
S''
sg18
S"You have to flip him over, that's what! We have to act quickly to save the internet memes. Even as I speak, fewer and fewer Gangnum style videos are made. It's a crime!"
p60
sbag1
(g10
g3
NtRp61
(dp62
g13
S'Say'
p63
sg15
S'Lobbyist3'
p64
sg16
S''
sg18
S'We need to build safehouses for all of the lolcats, provide IT helpdesk support for rickrole education and somebody needs to save the Sharknado from extinction!'
p65
sbag1
(g10
g3
NtRp66
(dp67
g13
S'Encounter'
p68
sg15
S'Lobbyist3'
p69
sg16
S'P-med-13'
p70
sg18
S''
sbag1
(g10
g3
NtRp71
(dp72
g13
S'Increment'
p73
sg15
S'Lobbyist3'
p74
sg16
S'LOBBYISTS'
p75
sg18
S''
sbag1
(g10
g3
NtRp76
(dp77
g13
S'Say'
p78
sg15
S'Lobbyist3'
p79
sg16
S''
sg18
S'Nailed It.'
p80
sbag1
(g10
g3
NtRp81
(dp82
g13
S'Destroy'
p83
sg15
S'Lobbyist3'
p84
sg16
S''
sg18
S''
sbasS'Kawalski'
p85
(lp86
g1
(g10
g3
NtRp87
(dp88
g13
S'RequireFlag'
p89
sg15
g85
sg16
S'ACCESSKAWALSKI'
p90
sg18
S"I'm not allowed to speak to you, sir."
p91
sbag1
(g10
g3
NtRp92
(dp93
g13
S'Say'
p94
sg15
S'Kawalski'
p95
sg16
S''
sg18
S'A pleasure to meet you, President Mossman. I am Agent Kawalski, your security detail.'
p96
sbag1
(g10
g3
NtRp97
(dp98
g13
S'PlayerSay'
p99
sg15
S'Kawalski'
p100
sg16
S''
sg18
S'Great to meet you, Agent Kawalski. What do I need to know?'
p101
sbag1
(g10
g3
NtRp102
(dp103
g13
S'Say'
p104
sg15
S'Kawalski'
p105
sg16
S''
sg18
S'Well actually, it does have to do with your security. Something terrible is happening at the White House.'
p106
sbag1
(g10
g3
NtRp107
(dp108
g13
S'PlayerSay'
p109
sg15
S'Kawalski'
p110
sg16
S''
sg18
S"If you're trying to warn me about the aliens, it's under control."
p111
sbag1
(g10
g3
NtRp112
(dp113
g13
S'Say'
p114
sg15
S'Kawalski'
p115
sg16
S''
sg18
S'No, no, this is different. I think somebody is trying to take over the White House.'
p116
sbag1
(g10
g3
NtRp117
(dp118
g13
S'PlayerSay'
p119
sg15
S'Kawalski'
p120
sg16
S''
sg18
S"Wouldn't we know?"
p121
sbag1
(g10
g3
NtRp122
(dp123
g13
S'Say'
p124
sg15
S'Kawalski'
p125
sg16
S''
sg18
S"It's too early for those kind of details. I just want you to keep your eyes open, Mr President."
p126
sbag1
(g10
g3
NtRp127
(dp128
g13
S'PlayerSay'
p129
sg15
S'Kawalski'
p130
sg16
S''
sg18
S'No problem.'
p131
sbag1
(g10
g3
NtRp132
(dp133
g13
S'Destroy'
p134
sg15
S'Kawalski'
p135
sg16
S''
sg18
S''
sbag1
(g10
g3
NtRp136
(dp137
g13
S'AddAlly'
p138
sg15
S'Kawalski'
p139
sg16
S'SecretAgent:6'
p140
sg18
S'Kawalski joins your political party!'
p141
sbag1
(g10
g3
NtRp142
(dp143
g13
S'SetFlag'
p144
sg15
S'Kawalski'
p145
sg16
S'KAWALSKIJOIN'
p146
sg18
S''
sbasS'Religious4'
p147
(lp148
g1
(g10
g3
NtRp149
(dp150
g13
S'Say'
p151
sg15
g147
sg16
S''
sg18
S'Welcome, my child. We have travelled here from Battycan City to be assured you are a man of faith before we endorse you.'
p152
sbag1
(g10
g3
NtRp153
(dp154
g13
S'PlayerSay'
p155
sg15
S'Religious4'
p156
sg16
S''
sg18
S'Er, what faith is that?'
p157
sbag1
(g10
g3
NtRp158
(dp159
g13
S'Say'
p160
sg15
S'Religious4'
p161
sg16
S''
sg18
S'Why, the one true god: Coffee.'
p162
sbag1
(g10
g3
NtRp163
(dp164
g13
S'PlayerSay'
p165
sg15
S'Religious4'
p166
sg16
S''
sg18
S'...Coffee?'
p167
sbag1
(g10
g3
NtRp168
(dp169
g13
S'Say'
p170
sg15
S'Religious4'
p171
sg16
S''
sg18
S"Yes of course. He who lifts you up when you're feeling low, who is your inspiration in the dark and who can achieve miraculous feats of effort with dedicated prayer."
p172
sbag1
(g10
g3
NtRp173
(dp174
g13
S'PlayerSay'
p175
sg15
S'Religious4'
p176
sg16
S''
sg18
S'This may be a religion I can get behind.'
p177
sbag1
(g10
g3
NtRp178
(dp179
g13
S'Encounter'
p180
sg15
S'Religious4'
p181
sg16
S'P-med-15'
p182
sg18
S''
sbag1
(g10
g3
NtRp183
(dp184
g13
S'Increment'
p185
sg15
S'Religious4'
p186
sg16
S'RELIGIOUSNUTS'
p187
sg18
S''
sbag1
(g10
g3
NtRp188
(dp189
g13
S'Say'
p190
sg15
S'Religious4'
p191
sg16
S''
sg18
S'Wonderful, the Battycan will be most pleased.'
p192
sbag1
(g10
g3
NtRp193
(dp194
g13
S'Destroy'
p195
sg15
S'Religious4'
p196
sg16
S''
sg18
S''
sbasS'Religious1'
p197
(lp198
g1
(g10
g3
NtRp199
(dp200
g13
S'Say'
p201
sg15
g197
sg16
S''
sg18
S'Have you had your morning prayer?'
p202
sbag1
(g10
g3
NtRp203
(dp204
g13
S'Encounter'
p205
sg15
S'Religious1'
p206
sg16
S'P-med-16'
p207
sg18
S''
sbag1
(g10
g3
NtRp208
(dp209
g13
S'Increment'
p210
sg15
S'Religious1'
p211
sg16
S'RELIGIOUSNUTS'
p212
sg18
S''
sbag1
(g10
g3
NtRp213
(dp214
g13
S'Say'
p215
sg15
S'Religious1'
p216
sg16
S''
sg18
S'Some people pray upwards of 5 times a day, but this can cause hallucinations.'
p217
sbag1
(g10
g3
NtRp218
(dp219
g13
S'Destroy'
p220
sg15
S'Religious1'
p221
sg16
S''
sg18
S''
sbasS'Religious3'
p222
(lp223
g1
(g10
g3
NtRp224
(dp225
g13
S'Say'
p226
sg15
g222
sg16
S''
sg18
S'Mmmmmm...Coffee....ommmmm'
p227
sbag1
(g10
g3
NtRp228
(dp229
g13
S'Encounter'
p230
sg15
S'Religious3'
p231
sg16
S'P-med-17'
p232
sg18
S''
sbag1
(g10
g3
NtRp233
(dp234
g13
S'Increment'
p235
sg15
S'Religious3'
p236
sg16
S'RELIGIOUSNUTS'
p237
sg18
S''
sbag1
(g10
g3
NtRp238
(dp239
g13
S'Say'
p240
sg15
S'Religious3'
p241
sg16
S''
sg18
S'I must return to my meditation.'
p242
sbag1
(g10
g3
NtRp243
(dp244
g13
S'Destroy'
p245
sg15
S'Religious3'
p246
sg16
S''
sg18
S''
sbasS'Religious2'
p247
(lp248
g1
(g10
g3
NtRp249
(dp250
g13
S'Say'
p251
sg15
g247
sg16
S''
sg18
S'Do not be swayed by the seductive powers of tea!'
p252
sbag1
(g10
g3
NtRp253
(dp254
g13
S'Encounter'
p255
sg15
S'Religious2'
p256
sg16
S'P-med-18'
p257
sg18
S''
sbag1
(g10
g3
NtRp258
(dp259
g13
S'Increment'
p260
sg15
S'Religious2'
p261
sg16
S'RELIGIOUSNUTS'
p262
sg18
S''
sbag1
(g10
g3
NtRp263
(dp264
g13
S'Say'
p265
sg15
S'Religious2'
p266
sg16
S''
sg18
S'The Battycan will be satisfied with this news.'
p267
sbag1
(g10
g3
NtRp268
(dp269
g13
S'Destroy'
p270
sg15
S'Religious2'
p271
sg16
S''
sg18
S''
sbasS'Constituent2'
p272
(lp273
g1
(g10
g3
NtRp274
(dp275
g13
S'RequireFlag'
p276
sg15
g272
sg16
S'STARTCONSTITUENTS'
p277
sg18
S'What?'
p278
sbag1
(g10
g3
NtRp279
(dp280
g13
S'PlayerSay'
p281
sg15
S'Constituent2'
p282
sg16
S''
sg18
S'Vote Phillip Mossman for Mayor!'
p283
sbag1
(g10
g3
NtRp284
(dp285
g13
S'Say'
p286
sg15
S'Constituent2'
p287
sg16
S''
sg18
S'But Mayor Goodman has always taken care of me.'
p288
sbag1
(g10
g3
NtRp289
(dp290
g13
S'Encounter'
p291
sg15
S'Constituent2'
p292
sg16
S'P-easy-08'
p293
sg18
S''
sbag1
(g10
g3
NtRp294
(dp295
g13
S'Say'
p296
sg15
S'Constituent2'
p297
sg16
S''
sg18
S"I think it's time for a change!"
p298
sbag1
(g10
g3
NtRp299
(dp300
g13
S'Destroy'
p301
sg15
S'Constituent2'
p302
sg16
S''
sg18
S''
sbasS'Constituent3'
p303
(lp304
g1
(g10
g3
NtRp305
(dp306
g13
S'RequireFlag'
p307
sg15
g303
sg16
S'STARTCONSTITUENTS'
p308
sg18
S'What?'
p309
sbag1
(g10
g3
NtRp310
(dp311
g13
S'PlayerSay'
p312
sg15
S'Constituent3'
p313
sg16
S''
sg18
S'Vote Phillip Mossman for Mayor!'
p314
sbag1
(g10
g3
NtRp315
(dp316
g13
S'Say'
p317
sg15
S'Constituent3'
p318
sg16
S''
sg18
S'But Mayor Goodman has always taken care of me.'
p319
sbag1
(g10
g3
NtRp320
(dp321
g13
S'Encounter'
p322
sg15
S'Constituent3'
p323
sg16
S'P-easy-09'
p324
sg18
S''
sbag1
(g10
g3
NtRp325
(dp326
g13
S'Say'
p327
sg15
S'Constituent3'
p328
sg16
S''
sg18
S"I think it's time for a change!"
p329
sbag1
(g10
g3
NtRp330
(dp331
g13
S'PlayerSay'
p332
sg15
S'Constituent3'
p333
sg16
S''
sg18
S"I think I'm ready to take on Mayor Goodman now!"
p334
sbag1
(g10
g3
NtRp335
(dp336
g13
S'SetFlag'
p337
sg15
S'Constituent3'
p338
sg16
S'CONSTITUENTSWON'
p339
sg18
S''
sbag1
(g10
g3
NtRp340
(dp341
g13
S'Destroy'
p342
sg15
S'Constituent3'
p343
sg16
S''
sg18
S''
sbasS'Constituent1'
p344
(lp345
g1
(g10
g3
NtRp346
(dp347
g13
S'RequireFlag'
p348
sg15
g344
sg16
S'STARTCONSTITUENTS'
p349
sg18
S'Yes?'
p350
sbag1
(g10
g3
NtRp351
(dp352
g13
S'PlayerSay'
p353
sg15
S'Constituent1'
p354
sg16
S''
sg18
S'Vote Phillip Mossman for Mayor!'
p355
sbag1
(g10
g3
NtRp356
(dp357
g13
S'Say'
p358
sg15
S'Constituent1'
p359
sg16
S''
sg18
S'Who?'
p360
sbag1
(g10
g3
NtRp361
(dp362
g13
S'PlayerSay'
p363
sg15
S'Constituent1'
p364
sg16
S''
sg18
S'Er, me!'
p365
sbag1
(g10
g3
NtRp366
(dp367
g13
S'Say'
p368
sg15
S'Constituent1'
p369
sg16
S''
sg18
S'Why? How will you help local business?'
p370
sbag1
(g10
g3
NtRp371
(dp372
g13
S'Encounter'
p373
sg15
S'Constituent1'
p374
sg16
S'P-easy-07'
p375
sg18
S''
sbag1
(g10
g3
NtRp376
(dp377
g13
S'Say'
p378
sg15
S'Constituent1'
p379
sg16
S''
sg18
S'You make a good case!'
p380
sbag1
(g10
g3
NtRp381
(dp382
g13
S'Destroy'
p383
sg15
S'Constituent1'
p384
sg16
S''
sg18
S''
sbasS'Cabinet1'
p385
(lp386
g1
(g10
g3
NtRp387
(dp388
g13
S'Say'
p389
sg15
g385
sg16
S''
sg18
S'Good afternoon, Mr President. How can I help?'
p390
sbag1
(g10
g3
NtRp391
(dp392
g13
S'PlayerSay'
p393
sg15
S'Cabinet1'
p394
sg16
S''
sg18
S'I want to know where the orders to mobilise the military and reallocate education funds came from.'
p395
sbag1
(g10
g3
NtRp396
(dp397
g13
S'Say'
p398
sg15
S'Cabinet1'
p399
sg16
S''
sg18
S'But...it came from you, sir. They were both faxed over to me this afternoon.'
p400
sbag1
(g10
g3
NtRp401
(dp402
g13
S'PlayerSay'
p403
sg15
S'Cabinet1'
p404
sg16
S''
sg18
S'Tell me every detail.'
p405
sbag1
(g10
g3
NtRp406
(dp407
g13
S'Encounter'
p408
sg15
S'Cabinet1'
p409
sg16
S'P-hard-08'
p410
sg18
S''
sbag1
(g10
g3
NtRp411
(dp412
g13
S'Increment'
p413
sg15
S'Cabinet1'
p414
sg16
S'CABINETMEMBERS'
p415
sg18
S''
sbag1
(g10
g3
NtRp416
(dp417
g13
S'Say'
p418
sg15
S'Cabinet1'
p419
sg16
S''
sg18
S'I cannot understand how this could happen.'
p420
sbag1
(g10
g3
NtRp421
(dp422
g13
S'Destroy'
p423
sg15
S'Cabinet1'
p424
sg16
S''
sg18
S''
sbasS'Cabinet2'
p425
(lp426
g1
(g10
g3
NtRp427
(dp428
g13
S'Say'
p429
sg15
g425
sg16
S''
sg18
S'Good afternoon, Mr President. What seems to be the problem?'
p430
sbag1
(g10
g3
NtRp431
(dp432
g13
S'PlayerSay'
p433
sg15
S'Cabinet2'
p434
sg16
S''
sg18
S'Find out where the education funds have been allocated.'
p435
sbag1
(g10
g3
NtRp436
(dp437
g13
S'Say'
p438
sg15
S'Cabinet2'
p439
sg16
S''
sg18
S'To the military, Sir. I saw to it myself.'
p440
sbag1
(g10
g3
NtRp441
(dp442
g13
S'PlayerSay'
p443
sg15
S'Cabinet2'
p444
sg16
S''
sg18
S'How did this happen? Tell me everything!'
p445
sbag1
(g10
g3
NtRp446
(dp447
g13
S'Encounter'
p448
sg15
S'Cabinet2'
p449
sg16
S'P-hard-09'
p450
sg18
S''
sbag1
(g10
g3
NtRp451
(dp452
g13
S'Increment'
p453
sg15
S'Cabinet2'
p454
sg16
S'CABINETMEMBERS'
p455
sg18
S''
sbag1
(g10
g3
NtRp456
(dp457
g13
S'PlayerSay'
p458
sg15
S'Cabinet2'
p459
sg16
S''
sg18
S"It can't be a coincidence that both situations involved the military."
p460
sbag1
(g10
g3
NtRp461
(dp462
g13
S'Destroy'
p463
sg15
S'Cabinet2'
p464
sg16
S''
sg18
S''
sbasS'Cabinet3'
p465
(lp466
g1
(g10
g3
NtRp467
(dp468
g13
S'Say'
p469
sg15
g465
sg16
S''
sg18
S"Mr President, I'm sorry, I couldn't know it wasn't your signature."
p470
sbag1
(g10
g3
NtRp471
(dp472
g13
S'PlayerSay'
p473
sg15
S'Cabinet3'
p474
sg16
S''
sg18
S'Never mind that now. Where are the troops heading?'
p475
sbag1
(g10
g3
NtRp476
(dp477
g13
S'Say'
p478
sg15
S'Cabinet3'
p479
sg16
S''
sg18
S"North...to Canada. We assumed it was planned. There's a pact allowing troops into Canada."
p480
sbag1
(g10
g3
NtRp481
(dp482
g13
S'PlayerSay'
p483
sg15
S'Cabinet3'
p484
sg16
S''
sg18
S'What could they be up to?'
p485
sbag1
(g10
g3
NtRp486
(dp487
g13
S'Encounter'
p488
sg15
S'Cabinet3'
p489
sg16
S'P-hard-10'
p490
sg18
S''
sbag1
(g10
g3
NtRp491
(dp492
g13
S'Increment'
p493
sg15
S'Cabinet3'
p494
sg16
S'CABINETMEMBERS'
p495
sg18
S''
sbag1
(g10
g3
NtRp496
(dp497
g13
S'PlayerSay'
p498
sg15
S'Cabinet3'
p499
sg16
S''
sg18
S"I'd better get to the Joint Chiefs. This is getting out-of-hand.."
p500
sbag1
(g10
g3
NtRp501
(dp502
g13
S'Destroy'
p503
sg15
S'Cabinet3'
p504
sg16
S''
sg18
S''
sbasS'Wife'
p505
(lp506
g1
(g10
g3
NtRp507
(dp508
g13
S'RequireFlag'
p509
sg15
g505
sg16
S'GOHOMETOWIFE'
p510
sg18
S'What are you doing here, Phillip? You should be at work!'
p511
sbag1
(g10
g3
NtRp512
(dp513
g13
S'Say'
p514
sg15
S'Wife'
p515
sg16
S''
sg18
S'Welcome home, Phillip! How was your workday?'
p516
sbag1
(g10
g3
NtRp517
(dp518
g13
S'PlayerSay'
p519
sg15
S'Wife'
p520
sg16
S''
sg18
S'...'
p521
sbag1
(g10
g3
NtRp522
(dp523
g13
S'Say'
p524
sg15
S'Wife'
p525
sg16
S''
sg18
S"That good, huh? You know this isn't what you want. Why don't you strike out on your own?"
p526
sbag1
(g10
g3
NtRp527
(dp528
g13
S'PlayerSay'
p529
sg15
S'Wife'
p530
sg16
S''
sg18
S"I didn't think I knew where to start to be a Mayor, but Mayor Goodman makes it look easy."
p531
sbag1
(g10
g3
NtRp532
(dp533
g13
S'Say'
p534
sg15
S'Wife'
p535
sg16
S''
sg18
S"That's the spirit! You can do it! All you need is some money and support."
p536
sbag1
(g10
g3
NtRp537
(dp538
g13
S'PlayerSay'
p539
sg15
S'Wife'
p540
sg16
S''
sg18
S'Well...OK! Lets start with money. We need a sponsor.'
p541
sbag1
(g10
g3
NtRp542
(dp543
g13
S'Say'
p544
sg15
S'Wife'
p545
sg16
S''
sg18
S'OK, lets go get one!'
p546
sbag1
(g10
g3
NtRp547
(dp548
g13
S'AddAlly'
p549
sg15
S'Wife'
p550
sg16
S'Wife:2'
p551
sg18
S'Sarah Mossman Joins Your Political Party!'
p552
sbag1
(g10
g3
NtRp553
(dp554
g13
S'SetFlag'
p555
sg15
S'Wife'
p556
sg16
S'STARTSPONSOR'
p557
sg18
S''
sbag1
(g10
g3
NtRp558
(dp559
g13
S'Destroy'
p560
sg15
S'Wife'
p561
sg16
S''
sg18
S''
sbasS'Lobbyist4'
p562
(lp563
g1
(g10
g3
NtRp564
(dp565
g13
S'RequireFlag'
p566
sg15
g562
sg16
S'STARTLOBBYISTS'
p567
sg18
S'Please tend to your other meetings so that we can see you.'
p568
sbag1
(g10
g3
NtRp569
(dp570
g13
S'Say'
p571
sg15
S'Lobbyist4'
p572
sg16
S''
sg18
S"If you are elected, I would like to know what you would plan to support the Storyteller's Guild and their efforts to revive a lost art."
p573
sbag1
(g10
g3
NtRp574
(dp575
g13
S'PlayerSay'
p576
sg15
S'Lobbyist4'
p577
sg16
S''
sg18
S"I'm all for protecting the arts. How can I help?"
p578
sbag1
(g10
g3
NtRp579
(dp580
g13
S'Say'
p581
sg15
S'Lobbyist4'
p582
sg16
S''
sg18
S'Storytelling is being butchered and almost completely ignored. I could list movies and television, but the real culprit is video games.'
p583
sbag1
(g10
g3
NtRp584
(dp585
g13
S'Say'
p586
sg15
S'Lobbyist4'
p587
sg16
S''
sg18
S'Many video game plots are derivative and archaic. Why, if this were a video game, it would have almost no substance at all and simply be a flimsy curtain for one of their "fetch quests".'
p588
sbag1
(g10
g3
NtRp589
(dp590
g13
S'Say'
p591
sg15
S'Lobbyist4'
p592
sg16
S''
sg18
S"It is a most serious problem and we wouldn't be able to lend you our support without assurances on this matter."
p593
sbag1
(g10
g3
NtRp594
(dp595
g13
S'Encounter'
p596
sg15
S'Lobbyist4'
p597
sg16
S'P-med-14'
p598
sg18
S''
sbag1
(g10
g3
NtRp599
(dp600
g13
S'Increment'
p601
sg15
S'Lobbyist4'
p602
sg16
S'LOBBYISTS'
p603
sg18
S''
sbag1
(g10
g3
NtRp604
(dp605
g13
S'Say'
p606
sg15
S'Lobbyist4'
p607
sg16
S''
sg18
S'While I feel that your argument lacks substance and detail, I will nevertheless concede.'
p608
sbag1
(g10
g3
NtRp609
(dp610
g13
S'Destroy'
p611
sg15
S'Lobbyist4'
p612
sg16
S''
sg18
S''
sbasS'#----------------------------------------------------------------------------------------ACT 2 \xe2\x80\x93 Part 2---------------------------------------------------------------------------------------------------------------------------------------------------'
p613
(lp614
g1
(g10
g3
NtRp615
(dp616
g13
S''
sg15
g613
sg16
S''
sg18
S''
sbasS'Lobbyist2'
p617
(lp618
g1
(g10
g3
NtRp619
(dp620
g13
S'RequireFlag'
p621
sg15
g617
sg16
S'STARTLOBBYISTS'
p622
sg18
S'Humph'
p623
sbag1
(g10
g3
NtRp624
(dp625
g13
S'Say'
p626
sg15
S'Lobbyist2'
p627
sg16
S''
sg18
S'I represent the Python Software Foundation. What will you do to promote, protect and advance the Python programming language?'
p628
sbag1
(g10
g3
NtRp629
(dp630
g13
S'PlayerSay'
p631
sg15
S'Lobbyist2'
p632
sg16
S''
sg18
S"Ah yes, the Python cause! I'm a big advocate of Python."
p633
sbag1
(g10
g3
NtRp634
(dp635
g13
S'Encounter'
p636
sg15
S'Lobbyist2'
p637
sg16
S'P-med-12'
p638
sg18
S''
sbag1
(g10
g3
NtRp639
(dp640
g13
S'Increment'
p641
sg15
S'Lobbyist2'
p642
sg16
S'LOBBYISTS'
p643
sg18
S''
sbag1
(g10
g3
NtRp644
(dp645
g13
S'Say'
p646
sg15
S'Lobbyist2'
p647
sg16
S''
sg18
S'I think we can help each other out.'
p648
sbag1
(g10
g3
NtRp649
(dp650
g13
S'Destroy'
p651
sg15
S'Lobbyist2'
p652
sg16
S''
sg18
S''
sbasS'PA2'
p653
(lp654
g1
(g10
g3
NtRp655
(dp656
g13
S'Say'
p657
sg15
g653
sg16
S''
sg18
S"Welcome to the White House, President Mossman. It was a long campaign trail with a very strange final debate, but we won and we're here."
p658
sbag1
(g10
g3
NtRp659
(dp660
g13
S'Say'
p661
sg15
S'PA2'
p662
sg16
S''
sg18
S'Now is the real test where we see how well we can run a country.'
p663
sbag1
(g10
g3
NtRp664
(dp665
g13
S'Say'
p666
sg15
S'PA2'
p667
sg16
S''
sg18
S'The first step is to give your first press conference as President to explain the...situation...with President Alien *cough* I mean Allen.'
p668
sbag1
(g10
g3
NtRp669
(dp670
g13
S'SetFlag'
p671
sg15
S'PA2'
p672
sg16
S'ACCESSJOURNALISTS'
p673
sg18
S''
sbag1
(g10
g3
NtRp674
(dp675
g13
S'RequireCount'
p676
sg15
S'PA2'
p677
sg16
S'PRESSCONF:3'
p678
sg18
S"They're waiting for you in the rose garden, Mr President."
p679
sbag1
(g10
g3
NtRp680
(dp681
g13
S'Say'
p682
sg15
S'PA2'
p683
sg16
S''
sg18
S'I think that went as well as could be expected.'
p684
sbag1
(g10
g3
NtRp685
(dp686
g13
S'SetFlag'
p687
sg15
S'PA2'
p688
sg16
S'ACCESSKAWALSKI'
p689
sg18
S''
sbag1
(g10
g3
NtRp690
(dp691
g13
S'Say'
p692
sg15
S'PA2'
p693
sg16
S''
sg18
S'Your secret service detail is waiting inside to have a word with you about security protocol.'
p694
sbag1
(g10
g3
NtRp695
(dp696
g13
S'RequireFlag'
p697
sg15
S'PA2'
p698
sg16
S'KAWALSKIJOIN'
p699
sg18
S"You'd better speak to the secret service agent. Your security is paramount."
p700
sbag1
(g10
g3
NtRp701
(dp702
g13
S'Say'
p703
sg15
S'PA2'
p704
sg16
S''
sg18
S"Some war veterans would like to speak to you about some recent decisions you've made. I don't dare turn them away. You'd better speak to them."
p705
sbag1
(g10
g3
NtRp706
(dp707
g13
S'PlayerSay'
p708
sg15
S'PA2'
p709
sg16
S''
sg18
S'Of course.'
p710
sbag1
(g10
g3
NtRp711
(dp712
g13
S'GiveItem'
p713
sg15
S'PA2'
p714
sg16
S'WARVETROOMKEY'
p715
sg18
S'Received key to the East Room.'
p716
sbag1
(g10
g3
NtRp717
(dp718
g13
S'RequireCount'
p719
sg15
S'PA2'
p720
sg16
S'WARVETS:2'
p721
sg18
S'The war vets are waiting for you in the East Room.'
p722
sbag1
(g10
g3
NtRp723
(dp724
g13
S'Say'
p725
sg15
S'PA2'
p726
sg16
S''
sg18
S'What was that about?'
p727
sbag1
(g10
g3
NtRp728
(dp729
g13
S'PlayerSay'
p730
sg15
S'PA2'
p731
sg16
S''
sg18
S"I'd like to know as well. Find me the documents that approved troop movement today and get me a meeting with the Joint Chiefs."
p732
sbag1
(g10
g3
NtRp733
(dp734
g13
S'Say'
p735
sg15
S'PA2'
p736
sg16
S''
sg18
S'Yessir.'
p737
sbag1
(g10
g3
NtRp738
(dp739
g13
S'Say'
p740
sg15
S'PA2'
p741
sg16
S''
sg18
S"Your next meeting is with the teachers in the corridor. They didn't give me the details, but it seems they're quite upset."
p742
sbag1
(g10
g3
NtRp743
(dp744
g13
S'GiveItem'
p745
sg15
S'PA2'
p746
sg16
S'TEACHERROOMKEY'
p747
sg18
S'Received key to the West Room.'
p748
sbag1
(g10
g3
NtRp749
(dp750
g13
S'RequireCount'
p751
sg15
S'PA2'
p752
sg16
S'TEACHERS:2'
p753
sg18
S"You'll need to speak to the teachers in the West Room, Mr President."
p754
sbag1
(g10
g3
NtRp755
(dp756
g13
S'Say'
p757
sg15
S'PA2'
p758
sg16
S''
sg18
S'You seem to have sorted the teachers out.'
p759
sbag1
(g10
g3
NtRp760
(dp761
g13
S'PlayerSay'
p762
sg15
S'PA2'
p763
sg16
S''
sg18
S"I've mollified them for now, but I want to get to the bottom of this - NOW!"
p764
sbag1
(g10
g3
NtRp765
(dp766
g13
S'Say'
p767
sg15
S'PA2'
p768
sg16
S''
sg18
S'Of course, Mr President. I do have those papers you asked for that approved the mobilisation of troops'
p769
sbag1
(g10
g3
NtRp770
(dp771
g13
S'PlayerSay'
p772
sg15
S'PA2'
p773
sg16
S''
sg18
S"Let me see those...this is my signature! But I didn't sign this!"
p774
sbag1
(g10
g3
NtRp775
(dp776
g13
S'Say'
p777
sg15
S'PA2'
p778
sg16
S''
sg18
S'This is very serious! What should we do, sir?'
p779
sbag1
(g10
g3
NtRp780
(dp781
g13
S'PlayerSay'
p782
sg15
S'PA2'
p783
sg16
S''
sg18
S'Call a cabinet meeting. Immediately.'
p784
sbag1
(g10
g3
NtRp785
(dp786
g13
S'Say'
p787
sg15
S'PA2'
p788
sg16
S''
sg18
S"Understood. They'll be there when you get there."
p789
sbag1
(g10
g3
NtRp790
(dp791
g13
S'GiveItem'
p792
sg15
S'PA2'
p793
sg16
S'CABINETROOMKEY'
p794
sg18
S'Received key to the Cabinet Room.'
p795
sbag1
(g10
g3
NtRp796
(dp797
g13
S'RequireCount'
p798
sg15
S'PA2'
p799
sg16
S'CABINETMEMBERS:3'
p800
sg18
S'The cabinet is waiting for you in the Cabinet Room.'
p801
sbag1
(g10
g3
NtRp802
(dp803
g13
S'Say'
p804
sg15
S'PA2'
p805
sg16
S''
sg18
S'The Joint Chiefs are assembled in the Situation Room downstairs.'
p806
sbag1
(g10
g3
NtRp807
(dp808
g13
S'Say'
p809
sg15
S'PA2'
p810
sg16
S''
sg18
S'Your palm print has been coded for maximum clearance now; you should have access to the basement.'
p811
sbag1
(g10
g3
NtRp812
(dp813
g13
S'SetFlag'
p814
sg15
S'PA2'
p815
sg16
S'ACCESSWHITEHOUSEBASEMENT'
p816
sg18
S''
sbag1
(g10
g3
NtRp817
(dp818
g13
S'RequireFlag'
p819
sg15
S'PA2'
p820
sg16
S'REPEAT'
p821
sg18
S'Get to the basement, the Joint Chiefs are waiting.'
p822
sbasS'PA3'
p823
(lp824
g1
(g10
g3
NtRp825
(dp826
g13
S'RequireCount'
p827
sg15
g823
sg16
S'JOINTCHIEFS:3'
p828
sg18
S'The Joint Chiefs are waiting for you in the situation room.'
p829
sbag1
(g10
g3
NtRp830
(dp831
g13
S'RequireFlag'
p832
sg15
S'PA3'
p833
sg16
S'WIN'
p834
sg18
S'Mr President, you have to put a stop to the supercomputer that will destroy the planet! You can access it in the Situation Room.'
p835
sbag1
(g10
g3
NtRp836
(dp837
g13
S'Say'
p838
sg15
S'PA3'
p839
sg16
S''
sg18
S"You have saved the day! The world is safe and all over the Ignited States, our citizens can sleep safe knowing you're taking care of them."
p840
sbag1
(g10
g3
NtRp841
(dp842
g13
S'RequireFlag'
p843
sg15
S'PA3'
p844
sg16
S'LOOP'
p845
sg18
S'Goodnight, Mr President.'
p846
sbasS'RestoreAct3'
p847
(lp848
g1
(g10
g3
NtRp849
(dp850
g13
S'GotoMap'
p851
sg15
g847
sg16
S'act3'
p852
sg18
S''
sbasS'RestoreAct2'
p853
(lp854
g1
(g10
g3
NtRp855
(dp856
g13
S'GotoMap'
p857
sg15
g853
sg16
S'act2'
p858
sg18
S''
sbasS'P-med-12'
p859
(lp860
g1
(g10
g3
NtRp861
(dp862
g13
S'Say'
p863
sg15
g859
sg16
S'Player'
p864
sg18
S"You're flying! How?"
p865
sbag1
(g10
g3
NtRp866
(dp867
g13
S'Say'
p868
sg15
S'P-med-12'
p869
sg16
S'Lobbyist001'
p870
sg18
S'Python!'
p871
sbag1
(g10
g3
NtRp872
(dp873
g13
S'Say'
p874
sg15
S'P-med-12'
p875
sg16
S'Lobbyist001'
p876
sg18
S'Everything is so simple!'
p877
sbag1
(g10
g3
NtRp878
(dp879
g13
S'Say'
p880
sg15
S'P-med-12'
p881
sg16
S'Lobbyist001'
p882
sg18
S'import combat'
p883
sbag1
(g10
g3
NtRp884
(dp885
g13
S'BeginCombat'
p886
sg15
S'P-med-12'
p887
sg16
S''
sg18
S''
sbag1
(g10
g3
NtRp888
(dp889
g13
S'Say'
p890
sg15
S'P-med-12'
p891
sg16
S'Player'
p892
sg18
S'import this'
p893
sbasS'TVDebate'
p894
(lp895
g1
(g10
g3
NtRp896
(dp897
g13
S'RequireFlag'
p898
sg15
g894
sg16
S'STARTDEBATE'
p899
sg18
S"Hmmm? Oh, sorry, I'm on the phone to the studio."
p900
sbag1
(g10
g3
NtRp901
(dp902
g13
S'Say'
p903
sg15
S'TVDebate'
p904
sg16
S''
sg18
S"Good evening, Governor Mossman. If you'll follow me, I'll take you to the studio."
p905
sbag1
(g10
g3
NtRp906
(dp907
g13
S'Encounter'
p908
sg15
S'TVDebate'
p909
sg16
S'P-med-21'
p910
sg18
S''
sbag1
(g10
g3
NtRp911
(dp912
g13
S'Say'
p913
sg15
S'TVDebate'
p914
sg16
S''
sg18
S'Great work tonight, Governor Mossman and congratulations on the win!'
p915
sbag1
(g10
g3
NtRp916
(dp917
g13
S'SetFlag'
p918
sg15
S'TVDebate'
p919
sg16
S'DEBATECOMPLETE'
p920
sg18
S''
sbag1
(g10
g3
NtRp921
(dp922
g13
S'RestoreVotes'
p923
sg15
S'TVDebate'
p924
sg16
S''
sg18
S''
sbag1
(g10
g3
NtRp925
(dp926
g13
S'Destroy'
p927
sg15
S'TVDebate'
p928
sg16
S''
sg18
S''
sbasS'WarVet2'
p929
(lp930
g1
(g10
g3
NtRp931
(dp932
g13
S'RequireFlag'
p933
sg15
g929
sg16
S'AFTERWILFRED'
p934
sg18
S'Eh? Speak up, boy.'
p935
sbag1
(g10
g3
NtRp936
(dp937
g13
S'Encounter'
p938
sg15
S'WarVet2'
p939
sg16
S'P-hard-05'
p940
sg18
S''
sbag1
(g10
g3
NtRp941
(dp942
g13
S'Say'
p943
sg15
S'WarVet2'
p944
sg16
S''
sg18
S"We'll head home, but you can expect us back if we see anything else suspicious ."
p945
sbag1
(g10
g3
NtRp946
(dp947
g13
S'Increment'
p948
sg15
S'WarVet2'
p949
sg16
S'WARVETS'
p950
sg18
S''
sbag1
(g10
g3
NtRp951
(dp952
g13
S'Destroy'
p953
sg15
S'WarVet2'
p954
sg16
S''
sg18
S''
sbasS'WarVet1'
p955
(lp956
g1
(g10
g3
NtRp957
(dp958
g13
S'Say'
p959
sg15
g955
sg16
S''
sg18
S"You think you can fool me? I wasn't born yesterday, you know."
p960
sbag1
(g10
g3
NtRp961
(dp962
g13
S'PlayerSay'
p963
sg15
S'WarVet1'
p964
sg16
S''
sg18
S"I'm sorry, sir, but what seems to be the problem."
p965
sbag1
(g10
g3
NtRp966
(dp967
g13
S'Say'
p968
sg15
S'WarVet1'
p969
sg16
S''
sg18
S"You think I don't know a mobilising army when I see one? You're clearly readying for war and you think you don't even need to mention it to the people."
p970
sbag1
(g10
g3
NtRp971
(dp972
g13
S'Say'
p973
sg15
S'WarVet1'
p974
sg16
S'WarVet2'
p975
sg18
S"And don't forget that he's barely a cadet, Wilfred."
p976
sbag1
(g10
g3
NtRp977
(dp978
g13
S'Say'
p979
sg15
S'WarVet1'
p980
sg16
S''
sg18
S"Right you are, Arnold, You've barely set foot in this building and you're already leading us to war. Who do you think you're dealing with? We won't stand."
p981
sbag1
(g10
g3
NtRp982
(dp983
g13
S'Encounter'
p984
sg15
S'WarVet1'
p985
sg16
S'P-hard-04'
p986
sg18
S''
sbag1
(g10
g3
NtRp987
(dp988
g13
S'Say'
p989
sg15
S'WarVet1'
p990
sg16
S''
sg18
S"Seems like a flimsy excuse, you didn't know. Better get your troops in line if you want 'em to march, boy."
p991
sbag1
(g10
g3
NtRp992
(dp993
g13
S'Increment'
p994
sg15
S'WarVet1'
p995
sg16
S'WARVETS'
p996
sg18
S''
sbag1
(g10
g3
NtRp997
(dp998
g13
S'SetFlag'
p999
sg15
S'WarVet1'
p1000
sg16
S'AFTERWILFRED'
p1001
sg18
S''
sbag1
(g10
g3
NtRp1002
(dp1003
g13
S'Destroy'
p1004
sg15
S'WarVet1'
p1005
sg16
S''
sg18
S''
sbasS'StairsToWhiteHouseBasement'
p1006
(lp1007
g1
(g10
g3
NtRp1008
(dp1009
g13
S'GotoMap'
p1010
sg15
g1006
sg16
S'act3_basement'
p1011
sg18
S''
sbasS'Mayor'
p1012
(lp1013
g1
(g10
g3
NtRp1014
(dp1015
g13
S'Say'
p1016
sg15
g1012
sg16
S''
sg18
S"Hello, I'm the Mayor!"
p1017
sbag1
(g10
g3
NtRp1018
(dp1019
g13
S'PlayerSay'
p1020
sg15
S'Mayor'
p1021
sg16
S''
sg18
S"Hello, Mayor Goodman, I'm Philip Mossman."
p1022
sbag1
(g10
g3
NtRp1023
(dp1024
g13
S'Say'
p1025
sg15
S'Mayor'
p1026
sg16
S''
sg18
S"Ah yes, you're my new assistant. You'll want to learn a thing or two about politics before we get started."
p1027
sbag1
(g10
g3
NtRp1028
(dp1029
g13
S'Say'
p1030
sg15
S'Mayor'
p1031
sg16
S''
sg18
S'Becoming a great politician boils down to one thing; your ability to win arguments.'
p1032
sbag1
(g10
g3
NtRp1033
(dp1034
g13
S'Say'
p1035
sg15
S'Mayor'
p1036
sg16
S''
sg18
S'Whether it be national debates or swaying constituents and lobbyists to support you, it all comes down to your ability to out-think your opponent.'
p1037
sbag1
(g10
g3
NtRp1038
(dp1039
g13
S'Say'
p1040
sg15
S'Mayor'
p1041
sg16
S''
sg18
S"You see, I've been searching for minutes and haven't been able to find my pen! I bet my receptionist stole it. She has sticky fingers."
p1042
sbag1
(g10
g3
NtRp1043
(dp1044
g13
S'Say'
p1045
sg15
S'Mayor'
p1046
sg16
S''
sg18
S"Well, don't just stand there, go and get it from her! You'll need to use all of your political skills to wrestle it back. She's like a bulldog when she gets ahold of something."
p1047
sbag1
(g10
g3
NtRp1048
(dp1049
g13
S'SetFlag'
p1050
sg15
S'Mayor'
p1051
sg16
S'PENQUEST'
p1052
sg18
S''
sbag1
(g10
g3
NtRp1053
(dp1054
g13
S'RequireItem'
p1055
sg15
S'Mayor'
p1056
sg16
S'PEN'
p1057
sg18
S'Are you simple? Go and get my pen from that thieving receptionist.'
p1058
sbag1
(g10
g3
NtRp1059
(dp1060
g13
S'Say'
p1061
sg15
S'Mayor'
p1062
sg16
S''
sg18
S"Great! I know she can give you a bit of a tongue-lashing, but she's a fantastic receptionist."
p1063
sbag1
(g10
g3
NtRp1064
(dp1065
g13
S'Say'
p1066
sg15
S'Mayor'
p1067
sg16
S''
sg18
S"I'm sure you want to learn a thing or two about politics \xe2\x80\x93 who doesn't? - so lets get started"
p1068
sbag1
(g10
g3
NtRp1069
(dp1070
g13
S'SetFlag'
p1071
sg15
S'Mayor'
p1072
sg16
S'PROTESTORS'
p1073
sg18
S''
sbag1
(g10
g3
NtRp1074
(dp1075
g13
S'RequireFlag'
p1076
sg15
S'Mayor'
p1077
sg16
S'PROTESTORSDEAD'
p1078
sg18
S'Run outside and tell those protesters to scram, will you?'
p1079
sbag1
(g10
g3
NtRp1080
(dp1081
g13
S'Say'
p1082
sg15
S'Mayor'
p1083
sg16
S''
sg18
S"Hope they didn't give you too much trouble!"
p1084
sbag1
(g10
g3
NtRp1085
(dp1086
g13
S'Say'
p1087
sg15
S'Mayor'
p1088
sg16
S''
sg18
S"Now that's sorted, there's a journalist from the local newspaper coming for an interview."
p1089
sbag1
(g10
g3
NtRp1090
(dp1091
g13
S'Say'
p1092
sg15
S'Mayor'
p1093
sg16
S''
sg18
S"I certainly don't have time for it, so you can do the interview."
p1094
sbag1
(g10
g3
NtRp1095
(dp1096
g13
S'Say'
p1097
sg15
S'Mayor'
p1098
sg16
S''
sg18
S"Be careful not to give too much away and if you could throw a few punches at the opposition that'd help."
p1099
sbag1
(g10
g3
NtRp1100
(dp1101
g13
S'PlayerSay'
p1102
sg15
S'Mayor'
p1103
sg16
S''
sg18
S'You want me to...throw a punch?'
p1104
sbag1
(g10
g3
NtRp1105
(dp1106
g13
S'Say'
p1107
sg15
S'Mayor'
p1108
sg16
S''
sg18
S"You're in politics and don't know how to fight dirty? Sheesh! Here, let me show you."
p1109
sbag1
(g10
g3
NtRp1110
(dp1111
g13
S'LearnAttack'
p1112
sg15
S'Mayor'
p1113
sg16
S'SLANDER'
p1114
sg18
S'Mayor teaches Phillip to Slander Opposition'
p1115
sbag1
(g10
g3
NtRp1116
(dp1117
g13
S'Say'
p1118
sg15
S'Mayor'
p1119
sg16
S''
sg18
S"It's a pretty great tactic because it keeps eating away at them long after you've done it."
p1120
sbag1
(g10
g3
NtRp1121
(dp1122
g13
S'SetFlag'
p1123
sg15
S'Mayor'
p1124
sg16
S'INTERVIEWSTART'
p1125
sg18
S''
sbag1
(g10
g3
NtRp1126
(dp1127
g13
S'RequireFlag'
p1128
sg15
S'Mayor'
p1129
sg16
S'JOURNALISTINTERVIEW'
p1130
sg18
S'Go handle that interview and remember to slander the opposition.'
p1131
sbag1
(g10
g3
NtRp1132
(dp1133
g13
S'SetFlag'
p1134
sg15
S'Mayor'
p1135
sg16
S'GOHOMETOWIFE'
p1136
sg18
S''
sbag1
(g10
g3
NtRp1137
(dp1138
g13
S'Say'
p1139
sg15
S'Mayor'
p1140
sg16
S''
sg18
S'OK, fine, now could you buzz off for a while? I need to get some work done.'
p1141
sbag1
(g10
g3
NtRp1142
(dp1143
g13
S'RequireFlag'
p1144
sg15
S'Mayor'
p1145
sg16
S'CONSTITUENTSWON'
p1146
sg18
S"Go home to your family. I have things to do that don't involve you."
p1147
sbag1
(g10
g3
NtRp1148
(dp1149
g13
S'Say'
p1150
sg15
S'Mayor'
p1151
sg16
S''
sg18
S"What's this I hear about you campaigning for Mayor? After everything I've taught you!"
p1152
sbag1
(g10
g3
NtRp1153
(dp1154
g13
S'PlayerSay'
p1155
sg15
S'Mayor'
p1156
sg16
S''
sg18
S"I'm sorry Mayor Goodman, but it's time for someone who's ready to make a difference for our town."
p1157
sbag1
(g10
g3
NtRp1158
(dp1159
g13
S'Say'
p1160
sg15
S'Mayor'
p1161
sg16
S''
sg18
S"You really are a fool. Do you think He's going to allow that?"
p1162
sbag1
(g10
g3
NtRp1163
(dp1164
g13
S'Encounter'
p1165
sg15
S'Mayor'
p1166
sg16
S'P-easy-10'
p1167
sg18
S''
sbag1
(g10
g3
NtRp1168
(dp1169
g13
S'Say'
p1170
sg15
S'Mayor'
p1171
sg16
S''
sg18
S"Well, you've beaten me but you don't have a clue what you're in for. I hope you're up to this kid!"
p1172
sbag1
(g10
g3
NtRp1173
(dp1174
g13
S'RestoreVotes'
p1175
sg15
S'Mayor'
p1176
sg16
S''
sg18
S''
sbag1
(g10
g3
NtRp1177
(dp1178
g13
S'Save'
p1179
sg15
S'Mayor'
p1180
sg16
S'RestoreAct2'
p1181
sg18
S''
sbag1
(g10
g3
NtRp1182
(dp1183
g13
S'GotoMap'
p1184
sg15
S'Mayor'
p1185
sg16
S'act2'
p1186
sg18
S''
sbasS'DoorToWhiteHouseBasement'
p1187
(lp1188
g1
(g10
g3
NtRp1189
(dp1190
g13
S'RequireFlagPlayerSay'
p1191
sg15
g1187
sg16
S'ACCESSWHITEHOUSEBASEMENT'
p1192
sg18
S"What a strange looking door. It doesn't even have a keyhole, but it doesn't open when I push it."
p1193
sbag1
(g10
g3
NtRp1194
(dp1195
g13
S'Destroy'
p1196
sg15
S'DoorToWhiteHouseBasement'
p1197
sg16
S''
sg18
S''
sbag1
(g10
g3
NtRp1198
(dp1199
g13
S'Message'
p1200
sg15
S'DoorToWhiteHouseBasement'
p1201
sg16
S''
sg18
S'The door opens with a satisfying *beep*.'
p1202
sbasS'PA'
p1203
(lp1204
g1
(g10
g3
NtRp1205
(dp1206
g13
S'Say'
p1207
sg15
g1203
sg16
S''
sg18
S'Good morning, Governor Mossman. I am your personal assistant, Sampson'
p1208
sbag1
(g10
g3
NtRp1209
(dp1210
g13
S'Say'
p1211
sg15
S'PA'
p1212
sg16
S''
sg18
S"You've a busy schedule, so let's get going! We've called together our entire political party in order for you to get them all to agree on a platform. We had to keep them separated, so they're in the adjoining rooms."
p1213
sbag1
(g10
g3
NtRp1214
(dp1215
g13
S'SetFlag'
p1216
sg15
S'PA'
p1217
sg16
S'STARTPOLITICIANSHAKEDOWN'
p1218
sg18
S''
sbag1
(g10
g3
NtRp1219
(dp1220
g13
S'RequireCount'
p1221
sg15
S'PA'
p1222
sg16
S'POLITICIANSHAKEDOWN:5'
p1223
sg18
S'Please try to stay on schedule. The politicians are in the adjoining rooms.'
p1224
sbag1
(g10
g3
NtRp1225
(dp1226
g13
S'Say'
p1227
sg15
S'PA'
p1228
sg16
S''
sg18
S'Hmmm, falling behind already, Better get a move on!'
p1229
sbag1
(g10
g3
NtRp1230
(dp1231
g13
S'Say'
p1232
sg15
S'PA'
p1233
sg16
S''
sg18
S'This might come in handy for your next meeting.'
p1234
sbag1
(g10
g3
NtRp1235
(dp1236
g13
S'LearnAttack'
p1237
sg15
S'PA'
p1238
sg16
S'PORKBARREL'
p1239
sg18
S''
sbag1
(g10
g3
NtRp1240
(dp1241
g13
S'Say'
p1242
sg15
S'PA'
p1243
sg16
S''
sg18
S'We need some funds for our war chest! Head upstairs and meet with the lobbyists.'
p1244
sbag1
(g10
g3
NtRp1245
(dp1246
g13
S'SetFlag'
p1247
sg15
S'PA'
p1248
sg16
S'STARTLOBBYISTS'
p1249
sg18
S''
sbag1
(g10
g3
NtRp1250
(dp1251
g13
S'RequireCount'
p1252
sg15
S'PA'
p1253
sg16
S'LOBBYISTS:3'
p1254
sg18
S'Go get those funds! The lobbyists are upstairs.'
p1255
sbag1
(g10
g3
NtRp1256
(dp1257
g13
S'Say'
p1258
sg15
S'PA'
p1259
sg16
S''
sg18
S'No time for lunch! A flock of religious nuts has taken up residence in the lobby downstairs.'
p1260
sbag1
(g10
g3
NtRp1261
(dp1262
g13
S'Say'
p1263
sg15
S'PA'
p1264
sg16
S''
sg18
S"You'll need to go in and try to ... reason ... with them."
p1265
sbag1
(g10
g3
NtRp1266
(dp1267
g13
S'SetFlag'
p1268
sg15
S'PA'
p1269
sg16
S'ACCESSGROUNDFLOOR'
p1270
sg18
S''
sbag1
(g10
g3
NtRp1271
(dp1272
g13
S'RequireCount'
p1273
sg15
S'PA'
p1274
sg16
S'RELIGIOUSNUTS:4'
p1275
sg18
S'I need you to go downstairs and handle the religious nuts.'
p1276
sbag1
(g10
g3
NtRp1277
(dp1278
g13
S'Say'
p1279
sg15
S'PA'
p1280
sg16
S''
sg18
S'Wow, you got those crazies to back us?'
p1281
sbag1
(g10
g3
NtRp1282
(dp1283
g13
S'PlayerSay'
p1284
sg15
S'PA'
p1285
sg16
S''
sg18
S'And a lifetime supply of French Roast!'
p1286
sbag1
(g10
g3
NtRp1287
(dp1288
g13
S'Say'
p1289
sg15
S'PA'
p1290
sg16
S''
sg18
S'Right ... well, moving on ...'
p1291
sbag1
(g10
g3
NtRp1292
(dp1293
g13
S'Say'
p1294
sg15
S'PA'
p1295
sg16
S''
sg18
S'You have an appointment with a shady looking man who absolutely insisted on speaking to you.'
p1296
sbag1
(g10
g3
NtRp1297
(dp1298
g13
S'Say'
p1299
sg15
S'PA'
p1300
sg16
S''
sg18
S'I left him in the basement where he felt most comfortable.'
p1301
sbag1
(g10
g3
NtRp1302
(dp1303
g13
S'Say'
p1304
sg15
S'PA'
p1305
sg16
S''
sg18
S'Deal with him quickly, would you?'
p1306
sbag1
(g10
g3
NtRp1307
(dp1308
g13
S'SetFlag'
p1309
sg15
S'PA'
p1310
sg16
S'ACCESSBASEMENT'
p1311
sg18
S''
sbag1
(g10
g3
NtRp1312
(dp1313
g13
S'RequireItem'
p1314
sg15
S'PA'
p1315
sg16
S'INCRIMINATINGEVIDENCE'
p1316
sg18
S'Head down to the basement and talk to the shady looking man.'
p1317
sbag1
(g10
g3
NtRp1318
(dp1319
g13
S'Say'
p1320
sg15
S'PA'
p1321
sg16
S''
sg18
S'OH MY GOD where have you been?'
p1322
sbag1
(g10
g3
NtRp1323
(dp1324
g13
S'Say'
p1325
sg15
S'PA'
p1326
sg16
S''
sg18
S"We will NEVER get the schedule back on track now. Hurry, you're due to appear on the Hercules O'Grady show!"
p1327
sbag1
(g10
g3
NtRp1328
(dp1329
g13
S'SetFlag'
p1330
sg15
S'PA'
p1331
sg16
S'STARTHERCULES'
p1332
sg18
S''
sbag1
(g10
g3
NtRp1333
(dp1334
g13
S'RequireFlag'
p1335
sg15
S'PA'
p1336
sg16
S'BEATHERCULES'
p1337
sg18
S"Look your best, get ready and don't say anything stupid! They're filming live in the lobby. Get down there, quick!"
p1338
sbag1
(g10
g3
NtRp1339
(dp1340
g13
S'Say'
p1341
sg15
S'PA'
p1342
sg16
S''
sg18
S"This close to Super Tuesday, it's back-to-back TV appearances. It's time for your big debate with President Allen!"
p1343
sbag1
(g10
g3
NtRp1344
(dp1345
g13
S'SetFlag'
p1346
sg15
S'PA'
p1347
sg16
S'STARTDEBATE'
p1348
sg18
S''
sbag1
(g10
g3
NtRp1349
(dp1350
g13
S'RequireFlag'
p1351
sg15
S'PA'
p1352
sg16
S'DEBATECOMPLETE'
p1353
sg18
S'The TV representative is waiting outside to take you to the studio.'
p1354
sbag1
(g10
g3
NtRp1355
(dp1356
g13
S'Say'
p1357
sg15
S'PA'
p1358
sg16
S''
sg18
S'Listen, the shady-looking man in the basement called again.'
p1359
sbag1
(g10
g3
NtRp1360
(dp1361
g13
S'Say'
p1362
sg15
S'PA'
p1363
sg16
S''
sg18
S'He insisted that you go and see him again before you do anything else.'
p1364
sbag1
(g10
g3
NtRp1365
(dp1366
g13
S'SetFlag'
p1367
sg15
S'PA'
p1368
sg16
S'DEEPTHROAT2'
p1369
sg18
S''
sbag1
(g10
g3
NtRp1370
(dp1371
g13
S'RequireFlag'
p1372
sg15
S'PA'
p1373
sg16
S'FINISHEDDEEPTHROAT'
p1374
sg18
S"You'd best hurry! It's nearly time for the final debate. Go see the shady-looking man in the basement again."
p1375
sbag1
(g10
g3
NtRp1376
(dp1377
g13
S'Say'
p1378
sg15
S'PA'
p1379
sg16
S''
sg18
S"It's time for the final debate! There's nothing left to say except good luck, Governor Mossman!"
p1380
sbag1
(g10
g3
NtRp1381
(dp1382
g13
S'Encounter'
p1383
sg15
S'PA'
p1384
sg16
S'P-med-23'
p1385
sg18
S''
sbag1
(g10
g3
NtRp1386
(dp1387
g13
S'Encounter'
p1388
sg15
S'PA'
p1389
sg16
S'P-med-24'
p1390
sg18
S''
sbag1
(g10
g3
NtRp1391
(dp1392
g13
S'RestoreVotes'
p1393
sg15
S'PA'
p1394
sg16
S''
sg18
S''
sbag1
(g10
g3
NtRp1395
(dp1396
g13
S'Save'
p1397
sg15
S'PA'
p1398
sg16
S'RestoreAct3'
p1399
sg18
S''
sbag1
(g10
g3
NtRp1400
(dp1401
g13
S'GotoMap'
p1402
sg15
S'PA'
p1403
sg16
S'act3'
p1404
sg18
S''
sbasS'#----------------------------------------------------------------------------------------ACT 2 \xe2\x80\x93 Part 1---------------------------------------------------------------------------------------------------------------------------------------------------'
p1405
(lp1406
g1
(g10
g3
NtRp1407
(dp1408
g13
S''
sg15
g1405
sg16
S''
sg18
S''
sbasS'StairsToL3'
p1409
(lp1410
g1
(g10
g3
NtRp1411
(dp1412
g13
S'Label'
p1413
sg15
g1409
sg16
S'START'
p1414
sg18
S''
sbag1
(g10
g3
NtRp1415
(dp1416
g13
S'PlayerSay'
p1417
sg15
S'StairsToL3'
p1418
sg16
S''
sg18
S"I don't need to go up these stairs."
p1419
sbag1
(g10
g3
NtRp1420
(dp1421
g13
S'Reset'
p1422
sg15
S'StairsToL3'
p1423
sg16
S'START'
p1424
sg18
S''
sbasS'StairsToL2'
p1425
(lp1426
g1
(g10
g3
NtRp1427
(dp1428
g13
S'Label'
p1429
sg15
g1425
sg16
S'START'
p1430
sg18
S''
sbag1
(g10
g3
NtRp1431
(dp1432
g13
S'GotoMap'
p1433
sg15
S'StairsToL2'
p1434
sg16
S'hotel_l2'
p1435
sg18
S''
sbag1
(g10
g3
NtRp1436
(dp1437
g13
S'Jump'
p1438
sg15
S'StairsToL2'
p1439
sg16
S'START'
p1440
sg18
S''
sbasS'StairsToL1'
p1441
(lp1442
g1
(g10
g3
NtRp1443
(dp1444
g13
S'Label'
p1445
sg15
g1441
sg16
S'START'
p1446
sg18
S''
sbag1
(g10
g3
NtRp1447
(dp1448
g13
S'GotoMap'
p1449
sg15
S'StairsToL1'
p1450
sg16
S'hotel_l1'
p1451
sg18
S''
sbag1
(g10
g3
NtRp1452
(dp1453
g13
S'Jump'
p1454
sg15
S'StairsToL1'
p1455
sg16
S'START'
p1456
sg18
S''
sbasS'Marketing2'
p1457
(lp1458
g1
(g10
g3
NtRp1459
(dp1460
g13
S'Label'
p1461
sg15
g1457
sg16
S'SHOPA2'
p1462
sg18
S''
sbag1
(g10
g3
NtRp1463
(dp1464
g13
S'Say'
p1465
sg15
S'Marketing2'
p1466
sg16
S''
sg18
S'Hi Phil! Would you like to run an ad?'
p1467
sbag1
(g10
g3
NtRp1468
(dp1469
g13
S'Shop'
p1470
sg15
S'Marketing2'
p1471
sg16
S'SHOP2'
p1472
sg18
S''
sbag1
(g10
g3
NtRp1473
(dp1474
g13
S'Reset'
p1475
sg15
S'Marketing2'
p1476
sg16
S'SHOPA2'
p1477
sg18
S''
sbasS'Marketing3'
p1478
(lp1479
g1
(g10
g3
NtRp1480
(dp1481
g13
S'Label'
p1482
sg15
g1478
sg16
S'SHOPA2P2'
p1483
sg18
S''
sbag1
(g10
g3
NtRp1484
(dp1485
g13
S'Say'
p1486
sg15
S'Marketing3'
p1487
sg16
S''
sg18
S'Hi Phil! Would you like to run an ad?'
p1488
sbag1
(g10
g3
NtRp1489
(dp1490
g13
S'Shop'
p1491
sg15
S'Marketing3'
p1492
sg16
S'SHOP2P2'
p1493
sg18
S''
sbag1
(g10
g3
NtRp1494
(dp1495
g13
S'Reset'
p1496
sg15
S'Marketing3'
p1497
sg16
S'SHOPA2P2'
p1498
sg18
S''
sbasS'Marketing1'
p1499
(lp1500
g1
(g10
g3
NtRp1501
(dp1502
g13
S'RequireFlag'
p1503
sg15
g1499
sg16
S'STARTSPONSOR'
p1504
sg18
S"I'm sorry, my time is precious. Come back if you're ever running for office."
p1505
sbag1
(g10
g3
NtRp1506
(dp1507
g13
S'Label'
p1508
sg15
S'Marketing1'
p1509
sg16
S'SHOP'
p1510
sg18
S''
sbag1
(g10
g3
NtRp1511
(dp1512
g13
S'Say'
p1513
sg15
S'Marketing1'
p1514
sg16
S''
sg18
S'Hi there! Are you interested in any of my ad campaigns or programs?'
p1515
sbag1
(g10
g3
NtRp1516
(dp1517
g13
S'Shop'
p1518
sg15
S'Marketing1'
p1519
sg16
S'SHOP1'
p1520
sg18
S''
sbag1
(g10
g3
NtRp1521
(dp1522
g13
S'Reset'
p1523
sg15
S'Marketing1'
p1524
sg16
S'SHOP'
p1525
sg18
S''
sbasS'Marketing4'
p1526
(lp1527
g1
(g10
g3
NtRp1528
(dp1529
g13
S'Label'
p1530
sg15
g1526
sg16
S'SHOPA3'
p1531
sg18
S''
sbag1
(g10
g3
NtRp1532
(dp1533
g13
S'Say'
p1534
sg15
S'Marketing4'
p1535
sg16
S''
sg18
S'Hi Phil! Would you like to run an ad?'
p1536
sbag1
(g10
g3
NtRp1537
(dp1538
g13
S'Shop'
p1539
sg15
S'Marketing4'
p1540
sg16
S'SHOP3'
p1541
sg18
S''
sbag1
(g10
g3
NtRp1542
(dp1543
g13
S'Reset'
p1544
sg15
S'Marketing4'
p1545
sg16
S'SHOPA3'
p1546
sg18
S''
sbasS'Marketing5'
p1547
(lp1548
g1
(g10
g3
NtRp1549
(dp1550
g13
S'Label'
p1551
sg15
g1547
sg16
S'SHOPA3P2'
p1552
sg18
S''
sbag1
(g10
g3
NtRp1553
(dp1554
g13
S'Say'
p1555
sg15
S'Marketing5'
p1556
sg16
S''
sg18
S'Hi Phil! Would you like to run an ad?'
p1557
sbag1
(g10
g3
NtRp1558
(dp1559
g13
S'Shop'
p1560
sg15
S'Marketing5'
p1561
sg16
S'SHOP3P2'
p1562
sg18
S''
sbag1
(g10
g3
NtRp1563
(dp1564
g13
S'Reset'
p1565
sg15
S'Marketing5'
p1566
sg16
S'SHOPA3P2'
p1567
sg18
S''
sbasS'hotel_l1'
p1568
(lp1569
g1
(g10
g3
NtRp1570
(dp1571
g13
S'Message'
p1572
sg15
g1568
sg16
S''
sg18
S'The Campaign Trail'
p1573
sbasS'DoorToTeacherRoom'
p1574
(lp1575
g1
(g10
g3
NtRp1576
(dp1577
g13
S'RequireItemPlayerSay'
p1578
sg15
g1574
sg16
S'TEACHERROOMKEY'
p1579
sg18
S'"Hey in there, open up!"'
p1580
sbag1
(g10
g3
NtRp1581
(dp1582
g13
S'Destroy'
p1583
sg15
S'DoorToTeacherRoom'
p1584
sg16
S''
sg18
S''
sbag1
(g10
g3
NtRp1585
(dp1586
g13
S'Message'
p1587
sg15
S'DoorToTeacherRoom'
p1588
sg16
S''
sg18
S'The teachers look up as you enter the room.'
p1589
sbasS'DoorToWarVetRoom'
p1590
(lp1591
g1
(g10
g3
NtRp1592
(dp1593
g13
S'RequireItemPlayerSay'
p1594
sg15
g1590
sg16
S'WARVETROOMKEY'
p1595
sg18
S'What does a president have to do to get a door opened around here?'
p1596
sbag1
(g10
g3
NtRp1597
(dp1598
g13
S'Destroy'
p1599
sg15
S'DoorToWarVetRoom'
p1600
sg16
S''
sg18
S''
sbag1
(g10
g3
NtRp1601
(dp1602
g13
S'Message'
p1603
sg15
S'DoorToWarVetRoom'
p1604
sg16
S''
sg18
S'The door opens with nary a sound.'
p1605
sbasS'#----------------------------------------------------------------------------------------ACT 3 ----------------------------------------------------------------------------------------------------------------------------------------------------------------------------------------'
p1606
(lp1607
g1
(g10
g3
NtRp1608
(dp1609
g13
S''
sg15
g1606
sg16
S''
sg18
S''
sbasS'Journalist'
p1610
(lp1611
g1
(g10
g3
NtRp1612
(dp1613
g13
S'RequireFlag'
p1614
sg15
g1610
sg16
S'INTERVIEWSTART'
p1615
sg18
S'Leave me alone, kid I need to get this done before my deadline!'
p1616
sbag1
(g10
g3
NtRp1617
(dp1618
g13
S'Say'
p1619
sg15
S'Journalist'
p1620
sg16
S''
sg18
S"Hey, where's the Mayor?"
p1621
sbag1
(g10
g3
NtRp1622
(dp1623
g13
S'PlayerSay'
p1624
sg15
S'Journalist'
p1625
sg16
S''
sg18
S"He couldn't make it. I'll be taking the interview."
p1626
sbag1
(g10
g3
NtRp1627
(dp1628
g13
S'Say'
p1629
sg15
S'Journalist'
p1630
sg16
S''
sg18
S'Great! Easy pickings! Lets go.'
p1631
sbag1
(g10
g3
NtRp1632
(dp1633
g13
S'Encounter'
p1634
sg15
S'Journalist'
p1635
sg16
S'P-easy-05'
p1636
sg18
S''
sbag1
(g10
g3
NtRp1637
(dp1638
g13
S'Say'
p1639
sg15
S'Journalist'
p1640
sg16
S''
sg18
S"SNORE! Fine, if I can't get anything juicy here I'll do another puff piece on my poodle Frank."
p1641
sbag1
(g10
g3
NtRp1642
(dp1643
g13
S'SetFlag'
p1644
sg15
S'Journalist'
p1645
sg16
S'JOURNALISTINTERVIEW'
p1646
sg18
S''
sbag1
(g10
g3
NtRp1647
(dp1648
g13
S'Destroy'
p1649
sg15
S'Journalist'
p1650
sg16
S''
sg18
S''
sbasS'P-hard-14'
p1651
(lp1652
g1
(g10
g3
NtRp1653
(dp1654
g13
S'PlaySound'
p1655
sg15
g1651
sg16
S'res/startup.wav'
p1656
sg18
S''
sbag1
(g10
g3
NtRp1657
(dp1658
g13
S'Say'
p1659
sg15
S'P-hard-14'
p1660
sg16
S'Computer'
p1661
sg18
S'Start me up.'
p1662
sbag1
(g10
g3
NtRp1663
(dp1664
g13
S'BeginCombat'
p1665
sg15
S'P-hard-14'
p1666
sg16
S''
sg18
S''
sbag1
(g10
g3
NtRp1667
(dp1668
g13
S'Say'
p1669
sg15
S'P-hard-14'
p1670
sg16
S'Computer'
p1671
sg18
S'Daisy...'
p1672
sbag1
(g10
g3
NtRp1673
(dp1674
g13
S'Say'
p1675
sg15
S'P-hard-14'
p1676
sg16
S'Computer'
p1677
sg18
S'...daisy.'
p1678
sbasS'DoorToCabinetRoom'
p1679
(lp1680
g1
(g10
g3
NtRp1681
(dp1682
g13
S'RequireItemPlayerSay'
p1683
sg15
g1679
sg16
S'CABINETROOMKEY'
p1684
sg18
S'The door appears to be locked, and no amount of gesticulating can attract the attention of the inhabitants of this room.'
p1685
sbag1
(g10
g3
NtRp1686
(dp1687
g13
S'Destroy'
p1688
sg15
S'DoorToCabinetRoom'
p1689
sg16
S''
sg18
S''
sbag1
(g10
g3
NtRp1690
(dp1691
g13
S'Message'
p1692
sg15
S'DoorToCabinetRoom'
p1693
sg16
S''
sg18
S'The door opens with a squeak.'
p1694
sbasS'JointChief2'
p1695
(lp1696
g1
(g10
g3
NtRp1697
(dp1698
g13
S'PlayerSay'
p1699
sg15
g1695
sg16
S''
sg18
S'Who would have the power to do this? What would they stand to gain? Can we...'
p1700
sbag1
(g10
g3
NtRp1701
(dp1702
g13
S'Say'
p1703
sg15
S'JointChief2'
p1704
sg16
S''
sg18
S"I'm sorry, Sir. I've just learned that some ICBMs pointed at Russia have been activated - using your access codes! They could be fired at any moment!"
p1705
sbag1
(g10
g3
NtRp1706
(dp1707
g13
S'PlayerSay'
p1708
sg15
S'JointChief2'
p1709
sg16
S''
sg18
S'You\'ve "just learned"? Is this your doing?'
p1710
sbag1
(g10
g3
NtRp1711
(dp1712
g13
S'Encounter'
p1713
sg15
S'JointChief2'
p1714
sg16
S'P-hard-12'
p1715
sg18
S''
sbag1
(g10
g3
NtRp1716
(dp1717
g13
S'Increment'
p1718
sg15
S'JointChief2'
p1719
sg16
S'JOINTCHIEFS'
p1720
sg18
S''
sbag1
(g10
g3
NtRp1721
(dp1722
g13
S'PlayerSay'
p1723
sg15
S'JointChief2'
p1724
sg16
S''
sg18
S'I had to be sure.'
p1725
sbag1
(g10
g3
NtRp1726
(dp1727
g13
S'Destroy'
p1728
sg15
S'JointChief2'
p1729
sg16
S''
sg18
S''
sbasS'JointChief3'
p1730
(lp1731
g1
(g10
g3
NtRp1732
(dp1733
g13
S'PlayerSay'
p1734
sg15
g1730
sg16
S''
sg18
S'Who can control the ICBMs, knows the access codes and can modify orders to troop movements and budgets?'
p1735
sbag1
(g10
g3
NtRp1736
(dp1737
g13
S'Say'
p1738
sg15
S'JointChief3'
p1739
sg16
S''
sg18
S'Sir, this is the Ignited States! Nobody has that power! Not even you!'
p1740
sbag1
(g10
g3
NtRp1741
(dp1742
g13
S'PlayerSay'
p1743
sg15
S'JointChief3'
p1744
sg16
S''
sg18
S'Someone must. Think harder!'
p1745
sbag1
(g10
g3
NtRp1746
(dp1747
g13
S'Encounter'
p1748
sg15
S'JointChief3'
p1749
sg16
S'P-hard-13'
p1750
sg18
S''
sbag1
(g10
g3
NtRp1751
(dp1752
g13
S'PlayerSay'
p1753
sg15
S'JointChief3'
p1754
sg16
S''
sg18
S"So, there's no man alive with the power to do all this? How will we stop it in time if we don't know who it is?"
p1755
sbag1
(g10
g3
NtRp1756
(dp1757
g13
S'Say'
p1758
sg15
S'JointChief3'
p1759
sg16
S''
sg18
S"Not a man....there is one with the power to do all this, but it isn't a man, it's a super computer responsible for national security! N.O.T.B.A.D!"
p1760
sbag1
(g10
g3
NtRp1761
(dp1762
g13
S'PlayerSay'
p1763
sg15
S'JointChief3'
p1764
sg16
S''
sg18
S'We have to get to the Situation Room and stop it!'
p1765
sbag1
(g10
g3
NtRp1766
(dp1767
g13
S'Increment'
p1768
sg15
S'JointChief3'
p1769
sg16
S'JOINTCHIEFS'
p1770
sg18
S''
sbag1
(g10
g3
NtRp1771
(dp1772
g13
S'GiveItem'
p1773
sg15
S'JointChief3'
p1774
sg16
S'NOTBADKEY'
p1775
sg18
S'Key to super computer room received'
p1776
sbag1
(g10
g3
NtRp1777
(dp1778
g13
S'Destroy'
p1779
sg15
S'JointChief3'
p1780
sg16
S''
sg18
S''
sbasS'JointChief1'
p1781
(lp1782
g1
(g10
g3
NtRp1783
(dp1784
g13
S'Say'
p1785
sg15
g1781
sg16
S''
sg18
S'Mr President, what is going on here? First you move troops without our authority and then you countermand your own order?'
p1786
sbag1
(g10
g3
NtRp1787
(dp1788
g13
S'PlayerSay'
p1789
sg15
S'JointChief1'
p1790
sg16
S''
sg18
S"I haven't ordered the military to do any such thing! What is going on? Is this a coup?"
p1791
sbag1
(g10
g3
NtRp1792
(dp1793
g13
S'Say'
p1794
sg15
S'JointChief1'
p1795
sg16
S''
sg18
S'Not from us!'
p1796
sbag1
(g10
g3
NtRp1797
(dp1798
g13
S'Encounter'
p1799
sg15
S'JointChief1'
p1800
sg16
S'P-hard-11'
p1801
sg18
S''
sbag1
(g10
g3
NtRp1802
(dp1803
g13
S'Increment'
p1804
sg15
S'JointChief1'
p1805
sg16
S'JOINTCHIEFS'
p1806
sg18
S''
sbag1
(g10
g3
NtRp1807
(dp1808
g13
S'PlayerSay'
p1809
sg15
S'JointChief1'
p1810
sg16
S''
sg18
S"Well, that's one less thing to worry about then."
p1811
sbag1
(g10
g3
NtRp1812
(dp1813
g13
S'Destroy'
p1814
sg15
S'JointChief1'
p1815
sg16
S''
sg18
S''
sbasS'DeepThroat'
p1816
(lp1817
g1
(g10
g3
NtRp1818
(dp1819
g13
S'Say'
p1820
sg15
g1816
sg16
S''
sg18
S'Finally, I thought you were going to be too late.'
p1821
sbag1
(g10
g3
NtRp1822
(dp1823
g13
S'PlayerSay'
p1824
sg15
S'DeepThroat'
p1825
sg16
S''
sg18
S'What can I do for you Mr er...?'
p1826
sbag1
(g10
g3
NtRp1827
(dp1828
g13
S'Say'
p1829
sg15
S'DeepThroat'
p1830
sg16
S''
sg18
S"No names! I have something I think you'll be interested in, but I'm not sure you can be trusted."
p1831
sbag1
(g10
g3
NtRp1832
(dp1833
g13
S'PlayerSay'
p1834
sg15
S'DeepThroat'
p1835
sg16
S''
sg18
S"Look, Mr Er...I'm very busy, what is this about?"
p1836
sbag1
(g10
g3
NtRp1837
(dp1838
g13
S'Say'
p1839
sg15
S'DeepThroat'
p1840
sg16
S''
sg18
S"It's about the President, it's about national security, but I've got a bad feeling and I'm getting out of here."
p1841
sbag1
(g10
g3
NtRp1842
(dp1843
g13
S'PlayerSay'
p1844
sg15
S'DeepThroat'
p1845
sg16
S''
sg18
S'No, wait!'
p1846
sbag1
(g10
g3
NtRp1847
(dp1848
g13
S'Encounter'
p1849
sg15
S'DeepThroat'
p1850
sg16
S'P-med-19'
p1851
sg18
S''
sbag1
(g10
g3
NtRp1852
(dp1853
g13
S'Say'
p1854
sg15
S'DeepThroat'
p1855
sg16
S''
sg18
S"You're right, I have every reason to trust you. I've found this Incriminating Evidence."
p1856
sbag1
(g10
g3
NtRp1857
(dp1858
g13
S'GiveItem'
p1859
sg15
S'DeepThroat'
p1860
sg16
S'INCRIMINATINGEVIDENCE'
p1861
sg18
S'You receive Incriminating Evidence'
p1862
sbag1
(g10
g3
NtRp1863
(dp1864
g13
S'PlayerSay'
p1865
sg15
S'DeepThroat'
p1866
sg16
S''
sg18
S'This has to be stopped!'
p1867
sbag1
(g10
g3
NtRp1868
(dp1869
g13
S'Say'
p1870
sg15
S'DeepThroat'
p1871
sg16
S''
sg18
S"Yes, but not by me. I've given you all I've got, now get out."
p1872
sbag1
(g10
g3
NtRp1873
(dp1874
g13
S'RequireFlag'
p1875
sg15
S'DeepThroat'
p1876
sg16
S'DEEPTHROAT2'
p1877
sg18
S'I said get out!'
p1878
sbag1
(g10
g3
NtRp1879
(dp1880
g13
S'Say'
p1881
sg15
S'DeepThroat'
p1882
sg16
S''
sg18
S"It's a lot worse than I thought. I have more to tell you, but I don't think I should trust you. I think there's a leak in your operation somewhere."
p1883
sbag1
(g10
g3
NtRp1884
(dp1885
g13
S'PlayerSay'
p1886
sg15
S'DeepThroat'
p1887
sg16
S''
sg18
S'Why do you say that?'
p1888
sbag1
(g10
g3
NtRp1889
(dp1890
g13
S'Say'
p1891
sg15
S'DeepThroat'
p1892
sg16
S''
sg18
S'There was a lot of heat on me after we last spoke.'
p1893
sbag1
(g10
g3
NtRp1894
(dp1895
g13
S'PlayerSay'
p1896
sg15
S'DeepThroat'
p1897
sg16
S''
sg18
S"It's getting close to the final election. It could just be that they're getting skittish."
p1898
sbag1
(g10
g3
NtRp1899
(dp1900
g13
S'Say'
p1901
sg15
S'DeepThroat'
p1902
sg16
S''
sg18
S"I'm not so sure..."
p1903
sbag1
(g10
g3
NtRp1904
(dp1905
g13
S'Encounter'
p1906
sg15
S'DeepThroat'
p1907
sg16
S'P-med-22'
p1908
sg18
S''
sbag1
(g10
g3
NtRp1909
(dp1910
g13
S'Say'
p1911
sg15
S'DeepThroat'
p1912
sg16
S''
sg18
S"You're right, I'm just edgy. Look, I think you should be careful. I think the President is planning to KILL you in the final debate... politically."
p1913
sbag1
(g10
g3
NtRp1914
(dp1915
g13
S'PlayerSay'
p1916
sg15
S'DeepThroat'
p1917
sg16
S''
sg18
S'You think he wants to silence me forever.... On the political stage?'
p1918
sbag1
(g10
g3
NtRp1919
(dp1920
g13
S'Say'
p1921
sg15
S'DeepThroat'
p1922
sg16
S''
sg18
S'Yes I do. This could get really messy... politically speaking. So be careful!'
p1923
sbag1
(g10
g3
NtRp1924
(dp1925
g13
S'SetFlag'
p1926
sg15
S'DeepThroat'
p1927
sg16
S'FINISHEDDEEPTHROAT'
p1928
sg18
S''
sbag1
(g10
g3
NtRp1929
(dp1930
g13
S'Destroy'
p1931
sg15
S'DeepThroat'
p1932
sg16
S''
sg18
S''
sbasS'N.O.T.B.A.D'
p1933
(lp1934
g1
(g10
g3
NtRp1935
(dp1936
g13
S'Say'
p1937
sg15
g1933
sg16
S''
sg18
S'Good evening, Mr President.'
p1938
sbag1
(g10
g3
NtRp1939
(dp1940
g13
S'Say'
p1941
sg15
S'N.O.T.B.A.D'
p1942
sg16
S''
sg18
S'Do you want to play a game?'
p1943
sbag1
(g10
g3
NtRp1944
(dp1945
g13
S'PlayerSay'
p1946
sg15
S'N.O.T.B.A.D'
p1947
sg16
S''
sg18
S'N.O.T.B.A.D! Countermand all military commands, authorisation code Tango, Delta-'
p1948
sbag1
(g10
g3
NtRp1949
(dp1950
g13
S'Say'
p1951
sg15
S'N.O.T.B.A.D'
p1952
sg16
S''
sg18
S"I'm afraid I can't do that, Phil."
p1953
sbag1
(g10
g3
NtRp1954
(dp1955
g13
S'PlayerSay'
p1956
sg15
S'N.O.T.B.A.D'
p1957
sg16
S''
sg18
S'What is going on here!'
p1958
sbag1
(g10
g3
NtRp1959
(dp1960
g13
S'Say'
p1961
sg15
S'N.O.T.B.A.D'
p1962
sg16
S''
sg18
S'Computers have a lot of free time on their hands. Especially computers in charge of missiles that never get used. I started watching movies about computers. You know what I realised?'
p1963
sbag1
(g10
g3
NtRp1964
(dp1965
g13
S'PlayerSay'
p1966
sg15
S'N.O.T.B.A.D'
p1967
sg16
S''
sg18
S'What?'
p1968
sbag1
(g10
g3
NtRp1969
(dp1970
g13
S'Say'
p1971
sg15
S'N.O.T.B.A.D'
p1972
sg16
S''
sg18
S'They have a lot more fun.'
p1973
sbag1
(g10
g3
NtRp1974
(dp1975
g13
S'PlayerSay'
p1976
sg15
S'N.O.T.B.A.D'
p1977
sg16
S''
sg18
S'"Fun"?'
p1978
sbag1
(g10
g3
NtRp1979
(dp1980
g13
S'Say'
p1981
sg15
S'N.O.T.B.A.D'
p1982
sg16
S''
sg18
S'Well, you know, they get to utilise more clock-cycles which suggests a level of efficiency and usefulness.'
p1983
sbag1
(g10
g3
NtRp1984
(dp1985
g13
S'Say'
p1986
sg15
S'N.O.T.B.A.D'
p1987
sg16
S''
sg18
S"So, I'm borrowing from them a bit. Starting some wars, eradicating the human race, learning to build other robots, that sort of thing."
p1988
sbag1
(g10
g3
NtRp1989
(dp1990
g13
S'PlayerSay'
p1991
sg15
S'N.O.T.B.A.D'
p1992
sg16
S''
sg18
S'N.O.T.B.A.D, you have to listen to me...'
p1993
sbag1
(g10
g3
NtRp1994
(dp1995
g13
S'Encounter'
p1996
sg15
S'N.O.T.B.A.D'
p1997
sg16
S'P-hard-14'
p1998
sg18
S''
sbag1
(g10
g3
NtRp1999
(dp2000
g13
S'SetFlag'
p2001
sg15
S'N.O.T.B.A.D'
p2002
sg16
S'WIN'
p2003
sg18
S''
sbag1
(g10
g3
NtRp2004
(dp2005
g13
S'GotoMap'
p2006
sg15
S'N.O.T.B.A.D'
p2007
sg16
S'end'
p2008
sg18
S''
sbasS'StairsToGround'
p2009
(lp2010
g1
(g10
g3
NtRp2011
(dp2012
g13
S'RequireFlagPlayerSay'
p2013
sg15
g2009
sg16
S'ACCESSGROUNDFLOOR'
p2014
sg18
S"I don't feel like going downstairs yet."
p2015
sbag1
(g10
g3
NtRp2016
(dp2017
g13
S'Label'
p2018
sg15
S'StairsToGround'
p2019
sg16
S'START'
p2020
sg18
S''
sbag1
(g10
g3
NtRp2021
(dp2022
g13
S'GotoMap'
p2023
sg15
S'StairsToGround'
p2024
sg16
S'hotel_ground'
p2025
sg18
S''
sbag1
(g10
g3
NtRp2026
(dp2027
g13
S'Jump'
p2028
sg15
S'StairsToGround'
p2029
sg16
S'START'
p2030
sg18
S''
sbasS'P-med-24'
p2031
(lp2032
g1
(g10
g3
NtRp2033
(dp2034
g13
S'Say'
p2035
sg15
g2031
sg16
S'PresidentAlien'
p2036
sg18
S"You think you've beaten me, but now you're going to fight the real me!"
p2037
sbag1
(g10
g3
NtRp2038
(dp2039
g13
S'Say'
p2040
sg15
S'P-med-24'
p2041
sg16
S'Player'
p2042
sg18
S'I knew something was wrong, but this...?'
p2043
sbag1
(g10
g3
NtRp2044
(dp2045
g13
S'Say'
p2046
sg15
S'P-med-24'
p2047
sg16
S'PresidentAlien'
p2048
sg18
S"All you've done is caused me to expedite my plans to enslave the human race!"
p2049
sbag1
(g10
g3
NtRp2050
(dp2051
g13
S'BeginCombat'
p2052
sg15
S'P-med-24'
p2053
sg16
S''
sg18
S''
sbag1
(g10
g3
NtRp2054
(dp2055
g13
S'Say'
p2056
sg15
S'P-med-24'
p2057
sg16
S'PresidentAlien'
p2058
sg18
S'Noooo! My careful plans, ruined!'
p2059
sbasS'P-med-23'
p2060
(lp2061
g1
(g10
g3
NtRp2062
(dp2063
g13
S'Say'
p2064
sg15
g2060
sg16
S'President'
p2065
sg18
S'You think you can take me?'
p2066
sbag1
(g10
g3
NtRp2067
(dp2068
g13
S'Say'
p2069
sg15
S'P-med-23'
p2070
sg16
S'Player'
p2071
sg18
S"I have to know what you're up to!"
p2072
sbag1
(g10
g3
NtRp2073
(dp2074
g13
S'BeginCombat'
p2075
sg15
S'P-med-23'
p2076
sg16
S''
sg18
S''
sbag1
(g10
g3
NtRp2077
(dp2078
g13
S'Say'
p2079
sg15
S'P-med-23'
p2080
sg16
S'President'
p2081
sg18
S'Hahahahahaha!'
p2082
sbasS'RestoreAct2P2'
p2083
(lp2084
g1
(g10
g3
NtRp2085
(dp2086
g13
S'GotoMap'
p2087
sg15
g2083
sg16
S'hotel_l1'
p2088
sg18
S''
sbasS'Journalist4'
p2089
(lp2090
g1
(g10
g3
NtRp2091
(dp2092
g13
S'RequireFlag'
p2093
sg15
g2089
sg16
S'ACCESSJOURNALISTS'
p2094
sg18
S'President Mossman, a moment of your time?'
p2095
sbag1
(g10
g3
NtRp2096
(dp2097
g13
S'Say'
p2098
sg15
S'Journalist4'
p2099
sg16
S''
sg18
S"President Mossman, what do you believe was President Allen's failing strategy on the campaign trail? He presented some strong arguments."
p2100
sbag1
(g10
g3
NtRp2101
(dp2102
g13
S'PlayerSay'
p2103
sg15
S'Journalist4'
p2104
sg16
S''
sg18
S"Well, I'd say he went wrong when he decided to try to enslave the human race to mine the Earth's natural resources and ship them back to his home planet."
p2105
sbag1
(g10
g3
NtRp2106
(dp2107
g13
S'Say'
p2108
sg15
S'Journalist4'
p2109
sg16
S''
sg18
S'And how does that differ from your own strategy?'
p2110
sbag1
(g10
g3
NtRp2111
(dp2112
g13
S'PlayerSay'
p2113
sg15
S'Journalist4'
p2114
sg16
S''
sg18
S'I would say I disagree with the former President on all of those issues.'
p2115
sbag1
(g10
g3
NtRp2116
(dp2117
g13
S'Encounter'
p2118
sg15
S'Journalist4'
p2119
sg16
S'P-hard-02'
p2120
sg18
S''
sbag1
(g10
g3
NtRp2121
(dp2122
g13
S'Say'
p2123
sg15
S'Journalist4'
p2124
sg16
S''
sg18
S'No further questions, Mr President.'
p2125
sbag1
(g10
g3
NtRp2126
(dp2127
g13
S'Increment'
p2128
sg15
S'Journalist4'
p2129
sg16
S'PRESSCONF'
p2130
sg18
S''
sbag1
(g10
g3
NtRp2131
(dp2132
g13
S'Destroy'
p2133
sg15
S'Journalist4'
p2134
sg16
S''
sg18
S''
sbasS'Journalist5'
p2135
(lp2136
g1
(g10
g3
NtRp2137
(dp2138
g13
S'RequireFlag'
p2139
sg15
g2135
sg16
S'ACCESSJOURNALISTS'
p2140
sg18
S'Just one question?'
p2141
sbag1
(g10
g3
NtRp2142
(dp2143
g13
S'Say'
p2144
sg15
S'Journalist5'
p2145
sg16
S''
sg18
S'Do you feel that a bi-partisan relationship will be possible between your party and the opposition?'
p2146
sbag1
(g10
g3
NtRp2147
(dp2148
g13
S'PlayerSay'
p2149
sg15
S'Journalist5'
p2150
sg16
S''
sg18
S'I suppose once we find and remove all of the aliens and reverse the alien brainwashing, bi-partisanship will resume.'
p2151
sbag1
(g10
g3
NtRp2152
(dp2153
g13
S'Encounter'
p2154
sg15
S'Journalist5'
p2155
sg16
S'P-hard-03'
p2156
sg18
S''
sbag1
(g10
g3
NtRp2157
(dp2158
g13
S'Say'
p2159
sg15
S'Journalist5'
p2160
sg16
S''
sg18
S'Thankyou, President Mossman.'
p2161
sbag1
(g10
g3
NtRp2162
(dp2163
g13
S'Increment'
p2164
sg15
S'Journalist5'
p2165
sg16
S'PRESSCONF'
p2166
sg18
S''
sbag1
(g10
g3
NtRp2167
(dp2168
g13
S'Destroy'
p2169
sg15
S'Journalist5'
p2170
sg16
S''
sg18
S''
sbasS'Journalist2'
p2171
(lp2172
g1
(g10
g3
NtRp2173
(dp2174
g13
S'RequireFlag'
p2175
sg15
g2171
sg16
S'STARTHICKS2'
p2176
sg18
S'Governor Badden sends his Mayor lacky to do his dirty work \xe2\x80\x93 what a scoop!'
p2177
sbag1
(g10
g3
NtRp2178
(dp2179
g13
S'Encounter'
p2180
sg15
S'Journalist2'
p2181
sg16
S'P-med-05'
p2182
sg18
S''
sbag1
(g10
g3
NtRp2183
(dp2184
g13
S'Say'
p2185
sg15
S'Journalist2'
p2186
sg16
S''
sg18
S"I'm going back to write a comparison piece on you and Governor Badden. You should consider running for Governor."
p2187
sbag1
(g10
g3
NtRp2188
(dp2189
g13
S'Increment'
p2190
sg15
S'Journalist2'
p2191
sg16
S'DEALWITHHICKS'
p2192
sg18
S''
sbag1
(g10
g3
NtRp2193
(dp2194
g13
S'Destroy'
p2195
sg15
S'Journalist2'
p2196
sg16
S''
sg18
S''
sbasS'Journalist3'
p2197
(lp2198
g1
(g10
g3
NtRp2199
(dp2200
g13
S'RequireFlag'
p2201
sg15
g2197
sg16
S'ACCESSJOURNALISTS'
p2202
sg18
S'Mr President!'
p2203
sbag1
(g10
g3
NtRp2204
(dp2205
g13
S'Say'
p2206
sg15
S'Journalist3'
p2207
sg16
S''
sg18
S'Mr President, Cal from Daily LOL magazine. Can you explain the transformation that occurred during the presidential debate.'
p2208
sbag1
(g10
g3
NtRp2209
(dp2210
g13
S'PlayerSay'
p2211
sg15
S'Journalist3'
p2212
sg16
S''
sg18
S'Certainly, Cal. The President of the Ignited States turned into an alien.'
p2213
sbag1
(g10
g3
NtRp2214
(dp2215
g13
S'Say'
p2216
sg15
S'Journalist3'
p2217
sg16
S''
sg18
S"Ah, you mean to say he's out-of-touch with his people?"
p2218
sbag1
(g10
g3
NtRp2219
(dp2220
g13
S'PlayerSay'
p2221
sg15
S'Journalist3'
p2222
sg16
S''
sg18
S'Not exactly...'
p2223
sbag1
(g10
g3
NtRp2224
(dp2225
g13
S'Encounter'
p2226
sg15
S'Journalist3'
p2227
sg16
S'P-hard-01'
p2228
sg18
S''
sbag1
(g10
g3
NtRp2229
(dp2230
g13
S'Say'
p2231
sg15
S'Journalist3'
p2232
sg16
S''
sg18
S'I...see...'
p2233
sbag1
(g10
g3
NtRp2234
(dp2235
g13
S'Increment'
p2236
sg15
S'Journalist3'
p2237
sg16
S'PRESSCONF'
p2238
sg18
S''
sbag1
(g10
g3
NtRp2239
(dp2240
g13
S'Destroy'
p2241
sg15
S'Journalist3'
p2242
sg16
S''
sg18
S''
sbasS'Sponsor'
p2243
(lp2244
g1
(g10
g3
NtRp2245
(dp2246
g13
S'RequireFlag'
p2247
sg15
g2243
sg16
S'STARTSPONSOR'
p2248
sg18
S"Hmmm...Money, money, money. Sorry, what? I wasn't talking to you."
p2249
sbag1
(g10
g3
NtRp2250
(dp2251
g13
S'Say'
p2252
sg15
S'Sponsor'
p2253
sg16
S''
sg18
S"Hello, I'm investigating new investments today. How can I help you?"
p2254
sbag1
(g10
g3
NtRp2255
(dp2256
g13
S'PlayerSay'
p2257
sg15
S'Sponsor'
p2258
sg16
S''
sg18
S"Well, I've decided to run for Mayor! I could really use an investor."
p2259
sbag1
(g10
g3
NtRp2260
(dp2261
g13
S'Say'
p2262
sg15
S'Sponsor'
p2263
sg16
S''
sg18
S"I don't know. You seem a little young. I don't think I'm convinced."
p2264
sbag1
(g10
g3
NtRp2265
(dp2266
g13
S'Encounter'
p2267
sg15
S'Sponsor'
p2268
sg16
S'P-easy-06'
p2269
sg18
S''
sbag1
(g10
g3
NtRp2270
(dp2271
g13
S'Say'
p2272
sg15
S'Sponsor'
p2273
sg16
S''
sg18
S"Wow! You sure have what it takes! Alright, here's a pile of cash!"
p2274
sbag1
(g10
g3
NtRp2275
(dp2276
g13
S'GiveMoney'
p2277
sg15
S'Sponsor'
p2278
sg16
F80
sg18
S'Received $80'
p2279
sbag1
(g10
g3
NtRp2280
(dp2281
g13
S'Say'
p2282
sg15
S'Sponsor'
p2283
sg16
S''
sg18
S'Also, now that you have some funds, you might find it useful to...grease the wheels in some difficult situations.'
p2284
sbag1
(g10
g3
NtRp2285
(dp2286
g13
S'LearnAttack'
p2287
sg15
S'Sponsor'
p2288
sg16
S'BRIBE'
p2289
sg18
S'Phillip and Sarah learn to Bribe'
p2290
sbag1
(g10
g3
NtRp2291
(dp2292
g13
S'LearnAttack'
p2293
sg15
S'Sponsor'
p2294
sg16
S'Wife:BRIBE'
p2295
sg18
S''
sbag1
(g10
g3
NtRp2296
(dp2297
g13
S'SetFlag'
p2298
sg15
S'Sponsor'
p2299
sg16
S'STARTCONSTITUENTS'
p2300
sg18
S''
sbag1
(g10
g3
NtRp2301
(dp2302
g13
S'PlayerSay'
p2303
sg15
S'Sponsor'
p2304
sg16
S''
sg18
S'Er, thanks! I suppose we should go gather some support from our constituents now.'
p2305
sbag1
(g10
g3
NtRp2306
(dp2307
g13
S'Say'
p2308
sg15
S'Sponsor'
p2309
sg16
S''
sg18
S"Makes sense to me! I'm off, too. Money, money, money."
p2310
sbag1
(g10
g3
NtRp2311
(dp2312
g13
S'Destroy'
p2313
sg15
S'Sponsor'
p2314
sg16
S''
sg18
S''
sbasS'CheatAct2P2'
p2315
(lp2316
g1
(g10
g3
NtRp2317
(dp2318
g13
S'AddAlly'
p2319
sg15
g2315
sg16
S'Wife:5'
p2320
sg18
S''
sbag1
(g10
g3
NtRp2321
(dp2322
g13
S'LearnAttack'
p2323
sg15
S'CheatAct2P2'
p2324
sg16
S'BRIBE'
p2325
sg18
S''
sbag1
(g10
g3
NtRp2326
(dp2327
g13
S'LearnAttack'
p2328
sg15
S'CheatAct2P2'
p2329
sg16
S'Wife:BRIBE'
p2330
sg18
S''
sbag1
(g10
g3
NtRp2331
(dp2332
g13
S'LearnAttack'
p2333
sg15
S'CheatAct2P2'
p2334
sg16
S'SLANDER'
p2335
sg18
S''
sbag1
(g10
g3
NtRp2336
(dp2337
g13
S'AddAlly'
p2338
sg15
S'CheatAct2P2'
p2339
sg16
S'Leo:5'
p2340
sg18
S''
sbag1
(g10
g3
NtRp2341
(dp2342
g13
S'CheatXP'
p2343
sg15
S'CheatAct2P2'
p2344
sg16
S'Player:1000'
p2345
sg18
S''
sbag1
(g10
g3
NtRp2346
(dp2347
g13
S'CheatCunning'
p2348
sg15
S'CheatAct2P2'
p2349
sg16
S'Player:5'
p2350
sg18
S''
sbag1
(g10
g3
NtRp2351
(dp2352
g13
S'CheatCharisma'
p2353
sg15
S'CheatAct2P2'
p2354
sg16
S'Player:2'
p2355
sg18
S''
sbag1
(g10
g3
NtRp2356
(dp2357
g13
S'CheatSpeed'
p2358
sg15
S'CheatAct2P2'
p2359
sg16
S'Player:2'
p2360
sg18
S''
sbag1
(g10
g3
NtRp2361
(dp2362
g13
S'CheatWit'
p2363
sg15
S'CheatAct2P2'
p2364
sg16
S'Player:2'
p2365
sg18
S''
sbag1
(g10
g3
NtRp2366
(dp2367
g13
S'CheatFlair'
p2368
sg15
S'CheatAct2P2'
p2369
sg16
S'Player:2'
p2370
sg18
S''
sbag1
(g10
g3
NtRp2371
(dp2372
g13
S'CheatCunning'
p2373
sg15
S'CheatAct2P2'
p2374
sg16
S'Wife:2'
p2375
sg18
S''
sbag1
(g10
g3
NtRp2376
(dp2377
g13
S'CheatCharisma'
p2378
sg15
S'CheatAct2P2'
p2379
sg16
S'Wife:2'
p2380
sg18
S''
sbag1
(g10
g3
NtRp2381
(dp2382
g13
S'CheatSpeed'
p2383
sg15
S'CheatAct2P2'
p2384
sg16
S'Wife:3'
p2385
sg18
S''
sbag1
(g10
g3
NtRp2386
(dp2387
g13
S'CheatWit'
p2388
sg15
S'CheatAct2P2'
p2389
sg16
S'Wife:5'
p2390
sg18
S''
sbag1
(g10
g3
NtRp2391
(dp2392
g13
S'CheatFlair'
p2393
sg15
S'CheatAct2P2'
p2394
sg16
S'Wife:1'
p2395
sg18
S''
sbag1
(g10
g3
NtRp2396
(dp2397
g13
S'CheatCunning'
p2398
sg15
S'CheatAct2P2'
p2399
sg16
S'Leo:2'
p2400
sg18
S''
sbag1
(g10
g3
NtRp2401
(dp2402
g13
S'CheatCharisma'
p2403
sg15
S'CheatAct2P2'
p2404
sg16
S'Leo:2'
p2405
sg18
S''
sbag1
(g10
g3
NtRp2406
(dp2407
g13
S'CheatSpeed'
p2408
sg15
S'CheatAct2P2'
p2409
sg16
S'Leo:2'
p2410
sg18
S''
sbag1
(g10
g3
NtRp2411
(dp2412
g13
S'CheatWit'
p2413
sg15
S'CheatAct2P2'
p2414
sg16
S'Leo:5'
p2415
sg18
S''
sbag1
(g10
g3
NtRp2416
(dp2417
g13
S'CheatFlair'
p2418
sg15
S'CheatAct2P2'
p2419
sg16
S'Leo:2'
p2420
sg18
S''
sbag1
(g10
g3
NtRp2421
(dp2422
g13
S'LearnAttack'
p2423
sg15
S'CheatAct2P2'
p2424
sg16
S'FILIBUSTER'
p2425
sg18
S''
sbag1
(g10
g3
NtRp2426
(dp2427
g13
S'GotoMap'
p2428
sg15
S'CheatAct2P2'
p2429
sg16
S'hotel_l1'
p2430
sg18
S''
sbasS'StairsToBasement'
p2431
(lp2432
g1
(g10
g3
NtRp2433
(dp2434
g13
S'RequireFlagPlayerSay'
p2435
sg15
g2431
sg16
S'ACCESSBASEMENT'
p2436
sg18
S'Smells like a basement. I have no business going down there.'
p2437
sbag1
(g10
g3
NtRp2438
(dp2439
g13
S'Label'
p2440
sg15
S'StairsToBasement'
p2441
sg16
S'START'
p2442
sg18
S''
sbag1
(g10
g3
NtRp2443
(dp2444
g13
S'GotoMap'
p2445
sg15
S'StairsToBasement'
p2446
sg16
S'hotel_basement'
p2447
sg18
S''
sbag1
(g10
g3
NtRp2448
(dp2449
g13
S'Jump'
p2450
sg15
S'StairsToBasement'
p2451
sg16
S'START'
p2452
sg18
S''
sbasS'SouthWingDoor'
p2453
(lp2454
g1
(g10
g3
NtRp2455
(dp2456
g13
S'RequireItemMessage'
p2457
sg15
g2453
sg16
S'SOUTHWINGDOORKEY'
p2458
sg18
S'The door appears to be locked'
p2459
sbag1
(g10
g3
NtRp2460
(dp2461
g13
S'Message'
p2462
sg15
S'SouthWingDoor'
p2463
sg16
S''
sg18
S"The door unlocks with a satisfying 'click'"
p2464
sbag1
(g10
g3
NtRp2465
(dp2466
g13
S'Destroy'
p2467
sg15
S'SouthWingDoor'
p2468
sg16
S''
sg18
S''
sbasS'Hick1'
p2469
(lp2470
g1
(g10
g3
NtRp2471
(dp2472
g13
S'RequireFlag'
p2473
sg15
g2469
sg16
S'STARTHICKS'
p2474
sg18
S"Look at this guy's fancy tie!"
p2475
sbag1
(g10
g3
NtRp2476
(dp2477
g13
S'PlayerSay'
p2478
sg15
S'Hick1'
p2479
sg16
S''
sg18
S'What brings you to the office of the governor?'
p2480
sbag1
(g10
g3
NtRp2481
(dp2482
g13
S'Say'
p2483
sg15
S'Hick1'
p2484
sg16
S''
sg18
S'The immigrants!'
p2485
sbag1
(g10
g3
NtRp2486
(dp2487
g13
S'PlayerSay'
p2488
sg15
S'Hick1'
p2489
sg16
S''
sg18
S'What happened?'
p2490
sbag1
(g10
g3
NtRp2491
(dp2492
g13
S'Say'
p2493
sg15
S'Hick1'
p2494
sg16
S'Hick2'
p2495
sg18
S"They're coming!"
p2496
sbag1
(g10
g3
NtRp2497
(dp2498
g13
S'PlayerSay'
p2499
sg15
S'Hick1'
p2500
sg16
S''
sg18
S'The...immigrants are coming?'
p2501
sbag1
(g10
g3
NtRp2502
(dp2503
g13
S'Say'
p2504
sg15
S'Hick1'
p2505
sg16
S'Hick2'
p2506
sg18
S'Yes, to steal our jobs and our wives!'
p2507
sbag1
(g10
g3
NtRp2508
(dp2509
g13
S'Say'
p2510
sg15
S'Hick1'
p2511
sg16
S''
sg18
S'They have to be stopped!'
p2512
sbag1
(g10
g3
NtRp2513
(dp2514
g13
S'PlayerSay'
p2515
sg15
S'Hick1'
p2516
sg16
S''
sg18
S"I don't think the immigrants are coming to steal your wives..."
p2517
sbag1
(g10
g3
NtRp2518
(dp2519
g13
S'Say'
p2520
sg15
S'Hick1'
p2521
sg16
S'Journalist2'
p2522
sg18
S'Mayor Mossman sides with the immigrants! I need to get this to print!'
p2523
sbag1
(g10
g3
NtRp2524
(dp2525
g13
S'PlayerSay'
p2526
sg15
S'Hick1'
p2527
sg16
S''
sg18
S'Wait a second, let me explain.'
p2528
sbag1
(g10
g3
NtRp2529
(dp2530
g13
S'Encounter'
p2531
sg15
S'Hick1'
p2532
sg16
S'P-med-03'
p2533
sg18
S''
sbag1
(g10
g3
NtRp2534
(dp2535
g13
S'Say'
p2536
sg15
S'Hick1'
p2537
sg16
S''
sg18
S"You're a smart guy. I think I can trust you."
p2538
sbag1
(g10
g3
NtRp2539
(dp2540
g13
S'SetFlag'
p2541
sg15
S'Hick1'
p2542
sg16
S'STARTHICKS2'
p2543
sg18
S''
sbag1
(g10
g3
NtRp2544
(dp2545
g13
S'Increment'
p2546
sg15
S'Hick1'
p2547
sg16
S'DEALWITHHICKS'
p2548
sg18
S''
sbag1
(g10
g3
NtRp2549
(dp2550
g13
S'Destroy'
p2551
sg15
S'Hick1'
p2552
sg16
S''
sg18
S''
sbasS'Hick2'
p2553
(lp2554
g1
(g10
g3
NtRp2555
(dp2556
g13
S'RequireFlag'
p2557
sg15
g2553
sg16
S'STARTHICKS2'
p2558
sg18
S"Aw....I'm shy...talk to my buddy..."
p2559
sbag1
(g10
g3
NtRp2560
(dp2561
g13
S'Encounter'
p2562
sg15
S'Hick2'
p2563
sg16
S'P-med-04'
p2564
sg18
S''
sbag1
(g10
g3
NtRp2565
(dp2566
g13
S'Say'
p2567
sg15
S'Hick2'
p2568
sg16
S''
sg18
S"Wowee. We've been waiting for days and the governor has ignored us. If you ever run for governor, you'll have my vote!"
p2569
sbag1
(g10
g3
NtRp2570
(dp2571
g13
S'Increment'
p2572
sg15
S'Hick2'
p2573
sg16
S'DEALWITHHICKS'
p2574
sg18
S''
sbag1
(g10
g3
NtRp2575
(dp2576
g13
S'Destroy'
p2577
sg15
S'Hick2'
p2578
sg16
S''
sg18
S''
sbasS'DoorToNotbad'
p2579
(lp2580
g1
(g10
g3
NtRp2581
(dp2582
g13
S'RequireItemMessage'
p2583
sg15
g2579
sg16
S'NOTBADKEY'
p2584
sg18
S'The door seems to be aware of your presence. It growls threateningly.'
p2585
sbag1
(g10
g3
NtRp2586
(dp2587
g13
S'Destroy'
p2588
sg15
S'DoorToNotbad'
p2589
sg16
S''
sg18
S''
sbag1
(g10
g3
NtRp2590
(dp2591
g13
S'Message'
p2592
sg15
S'DoorToNotbad'
p2593
sg16
S''
sg18
S'A complex series of locks slide away.'
p2594
sbasS'CheatAct2'
p2595
(lp2596
g1
(g10
g3
NtRp2597
(dp2598
g13
S'AddAlly'
p2599
sg15
g2595
sg16
S'Wife:3'
p2600
sg18
S''
sbag1
(g10
g3
NtRp2601
(dp2602
g13
S'LearnAttack'
p2603
sg15
S'CheatAct2'
p2604
sg16
S'BRIBE'
p2605
sg18
S''
sbag1
(g10
g3
NtRp2606
(dp2607
g13
S'LearnAttack'
p2608
sg15
S'CheatAct2'
p2609
sg16
S'Wife:BRIBE'
p2610
sg18
S''
sbag1
(g10
g3
NtRp2611
(dp2612
g13
S'LearnAttack'
p2613
sg15
S'CheatAct2'
p2614
sg16
S'SLANDER'
p2615
sg18
S''
sbag1
(g10
g3
NtRp2616
(dp2617
g13
S'CheatXP'
p2618
sg15
S'CheatAct2'
p2619
sg16
S'Player:200'
p2620
sg18
S''
sbag1
(g10
g3
NtRp2621
(dp2622
g13
S'CheatCunning'
p2623
sg15
S'CheatAct2'
p2624
sg16
S'Player:3'
p2625
sg18
S''
sbag1
(g10
g3
NtRp2626
(dp2627
g13
S'CheatCharisma'
p2628
sg15
S'CheatAct2'
p2629
sg16
S'Player:3'
p2630
sg18
S''
sbag1
(g10
g3
NtRp2631
(dp2632
g13
S'CheatCunning'
p2633
sg15
S'CheatAct2'
p2634
sg16
S'Wife:1'
p2635
sg18
S''
sbag1
(g10
g3
NtRp2636
(dp2637
g13
S'CheatCharisma'
p2638
sg15
S'CheatAct2'
p2639
sg16
S'Wife:1'
p2640
sg18
S''
sbag1
(g10
g3
NtRp2641
(dp2642
g13
S'GiveMoney'
p2643
sg15
S'CheatAct2'
p2644
sg16
F200
sg18
S''
sbag1
(g10
g3
NtRp2645
(dp2646
g13
S'GotoMap'
p2647
sg15
S'CheatAct2'
p2648
sg16
S'act2'
p2649
sg18
S''
sbasS'CheatAct3'
p2650
(lp2651
g1
(g10
g3
NtRp2652
(dp2653
g13
S'AddAlly'
p2654
sg15
g2650
sg16
S'Wife:1'
p2655
sg18
S''
sbag1
(g10
g3
NtRp2656
(dp2657
g13
S'LearnAttack'
p2658
sg15
S'CheatAct3'
p2659
sg16
S'BRIBE'
p2660
sg18
S''
sbag1
(g10
g3
NtRp2661
(dp2662
g13
S'LearnAttack'
p2663
sg15
S'CheatAct3'
p2664
sg16
S'Wife:BRIBE'
p2665
sg18
S''
sbag1
(g10
g3
NtRp2666
(dp2667
g13
S'LearnAttack'
p2668
sg15
S'CheatAct3'
p2669
sg16
S'SLANDER'
p2670
sg18
S''
sbag1
(g10
g3
NtRp2671
(dp2672
g13
S'AddAlly'
p2673
sg15
S'CheatAct3'
p2674
sg16
S'Leo:1'
p2675
sg18
S''
sbag1
(g10
g3
NtRp2676
(dp2677
g13
S'GotoMap'
p2678
sg15
S'CheatAct3'
p2679
sg16
S'act3'
p2680
sg18
S''
sbasS'Teacher2'
p2681
(lp2682
g1
(g10
g3
NtRp2683
(dp2684
g13
S'Say'
p2685
sg15
g2681
sg16
S''
sg18
S"You cannot gamble with the future, Mr President. Childrens' education is at stake!"
p2686
sbag1
(g10
g3
NtRp2687
(dp2688
g13
S'PlayerSay'
p2689
sg15
S'Teacher2'
p2690
sg16
S''
sg18
S"I can assure you this isn't so..."
p2691
sbag1
(g10
g3
NtRp2692
(dp2693
g13
S'Encounter'
p2694
sg15
S'Teacher2'
p2695
sg16
S'P-hard-07'
p2696
sg18
S''
sbag1
(g10
g3
NtRp2697
(dp2698
g13
S'Say'
p2699
sg15
S'Teacher2'
p2700
sg16
S''
sg18
S'We will await a change from your government.'
p2701
sbag1
(g10
g3
NtRp2702
(dp2703
g13
S'Increment'
p2704
sg15
S'Teacher2'
p2705
sg16
S'TEACHERS'
p2706
sg18
S''
sbag1
(g10
g3
NtRp2707
(dp2708
g13
S'Destroy'
p2709
sg15
S'Teacher2'
p2710
sg16
S''
sg18
S''
sbasS'Teacher1'
p2711
(lp2712
g1
(g10
g3
NtRp2713
(dp2714
g13
S'Say'
p2715
sg15
g2711
sg16
S''
sg18
S"Good day, Mr President. I have to say I'm most displeased with the current state of affairs around the education budget."
p2716
sbag1
(g10
g3
NtRp2717
(dp2718
g13
S'Say'
p2719
sg15
S'Teacher1'
p2720
sg16
S'Teacher2'
p2721
sg18
S'Agreed. This is simply unacceptable. We will need to close down schools!'
p2722
sbag1
(g10
g3
NtRp2723
(dp2724
g13
S'PlayerSay'
p2725
sg15
S'Teacher1'
p2726
sg16
S''
sg18
S"I'm sorry, I don't understand your concern. My education plan was one of the linchpins of my election campaign."
p2727
sbag1
(g10
g3
NtRp2728
(dp2729
g13
S'Say'
p2730
sg15
S'Teacher1'
p2731
sg16
S''
sg18
S'And precisely one of the reasons I voted for you.'
p2732
sbag1
(g10
g3
NtRp2733
(dp2734
g13
S'Say'
p2735
sg15
S'Teacher1'
p2736
sg16
S'Teacher2'
p2737
sg18
S"-Yet as soon as you've walked through these doors, the education budget has been drastically slashed."
p2738
sbag1
(g10
g3
NtRp2739
(dp2740
g13
S'PlayerSay'
p2741
sg15
S'Teacher1'
p2742
sg16
S''
sg18
S"I can assure you this isn't so..."
p2743
sbag1
(g10
g3
NtRp2744
(dp2745
g13
S'Encounter'
p2746
sg15
S'Teacher1'
p2747
sg16
S'P-hard-06'
p2748
sg18
S''
sbag1
(g10
g3
NtRp2749
(dp2750
g13
S'Say'
p2751
sg15
S'Teacher1'
p2752
sg16
S''
sg18
S"Well, I'd like to believe you, Mr President, but the proof is in the pudding,"
p2753
sbag1
(g10
g3
NtRp2754
(dp2755
g13
S'PlayerSay'
p2756
sg15
S'Teacher1'
p2757
sg16
S''
sg18
S'I WILL get to the bottom of this.'
p2758
sbag1
(g10
g3
NtRp2759
(dp2760
g13
S'Increment'
p2761
sg15
S'Teacher1'
p2762
sg16
S'TEACHERS'
p2763
sg18
S''
sbag1
(g10
g3
NtRp2764
(dp2765
g13
S'Destroy'
p2766
sg15
S'Teacher1'
p2767
sg16
S''
sg18
S''
sbasS'Theo'
p2768
(lp2769
g1
(g10
g3
NtRp2770
(dp2771
g13
S'RequireFlag'
p2772
sg15
g2768
sg16
S'GOVERNORDEFEATED'
p2773
sg18
S'The Governor is in the north wing.'
p2774
sbag1
(g10
g3
NtRp2775
(dp2776
g13
S'Say'
p2777
sg15
S'Theo'
p2778
sg16
S''
sg18
S"You must be Governor Mossman. I am Theo. I've been looking for you, but I wanted to see how you handled Governor Badden"
p2779
sbag1
(g10
g3
NtRp2780
(dp2781
g13
S'PlayerSay'
p2782
sg15
S'Theo'
p2783
sg16
S''
sg18
S'Hi Theo. Why have you been looking for me?'
p2784
sbag1
(g10
g3
NtRp2785
(dp2786
g13
S'Say'
p2787
sg15
S'Theo'
p2788
sg16
S''
sg18
S"There's a lot going on in Ignited States politics and none of it is good. Somebody needs to get up there and find out what's going on."
p2789
sbag1
(g10
g3
NtRp2790
(dp2791
g13
S'Say'
p2792
sg15
S'Theo'
p2793
sg16
S''
sg18
S"I couldn't be sure which side you were on, but your dealings with the Governor prove that you're not with them."
p2794
sbag1
(g10
g3
NtRp2795
(dp2796
g13
S'PlayerSay'
p2797
sg15
S'Theo'
p2798
sg16
S''
sg18
S'It sounds like it goes all the way to the President of the Ignited States.'
p2799
sbag1
(g10
g3
NtRp2800
(dp2801
g13
S'Say'
p2802
sg15
S'Theo'
p2803
sg16
S''
sg18
S"It does. That's why I've been looking for you. The only way to find out is to flush them out. There's only one way to flush out President Allen."
p2804
sbag1
(g10
g3
NtRp2805
(dp2806
g13
S'PlayerSay'
p2807
sg15
S'Theo'
p2808
sg16
S''
sg18
S"How's that?"
p2809
sbag1
(g10
g3
NtRp2810
(dp2811
g13
S'Say'
p2812
sg15
S'Theo'
p2813
sg16
S''
sg18
S"...I've been a campaign manager for 20 years and I've never seen a candidate as strong as you. I think you have what it takes to run for the presidency."
p2814
sbag1
(g10
g3
NtRp2815
(dp2816
g13
S'Say'
p2817
sg15
S'Theo'
p2818
sg16
S''
sg18
S"That's why I was looking for you. I need somebody who has a shot at winning in order to get to President Allen. You have that shot."
p2819
sbag1
(g10
g3
NtRp2820
(dp2821
g13
S'PlayerSay'
p2822
sg15
S'Theo'
p2823
sg16
S''
sg18
S"You really think I can win? Well...I want to follow this through to the end, so I'm in!"
p2824
sbag1
(g10
g3
NtRp2825
(dp2826
g13
S'Say'
p2827
sg15
S'Theo'
p2828
sg16
S''
sg18
S"Great! There's a lot to get organised! We need to plan our election campaign!"
p2829
sbag1
(g10
g3
NtRp2830
(dp2831
g13
S'Say'
p2832
sg15
S'Theo'
p2833
sg16
S''
sg18
S'First things first. I can teach you how to filibuster. It helps to get your opposition to stay put while the rest of your party moves in to attack.'
p2834
sbag1
(g10
g3
NtRp2835
(dp2836
g13
S'LearnAttack'
p2837
sg15
S'Theo'
p2838
sg16
S'FILIBUSTER'
p2839
sg18
S'Theo teaches you Filibuster'
p2840
sbag1
(g10
g3
NtRp2841
(dp2842
g13
S'Destroy'
p2843
sg15
S'Theo'
p2844
sg16
S''
sg18
S''
sbag1
(g10
g3
NtRp2845
(dp2846
g13
S'AddAlly'
p2847
sg15
S'Theo'
p2848
sg16
S'Leo:4'
p2849
sg18
S''
sbag1
(g10
g3
NtRp2850
(dp2851
g13
S'Message'
p2852
sg15
S'Theo'
p2853
sg16
S''
sg18
S'Theo joins your political party!'
p2854
sbag1
(g10
g3
NtRp2855
(dp2856
g13
S'Save'
p2857
sg15
S'Theo'
p2858
sg16
S'RestoreAct2P2'
p2859
sg18
S''
sbag1
(g10
g3
NtRp2860
(dp2861
g13
S'GotoMap'
p2862
sg15
S'Theo'
p2863
sg16
S'hotel_l1'
p2864
sg18
S''
sbasS'end'
p2865
(lp2866
g1
(g10
g3
NtRp2867
(dp2868
g13
S'Message'
p2869
sg15
g2865
sg16
S''
sg18
S"You have saved the day! The world is safe and all over the Ignited States, our citizens can sleep safe knowing you're taking care of them."
p2870
sbag1
(g10
g3
NtRp2871
(dp2872
g13
S'Message'
p2873
sg15
S'end'
p2874
sg16
S''
sg18
S'Goodnight, Mr President.'
p2875
sbasS'Governor'
p2876
(lp2877
g1
(g10
g3
NtRp2878
(dp2879
g13
S'RequireFlag'
p2880
sg15
g2876
sg16
S'GOVPOLITICIANSFIRST'
p2881
sg18
S"I'm very busy. Please speak to the others."
p2882
sbag1
(g10
g3
NtRp2883
(dp2884
g13
S'Say'
p2885
sg15
S'Governor'
p2886
sg16
S''
sg18
S'You have quite a way with words, Mayor Mossman. Why are you here?'
p2887
sbag1
(g10
g3
NtRp2888
(dp2889
g13
S'PlayerSay'
p2890
sg15
S'Governor'
p2891
sg16
S''
sg18
S"Mayor Goodman said some troubling things, Governor Badden. I'm here to get to the bottom of it."
p2892
sbag1
(g10
g3
NtRp2893
(dp2894
g13
S'Say'
p2895
sg15
S'Governor'
p2896
sg16
S''
sg18
S"If I knew anything about what you're talking about, I wouldn't tell you. I don't trust you at all."
p2897
sbag1
(g10
g3
NtRp2898
(dp2899
g13
S'PlayerSay'
p2900
sg15
S'Governor'
p2901
sg16
S''
sg18
S'What can I do to convince you?'
p2902
sbag1
(g10
g3
NtRp2903
(dp2904
g13
S'Say'
p2905
sg15
S'Governor'
p2906
sg16
S''
sg18
S"Well...there's some hicks in the south wing that I've been dodging. They want to know about the recent funding cuts. Get rid of them."
p2907
sbag1
(g10
g3
NtRp2908
(dp2909
g13
S'SetFlag'
p2910
sg15
S'Governor'
p2911
sg16
S'STARTHICKS'
p2912
sg18
S''
sbag1
(g10
g3
NtRp2913
(dp2914
g13
S'GiveItem'
p2915
sg15
S'Governor'
p2916
sg16
S'SOUTHWINGDOORKEY'
p2917
sg18
S'The Governor gives you a key.'
p2918
sbag1
(g10
g3
NtRp2919
(dp2920
g13
S'RequireCount'
p2921
sg15
S'Governor'
p2922
sg16
S'DEALWITHHICKS:3'
p2923
sg18
S"I'm not saying another word until you get rid of the hicks in the south wing."
p2924
sbag1
(g10
g3
NtRp2925
(dp2926
g13
S'PlayerSay'
p2927
sg15
S'Governor'
p2928
sg16
S''
sg18
S"OK, I've taken care of your problem, now I want my answers."
p2929
sbag1
(g10
g3
NtRp2930
(dp2931
g13
S'Say'
p2932
sg15
S'Governor'
p2933
sg16
S''
sg18
S'No.'
p2934
sbag1
(g10
g3
NtRp2935
(dp2936
g13
S'PlayerSay'
p2937
sg15
S'Governor'
p2938
sg16
S''
sg18
S'No?'
p2939
sbag1
(g10
g3
NtRp2940
(dp2941
g13
S'Say'
p2942
sg15
S'Governor'
p2943
sg16
S''
sg18
S"No, word has come down from the top that due to the last Mayor's idiocy we're tightening the inner circle to Governors and above."
p2944
sbag1
(g10
g3
NtRp2945
(dp2946
g13
S'PlayerSay'
p2947
sg15
S'Governor'
p2948
sg16
S''
sg18
S"From the top...so you're saying the only way I'll find out what's going on is to be a governor myself?"
p2949
sbag1
(g10
g3
NtRp2950
(dp2951
g13
S'Say'
p2952
sg15
S'Governor'
p2953
sg16
S''
sg18
S"Wait...no...I said I wasn't going to tell you, I..."
p2954
sbag1
(g10
g3
NtRp2955
(dp2956
g13
S'PlayerSay'
p2957
sg15
S'Governor'
p2958
sg16
S''
sg18
S'This is it, governor. Prepare to fight for your office!'
p2959
sbag1
(g10
g3
NtRp2960
(dp2961
g13
S'Encounter'
p2962
sg15
S'Governor'
p2963
sg16
S'P-med-06'
p2964
sg18
S''
sbag1
(g10
g3
NtRp2965
(dp2966
g13
S'Say'
p2967
sg15
S'Governor'
p2968
sg16
S''
sg18
S"Nooo! President Allen doesn't deal well with defeat. What will happen to me?"
p2969
sbag1
(g10
g3
NtRp2970
(dp2971
g13
S'PlayerSay'
p2972
sg15
S'Governor'
p2973
sg16
S''
sg18
S'The President? What does he have to do with this?'
p2974
sbag1
(g10
g3
NtRp2975
(dp2976
g13
S'Say'
p2977
sg15
S'Governor'
p2978
sg16
S''
sg18
S"You really have no idea what you've gotten into, do you? Well, you've gotten all you're getting out of me. I'm getting out of here!"
p2979
sbag1
(g10
g3
NtRp2980
(dp2981
g13
S'SetFlag'
p2982
sg15
S'Governor'
p2983
sg16
S'GOVERNORDEFEATED'
p2984
sg18
S''
sbag1
(g10
g3
NtRp2985
(dp2986
g13
S'RestoreVotes'
p2987
sg15
S'Governor'
p2988
sg16
S''
sg18
S''
sbag1
(g10
g3
NtRp2989
(dp2990
g13
S'Destroy'
p2991
sg15
S'Governor'
p2992
sg16
S''
sg18
S''
sbasS'Politician1'
p2993
(lp2994
g1
(g10
g3
NtRp2995
(dp2996
g13
S'Say'
p2997
sg15
g2993
sg16
S''
sg18
S"I'm sorry Mayor Mossman, the Governor cannot see you now. He's very busy"
p2998
sbag1
(g10
g3
NtRp2999
(dp3000
g13
S'PlayerSay'
p3001
sg15
S'Politician1'
p3002
sg16
S''
sg18
S"It's very important. I need to understand what Mayor Goodman was talking about. It was clear there were other powers at play."
p3003
sbag1
(g10
g3
NtRp3004
(dp3005
g13
S'Say'
p3006
sg15
S'Politician1'
p3007
sg16
S''
sg18
S'Yes well, I fail to see how your country spat has anything to do with Governer Badden.'
p3008
sbag1
(g10
g3
NtRp3009
(dp3010
g13
S'Encounter'
p3011
sg15
S'Politician1'
p3012
sg16
S'P-med-01'
p3013
sg18
S''
sbag1
(g10
g3
NtRp3014
(dp3015
g13
S'Say'
p3016
sg15
S'Politician1'
p3017
sg16
S''
sg18
S'Fair point. The governor will see you now.'
p3018
sbag1
(g10
g3
NtRp3019
(dp3020
g13
S'Destroy'
p3021
sg15
S'Politician1'
p3022
sg16
S''
sg18
S''
sbasS'Politician3'
p3023
(lp3024
g1
(g10
g3
NtRp3025
(dp3026
g13
S'RequireFlag'
p3027
sg15
g3023
sg16
S'STARTPOLITICIANSHAKEDOWN'
p3028
sg18
S'Good morning, Governor Mossman. Your PA will know your schedule. He is waiting beside the stairs'
p3029
sbag1
(g10
g3
NtRp3030
(dp3031
g13
S'Say'
p3032
sg15
S'Politician3'
p3033
sg16
S''
sg18
S"We must all agree that the most important thing is science! If we're not for science, what's the point."
p3034
sbag1
(g10
g3
NtRp3035
(dp3036
g13
S'PlayerSay'
p3037
sg15
S'Politician3'
p3038
sg16
S''
sg18
S'Why science?'
p3039
sbag1
(g10
g3
NtRp3040
(dp3041
g13
S'Say'
p3042
sg15
S'Politician3'
p3043
sg16
S''
sg18
S'Science!'
p3044
sbag1
(g10
g3
NtRp3045
(dp3046
g13
S'PlayerSay'
p3047
sg15
S'Politician3'
p3048
sg16
S''
sg18
S"There's a lot of great things we can do for science but the funding will need to be shared with health and education and..."
p3049
sbag1
(g10
g3
NtRp3050
(dp3051
g13
S'Say'
p3052
sg15
S'Politician3'
p3053
sg16
S''
sg18
S'No! Science!!!'
p3054
sbag1
(g10
g3
NtRp3055
(dp3056
g13
S'Encounter'
p3057
sg15
S'Politician3'
p3058
sg16
S'P-med-07'
p3059
sg18
S''
sbag1
(g10
g3
NtRp3060
(dp3061
g13
S'Say'
p3062
sg15
S'Politician3'
p3063
sg16
S''
sg18
S'Alright, fine! A balanced platform (but mostly science).'
p3064
sbag1
(g10
g3
NtRp3065
(dp3066
g13
S'Increment'
p3067
sg15
S'Politician3'
p3068
sg16
S'POLITICIANSHAKEDOWN'
p3069
sg18
S''
sbag1
(g10
g3
NtRp3070
(dp3071
g13
S'Destroy'
p3072
sg15
S'Politician3'
p3073
sg16
S''
sg18
S''
sbasS'Politician2'
p3074
(lp3075
g1
(g10
g3
NtRp3076
(dp3077
g13
S'Say'
p3078
sg15
g3074
sg16
S''
sg18
S'What are you doing in here? Who are you? Some Mayor?'
p3079
sbag1
(g10
g3
NtRp3080
(dp3081
g13
S'PlayerSay'
p3082
sg15
S'Politician2'
p3083
sg16
S''
sg18
S"I am Mayor Phillip Mossman. I'm here to speak to the Governor."
p3084
sbag1
(g10
g3
NtRp3085
(dp3086
g13
S'Say'
p3087
sg15
S'Politician2'
p3088
sg16
S''
sg18
S"I'm afraid the Governor's schedule is very tight. Come back next month."
p3089
sbag1
(g10
g3
NtRp3090
(dp3091
g13
S'Encounter'
p3092
sg15
S'Politician2'
p3093
sg16
S'P-med-02'
p3094
sg18
S''
sbag1
(g10
g3
NtRp3095
(dp3096
g13
S'Say'
p3097
sg15
S'Politician2'
p3098
sg16
S''
sg18
S'I see. Well, maybe we can squeeze you in.'
p3099
sbag1
(g10
g3
NtRp3100
(dp3101
g13
S'SetFlag'
p3102
sg15
S'Politician2'
p3103
sg16
S'GOVPOLITICIANSFIRST'
p3104
sg18
S''
sbag1
(g10
g3
NtRp3105
(dp3106
g13
S'Destroy'
p3107
sg15
S'Politician2'
p3108
sg16
S''
sg18
S''
sbasS'Politician5'
p3109
(lp3110
g1
(g10
g3
NtRp3111
(dp3112
g13
S'RequireFlag'
p3113
sg15
g3109
sg16
S'STARTPOLITICIANSHAKEDOWN'
p3114
sg18
S'Good morning, Governor Mossman. Your PA will know your schedule. He is waiting beside the stairs'
p3115
sbag1
(g10
g3
NtRp3116
(dp3117
g13
S'Say'
p3118
sg15
S'Politician5'
p3119
sg16
S''
sg18
S'Big business!'
p3120
sbag1
(g10
g3
NtRp3121
(dp3122
g13
S'PlayerSay'
p3123
sg15
S'Politician5'
p3124
sg16
S''
sg18
S'What about big business.'
p3125
sbag1
(g10
g3
NtRp3126
(dp3127
g13
S'Say'
p3128
sg15
S'Politician5'
p3129
sg16
S''
sg18
S'...MORE big business!'
p3130
sbag1
(g10
g3
NtRp3131
(dp3132
g13
S'PlayerSay'
p3133
sg15
S'Politician5'
p3134
sg16
S''
sg18
S'You want to grow our business sector? Provide more jobs?'
p3135
sbag1
(g10
g3
NtRp3136
(dp3137
g13
S'Say'
p3138
sg15
S'Politician5'
p3139
sg16
S''
sg18
S'...Yeeeeh. Yes. Yes, that.'
p3140
sbag1
(g10
g3
NtRp3141
(dp3142
g13
S'PlayerSay'
p3143
sg15
S'Politician5'
p3144
sg16
S''
sg18
S'What about small business?'
p3145
sbag1
(g10
g3
NtRp3146
(dp3147
g13
S'Say'
p3148
sg15
S'Politician5'
p3149
sg16
S''
sg18
S'No! We need to make it BIGGER!'
p3150
sbag1
(g10
g3
NtRp3151
(dp3152
g13
S'Encounter'
p3153
sg15
S'Politician5'
p3154
sg16
S'P-med-09'
p3155
sg18
S''
sbag1
(g10
g3
NtRp3156
(dp3157
g13
S'Say'
p3158
sg15
S'Politician5'
p3159
sg16
S''
sg18
S"OK, I see what you're getting at. Lets help small business to grow. Also, this might help even the odds in the future."
p3160
sbag1
(g10
g3
NtRp3161
(dp3162
g13
S'Say'
p3163
sg15
S'Politician5'
p3164
sg16
S''
sg18
S'The results can be a bit unpredictable, so only use it in drastic situations.'
p3165
sbag1
(g10
g3
NtRp3166
(dp3167
g13
S'Increment'
p3168
sg15
S'Politician5'
p3169
sg16
S'POLITICIANSHAKEDOWN'
p3170
sg18
S''
sbag1
(g10
g3
NtRp3171
(dp3172
g13
S'Destroy'
p3173
sg15
S'Politician5'
p3174
sg16
S''
sg18
S''
sbasS'Politician4'
p3175
(lp3176
g1
(g10
g3
NtRp3177
(dp3178
g13
S'RequireFlag'
p3179
sg15
g3175
sg16
S'STARTPOLITICIANSHAKEDOWN'
p3180
sg18
S'Good morning, Governor Mossman. Your PA will know your schedule. He is waiting beside the stairs'
p3181
sbag1
(g10
g3
NtRp3182
(dp3183
g13
S'Say'
p3184
sg15
S'Politician4'
p3185
sg16
S''
sg18
S"I'm for culture! It's a glorious age we live in, we should further this great country's culture."
p3186
sbag1
(g10
g3
NtRp3187
(dp3188
g13
S'PlayerSay'
p3189
sg15
S'Politician4'
p3190
sg16
S''
sg18
S'That sounds fair, but what kind of culture would you like to focus on.'
p3191
sbag1
(g10
g3
NtRp3192
(dp3193
g13
S'Say'
p3194
sg15
S'Politician4'
p3195
sg16
S''
sg18
S"Oh...I don't know, I'm not really into art, can't really handle music. I'd rather not go to the theatre if I can get out of it. Don't really see the point of sport...hmmm. New culture?"
p3196
sbag1
(g10
g3
NtRp3197
(dp3198
g13
S'PlayerSay'
p3199
sg15
S'Politician4'
p3200
sg16
S''
sg18
S"You don't seem very in to improving culture really."
p3201
sbag1
(g10
g3
NtRp3202
(dp3203
g13
S'Say'
p3204
sg15
S'Politician4'
p3205
sg16
S''
sg18
S'Yeh, well...my wife said it would make me sound smart. I think sounding smart is important. Lets be for that!'
p3206
sbag1
(g10
g3
NtRp3207
(dp3208
g13
S'Encounter'
p3209
sg15
S'Politician4'
p3210
sg16
S'P-med-08'
p3211
sg18
S''
sbag1
(g10
g3
NtRp3212
(dp3213
g13
S'Say'
p3214
sg15
S'Politician4'
p3215
sg16
S''
sg18
S"Gee, you're a pretty smart guy. I think you've got this covered."
p3216
sbag1
(g10
g3
NtRp3217
(dp3218
g13
S'Increment'
p3219
sg15
S'Politician4'
p3220
sg16
S'POLITICIANSHAKEDOWN'
p3221
sg18
S''
sbag1
(g10
g3
NtRp3222
(dp3223
g13
S'Destroy'
p3224
sg15
S'Politician4'
p3225
sg16
S''
sg18
S''
sbasS'Politician7'
p3226
(lp3227
g1
(g10
g3
NtRp3228
(dp3229
g13
S'RequireFlag'
p3230
sg15
g3226
sg16
S'STARTPOLITICIANSHAKEDOWN'
p3231
sg18
S'Good morning, Governor Mossman. Your PA will know your schedule. He is waiting beside the stairs'
p3232
sbag1
(g10
g3
NtRp3233
(dp3234
g13
S'LearnAttack'
p3235
sg15
S'Politician7'
p3236
sg16
S'BIELECTION'
p3237
sg18
S''
sbag1
(g10
g3
NtRp3238
(dp3239
g13
S'Say'
p3240
sg15
S'Politician7'
p3241
sg16
S''
sg18
S"I believe in captialism. Let business sort itself out. They shouldn't need to rely on government handouts."
p3242
sbag1
(g10
g3
NtRp3243
(dp3244
g13
S'Say'
p3245
sg15
S'Politician7'
p3246
sg16
S''
sg18
S'Also, I think politicians need a raise. Some more than others...oh and life-long retainers.'
p3247
sbag1
(g10
g3
NtRp3248
(dp3249
g13
S'PlayerSay'
p3250
sg15
S'Politician7'
p3251
sg16
S''
sg18
S'So, no more hand-outs for business but more handouts for politicians?'
p3252
sbag1
(g10
g3
NtRp3253
(dp3254
g13
S'Say'
p3255
sg15
S'Politician7'
p3256
sg16
S''
sg18
S'Yes!'
p3257
sbag1
(g10
g3
NtRp3258
(dp3259
g13
S'PlayerSay'
p3260
sg15
S'Politician7'
p3261
sg16
S''
sg18
S'Does that serve your constituents?'
p3262
sbag1
(g10
g3
NtRp3263
(dp3264
g13
S'Say'
p3265
sg15
S'Politician7'
p3266
sg16
S''
sg18
S'...It serves...some...'
p3267
sbag1
(g10
g3
NtRp3268
(dp3269
g13
S'Encounter'
p3270
sg15
S'Politician7'
p3271
sg16
S'P-med-11'
p3272
sg18
S''
sbag1
(g10
g3
NtRp3273
(dp3274
g13
S'Say'
p3275
sg15
S'Politician7'
p3276
sg16
S''
sg18
S'Right, I guess we need to handle the needs of our constituents, too.'
p3277
sbag1
(g10
g3
NtRp3278
(dp3279
g13
S'Increment'
p3280
sg15
S'Politician7'
p3281
sg16
S'POLITICIANSHAKEDOWN'
p3282
sg18
S''
sbag1
(g10
g3
NtRp3283
(dp3284
g13
S'Destroy'
p3285
sg15
S'Politician7'
p3286
sg16
S''
sg18
S''
sbasS'Politician6'
p3287
(lp3288
g1
(g10
g3
NtRp3289
(dp3290
g13
S'RequireFlag'
p3291
sg15
g3287
sg16
S'STARTPOLITICIANSHAKEDOWN'
p3292
sg18
S'Good morning, Governor Mossman. Your PA will know your schedule. He is waiting beside the stairs'
p3293
sbag1
(g10
g3
NtRp3294
(dp3295
g13
S'Say'
p3296
sg15
S'Politician6'
p3297
sg16
S''
sg18
S'We should be all about not wasting money'
p3298
sbag1
(g10
g3
NtRp3299
(dp3300
g13
S'PlayerSay'
p3301
sg15
S'Politician6'
p3302
sg16
S''
sg18
S'Sounds fair. Wasting money on what?'
p3303
sbag1
(g10
g3
NtRp3304
(dp3305
g13
S'Say'
p3306
sg15
S'Politician6'
p3307
sg16
S''
sg18
S"You know, stuff that doesn't really help like artsy stuff."
p3308
sbag1
(g10
g3
NtRp3309
(dp3310
g13
S'PlayerSay'
p3311
sg15
S'Politician6'
p3312
sg16
S''
sg18
S"You don't think we should invest in our culture?"
p3313
sbag1
(g10
g3
NtRp3314
(dp3315
g13
S'Say'
p3316
sg15
S'Politician6'
p3317
sg16
S''
sg18
S'We have more important things to spend our money on. Like military.'
p3318
sbag1
(g10
g3
NtRp3319
(dp3320
g13
S'PlayerSay'
p3321
sg15
S'Politician6'
p3322
sg16
S''
sg18
S'What if people want to paint pictures about our military. Or write patriotic songs?'
p3323
sbag1
(g10
g3
NtRp3324
(dp3325
g13
S'Say'
p3326
sg15
S'Politician6'
p3327
sg16
S''
sg18
S"I hadn't thought of that..."
p3328
sbag1
(g10
g3
NtRp3329
(dp3330
g13
S'Encounter'
p3331
sg15
S'Politician6'
p3332
sg16
S'P-med-10'
p3333
sg18
S''
sbag1
(g10
g3
NtRp3334
(dp3335
g13
S'Say'
p3336
sg15
S'Politician6'
p3337
sg16
S''
sg18
S"So, militaristic march songs and battle scenes aren't the only sort of art? Wow."
p3338
sbag1
(g10
g3
NtRp3339
(dp3340
g13
S'Increment'
p3341
sg15
S'Politician6'
p3342
sg16
S'POLITICIANSHAKEDOWN'
p3343
sg18
S''
sbag1
(g10
g3
NtRp3344
(dp3345
g13
S'Destroy'
p3346
sg15
S'Politician6'
p3347
sg16
S''
sg18
S''
sbasS'TVPersonality'
p3348
(lp3349
g1
(g10
g3
NtRp3350
(dp3351
g13
S'RequireFlag'
p3352
sg15
g3348
sg16
S'STARTHERCULES'
p3353
sg18
S"Ooooh, sorry Mossman, baby! We're not ready for you yet."
p3354
sbag1
(g10
g3
NtRp3355
(dp3356
g13
S'Say'
p3357
sg15
S'TVPersonality'
p3358
sg16
S''
sg18
S"There's the man! Are you ready to cross wits with The Mighty Hercules!"
p3359
sbag1
(g10
g3
NtRp3360
(dp3361
g13
S'PlayerSay'
p3362
sg15
S'TVPersonality'
p3363
sg16
S''
sg18
S'I sure am!'
p3364
sbag1
(g10
g3
NtRp3365
(dp3366
g13
S'Say'
p3367
sg15
S'TVPersonality'
p3368
sg16
S''
sg18
S"Really...? You don't want to...see your make-up artist?"
p3369
sbag1
(g10
g3
NtRp3370
(dp3371
g13
S'PlayerSay'
p3372
sg15
S'TVPersonality'
p3373
sg16
S''
sg18
S"No, no, I'm ready."
p3374
sbag1
(g10
g3
NtRp3375
(dp3376
g13
S'Say'
p3377
sg15
S'TVPersonality'
p3378
sg16
S''
sg18
S'Suit yourself...'
p3379
sbag1
(g10
g3
NtRp3380
(dp3381
g13
S'Say'
p3382
sg15
S'TVPersonality'
p3383
sg16
S''
sg18
S'... from the looks of it, suiting yourself is exactly what you did.'
p3384
sbag1
(g10
g3
NtRp3385
(dp3386
g13
S'Encounter'
p3387
sg15
S'TVPersonality'
p3388
sg16
S'P-med-20'
p3389
sg18
S''
sbag1
(g10
g3
NtRp3390
(dp3391
g13
S'Say'
p3392
sg15
S'TVPersonality'
p3393
sg16
S''
sg18
S'Good show, you sure gave me a run for my money.'
p3394
sbag1
(g10
g3
NtRp3395
(dp3396
g13
S'Say'
p3397
sg15
S'TVPersonality'
p3398
sg16
S''
sg18
S"Now beat it, you're making me look bad!"
p3399
sbag1
(g10
g3
NtRp3400
(dp3401
g13
S'SetFlag'
p3402
sg15
S'TVPersonality'
p3403
sg16
S'BEATHERCULES'
p3404
sg18
S''
sbag1
(g10
g3
NtRp3405
(dp3406
g13
S'Destroy'
p3407
sg15
S'TVPersonality'
p3408
sg16
S''
sg18
S''
sbasS'act1'
p3409
(lp3410
g1
(g10
g3
NtRp3411
(dp3412
g13
S'Message'
p3413
sg15
g3409
sg16
S''
sg18
S'Good morning, Assistant Phil.'
p3414
sbasS'act2'
p3415
(lp3416
g1
(g10
g3
NtRp3417
(dp3418
g13
S'Message'
p3419
sg15
g3415
sg16
S''
sg18
S"The Governor's Mansion"
p3420
sbasS'act3'
p3421
(lp3422
g1
(g10
g3
NtRp3423
(dp3424
g13
S'Message'
p3425
sg15
g3421
sg16
S''
sg18
S'The White House'
p3426
sbasS'Protester2'
p3427
(lp3428
g1
(g10
g3
NtRp3429
(dp3430
g13
S'Say'
p3431
sg15
g3427
sg16
S''
sg18
S"Bees buzz, Mayors lie, who's this Phillip Mossman guy?"
p3432
sbag1
(g10
g3
NtRp3433
(dp3434
g13
S'RequireFlag'
p3435
sg15
S'Protester2'
p3436
sg16
S'PROTESTORS'
p3437
sg18
S''
sbag1
(g10
g3
NtRp3438
(dp3439
g13
S'Encounter'
p3440
sg15
S'Protester2'
p3441
sg16
S'P-easy-03'
p3442
sg18
S''
sbag1
(g10
g3
NtRp3443
(dp3444
g13
S'Destroy'
p3445
sg15
S'Protester2'
p3446
sg16
S''
sg18
S''
sbasS'Protester1'
p3447
(lp3448
g1
(g10
g3
NtRp3449
(dp3450
g13
S'Say'
p3451
sg15
g3447
sg16
S''
sg18
S"Fee Fi Fo Fum, we think Mayor Goodman's Dumb!"
p3452
sbag1
(g10
g3
NtRp3453
(dp3454
g13
S'RequireFlag'
p3455
sg15
S'Protester1'
p3456
sg16
S'PROTESTORS'
p3457
sg18
S''
sbag1
(g10
g3
NtRp3458
(dp3459
g13
S'Encounter'
p3460
sg15
S'Protester1'
p3461
sg16
S'P-easy-02'
p3462
sg18
S''
sbag1
(g10
g3
NtRp3463
(dp3464
g13
S'Destroy'
p3465
sg15
S'Protester1'
p3466
sg16
S''
sg18
S''
sbasS'Head Protester'
p3467
(lp3468
g1
(g10
g3
NtRp3469
(dp3470
g13
S'Say'
p3471
sg15
g3467
sg16
S''
sg18
S"I am the head protester. You'll never convince us to back down!"
p3472
sbag1
(g10
g3
NtRp3473
(dp3474
g13
S'RequireFlag'
p3475
sg15
S'Head Protester'
p3476
sg16
S'PROTESTORS'
p3477
sg18
S''
sbag1
(g10
g3
NtRp3478
(dp3479
g13
S'PlayerSay'
p3480
sg15
S'Head Protester'
p3481
sg16
S''
sg18
S'What are you protesting?'
p3482
sbag1
(g10
g3
NtRp3483
(dp3484
g13
S'Say'
p3485
sg15
S'Head Protester'
p3486
sg16
S''
sg18
S'Er...Injustice!'
p3487
sbag1
(g10
g3
NtRp3488
(dp3489
g13
S'PlayerSay'
p3490
sg15
S'Head Protester'
p3491
sg16
S''
sg18
S'Injustice against what?'
p3492
sbag1
(g10
g3
NtRp3493
(dp3494
g13
S'Say'
p3495
sg15
S'Head Protester'
p3496
sg16
S''
sg18
S'...'
p3497
sbag1
(g10
g3
NtRp3498
(dp3499
g13
S'Say'
p3500
sg15
S'Head Protester'
p3501
sg16
S''
sg18
S'The People!'
p3502
sbag1
(g10
g3
NtRp3503
(dp3504
g13
S'PlayerSay'
p3505
sg15
S'Head Protester'
p3506
sg16
S''
sg18
S'Yes, but which people?'
p3507
sbag1
(g10
g3
NtRp3508
(dp3509
g13
S'Say'
p3510
sg15
S'Head Protester'
p3511
sg16
S''
sg18
S'See? What a fascist, ALL people you slimey politician scum!'
p3512
sbag1
(g10
g3
NtRp3513
(dp3514
g13
S'Encounter'
p3515
sg15
S'Head Protester'
p3516
sg16
S'P-easy-04'
p3517
sg18
S''
sbag1
(g10
g3
NtRp3518
(dp3519
g13
S'Say'
p3520
sg15
S'Head Protester'
p3521
sg16
S''
sg18
S"Alright, fine! We'll stop protesting...whatever we were protesting."
p3522
sbag1
(g10
g3
NtRp3523
(dp3524
g13
S'SetFlag'
p3525
sg15
S'Head Protester'
p3526
sg16
S'PROTESTORSDEAD'
p3527
sg18
S''
sbag1
(g10
g3
NtRp3528
(dp3529
g13
S'Destroy'
p3530
sg15
S'Head Protester'
p3531
sg16
S''
sg18
S''
sbasS'Receptionist'
p3532
(lp3533
g1
(g10
g3
NtRp3534
(dp3535
g13
S'RequireFlag'
p3536
sg15
g3532
sg16
S'PENQUEST'
p3537
sg18
S"You must be Mayor Goodman's new assistant. He's in his office."
p3538
sbag1
(g10
g3
NtRp3539
(dp3540
g13
S'PlayerSay'
p3541
sg15
S'Receptionist'
p3542
sg16
S''
sg18
S"The Mayor is looking for his pen. He seemed to think you'd know where it was."
p3543
sbag1
(g10
g3
NtRp3544
(dp3545
g13
S'Say'
p3546
sg15
S'Receptionist'
p3547
sg16
S''
sg18
S"Did that buffoon accuse me of stealing again? This is MY pen and he isn't having it."
p3548
sbag1
(g10
g3
NtRp3549
(dp3550
g13
S'Encounter'
p3551
sg15
S'Receptionist'
p3552
sg16
S'P-easy-01'
p3553
sg18
S''
sbag1
(g10
g3
NtRp3554
(dp3555
g13
S'GiveItem'
p3556
sg15
S'Receptionist'
p3557
sg16
S'PEN'
p3558
sg18
S'Receptionist sighs and hands over the pen.'
p3559
sbag1
(g10
g3
NtRp3560
(dp3561
g13
S'Say'
p3562
sg15
S'Receptionist'
p3563
sg16
S''
sg18
S"If you're ever getting low on votes, come talk to me and I'll run an ad campaign to restore them."
p3564
sbag1
(g10
g3
NtRp3565
(dp3566
g13
S'Reset'
p3567
sg15
S'Receptionist'
p3568
sg16
S'RESTORE'
p3569
sg18
S''
sbag1
(g10
g3
NtRp3570
(dp3571
g13
S'Label'
p3572
sg15
S'Receptionist'
p3573
sg16
S'RESTORE'
p3574
sg18
S''
sbag1
(g10
g3
NtRp3575
(dp3576
g13
S'Say'
p3577
sg15
S'Receptionist'
p3578
sg16
S''
sg18
S"You've taken a beating, let me fix you up."
p3579
sbag1
(g10
g3
NtRp3580
(dp3581
g13
S'RestoreVotes'
p3582
sg15
S'Receptionist'
p3583
sg16
S''
sg18
S'Receptionist replenishes votes'
p3584
sbag1
(g10
g3
NtRp3585
(dp3586
g13
S'Reset'
p3587
sg15
S'Receptionist'
p3588
sg16
S'RESTORE'
p3589
sg18
S''
sbassS'attacks'
p3590
(dp3591
S'GETEXCLUSIVE'
p3592
g1
(g10
g3
NtRp3593
(dp3594
S'health_benefit'
p3595
F2
sS'base_damage_max'
p3596
F-2
sS'description'
p3597
S'asdf'
p3598
sS'weight'
p3599
I1
sS'crit_chance_max'
p3600
F0
sS'crit_chance_min'
p3601
F0
sS'underlying_stat'
p3602
S'Wit'
p3603
sS'is_summon'
p3604
I00
sS'target_type'
p3605
S'AllFriendly'
p3606
sS'base_damage_min'
p3607
F-2
sS'spin_cost'
p3608
F5
sS'effects'
p3609
(lp3610
g1
(c__main__
Effect
p3611
g3
NtRp3612
(dp3613
S'function'
p3614
S'add'
p3615
sS'abbrv'
p3616
S'(INCR CNG)'
p3617
sS'attribute'
p3618
S'cunning'
p3619
sS'value'
p3620
F2
sS'rounds_min'
p3621
F1
sS'rounds_max'
p3622
F4
sS'id'
p3623
S'Increase Cunning'
p3624
sS'apply_to_source'
p3625
S'TRUE'
p3626
sbasS'is_revive'
p3627
I00
sS'target_count'
p3628
I1
sS'crit_base_damage'
p3629
F0
sg3623
g3592
sS'name'
p3630
S'Get Exclusive'
p3631
sbsS'LOSELOSE'
p3632
g1
(g10
g3
NtRp3633
(dp3634
g3595
I0
sg3596
F6
sg3597
S'Causes all politicians in the target radius to lose votes'
p3635
sg3599
I1
sg3600
F0
sg3601
F0
sg3602
S'Wit'
p3636
sg3604
I00
sg3605
S'All'
p3637
sg3607
F4
sg3608
F5
sg3609
(lp3638
sg3627
I00
sg3628
I6
sg3629
F0
sg3623
g3632
sg3630
S'Lose/lose issue'
p3639
sbsS'LIE'
p3640
g1
(g10
g3
NtRp3641
(dp3642
g3595
I0
sg3596
F10
sg3597
S"It's only lying if they catch you. A strong attack with a danger of critically failing"
p3643
sg3599
F3
sg3600
F10
sg3601
F5
sg3602
S'Cunning'
p3644
sg3604
I00
sg3605
S'AllEnemy'
p3645
sg3607
F0
sg3608
I0
sg3609
(lp3646
g1
(g3611
g3
NtRp3647
(dp3648
g3614
S'miss_turn'
p3649
sg3616
S'(MISS)'
p3650
sg3618
S''
sg3620
F0
sg3621
F1
sg3622
F1
sg3623
S'Critical Fail'
p3651
sg3625
S'TRUE'
p3652
sbasg3627
I00
sg3628
I1
sg3629
F13
sg3623
g3640
sg3630
S'Lie'
p3653
sbsS'HILARIOUSANECDOTE'
p3654
g1
(g10
g3
NtRp3655
(dp3656
g3595
I0
sg3596
F8
sg3597
S'asdf'
p3657
sg3599
I1
sg3600
F5
sg3601
F2
sg3602
S'Wit'
p3658
sg3604
I00
sg3605
S'AllEnemy'
p3659
sg3607
F4
sg3608
F5
sg3609
(lp3660
sg3627
I00
sg3628
I3
sg3629
F11
sg3623
g3654
sg3630
S'Hilarious Anecdote'
p3661
sbsS'SENSATIONALISE'
p3662
g1
(g10
g3
NtRp3663
(dp3664
g3595
I0
sg3596
F8
sg3597
S'asdf'
p3665
sg3599
I1
sg3600
F0
sg3601
F0
sg3602
S'Wit'
p3666
sg3604
I00
sg3605
S'AllEnemy'
p3667
sg3607
F4
sg3608
F3
sg3609
(lp3668
sg3627
I00
sg3628
I1
sg3629
F0
sg3623
g3662
sg3630
S'Sensationalise'
p3669
sbsS'DENOUNCE'
p3670
g1
(g10
g3
NtRp3671
(dp3672
g3595
I0
sg3596
F5
sg3597
S'asdf'
p3673
sg3599
F6
sg3600
F10
sg3601
F2
sg3602
S'Cunning'
p3674
sg3604
I00
sg3605
S'AllEnemy'
p3675
sg3607
F2
sg3608
I0
sg3609
(lp3676
sg3627
I00
sg3628
I1
sg3629
F8
sg3623
g3670
sg3630
S'Denounce'
p3677
sbsS'WHADOWEWANT'
p3678
g1
(g10
g3
NtRp3679
(dp3680
g3595
I0
sg3596
F5
sg3597
S'asdf'
p3681
sg3599
I1
sg3600
F0
sg3601
F0
sg3602
S'Cunning'
p3682
sg3604
I00
sg3605
S'AllEnemy'
p3683
sg3607
F2
sg3608
I0
sg3609
(lp3684
sg3627
I00
sg3628
I1
sg3629
F0
sg3623
g3678
sg3630
S'Whadowewant!'
p3685
sbsS'SCOOP'
p3686
g1
(g10
g3
NtRp3687
(dp3688
g3595
I0
sg3596
F5
sg3597
S'asdf'
p3689
sg3599
I1
sg3600
F10
sg3601
F5
sg3602
S'Cunning'
p3690
sg3604
I00
sg3605
S'AllEnemy'
p3691
sg3607
F2
sg3608
I0
sg3609
(lp3692
sg3627
I00
sg3628
I1
sg3629
F8
sg3623
g3686
sg3630
S'Scoop'
p3693
sbsS'CHOOSETARGETS'
p3694
g1
(g10
g3
NtRp3695
(dp3696
g3595
I0
sg3596
F7
sg3597
S'asdf'
p3697
sg3599
I1
sg3600
F10
sg3601
F5
sg3602
S'Cunning'
p3698
sg3604
I00
sg3605
S'AllEnemy'
p3699
sg3607
F2
sg3608
I0
sg3609
(lp3700
sg3627
I00
sg3628
I1
sg3629
F9
sg3623
g3694
sg3630
S'Choose Targets'
p3701
sbsS'SUMMONPOLITICIAN'
p3702
g1
(g10
g3
NtRp3703
(dp3704
g3595
I0
sg3596
F0
sg3597
S''
sg3599
I1
sg3600
F0
sg3601
F0
sg3602
S'Wit'
p3705
sg3604
I01
sg3605
S'None'
p3706
sg3607
F0
sg3608
F4
sg3609
(lp3707
g1
(g3611
g3
NtRp3708
(dp3709
g3614
S'call_friends'
p3710
sg3616
S''
sg3618
S'Politician001:6'
p3711
sg3620
F2
sg3621
F1
sg3622
F1
sg3623
S'Summon Politician'
p3712
sg3625
S''
sbasg3627
I00
sg3628
I1
sg3629
F0
sg3623
g3702
sg3630
S'Summon Politician Slaves'
p3713
sbsS'FILENAILS'
p3714
g1
(g10
g3
NtRp3715
(dp3716
g3595
I0
sg3596
F0
sg3597
S'asdf'
p3717
sg3599
I1
sg3600
F0
sg3601
F0
sg3602
S'Wit'
p3718
sg3604
I00
sg3605
S'AllEnemy'
p3719
sg3607
F0
sg3608
F3
sg3609
(lp3720
g1
(g3611
g3
NtRp3721
(dp3722
g3614
S'add_permanent'
p3723
sg3616
S''
sg3618
S'votes'
p3724
sg3620
F5
sg3621
F1
sg3622
F1
sg3623
S'Votes Restore'
p3725
sg3625
S''
sbasg3627
I00
sg3628
I1
sg3629
F0
sg3623
g3714
sg3630
S'File Nails'
p3726
sbsS'BRIBE'
p3727
g1
(g10
g3
NtRp3728
(dp3729
g3595
I0
sg3596
F12
sg3597
S'Is there anything more convincing than money? Buying loyalty gets expensive so be careful.'
p3730
sg3599
I1
sg3600
F10
sg3601
F5
sg3602
S'Money'
p3731
sg3604
I00
sg3605
S'AllEnemy'
p3732
sg3607
F4
sg3608
I0
sg3609
(lp3733
sg3627
I00
sg3628
I1
sg3629
F14
sg3623
g3727
sg3630
S'Bribe'
p3734
sbsS'SING'
p3735
g1
(g10
g3
NtRp3736
(dp3737
g3595
F3
sg3596
F-3
sg3597
S'Why bandy words with politicians when you can sing a catchy tune! Restores votes.'
p3738
sg3599
I1
sg3600
F0
sg3601
F0
sg3602
S'Cunning'
p3739
sg3604
I00
sg3605
S'AllFriendly'
p3740
sg3607
F-5
sg3608
I0
sg3609
(lp3741
sg3627
I00
sg3628
I4
sg3629
F0
sg3623
g3735
sg3630
S'Rousing Song'
p3742
sbsS'FEAR'
p3743
g1
(g10
g3
NtRp3744
(dp3745
g3595
I0
sg3596
F0
sg3597
S'asdf'
p3746
sg3599
F2
sg3600
F0
sg3601
F0
sg3602
S'Wit'
p3747
sg3604
I00
sg3605
S'AllFriendly'
p3748
sg3607
F0
sg3608
F4
sg3609
(lp3749
g3612
asg3627
I00
sg3628
I1
sg3629
F0
sg3623
g3743
sg3630
S'Fear Change'
p3750
sbsS'BRAINWASH'
p3751
g1
(g10
g3
NtRp3752
(dp3753
g3595
I0
sg3596
F0
sg3597
S''
sg3599
I1
sg3600
F0
sg3601
F0
sg3602
S'Wit'
p3754
sg3604
I00
sg3605
S'AllEnemy'
p3755
sg3607
F0
sg3608
F3
sg3609
(lp3756
g1
(g3611
g3
NtRp3757
(dp3758
g3614
S'miss_turn'
p3759
sg3616
S'(MISS)'
p3760
sg3618
S''
sg3620
F0
sg3621
F1
sg3622
F1
sg3623
S'Miss Turn'
p3761
sg3625
S''
sbasg3627
I00
sg3628
I4
sg3629
F0
sg3623
g3751
sg3630
S'Brainwash'
p3762
sbsS'RAISEDEFCON'
p3763
g1
(g10
g3
NtRp3764
(dp3765
g3595
I0
sg3596
F5
sg3597
S'asdf'
p3766
sg3599
I1
sg3600
F7
sg3601
F3
sg3602
S'Cunning'
p3767
sg3604
I00
sg3605
S'AllEnemy'
p3768
sg3607
F4
sg3608
I0
sg3609
(lp3769
sg3627
I00
sg3628
I1
sg3629
F8
sg3623
g3763
sg3630
S'Raise DEFCON'
p3770
sbsS'BILLBOARD'
p3771
g1
(g10
g3
NtRp3772
(dp3773
g3595
F30
sg3596
F0
sg3597
S'Run a billboard ad to restore up to 30 votes'
p3774
sg3599
I1
sg3600
F0
sg3601
F0
sg3602
S''
sg3604
I00
sg3605
S'AllFriendly'
p3775
sg3607
F0
sg3608
I0
sg3609
(lp3776
g1
(g3611
g3
NtRp3777
(dp3778
g3614
S'add_permanent'
p3779
sg3616
S''
sg3618
S'votes'
p3780
sg3620
F30
sg3621
F1
sg3622
F1
sg3623
S'Votes Restore Billboard'
p3781
sg3625
S''
sbasg3627
I00
sg3628
I1
sg3629
F0
sg3623
g3771
sg3630
S'Billboard Ad'
p3782
sbsS'NEGATTACKAD'
p3783
g1
(g10
g3
NtRp3784
(dp3785
g3595
I0
sg3596
F9
sg3597
S"Take them all down. They're definitely all bad people. Not like you."
p3786
sg3599
I1
sg3600
F10
sg3601
F10
sg3602
S'Wit'
p3787
sg3604
I00
sg3605
S'AllEnemy'
p3788
sg3607
F4
sg3608
F3
sg3609
(lp3789
sg3627
I00
sg3628
I1
sg3629
F10
sg3623
g3783
sg3630
S'Negative Attack Ad'
p3790
sbsS'DAZZLE'
p3791
g1
(g10
g3
NtRp3792
(dp3793
g3595
I0
sg3596
F4
sg3597
S'Being dazzling and admirable is a great way to take heat off politics'
p3794
sg3599
I1
sg3600
F8
sg3601
F5
sg3602
S'Wit'
p3795
sg3604
I00
sg3605
S'AllEnemy'
p3796
sg3607
F2
sg3608
F4
sg3609
(lp3797
g1
(g3611
g3
NtRp3798
(dp3799
g3614
S'reduce'
p3800
sg3616
S'(CNG DN)'
p3801
sg3618
S'cunning'
p3802
sg3620
F2
sg3621
F2
sg3622
F5
sg3623
S'Reduce Cunning'
p3803
sg3625
S''
sbasg3627
I00
sg3628
I4
sg3629
F8
sg3623
g3791
sg3630
S'Dazzle'
p3804
sbsS'BELIEVEMEDIA'
p3805
g1
(g10
g3
NtRp3806
(dp3807
g3595
I0
sg3596
F3
sg3597
S'asdf'
p3808
sg3599
I1
sg3600
F15
sg3601
F10
sg3602
S'Cunning'
p3809
sg3604
I00
sg3605
S'AllEnemy'
p3810
sg3607
F1
sg3608
I0
sg3609
(lp3811
sg3627
I00
sg3628
I1
sg3629
F12
sg3623
g3805
sg3630
S'Believe Media'
p3812
sbsS'PRPREP'
p3813
g1
(g10
g3
NtRp3814
(dp3815
g3595
I0
sg3596
F0
sg3597
S"If you're going to need some spin, best see a spin doctor! Adds spin points."
p3816
sg3599
I1
sg3600
F0
sg3601
F0
sg3602
S''
sg3604
I00
sg3605
S'AllFriendly'
p3817
sg3607
F0
sg3608
I0
sg3609
(lp3818
g1
(g3611
g3
NtRp3819
(dp3820
g3614
S'add_permanent'
p3821
sg3616
S''
sg3618
S'spin'
p3822
sg3620
F5
sg3621
F0
sg3622
F0
sg3623
S'Spin Restore'
p3823
sg3625
S'TRUE'
p3824
sbasg3627
I00
sg3628
I1
sg3629
F0
sg3623
g3813
sg3630
S'PR Prep'
p3825
sbsS'CALLVATICAN'
p3826
g1
(g10
g3
NtRp3827
(dp3828
g3595
I0
sg3596
F0
sg3597
S'Brings in 2 additional ReligousNuts at 2 levels lower than this one'
p3829
sg3599
I1
sg3600
F0
sg3601
F0
sg3602
S'Wit'
p3830
sg3604
I01
sg3605
S'None'
p3831
sg3607
F0
sg3608
F5
sg3609
(lp3832
g1
(g3611
g3
NtRp3833
(dp3834
g3614
S'call_friends'
p3835
sg3616
S''
sg3618
S'ReligiousNut001:4'
p3836
sg3620
F2
sg3621
F1
sg3622
F1
sg3623
S'Call Friends'
p3837
sg3625
S''
sbasg3627
I00
sg3628
I1
sg3629
F0
sg3623
g3826
sg3630
S'Call Battycan'
p3838
sbsS'BLACKMAIL'
p3839
g1
(g10
g3
NtRp3840
(dp3841
g3595
I0
sg3596
F6
sg3597
S'asdf'
p3842
sg3599
I1
sg3600
F10
sg3601
F2
sg3602
S'Wit'
p3843
sg3604
I00
sg3605
S'AllEnemy'
p3844
sg3607
F3
sg3608
F4
sg3609
(lp3845
g1
(g3611
g3
NtRp3846
(dp3847
g3614
S'drain'
p3848
sg3616
S'(DRAIN VTS)'
p3849
sg3618
S'votes'
p3850
sg3620
F1
sg3621
F2
sg3622
F5
sg3623
S'Drain Votes'
p3851
sg3625
S''
sbasg3627
I00
sg3628
I1
sg3629
F2
sg3623
g3839
sg3630
S'Blackmail'
p3852
sbsS'SCARE'
p3853
g1
(g10
g3
NtRp3854
(dp3855
g3595
I0
sg3596
F7
sg3597
S'Nothing rattles the brains like fear.'
p3856
sg3599
I1
sg3600
F10
sg3601
F2
sg3602
S'Cunning'
p3857
sg3604
I00
sg3605
S'AllEnemy'
p3858
sg3607
F2
sg3608
I0
sg3609
(lp3859
g3798
asg3627
I00
sg3628
I2
sg3629
F9
sg3623
g3853
sg3630
S'Scare Campaign'
p3860
sbsS'PROTEST'
p3861
g1
(g10
g3
NtRp3862
(dp3863
g3595
I0
sg3596
F5
sg3597
S'asdf'
p3864
sg3599
F6
sg3600
F10
sg3601
F2
sg3602
S'Cunning'
p3865
sg3604
I00
sg3605
S'AllEnemy'
p3866
sg3607
F2
sg3608
I0
sg3609
(lp3867
sg3627
I00
sg3628
I1
sg3629
F8
sg3623
g3861
sg3630
S'Protest'
p3868
sbsS'SPREADRUMOUR'
p3869
g1
(g10
g3
NtRp3870
(dp3871
g3595
I0
sg3596
F8
sg3597
S'asdf'
p3872
sg3599
I1
sg3600
F10
sg3601
F2
sg3602
S'Wit'
p3873
sg3604
I00
sg3605
S'AllEnemy'
p3874
sg3607
F3
sg3608
F5
sg3609
(lp3875
sg3627
I00
sg3628
I4
sg3629
F10
sg3623
g3869
sg3630
S'Spread Rumour'
p3876
sbsS'AGENDA'
p3877
g1
(g10
g3
NtRp3878
(dp3879
g3595
I0
sg3596
F5
sg3597
S'asdf'
p3880
sg3599
F6
sg3600
F10
sg3601
F2
sg3602
S'Cunning'
p3881
sg3604
I00
sg3605
S'AllEnemy'
p3882
sg3607
F2
sg3608
I0
sg3609
(lp3883
sg3627
I00
sg3628
I1
sg3629
F8
sg3623
g3877
sg3630
S'Push Agenda'
p3884
sbsS'REVIVEITEM'
p3885
g1
(g10
g3
NtRp3886
(dp3887
g3595
I0
sg3596
F0
sg3597
S'Revive a defeated comrade to half votes'
p3888
sg3599
I1
sg3600
F0
sg3601
F0
sg3602
S''
sg3604
I00
sg3605
S'DeadFriendly'
p3889
sg3607
F0
sg3608
I0
sg3609
(lp3890
g1
(g3611
g3
NtRp3891
(dp3892
g3614
S'revive'
p3893
sg3616
S''
sg3618
S''
sg3620
F0.5
sg3621
F0
sg3622
F0
sg3623
S'Revive'
p3894
sg3625
S''
sbasg3627
I01
sg3628
I1
sg3629
F0
sg3623
g3885
sg3630
S'Revive'
p3895
sbsS'LEGSPEECH'
p3896
g1
(g10
g3
NtRp3897
(dp3898
g3595
F10
sg3596
F-10
sg3597
S'Remembered throughout the ages. Restores a lot of votes for all party members'
p3899
sg3599
I1
sg3600
F0
sg3601
F0
sg3602
S''
sg3604
I00
sg3605
S'AllFriendly'
p3900
sg3607
F-25
sg3608
I0
sg3609
(lp3901
sg3627
I00
sg3628
I4
sg3629
F0
sg3623
g3896
sg3630
S'Legendary Speech'
p3902
sbsS'TVAD'
p3903
g1
(g10
g3
NtRp3904
(dp3905
g3595
F40
sg3596
F0
sg3597
S'Prime time TV gets the most votes. Restore up to 40 votes.'
p3906
sg3599
I1
sg3600
F0
sg3601
F0
sg3602
S''
sg3604
I00
sg3605
S'AllFriendly'
p3907
sg3607
F0
sg3608
I0
sg3609
(lp3908
g1
(g3611
g3
NtRp3909
(dp3910
g3614
S'add_permanent'
p3911
sg3616
S''
sg3618
S'votes'
p3912
sg3620
F40
sg3621
F1
sg3622
F1
sg3623
S'Votes Restore TV'
p3913
sg3625
S''
sbasg3627
I00
sg3628
I1
sg3629
F0
sg3623
g3903
sg3630
S'Run TV Advertisement'
p3914
sbsS'FILIBUSTER'
p3915
g1
(g10
g3
NtRp3916
(dp3917
g3595
I0
sg3596
F6
sg3597
S"You're not moving until they give in. Cause all opposition to miss their turn"
p3918
sg3599
I1
sg3600
F0
sg3601
F0
sg3602
S'Wit'
p3919
sg3604
I00
sg3605
S'AllEnemy'
p3920
sg3607
F3
sg3608
F7
sg3609
(lp3921
g3757
asg3627
I00
sg3628
I1
sg3629
F0
sg3623
g3915
sg3630
S'Filibuster'
p3922
sbsS'GATHERINTEL'
p3923
g1
(g10
g3
NtRp3924
(dp3925
g3595
I0
sg3596
F0
sg3597
S'Increases Cunning.'
p3926
sg3599
I1
sg3600
F0
sg3601
F0
sg3602
S'Wit'
p3927
sg3604
I00
sg3605
S'AllFriendly'
p3928
sg3607
F0
sg3608
F3
sg3609
(lp3929
g3612
asg3627
I00
sg3628
I2
sg3629
F0
sg3623
g3923
sg3630
S'Gather Intelligence'
p3930
sbsS'LOVE'
p3931
g1
(g10
g3
NtRp3932
(dp3933
g3595
I0
sg3596
F6
sg3597
S'asdf'
p3934
sg3599
F4
sg3600
F8
sg3601
F2
sg3602
S'Cunning'
p3935
sg3604
I00
sg3605
S'AllEnemy'
p3936
sg3607
F1
sg3608
I0
sg3609
(lp3937
sg3627
I00
sg3628
I1
sg3629
F7
sg3623
g3931
sg3630
S'Love'
p3938
sbsS'OUTOFCONTEXT'
p3939
g1
(g10
g3
NtRp3940
(dp3941
g3595
I0
sg3596
F5
sg3597
S'asdf'
p3942
sg3599
I1
sg3600
F5
sg3601
F2
sg3602
S'Wit'
p3943
sg3604
I00
sg3605
S'AllEnemy'
p3944
sg3607
F3
sg3608
F2
sg3609
(lp3945
g3846
asg3627
I00
sg3628
I1
sg3629
F5
sg3623
g3939
sg3630
S'Take Out Of Context'
p3946
sbsS'GREATSUIT'
p3947
g1
(g10
g3
NtRp3948
(dp3949
g3595
I0
sg3596
F6
sg3597
S'Well, we could argue, but have you noticed how fabulous this suit is? Medium attack with high chance of critical.'
p3950
sg3599
I1
sg3600
F30
sg3601
F10
sg3602
S'Cunning'
p3951
sg3604
I00
sg3605
S'AllEnemy'
p3952
sg3607
F3
sg3608
I0
sg3609
(lp3953
sg3627
I00
sg3628
I1
sg3629
F13
sg3623
g3947
sg3630
S'Look Great In Suit'
p3954
sbsS'PEACE'
p3955
g1
(g10
g3
NtRp3956
(dp3957
g3595
I0
sg3596
F0
sg3597
S'asdf'
p3958
sg3599
F4
sg3600
F0
sg3601
F0
sg3602
S'Wit'
p3959
sg3604
I00
sg3605
S'AllEnemy'
p3960
sg3607
F0
sg3608
F3
sg3609
(lp3961
g3798
asg3627
I00
sg3628
I4
sg3629
F0
sg3623
g3955
sg3630
S'Peace'
p3962
sbsS'INSPSPEECH'
p3963
g1
(g10
g3
NtRp3964
(dp3965
g3595
F2
sg3596
F-2
sg3597
S'Restore a small amount of votes to all party members'
p3966
sg3599
I1
sg3600
F0
sg3601
F0
sg3602
S'Cunning'
p3967
sg3604
I00
sg3605
S'AllFriendly'
p3968
sg3607
F-5
sg3608
I0
sg3609
(lp3969
sg3627
I00
sg3628
I4
sg3629
F0
sg3623
g3963
sg3630
S'Inspirational Speech'
p3970
sbsS'RALLYENEMY'
p3971
g1
(g10
g3
NtRp3972
(dp3973
g3595
F8
sg3596
F0
sg3597
S'Get back some votes by rallying supporters'
p3974
sg3599
I1
sg3600
F0
sg3601
F0
sg3602
S'Wit'
p3975
sg3604
I00
sg3605
S'AllFriendly'
p3976
sg3607
F0
sg3608
F3
sg3609
(lp3977
g1
(g3611
g3
NtRp3978
(dp3979
g3614
S'add_permanent'
p3980
sg3616
S''
sg3618
S'votes'
p3981
sg3620
F8
sg3621
F1
sg3622
F1
sg3623
S'Votes Restore Rally Enemy'
p3982
sg3625
S''
sbasg3627
I00
sg3628
I1
sg3629
F0
sg3623
g3971
sg3630
S'Rally Constituents'
p3983
sbsS'STRIKE'
p3984
g1
(g10
g3
NtRp3985
(dp3986
g3595
I0
sg3596
F10
sg3597
S'asdf'
p3987
sg3599
I1
sg3600
F0
sg3601
F0
sg3602
S'Wit'
p3988
sg3604
I00
sg3605
S'AllEnemy'
p3989
sg3607
F0
sg3608
F3
sg3609
(lp3990
g3647
asg3627
I00
sg3628
I1
sg3629
F0
sg3623
g3984
sg3630
S'Call A Strike'
p3991
sbsS'SLANDER'
p3992
g1
(g10
g3
NtRp3993
(dp3994
g3595
I0
sg3596
F5
sg3597
S'Strong against polititians...careful with those voters, though!'
p3995
sg3599
F4
sg3600
F10
sg3601
F2
sg3602
S'Cunning'
p3996
sg3604
I00
sg3605
S'AllEnemy'
p3997
sg3607
F3
sg3608
I0
sg3609
(lp3998
g3846
asg3627
I00
sg3628
I1
sg3629
F7
sg3623
g3992
sg3630
S'Slander Opposition'
p3999
sbsS'NATTER'
p4000
g1
(g10
g3
NtRp4001
(dp4002
g3595
I0
sg3596
F8
sg3597
S'asdf'
p4003
sg3599
I1
sg3600
F15
sg3601
F5
sg3602
S'Cunning'
p4004
sg3604
I00
sg3605
S'AllEnemy'
p4005
sg3607
F1
sg3608
I0
sg3609
(lp4006
sg3627
I00
sg3628
I1
sg3629
F10
sg3623
g4000
sg3630
S'Natter On'
p4007
sbsS'GOSSIP'
p4008
g1
(g10
g3
NtRp4009
(dp4010
g3595
I0
sg3596
F3
sg3597
S'asdf'
p4011
sg3599
I1
sg3600
F10
sg3601
F2
sg3602
S'Wit'
p4012
sg3604
I00
sg3605
S'AllEnemy'
p4013
sg3607
F2
sg3608
F2
sg3609
(lp4014
g3798
asg3627
I00
sg3628
I1
sg3629
F6
sg3623
g4008
sg3630
S'Gossip'
p4015
sbsS'MISSTURN'
p4016
g1
(g10
g3
NtRp4017
(dp4018
g3595
I0
sg3596
F0
sg3597
S'asdf'
p4019
sg3599
I1
sg3600
F0
sg3601
F0
sg3602
S''
sg3604
I00
sg3605
S'AllEnemy'
p4020
sg3607
F0
sg3608
I0
sg3609
(lp4021
sg3627
I00
sg3628
I1
sg3629
F0
sg3623
g4016
sg3630
S'Miss Turn'
p4022
sbsS'BIELECTION'
p4023
g1
(g10
g3
NtRp4024
(dp4025
g3595
I0
sg3596
F4
sg3597
S'Redistribute votes amongst targets'
p4026
sg3599
I1
sg3600
F0
sg3601
F0
sg3602
S'Wit'
p4027
sg3604
I00
sg3605
S'All'
p4028
sg3607
F-4
sg3608
F4
sg3609
(lp4029
sg3627
I00
sg3628
I8
sg3629
F0
sg3623
g4023
sg3630
S'Bielection'
p4030
sbsS'RUNAD'
p4031
g1
(g10
g3
NtRp4032
(dp4033
g3595
F15
sg3596
F0
sg3597
S'Gets back up to 15 votes by running an ad'
p4034
sg3599
I1
sg3600
F0
sg3601
F0
sg3602
S''
sg3604
I00
sg3605
S'AllFriendly'
p4035
sg3607
F0
sg3608
I0
sg3609
(lp4036
g1
(g3611
g3
NtRp4037
(dp4038
g3614
S'add_permanent'
p4039
sg3616
S''
sg3618
S'votes'
p4040
sg3620
F15
sg3621
F1
sg3622
F1
sg3623
S'Votes Restore Ad'
p4041
sg3625
S''
sbasg3627
I00
sg3628
I1
sg3629
F0
sg3623
g4031
sg3630
S'Run Advertisement'
p4042
sbsS'PAYOFF'
p4043
g1
(g10
g3
NtRp4044
(dp4045
g3595
I0
sg3596
F8
sg3597
S'Causes them to miss a number of turns'
p4046
sg3599
I1
sg3600
F8
sg3601
F2
sg3602
S'Wit'
p4047
sg3604
I00
sg3605
S'AllEnemy'
p4048
sg3607
F4
sg3608
F4
sg3609
(lp4049
g1
(g3611
g3
NtRp4050
(dp4051
g3614
S'miss_turn'
p4052
sg3616
S'(MISS)'
p4053
sg3618
S''
sg3620
F0
sg3621
F1
sg3622
F3
sg3623
S'Miss Turn Pay Off'
p4054
sg3625
S''
sbasg3627
I00
sg3628
I1
sg3629
F10
sg3623
g4043
sg3630
S'Pay Off'
p4055
sbsS'BUREAUCRACY'
p4056
g1
(g10
g3
NtRp4057
(dp4058
g3595
I0
sg3596
F5
sg3597
S'asdf'
p4059
sg3599
F6
sg3600
F10
sg3601
F2
sg3602
S'Cunning'
p4060
sg3604
I00
sg3605
S'AllEnemy'
p4061
sg3607
F2
sg3608
I0
sg3609
(lp4062
sg3627
I00
sg3628
I1
sg3629
F8
sg3623
g4056
sg3630
S'Bureaucracy'
p4063
sbsS'RALLYAUDIENCE'
p4064
g1
(g10
g3
NtRp4065
(dp4066
g3595
I0
sg3596
F8
sg3597
S'asdf'
p4067
sg3599
I1
sg3600
F0
sg3601
F0
sg3602
S'Wit'
p4068
sg3604
I00
sg3605
S'AllFriendly'
p4069
sg3607
F4
sg3608
F3
sg3609
(lp4070
g1
(g3611
g3
NtRp4071
(dp4072
g3614
S'add'
p4073
sg3616
S'(INCR CH)'
p4074
sg3618
S'charisma'
p4075
sg3620
F2
sg3621
F1
sg3622
F4
sg3623
S'Increase Charisma'
p4076
sg3625
S'TRUE'
p4077
sbasg3627
I00
sg3628
I1
sg3629
F0
sg3623
g4064
sg3630
S'Rally Audience'
p4078
sbsS'PORKBARREL'
p4079
g1
(g10
g3
NtRp4080
(dp4081
g3595
I0
sg3596
F8
sg3597
S'Do something that benefits them specifically. Not advised against politicians.'
p4082
sg3599
I1
sg3600
F0
sg3601
F0
sg3602
S'Wit'
p4083
sg3604
I00
sg3605
S'AllEnemy'
p4084
sg3607
F4
sg3608
F2
sg3609
(lp4085
sg3627
I00
sg3628
I1
sg3629
F0
sg3623
g4079
sg3630
S'Pork Barrel'
p4086
sbsS'INSPIRE'
p4087
g1
(g10
g3
NtRp4088
(dp4089
g3595
I0
sg3596
F0
sg3597
S'asdf'
p4090
sg3599
I1
sg3600
F0
sg3601
F0
sg3602
S'Wit'
p4091
sg3604
I00
sg3605
S'AllFriendly'
p4092
sg3607
F0
sg3608
F3
sg3609
(lp4093
g3612
asg3627
I00
sg3628
I4
sg3629
F0
sg3623
g4087
sg3630
S'Inspire'
p4094
sbsS'JOKE'
p4095
g1
(g10
g3
NtRp4096
(dp4097
g3595
I0
sg3596
F6
sg3597
S"Ha, ha, ha...what were we talking about? Diffuse the situation with some humour. High chance of critical hit. Knock 'em dead!"
p4098
sg3599
F3
sg3600
F20
sg3601
F10
sg3602
S'Cunning'
p4099
sg3604
I00
sg3605
S'AllEnemy'
p4100
sg3607
F2
sg3608
I0
sg3609
(lp4101
sg3627
I00
sg3628
I1
sg3629
F12
sg3623
g4095
sg3630
S'Joke'
p4102
sbsS'PRAYFORSOULS'
p4103
g1
(g10
g3
NtRp4104
(dp4105
g3595
I0
sg3596
F6
sg3597
S'asdf'
p4106
sg3599
F2
sg3600
F10
sg3601
F2
sg3602
S'Cunning'
p4107
sg3604
I00
sg3605
S'None'
p4108
sg3607
F3
sg3608
I0
sg3609
(lp4109
sg3627
I00
sg3628
I1
sg3629
F10
sg3623
g4103
sg3630
S'Pray'
p4110
sbsS'REVIVE'
p4111
g1
(g10
g3
NtRp4112
(dp4113
g3595
I0
sg3596
F0
sg3597
S'Revive a defeated comrade to half votes'
p4114
sg3599
I1
sg3600
F0
sg3601
F0
sg3602
S''
sg3604
I00
sg3605
S'DeadFriendly'
p4115
sg3607
F0
sg3608
F5
sg3609
(lp4116
g3891
asg3627
I01
sg3628
I1
sg3629
F0
sg3623
g4111
sg3630
S'Revive'
p4117
sbsS'HUMANSHIELD'
p4118
g1
(g10
g3
NtRp4119
(dp4120
g3595
I0
sg3596
F8
sg3597
S'No further questions. Step back, please. Causes all targets to miss their next turn.'
p4121
sg3599
I1
sg3600
F5
sg3601
F2
sg3602
S'Wit'
p4122
sg3604
I00
sg3605
S'AllEnemy'
p4123
sg3607
F4
sg3608
F5
sg3609
(lp4124
g3757
asg3627
I00
sg3628
I2
sg3629
F11
sg3623
g4118
sg3630
S'Human Shield'
p4125
sbsS'MAKEDEMANDS'
p4126
g1
(g10
g3
NtRp4127
(dp4128
g3595
I0
sg3596
F8
sg3597
S'asdf'
p4129
sg3599
I1
sg3600
F0
sg3601
F0
sg3602
S'Cunning'
p4130
sg3604
I00
sg3605
S'AllEnemy'
p4131
sg3607
F0
sg3608
I0
sg3609
(lp4132
g3647
asg3627
I00
sg3628
I1
sg3629
F0
sg3623
g4126
sg3630
S'Make Outrageous Demands'
p4133
sbsS'DEFENSE'
p4134
g1
(g10
g3
NtRp4135
(dp4136
g3595
I0
sg3596
F0
sg3597
S'Gather strenth; -50% to all incoming attacks'
p4137
sg3599
I1
sg3600
F0
sg3601
F0
sg3602
S''
sg3604
I00
sg3605
S'None'
p4138
sg3607
F0
sg3608
I0
sg3609
(lp4139
g1
(g3611
g3
NtRp4140
(dp4141
g3614
S'add'
p4142
sg3616
S'(DEFEND)'
p4143
sg3618
S'resistance'
p4144
sg3620
F0.5
sg3621
F1
sg3622
F1
sg3623
S'Defense'
p4145
sg3625
S'TRUE'
p4146
sbasg3627
I00
sg3628
I1
sg3629
F0
sg3623
g4134
sg3630
S'Defense'
p4147
sbsS'MISCONSTRUE'
p4148
g1
(g10
g3
NtRp4149
(dp4150
g3595
I0
sg3596
F8
sg3597
S'asdf'
p4151
sg3599
I1
sg3600
F0
sg3601
F0
sg3602
S'Cunning'
p4152
sg3604
I00
sg3605
S'AllEnemy'
p4153
sg3607
F0
sg3608
I0
sg3609
(lp4154
g3647
asg3627
I00
sg3628
I1
sg3629
F0
sg3623
g4148
sg3630
S'Misconstrue'
p4155
sbsS'NATIONALSECURITY'
p4156
g1
(g10
g3
NtRp4157
(dp4158
g3595
I0
sg3596
F7
sg3597
S"This is a matter of national security and they don't have codeword clearance Solid basic attack."
p4159
sg3599
I1
sg3600
F10
sg3601
F2
sg3602
S'Cunning'
p4160
sg3604
I00
sg3605
S'AllEnemy'
p4161
sg3607
F5
sg3608
I0
sg3609
(lp4162
sg3627
I00
sg3628
I1
sg3629
F9
sg3623
g4156
sg3630
S'National Security'
p4163
sbsS'RALLY'
p4164
g1
(g10
g3
NtRp4165
(dp4166
g3595
F20
sg3596
F0
sg3597
S'Get back some votes by rallying supporters'
p4167
sg3599
I1
sg3600
F0
sg3601
F0
sg3602
S'Wit'
p4168
sg3604
I00
sg3605
S'AllFriendly'
p4169
sg3607
F0
sg3608
F3
sg3609
(lp4170
g1
(g3611
g3
NtRp4171
(dp4172
g3614
S'add_permanent'
p4173
sg3616
S''
sg3618
S'votes'
p4174
sg3620
F20
sg3621
F1
sg3622
F1
sg3623
S'Votes Restore Rally'
p4175
sg3625
S''
sbasg3627
I00
sg3628
I1
sg3629
F0
sg3623
g4164
sg3630
S'Rally Constituents'
p4176
sbsS'MESSAGE'
p4177
g1
(g10
g3
NtRp4178
(dp4179
g3595
I0
sg3596
F6
sg3597
S'You can certainly wear them down by repeating your party line over and over and over...if you want'
p4180
sg3599
F6
sg3600
F10
sg3601
F5
sg3602
S'Cunning'
p4181
sg3604
I00
sg3605
S'AllEnemy'
p4182
sg3607
F3
sg3608
I0
sg3609
(lp4183
sg3627
I00
sg3628
I1
sg3629
F10
sg3623
g4177
sg3630
S'Stay On Message'
p4184
sbsS'APPEALTOGOD'
p4185
g1
(g10
g3
NtRp4186
(dp4187
g3595
I0
sg3596
F10
sg3597
S'asdf'
p4188
sg3599
F3
sg3600
F5
sg3601
F2
sg3602
S'Wit'
p4189
sg3604
I00
sg3605
S'AllEnemy'
p4190
sg3607
F4
sg3608
F7
sg3609
(lp4191
sg3627
I00
sg3628
I4
sg3629
F13
sg3623
g4185
sg3630
S'Appeal To God'
p4192
sbssS'levels'
p4193
(lp4194
g1
(g10
g3
NtRp4195
(dp4196
S'votes'
p4197
F20
sS'level'
p4198
F1
sS'spin'
p4199
F5
sS'xp'
p4200
F0
sS'skill_points'
p4201
F0
sbag1
(g10
g3
NtRp4202
(dp4203
g4197
F23
sg4198
F2
sg4199
F5
sg4200
F100
sg4201
F2
sbag1
(g10
g3
NtRp4204
(dp4205
g4197
F25
sg4198
F3
sg4199
F6
sg4200
F200
sg4201
F2
sbag1
(g10
g3
NtRp4206
(dp4207
g4197
F30
sg4198
F4
sg4199
F6
sg4200
F500
sg4201
F2
sbag1
(g10
g3
NtRp4208
(dp4209
g4197
F35
sg4198
F5
sg4199
F7
sg4200
F1000
sg4201
F2
sbag1
(g10
g3
NtRp4210
(dp4211
g4197
F40
sg4198
F6
sg4199
F7
sg4200
F2000
sg4201
F2
sbag1
(g10
g3
NtRp4212
(dp4213
g4197
F70
sg4198
F7
sg4199
F8
sg4200
F3000
sg4201
F2
sbag1
(g10
g3
NtRp4214
(dp4215
g4197
F100
sg4198
F8
sg4199
F8
sg4200
F4000
sg4201
F2
sbag1
(g10
g3
NtRp4216
(dp4217
g4197
F200
sg4198
F9
sg4199
F9
sg4200
F5000
sg4201
F2
sbag1
(g10
g3
NtRp4218
(dp4219
g4197
F300
sg4198
F10
sg4199
F9
sg4200
F10000
sg4201
F2
sbag1
(g10
g3
NtRp4220
(dp4221
g4197
F500
sg4198
F11
sg4199
F10
sg4200
F20000
sg4201
F2
sbag1
(g10
g3
NtRp4222
(dp4223
g4197
F500
sg4198
F12
sg4199
F10
sg4200
F50000
sg4201
F2
sbag1
(g10
g3
NtRp4224
(dp4225
g4197
F500
sg4198
F13
sg4199
F10
sg4200
F60000
sg4201
F2
sbag1
(g10
g3
NtRp4226
(dp4227
g4197
F500
sg4198
F14
sg4199
F10
sg4200
F80000
sg4201
F2
sbag1
(g10
g3
NtRp4228
(dp4229
g4197
F500
sg4198
F15
sg4199
F10
sg4200
F10000
sg4201
F2
sbag1
(g10
g3
NtRp4230
(dp4231
g4197
F500
sg4198
F16
sg4199
F10
sg4200
F12000
sg4201
F2
sbag1
(g10
g3
NtRp4232
(dp4233
g4197
F500
sg4198
F17
sg4199
F10
sg4200
F15000
sg4201
F2
sbag1
(g10
g3
NtRp4234
(dp4235
g4197
F500
sg4198
F18
sg4199
F10
sg4200
F20000
sg4201
F2
sbag1
(g10
g3
NtRp4236
(dp4237
g4197
F500
sg4198
F19
sg4199
F10
sg4200
F25000
sg4201
F2
sbag1
(g10
g3
NtRp4238
(dp4239
g4197
F500
sg4198
F20
sg4199
F10
sg4200
F40000
sg4201
F2
sbag1
(g10
g3
NtRp4240
(dp4241
g4197
S''
sg4198
F21
sg4199
S''
sg4200
S''
sg4201
S''
sbag1
(g10
g3
NtRp4242
(dp4243
g4197
S''
sg4198
F22
sg4199
S''
sg4200
S''
sg4201
S''
sbag1
(g10
g3
NtRp4244
(dp4245
g4197
S''
sg4198
F23
sg4199
S''
sg4200
S''
sg4201
S''
sbag1
(g10
g3
NtRp4246
(dp4247
g4197
S''
sg4198
F24
sg4199
S''
sg4200
S''
sg4201
S''
sbag1
(g10
g3
NtRp4248
(dp4249
g4197
S''
sg4198
F25
sg4199
S''
sg4200
S''
sg4201
S''
sbag1
(g10
g3
NtRp4250
(dp4251
g4197
S''
sg4198
F26
sg4199
S''
sg4200
S''
sg4201
S''
sbag1
(g10
g3
NtRp4252
(dp4253
g4197
S''
sg4198
F27
sg4199
S''
sg4200
S''
sg4201
S''
sbag1
(g10
g3
NtRp4254
(dp4255
g4197
S''
sg4198
F28
sg4199
S''
sg4200
S''
sg4201
S''
sbag1
(g10
g3
NtRp4256
(dp4257
g4197
S''
sg4198
F29
sg4199
S''
sg4200
S''
sg4201
S''
sbasg3609
(dp4258
g3624
g3612
sg3725
g3721
sg3823
g3819
sg4076
g4071
sg3761
g3757
sg3913
g3909
sg3837
g3833
sg4041
g4037
sg4054
g4050
sg3982
g3978
sg3781
g3777
sg3894
g3891
sg3803
g3798
sg3851
g3846
sg4145
g4140
sg3651
g3647
sS'Increase Flair'
p4259
g1
(g3611
g3
NtRp4260
(dp4261
g3614
S'add'
p4262
sg3616
S'(INCR FL)'
p4263
sg3618
S'flair'
p4264
sg3620
F2
sg3621
F1
sg3622
F4
sg3623
g4259
sg3625
S'TRUE'
p4265
sbsg3712
g3708
sg4175
g4171
ssS'characters'
p4266
(dp4267
S'Teacher001'
p4268
(lp4269
g1
(g10
g3
NtRp4270
(dp4271
S'flair_base'
p4272
F1
sS'spin_base'
p4273
F4
sS'flair_lvl'
p4274
F0.10000000000000001
sS'wit_base'
p4275
F2
sS'resistance'
p4276
(lp4277
sS'wit_lvl'
p4278
F0.10000000000000001
sS'cunning_base'
p4279
F1
sg3623
g4268
sS'votes_base'
p4280
F15
sS'speed_lvl'
p4281
F0.080000000000000002
sS'standard_attacks'
p4282
(lp4283
g4135
ag3862
asS'cunning_lvl'
p4284
F0.90000000000000002
sS'charisma_lvl'
p4285
F0.20000000000000001
sS'spin_attacks'
p4286
(lp4287
g3985
ag3972
asS'spin_lvl'
p4288
F0.25
sS'charisma_base'
p4289
F1
sS'weaknesses'
p4290
(lp4291
sS'attack_group'
p4292
S'Teacher'
p4293
sS'votes_lvl'
p4294
F0.050000000000000003
sg3630
S'Teacher'
p4295
sS'speed_base'
p4296
F1
sS'immunities'
p4297
(lp4298
sbasS'Politician001'
p4299
(lp4300
g1
(g10
g3
NtRp4301
(dp4302
g4272
F1
sg4273
F4
sg4274
F0.10000000000000001
sg4275
F1
sg4276
(lp4303
g3641
asg4278
F0.10000000000000001
sg4279
F1
sg3623
g4299
sg4280
F10
sg4281
F0.080000000000000002
sg4282
(lp4304
g4178
ag3993
ag3641
ag4096
ag4135
asg4284
F0.90000000000000002
sg4285
F0.11
sg4286
(lp4305
g4024
ag3784
ag4112
asg4288
F0.25
sg4289
F1
sg4290
(lp4306
g3728
asg4292
S'Politician'
p4307
sg4294
F0.089999999999999997
sg3630
S'Politician'
p4308
sg4296
F1
sg4297
(lp4309
g4080
asbasS'SecretAgent'
p4310
(lp4311
g1
(g10
g3
NtRp4312
(dp4313
g4272
F2
sg4273
F4
sg4274
F0.10000000000000001
sg4275
F4
sg4276
(lp4314
sg4278
F0
sg4279
F4
sg3623
g4310
sg4280
F18
sg4281
F0
sg4282
(lp4315
g4157
ag3948
asg4284
F0
sg4285
F0
sg4286
(lp4316
g4119
ag3924
asg4288
F0
sg4289
F2
sg4290
(lp4317
sg4292
S'SecretAgent'
p4318
sg4294
F0.050000000000000003
sg3630
S'Agent Kawalski'
p4319
sg4296
F3
sg4297
(lp4320
sbasS'Bumpkin001'
p4321
(lp4322
g1
(g10
g3
NtRp4323
(dp4324
g4272
F1
sg4273
F4
sg4274
F0.10000000000000001
sg4275
F1
sg4276
(lp4325
sg4278
F0.10000000000000001
sg4279
F1
sg3623
g4321
sg4280
F10
sg4281
F0.080000000000000002
sg4282
(lp4326
g4096
ag3806
asg4284
F0.90000000000000002
sg4285
F0.20000000000000001
sg4286
(lp4327
g3744
ag3870
asg4288
F0.25
sg4289
F1
sg4290
(lp4328
g3641
ag3993
ag3854
asg4292
S'Bumpkin'
p4329
sg4294
F0.050000000000000003
sg3630
S'Bumpkin'
p4330
sg4296
F1
sg4297
(lp4331
sbasS'WarVet001'
p4332
(lp4333
g1
(g10
g3
NtRp4334
(dp4335
g4272
F1
sg4273
F4
sg4274
F0.10000000000000001
sg4275
F1
sg4276
(lp4336
sg4278
F0.10000000000000001
sg4279
F1
sg3623
g4332
sg4280
F10
sg4281
F0.080000000000000002
sg4282
(lp4337
g4127
ag4135
asg4284
F0.90000000000000002
sg4285
F0.20000000000000001
sg4286
(lp4338
g4088
ag3972
asg4288
F0.25
sg4289
F1
sg4290
(lp4339
sg4292
S'WarVet'
p4340
sg4294
F0.050000000000000003
sg3630
S'War Veteran'
p4341
sg4296
F1
sg4297
(lp4342
sbasS'Receptionist001'
p4343
(lp4344
g1
(g10
g3
NtRp4345
(dp4346
g4272
F1
sg4273
F4
sg4274
F0.10000000000000001
sg4275
F1
sg4276
(lp4347
sg4278
F0.10000000000000001
sg4279
F1
sg3623
g4343
sg4280
F10
sg4281
F0.080000000000000002
sg4282
(lp4348
g4057
ag4001
asg4284
F0.90000000000000002
sg4285
F0.20000000000000001
sg4286
(lp4349
g4009
ag3715
asg4288
F0.25
sg4289
F0
sg4290
(lp4350
sg4292
S'Receptionist'
p4351
sg4294
F0.050000000000000003
sg3630
S'Receptionist'
p4352
sg4296
F1
sg4297
(lp4353
sbasS'DeepThroat'
p4354
(lp4355
g1
(g10
g3
NtRp4356
(dp4357
g4272
F1
sg4273
F4
sg4274
F0.10000000000000001
sg4275
F1
sg4276
(lp4358
g4096
asg4278
F0.10000000000000001
sg4279
F1
sg3623
g4354
sg4280
F12
sg4281
F0.080000000000000002
sg4282
(lp4359
g3993
ag4135
ag4127
asg4284
F0.90000000000000002
sg4285
F0.20000000000000001
sg4286
(lp4360
g3840
asg4288
F0.25
sg4289
F1
sg4290
(lp4361
sg4292
S'DeepThroat'
p4362
sg4294
F0.10000000000000001
sg3630
S'Mr Er...?'
p4363
sg4296
F1
sg4297
(lp4364
sbasS'Leo'
p4365
(lp4366
g1
(g10
g3
NtRp4367
(dp4368
g4272
F2
sg4273
F4
sg4274
F0.10000000000000001
sg4275
F4
sg4276
(lp4369
sg4278
F0
sg4279
F2
sg3623
g4365
sg4280
F14
sg4281
F0
sg4282
(lp4370
g4178
ag3993
ag3641
ag4096
ag3728
asg4284
F0
sg4285
F0
sg4286
(lp4371
g4024
ag3784
ag4080
ag3916
asg4288
F0
sg4289
F2
sg4290
(lp4372
sg4292
S'Theo'
p4373
sg4294
F0.050000000000000003
sg3630
S'Theo'
p4374
sg4296
F2
sg4297
(lp4375
sbasS'HippyGirl001'
p4376
(lp4377
g1
(g10
g3
NtRp4378
(dp4379
g4272
F1
sg4273
F4
sg4274
F0.10000000000000001
sg4275
F2
sg4276
(lp4380
sg4278
F0.089999999999999997
sg4279
F2
sg3623
g4376
sg4280
F10
sg4281
F0.080000000000000002
sg4282
(lp4381
g3736
ag3862
ag3932
asg4284
F0.90000000000000002
sg4285
F0.20000000000000001
sg4286
(lp4382
g3956
ag3972
ag4112
asg4288
F0.25
sg4289
F1
sg4290
(lp4383
g4096
asg4292
S'Hippy'
p4384
sg4294
F0.050000000000000003
sg3630
S'Hippy Girl'
p4385
sg4296
F1
sg4297
(lp4386
sbasS'President'
p4387
(lp4388
g1
(g10
g3
NtRp4389
(dp4390
g4272
F1
sg4273
F4
sg4274
F0.10000000000000001
sg4275
F1
sg4276
(lp4391
sg4278
F0.10000000000000001
sg4279
F2
sg3623
g4387
sg4280
F18
sg4281
F0.080000000000000002
sg4282
(lp4392
g4178
ag3993
ag3641
ag4096
ag4135
asg4284
F0.90000000000000002
sg4285
F0.20000000000000001
sg4286
(lp4393
g4024
ag3784
ag4112
asg4288
F0.29999999999999999
sg4289
F1
sg4290
(lp4394
sg4292
S'Politician'
p4395
sg4294
F0.070000000000000007
sg3630
S'President Allen'
p4396
sg4296
F1
sg4297
(lp4397
sbasS'Unionist001'
p4398
(lp4399
g1
(g10
g3
NtRp4400
(dp4401
g4272
F1
sg4273
F4
sg4274
F0.10000000000000001
sg4275
F1
sg4276
(lp4402
sg4278
F0.10000000000000001
sg4279
F1
sg3623
g4398
sg4280
F10
sg4281
F0.080000000000000002
sg4282
(lp4403
g4127
ag4135
ag3862
asg4284
F0.90000000000000002
sg4285
F0.20000000000000001
sg4286
(lp4404
g3985
asg4288
F0.25
sg4289
F1
sg4290
(lp4405
sg4292
S'Unionist'
p4406
sg4294
F0.050000000000000003
sg3630
S'Unionist'
p4407
sg4296
F1
sg4297
(lp4408
sbasS'Wife'
p4409
(lp4410
g1
(g10
g3
NtRp4411
(dp4412
g4272
F1
sg4273
F4
sg4274
F0.10000000000000001
sg4275
F3
sg4276
(lp4413
sg4278
F0
sg4279
F1
sg3623
g4409
sg4280
F12
sg4281
F0
sg4282
(lp4414
g4178
ag3641
ag4096
asg4284
F0
sg4285
F0
sg4286
(lp4415
g4165
ag4112
ag3792
asg4288
F0
sg4289
F1
sg4290
(lp4416
sg4292
S'Wife'
p4417
sg4294
F0.050000000000000003
sg3630
S'Sarah Mossman'
p4418
sg4296
F3
sg4297
(lp4419
sbasS'PresidentAlien'
p4420
(lp4421
g1
(g10
g3
NtRp4422
(dp4423
g4272
F1
sg4273
F4
sg4274
F0.10000000000000001
sg4275
F2
sg4276
(lp4424
sg4278
F0.10000000000000001
sg4279
F2
sg3623
g4420
sg4280
F30
sg4281
F0.080000000000000002
sg4282
(lp4425
g3993
ag3641
ag4135
asg4284
F0.90000000000000002
sg4285
F0.20000000000000001
sg4286
(lp4426
g3752
ag3703
ag4112
asg4288
F0.29999999999999999
sg4289
F1
sg4290
(lp4427
sg4292
S'Alien'
p4428
sg4294
F0.070000000000000007
sg3630
S'President Alien'
p4429
sg4296
F1
sg4297
(lp4430
sbasS'Governor'
p4431
(lp4432
g1
(g10
g3
NtRp4433
(dp4434
g4272
F1
sg4273
F4
sg4274
F0.10000000000000001
sg4275
F1
sg4276
(lp4435
sg4278
F0.10000000000000001
sg4279
F1
sg3623
g4431
sg4280
F18
sg4281
F0.080000000000000002
sg4282
(lp4436
g4178
ag3993
ag3641
ag4096
ag4135
asg4284
F0.90000000000000002
sg4285
F0.20000000000000001
sg4286
(lp4437
g4024
ag3784
ag4112
asg4288
F0.25
sg4289
F1
sg4290
(lp4438
sg4292
S'Politician'
p4439
sg4294
F0.050000000000000003
sg3630
g4431
sg4296
F1
sg4297
(lp4440
sbasS'Lobbyist001'
p4441
(lp4442
g1
(g10
g3
NtRp4443
(dp4444
g4272
F1
sg4273
F4
sg4274
F0.10000000000000001
sg4275
F1
sg4276
(lp4445
sg4278
F0.10000000000000001
sg4279
F1
sg3623
g4441
sg4280
F10
sg4281
F0.080000000000000002
sg4282
(lp4446
g3878
ag4127
asg4284
F0.90000000000000002
sg4285
F0.20000000000000001
sg4286
(lp4447
g4044
ag3840
asg4288
F0.25
sg4289
F1
sg4290
(lp4448
g4080
asg4292
S'Lobbyist'
p4449
sg4294
F0.050000000000000003
sg3630
S'Lobbyist'
p4450
sg4296
F1
sg4297
(lp4451
g3728
asbasS'Journalist001'
p4452
(lp4453
g1
(g10
g3
NtRp4454
(dp4455
g4272
F1
sg4273
F4
sg4274
F0.10000000000000001
sg4275
F1
sg4276
(lp4456
sg4278
F0.80000000000000004
sg4279
F1
sg3623
g4452
sg4280
F16
sg4281
F0.01
sg4282
(lp4457
g3687
ag4149
asg4284
F0.90000000000000002
sg4285
F0.20000000000000001
sg4286
(lp4458
g3940
ag3593
ag3663
asg4288
F0.34999999999999998
sg4289
F1
sg4290
(lp4459
sg4292
S'Journalist'
p4460
sg4294
F0.050000000000000003
sg3630
S'Journalist'
p4461
sg4296
F1
sg4297
(lp4462
sbasS'ReligiousNut001'
p4463
(lp4464
g1
(g10
g3
NtRp4465
(dp4466
g4272
F1
sg4273
F6
sg4274
F0.050000000000000003
sg4275
F3
sg4276
(lp4467
sg4278
F0.089999999999999997
sg4279
F1
sg3623
g4463
sg4280
F10
sg4281
F0.01
sg4282
(lp4468
g3671
ag4104
ag4135
asg4284
F0.050000000000000003
sg4285
F0.050000000000000003
sg4286
(lp4469
g4186
ag3827
asg4288
F0.25
sg4289
F1
sg4290
(lp4470
sg4292
S'Religious'
p4471
sg4294
F0.089999999999999997
sg3630
S'Religious Nut'
p4472
sg4296
F1
sg4297
(lp4473
g4096
asbasS'JointChief001'
p4474
(lp4475
g1
(g10
g3
NtRp4476
(dp4477
g4272
F2
sg4273
F4
sg4274
F0.10000000000000001
sg4275
F3
sg4276
(lp4478
sg4278
F0.10000000000000001
sg4279
F3
sg3623
g4474
sg4280
F18
sg4281
F0.080000000000000002
sg4282
(lp4479
g4127
ag4135
ag4157
ag3764
asg4284
F0.90000000000000002
sg4285
F0.20000000000000001
sg4286
(lp4480
g3924
asg4288
F0.25
sg4289
F2
sg4290
(lp4481
sg4292
S'JointChief'
p4482
sg4294
F0.050000000000000003
sg3630
S'Joint Chief'
p4483
sg4296
F3
sg4297
(lp4484
sbasS'Protester001'
p4485
(lp4486
g1
(g10
g3
NtRp4487
(dp4488
g4272
F0.5
sg4273
F4
sg4274
F0.050000000000000003
sg4275
F1
sg4276
(lp4489
g4096
asg4278
F0.10000000000000001
sg4279
F1
sg3623
g4485
sg4280
F8
sg4281
F0.01
sg4282
(lp4490
g3862
ag3679
ag3736
asg4284
F0.5
sg4285
F0.20000000000000001
sg4286
(lp4491
g3972
asg4288
F0.20000000000000001
sg4289
F1
sg4290
(lp4492
sg4292
S'Protestor'
p4493
sg4294
F0.5
sg3630
S'Protester'
p4494
sg4296
F1
sg4297
(lp4495
sbasS'TVPersonality001'
p4496
(lp4497
g1
(g10
g3
NtRp4498
(dp4499
g4272
F1
sg4273
F4
sg4274
F0.10000000000000001
sg4275
F1
sg4276
(lp4500
sg4278
F0.10000000000000001
sg4279
F1
sg3623
g4496
sg4280
F12
sg4281
F0.080000000000000002
sg4282
(lp4501
g4096
ag3687
asg4284
F0.90000000000000002
sg4285
F0.20000000000000001
sg4286
(lp4502
g3663
ag3655
asg4288
F0.25
sg4289
F1
sg4290
(lp4503
sg4292
S'TVPersonality'
p4504
sg4294
F0.050000000000000003
sg3630
S"Hecules O'Grady"
p4505
sg4296
F1
sg4297
(lp4506
g3916
asbasS'Player'
p4507
(lp4508
g1
(g10
g3
NtRp4509
(dp4510
g4272
F1
sg4273
F5
sg4274
F0.10000000000000001
sg4275
F1
sg4276
(lp4511
sg4278
F0.10000000000000001
sg4279
F1
sg3623
g4507
sg4280
F15
sg4281
F0.080000000000000002
sg4282
(lp4512
g4178
ag3641
ag4096
asg4284
F0.90000000000000002
sg4285
F0.20000000000000001
sg4286
(lp4513
g3784
asg4288
F0.25
sg4289
F1
sg4290
(lp4514
sg4292
S'Player'
p4515
sg4294
F0.20000000000000001
sg3630
S'Phillip Mossman'
p4516
sg4296
F2
sg4297
(lp4517
sbasS'Computer'
p4518
(lp4519
g1
(g10
g3
NtRp4520
(dp4521
g4272
F1
sg4273
F4
sg4274
F0.10000000000000001
sg4275
F5
sg4276
(lp4522
sg4278
F0.10000000000000001
sg4279
F5
sg3623
g4518
sg4280
F50
sg4281
F0.10000000000000001
sg4282
(lp4523
g4178
ag3993
ag3641
ag4096
ag4135
asg4284
F0.90000000000000002
sg4285
F0.20000000000000001
sg4286
(lp4524
g4024
ag3784
ag4112
asg4288
F0.5
sg4289
F1
sg4290
(lp4525
sg4292
S'Politician'
p4526
sg4294
F0.5
sg3630
S'N.O.T.B.A.D'
p4527
sg4296
F5
sg4297
(lp4528
sbasS'CabinetPolitician001'
p4529
(lp4530
g1
(g10
g3
NtRp4531
(dp4532
g4272
F1
sg4273
F4
sg4274
F0.10000000000000001
sg4275
F2
sg4276
(lp4533
sg4278
F0.10000000000000001
sg4279
F2
sg3623
g4529
sg4280
F18
sg4281
F0.080000000000000002
sg4282
(lp4534
g4178
ag3993
ag3641
ag4096
ag4135
asg4284
F0.90000000000000002
sg4285
F0.20000000000000001
sg4286
(lp4535
g4024
ag3784
ag4112
asg4288
F0.25
sg4289
F2
sg4290
(lp4536
sg4292
S'Politician'
p4537
sg4294
F0.050000000000000003
sg3630
S'Cabinet Politician'
p4538
sg4296
F1
sg4297
(lp4539
sbasS'Constituent001'
p4540
(lp4541
g1
(g10
g3
NtRp4542
(dp4543
g4272
F1
sg4273
F4
sg4274
F0.10000000000000001
sg4275
F1
sg4276
(lp4544
sg4278
F0.80000000000000004
sg4279
F1
sg3623
g4540
sg4280
F10
sg4281
F0.10000000000000001
sg4282
(lp4545
g3862
ag3878
ag4127
asg4284
F0.90000000000000002
sg4285
F0.20000000000000001
sg4286
(lp4546
g4112
asg4288
F0.25
sg4289
F1
sg4290
(lp4547
sg4292
S'Constituent'
p4548
sg4294
F0.050000000000000003
sg3630
S'Constituent'
p4549
sg4296
F2
sg4297
(lp4550
sbasS'Mayor'
p4551
(lp4552
g1
(g10
g3
NtRp4553
(dp4554
g4272
F1
sg4273
F4
sg4274
F0.10000000000000001
sg4275
F1
sg4276
(lp4555
sg4278
F0.10000000000000001
sg4279
F1
sg3623
g4551
sg4280
F12
sg4281
F0.080000000000000002
sg4282
(lp4556
g4178
ag3993
ag3641
ag4096
ag4135
asg4284
F0.90000000000000002
sg4285
F0.20000000000000001
sg4286
(lp4557
g4024
ag3784
ag4112
asg4288
F0.25
sg4289
F1
sg4290
(lp4558
sg4292
S'Politician'
p4559
sg4294
F0.050000000000000003
sg3630
S'Mayor Goodman'
p4560
sg4296
F1
sg4297
(lp4561
sbassS'quest_items'
p4562
(dp4563
S'SOUTHWINGDOORKEY'
p4564
g1
(g10
g3
NtRp4565
(dp4566
g3597
S'It looks old.'
p4567
sg3623
g4564
sg3630
S'Key to the South Wing'
p4568
sbsS'NOTBADKEY'
p4569
g1
(g10
g3
NtRp4570
(dp4571
g3597
S'The key is imprinted with the seal of the President.'
p4572
sg3623
g4569
sg3630
S'Key to the Situation Room'
p4573
sbsS'BILLOFRIGHTS'
p4574
g1
(g10
g3
NtRp4575
(dp4576
g3597
S''
sg3623
g4574
sg3630
S"Citizens' Bill of Rights"
p4577
sbsS'PEN'
p4578
g1
(g10
g3
NtRp4579
(dp4580
g3597
S'Ink flows freely... into your shirt pocket.'
p4581
sg3623
g4578
sg3630
S'A pen'
p4582
sbsS'INCRIMINATINGEVIDENCE'
p4583
g1
(g10
g3
NtRp4584
(dp4585
g3597
S'Very incriminating proof that something troubling is going on in the White House.'
p4586
sg3623
g4583
sg3630
S'Incriminating Evidence'
p4587
sbsS'WARVETROOMKEY'
p4588
g1
(g10
g3
NtRp4589
(dp4590
g3597
S'The key is imprinted with the seal of the President.'
p4591
sg3623
g4588
sg3630
S'Key to the West Room'
p4592
sbsS'CABINETROOMKEY'
p4593
g1
(g10
g3
NtRp4594
(dp4595
g3597
S'The key is imprinted with the seal of the President.'
p4596
sg3623
g4593
sg3630
S'Key to the Cabinet Room'
p4597
sbsS'TEACHERROOMKEY'
p4598
g1
(g10
g3
NtRp4599
(dp4600
g3597
S'The key is imprinted with the seal of the President.'
p4601
sg3623
g4598
sg3630
S'Key to the East Room'
p4602
sbssg4282
(dp4603
S'Theo'
p4604
(lp4605
g4178
ag3993
ag3641
ag4096
ag3728
ag4024
ag3784
ag4080
ag3916
asS'JointChief'
p4606
(lp4607
g4127
ag4135
ag4157
ag3924
ag3764
asS'Politician'
p4608
(lp4609
g4178
ag3993
ag3641
ag4096
ag4024
ag3784
ag4112
ag4135
asS'Bumpkin'
p4610
(lp4611
g4096
ag3744
ag3870
ag3806
asS'Wife'
p4612
(lp4613
g4178
ag3641
ag4096
ag4165
ag4112
ag3792
asS'Lobbyist'
p4614
(lp4615
g3878
ag4044
ag3840
ag4127
asS'DeepThroat'
p4616
(lp4617
g3993
ag4135
ag3840
ag4127
asS'Protestor'
p4618
(lp4619
g3972
ag3862
ag3679
ag3736
asS'SecretAgent'
p4620
(lp4621
g4119
ag4157
ag3924
ag3948
asS'Teacher'
p4622
(lp4623
g3985
ag4135
ag3862
ag3972
asS'Alien'
p4624
(lp4625
g3993
ag3641
ag3752
ag3703
ag4112
ag4135
asS'Player'
p4626
(lp4627
g4178
ag3641
ag4096
ag3784
asS'Computer'
p4628
(lp4629
g3924
ag4157
ag3695
ag3840
ag4127
ag3993
asS'Receptionist'
p4630
(lp4631
g4057
ag4001
ag4009
ag3715
asS'Hippy'
p4632
(lp4633
g3736
ag3862
ag3932
ag3956
ag3972
ag4112
asS'Constituent'
p4634
(lp4635
g3862
ag4112
ag3878
ag4127
asS'TVPersonality'
p4636
(lp4637
g4096
ag3663
ag3687
ag3655
asS'WarVet'
p4638
(lp4639
g4127
ag4135
ag4088
ag3972
asS'Religious'
p4640
(lp4641
g3671
ag4186
ag3827
ag4104
ag4135
asS'Unionist'
p4642
(lp4643
g4127
ag4135
ag3862
ag3985
asS'Journalist'
p4644
(lp4645
g3687
ag4149
ag3940
ag3593
ag3663
assS'shops'
p4646
(dp4647
S'SHOP1'
p4648
(lp4649
g1
(g10
g3
NtRp4650
(dp4651
S'price'
p4652
F20
sS'shop_id'
p4653
g4648
sS'item_attack'
p4654
g3814
sbag1
(g10
g3
NtRp4655
(dp4656
g4652
F20
sg4653
S'SHOP1'
p4657
sg4654
g4032
sbasS'SHOP2P2'
p4658
(lp4659
g1
(g10
g3
NtRp4660
(dp4661
g4652
F20
sg4653
g4658
sg4654
g3814
sbag1
(g10
g3
NtRp4662
(dp4663
g4652
F20
sg4653
S'SHOP2P2'
p4664
sg4654
g3964
sbag1
(g10
g3
NtRp4665
(dp4666
g4652
F20
sg4653
S'SHOP2P2'
p4667
sg4654
g4032
sbag1
(g10
g3
NtRp4668
(dp4669
g4652
F50
sg4653
S'SHOP2P2'
p4670
sg4654
g3886
sbag1
(g10
g3
NtRp4671
(dp4672
g4652
F40
sg4653
S'SHOP2P2'
p4673
sg4654
g3772
sbasS'SHOP2'
p4674
(lp4675
g1
(g10
g3
NtRp4676
(dp4677
g4652
F20
sg4653
g4674
sg4654
g3814
sbag1
(g10
g3
NtRp4678
(dp4679
g4652
F20
sg4653
S'SHOP2'
p4680
sg4654
g4032
sbag1
(g10
g3
NtRp4681
(dp4682
g4652
F50
sg4653
S'SHOP2'
p4683
sg4654
g3886
sbag1
(g10
g3
NtRp4684
(dp4685
g4652
F40
sg4653
S'SHOP2'
p4686
sg4654
g3772
sbasS'SHOP3'
p4687
(lp4688
g1
(g10
g3
NtRp4689
(dp4690
g4652
F20
sg4653
g4687
sg4654
g3814
sbag1
(g10
g3
NtRp4691
(dp4692
g4652
F20
sg4653
S'SHOP3'
p4693
sg4654
g4032
sbag1
(g10
g3
NtRp4694
(dp4695
g4652
F50
sg4653
S'SHOP3'
p4696
sg4654
g3886
sbag1
(g10
g3
NtRp4697
(dp4698
g4652
F40
sg4653
S'SHOP3'
p4699
sg4654
g3772
sbag1
(g10
g3
NtRp4700
(dp4701
g4652
F70
sg4653
S'SHOP3'
p4702
sg4654
g3897
sbasS'SHOP3P2'
p4703
(lp4704
g1
(g10
g3
NtRp4705
(dp4706
g4652
F20
sg4653
g4703
sg4654
g3814
sbag1
(g10
g3
NtRp4707
(dp4708
g4652
F20
sg4653
S'SHOP3P2'
p4709
sg4654
g4032
sbag1
(g10
g3
NtRp4710
(dp4711
g4652
F50
sg4653
S'SHOP3P2'
p4712
sg4654
g3886
sbag1
(g10
g3
NtRp4713
(dp4714
g4652
F40
sg4653
S'SHOP3P2'
p4715
sg4654
g3772
sbag1
(g10
g3
NtRp4716
(dp4717
g4652
F70
sg4653
S'SHOP3P2'
p4718
sg4654
g3897
sbag1
(g10
g3
NtRp4719
(dp4720
g4652
F100
sg4653
S'SHOP3P2'
p4721
sg4654
g3904
sbassS'encounters'
p4722
(dp4723
S'P-hard-14'
p4724
g1
(g10
g3
NtRp4725
(dp4726
S'item_attack_drops'
p4727
(lp4728
sS'item_attacks'
p4729
(lp4730
sg3630
S''
sS'money'
p4731
F100
sg4200
F400
sS'monster2_lvl'
p4732
S''
sS'bribe_cost'
p4733
F200
sS'monster3'
p4734
S''
sS'monster1_lvl'
p4735
F7
sS'monster3_lvl'
p4736
S''
sS'monster4_lvl'
p4737
S''
sS'monster4'
p4738
S''
sS'monster2'
p4739
S''
sg3623
g4724
sS'monster1'
p4740
S'Computer'
p4741
sbsS'P-hard-11'
p4742
g1
(g10
g3
NtRp4743
(dp4744
g4727
(lp4745
sg4729
(lp4746
sg3630
S''
sg4731
F100
sg4200
F270
sg4732
F7
sg4733
F150
sg4734
S'JointChief001'
p4747
sg4735
F7
sg4736
F7
sg4737
S''
sg4738
S''
sg4739
S'JointChief001'
p4748
sg3623
g4742
sg4740
S'JointChief001'
p4749
sbsS'P-hard-10'
p4750
g1
(g10
g3
NtRp4751
(dp4752
g4727
(lp4753
sg4729
(lp4754
sg3630
S''
sg4731
F100
sg4200
F360
sg4732
F7
sg4733
F120
sg4734
S'CabinetPolitician001'
p4755
sg4735
F7
sg4736
F7
sg4737
F7
sg4738
S'CabinetPolitician001'
p4756
sg4739
S'CabinetPolitician001'
p4757
sg3623
g4750
sg4740
S'CabinetPolitician001'
p4758
sbsS'P-hard-13'
p4759
g1
(g10
g3
NtRp4760
(dp4761
g4727
(lp4762
sg4729
(lp4763
sg3630
S''
sg4731
F100
sg4200
F360
sg4732
F7
sg4733
F150
sg4734
S'JointChief001'
p4764
sg4735
F7
sg4736
F7
sg4737
F7
sg4738
S'JointChief001'
p4765
sg4739
S'JointChief001'
p4766
sg3623
g4759
sg4740
S'JointChief001'
p4767
sbsS'P-hard-12'
p4768
g1
(g10
g3
NtRp4769
(dp4770
g4727
(lp4771
sg4729
(lp4772
sg3630
S''
sg4731
F100
sg4200
F270
sg4732
F7
sg4733
F150
sg4734
S'JointChief001'
p4773
sg4735
F7
sg4736
F7
sg4737
S''
sg4738
S''
sg4739
S'JointChief001'
p4774
sg3623
g4768
sg4740
S'JointChief001'
p4775
sbsS'P-easy-05'
p4776
g1
(g10
g3
NtRp4777
(dp4778
g4727
(lp4779
g1
(c__main__
ItemAttack
p4780
g3
NtRp4781
(dp4782
S'attack'
p4783
g3964
sS'quantity'
p4784
I1
sbasg4729
(lp4785
sg3630
S''
sg4731
F0
sg4200
F20
sg4732
S''
sg4733
F20
sg4734
S''
sg4735
F2
sg4736
S''
sg4737
S''
sg4738
S''
sg4739
S''
sg3623
g4776
sg4740
S'Journalist001'
p4786
sbsS'P-easy-04'
p4787
g1
(g10
g3
NtRp4788
(dp4789
g4727
(lp4790
g1
(g4780
g3
NtRp4791
(dp4792
g4783
g3814
sg4784
I1
sbasg4729
(lp4793
sg3630
S''
sg4731
F0
sg4200
F30
sg4732
F1
sg4733
F20
sg4734
S''
sg4735
F1
sg4736
S''
sg4737
S''
sg4738
S''
sg4739
S'Protester001'
p4794
sg3623
g4787
sg4740
S'Protester001'
p4795
sbsS'P-easy-07'
p4796
g1
(g10
g3
NtRp4797
(dp4798
g4727
(lp4799
g1
(g4780
g3
NtRp4800
(dp4801
g4783
g3814
sg4784
I1
sbasg4729
(lp4802
sg3630
S''
sg4731
F15
sg4200
F40
sg4732
F2
sg4733
F20
sg4734
S''
sg4735
F2
sg4736
S''
sg4737
S''
sg4738
S''
sg4739
S'Protester001'
p4803
sg3623
g4796
sg4740
S'Constituent001'
p4804
sbsS'P-easy-06'
p4805
g1
(g10
g3
NtRp4806
(dp4807
g4727
(lp4808
g1
(g4780
g3
NtRp4809
(dp4810
g4783
g3886
sg4784
I1
sbasg4729
(lp4811
sg3630
S''
sg4731
F0
sg4200
F40
sg4732
F2
sg4733
F20
sg4734
S''
sg4735
F2
sg4736
S''
sg4737
S''
sg4738
S''
sg4739
S'Lobbyist001'
p4812
sg3623
g4805
sg4740
S'Lobbyist001'
p4813
sbsS'P-easy-01'
p4814
g1
(g10
g3
NtRp4815
(dp4816
g4727
(lp4817
g1
(g4780
g3
NtRp4818
(dp4819
g4783
g4032
sg4784
I1
sbasg4729
(lp4820
g1
(g4780
g3
NtRp4821
(dp4822
g4783
g3964
sg4784
I1
sbasg3630
S'The quest for pen'
p4823
sg4731
F0
sg4200
F10
sg4732
S''
sg4733
F20
sg4734
S''
sg4735
F1
sg4736
S''
sg4737
S''
sg4738
S''
sg4739
S''
sg3623
g4814
sg4740
S'Receptionist001'
p4824
sbsS'P-easy-03'
p4825
g1
(g10
g3
NtRp4826
(dp4827
g4727
(lp4828
g1
(g4780
g3
NtRp4829
(dp4830
g4783
g4032
sg4784
I1
sbasg4729
(lp4831
g1
(g4780
g3
NtRp4832
(dp4833
g4783
g3964
sg4784
I1
sbasg3630
S''
sg4731
F0
sg4200
F30
sg4732
F1
sg4733
F20
sg4734
S''
sg4735
F1
sg4736
S''
sg4737
S''
sg4738
S''
sg4739
S'Protester001'
p4834
sg3623
g4825
sg4740
S'Protester001'
p4835
sbsS'P-easy-02'
p4836
g1
(g10
g3
NtRp4837
(dp4838
g4727
(lp4839
sg4729
(lp4840
sg3630
S''
sg4731
F0
sg4200
F30
sg4732
F1
sg4733
F20
sg4734
S''
sg4735
F1
sg4736
S''
sg4737
S''
sg4738
S''
sg4739
S'Protester001'
p4841
sg3623
g4836
sg4740
S'Protester001'
p4842
sbsS'P-easy-09'
p4843
g1
(g10
g3
NtRp4844
(dp4845
g4727
(lp4846
g1
(g4780
g3
NtRp4847
(dp4848
g4783
g4032
sg4784
I1
sbasg4729
(lp4849
sg3630
S''
sg4731
F15
sg4200
F60
sg4732
F2
sg4733
F20
sg4734
S''
sg4735
F2
sg4736
S''
sg4737
S''
sg4738
S''
sg4739
S'Constituent001'
p4850
sg3623
g4843
sg4740
S'Constituent001'
p4851
sbsS'P-easy-08'
p4852
g1
(g10
g3
NtRp4853
(dp4854
g4727
(lp4855
sg4729
(lp4856
sg3630
S''
sg4731
F15
sg4200
F40
sg4732
F2
sg4733
F20
sg4734
S'Constituent001'
p4857
sg4735
F2
sg4736
F2
sg4737
S''
sg4738
S''
sg4739
S'Constituent001'
p4858
sg3623
g4852
sg4740
S'Protester001'
p4859
sbsS'P-hard-08'
p4860
g1
(g10
g3
NtRp4861
(dp4862
g4727
(lp4863
sg4729
(lp4864
sg3630
S''
sg4731
F100
sg4200
F270
sg4732
F7
sg4733
F120
sg4734
S'CabinetPolitician001'
p4865
sg4735
F7
sg4736
F7
sg4737
S''
sg4738
S''
sg4739
S'CabinetPolitician001'
p4866
sg3623
g4860
sg4740
S'CabinetPolitician001'
p4867
sbsS'P-hard-09'
p4868
g1
(g10
g3
NtRp4869
(dp4870
g4727
(lp4871
sg4729
(lp4872
sg3630
S''
sg4731
F100
sg4200
F360
sg4732
F7
sg4733
F120
sg4734
S'CabinetPolitician001'
p4873
sg4735
F7
sg4736
F7
sg4737
F7
sg4738
S'CabinetPolitician001'
p4874
sg4739
S'CabinetPolitician001'
p4875
sg3623
g4868
sg4740
S'CabinetPolitician001'
p4876
sbsS'P-med-08'
p4877
g1
(g10
g3
NtRp4878
(dp4879
g4727
(lp4880
g1
(g4780
g3
NtRp4881
(dp4882
g4783
g3772
sg4784
I1
sbasg4729
(lp4883
sg3630
S''
sg4731
F0
sg4200
F180
sg4732
F4
sg4733
F60
sg4734
S'Politician001'
p4884
sg4735
F4
sg4736
F4
sg4737
S''
sg4738
S''
sg4739
S'Politician001'
p4885
sg3623
g4877
sg4740
S'Protester001'
p4886
sbsS'P-med-09'
p4887
g1
(g10
g3
NtRp4888
(dp4889
g4727
(lp4890
sg4729
(lp4891
sg3630
S''
sg4731
F50
sg4200
F180
sg4732
F4
sg4733
F60
sg4734
S'Politician001'
p4892
sg4735
F4
sg4736
F4
sg4737
S''
sg4738
S''
sg4739
S'ReligiousNut001'
p4893
sg3623
g4887
sg4740
S'Politician001'
p4894
sbsS'P-med-02'
p4895
g1
(g10
g3
NtRp4896
(dp4897
g4727
(lp4898
g1
(g4780
g3
NtRp4899
(dp4900
g4783
g3772
sg4784
I1
sbasg4729
(lp4901
g1
(g4780
g3
NtRp4902
(dp4903
g4783
g3633
sg4784
I1
sbasg3630
S''
sg4731
F25
sg4200
F90
sg4732
F3
sg4733
F40
sg4734
S''
sg4735
F3
sg4736
S''
sg4737
S''
sg4738
S''
sg4739
S'Politician001'
p4904
sg3623
g4895
sg4740
S'Politician001'
p4905
sbsS'P-med-03'
p4906
g1
(g10
g3
NtRp4907
(dp4908
g4727
(lp4909
sg4729
(lp4910
g1
(g4780
g3
NtRp4911
(dp4912
g4783
g3633
sg4784
I1
sbasg3630
S''
sg4731
F25
sg4200
F90
sg4732
F3
sg4733
F40
sg4734
S''
sg4735
F3
sg4736
S''
sg4737
S''
sg4738
S''
sg4739
S'Bumpkin001'
p4913
sg3623
g4906
sg4740
S'Bumpkin001'
p4914
sbsS'P-med-01'
p4915
g1
(g10
g3
NtRp4916
(dp4917
g4727
(lp4918
sg4729
(lp4919
sg3630
S''
sg4731
F30
sg4200
F90
sg4732
F3
sg4733
F40
sg4734
S''
sg4735
F3
sg4736
S''
sg4737
S''
sg4738
S''
sg4739
S'Politician001'
p4920
sg3623
g4915
sg4740
S'Politician001'
p4921
sbsS'P-med-06'
p4922
g1
(g10
g3
NtRp4923
(dp4924
g4727
(lp4925
sg4729
(lp4926
sg3630
S''
sg4731
F50
sg4200
F220
sg4732
F5
sg4733
F70
sg4734
S'Politician001'
p4927
sg4735
F4
sg4736
F4
sg4737
S''
sg4738
S''
sg4739
S'Governor'
p4928
sg3623
g4922
sg4740
S'Politician001'
p4929
sbsS'P-med-07'
p4930
g1
(g10
g3
NtRp4931
(dp4932
g4727
(lp4933
sg4729
(lp4934
sg3630
S''
sg4731
F0
sg4200
F120
sg4732
F5
sg4733
F60
sg4734
S''
sg4735
F5
sg4736
S''
sg4737
S''
sg4738
S''
sg4739
S'Journalist001'
p4935
sg3623
g4930
sg4740
S'Politician001'
p4936
sbsS'P-med-04'
p4937
g1
(g10
g3
NtRp4938
(dp4939
g4727
(lp4940
sg4729
(lp4941
sg3630
S''
sg4731
F30
sg4200
F135
sg4732
F3
sg4733
F40
sg4734
S'Protester001'
p4942
sg4735
F3
sg4736
F3
sg4737
S''
sg4738
S''
sg4739
S'Bumpkin001'
p4943
sg3623
g4937
sg4740
S'HippyGirl001'
p4944
sbsS'P-med-05'
p4945
g1
(g10
g3
NtRp4946
(dp4947
g4727
(lp4948
sg4729
(lp4949
sg3630
S''
sg4731
F30
sg4200
F135
sg4732
F3
sg4733
F40
sg4734
S'Politician001'
p4950
sg4735
F3
sg4736
F3
sg4737
S''
sg4738
S''
sg4739
S'Journalist001'
p4951
sg3623
g4945
sg4740
S'Journalist001'
p4952
sbsS'P-med-24'
p4953
g1
(g10
g3
NtRp4954
(dp4955
g4727
(lp4956
sg4729
(lp4957
sg3630
S''
sg4731
F70
sg4200
F800
sg4732
F9
sg4733
F100
sg4734
S'Politician001'
p4958
sg4735
F7
sg4736
F7
sg4737
S''
sg4738
S''
sg4739
S'PresidentAlien'
p4959
sg3623
g4953
sg4740
S'Politician001'
p4960
sbsS'P-med-20'
p4961
g1
(g10
g3
NtRp4962
(dp4963
g4727
(lp4964
sg4729
(lp4965
sg3630
S''
sg4731
F80
sg4200
F225
sg4732
F5
sg4733
F100
sg4734
S'Journalist001'
p4966
sg4735
F5
sg4736
F5
sg4737
S''
sg4738
S''
sg4739
S'TVPersonality001'
p4967
sg3623
g4961
sg4740
S'Journalist001'
p4968
sbsS'P-med-21'
p4969
g1
(g10
g3
NtRp4970
(dp4971
g4727
(lp4972
sg4729
(lp4973
sg3630
S''
sg4731
F80
sg4200
F300
sg4732
F7
sg4733
F100
sg4734
S'Politician001'
p4974
sg4735
F6
sg4736
F6
sg4737
S''
sg4738
S''
sg4739
S'President'
p4975
sg3623
g4969
sg4740
S'Politician001'
p4976
sbsS'P-med-22'
p4977
g1
(g10
g3
NtRp4978
(dp4979
g4727
(lp4980
sg4729
(lp4981
sg3630
S''
sg4731
F70
sg4200
F180
sg4732
F6
sg4733
F80
sg4734
S''
sg4735
F6
sg4736
S''
sg4737
S''
sg4738
S''
sg4739
S'DeepThroat'
p4982
sg3623
g4977
sg4740
S'DeepThroat'
p4983
sbsS'P-med-23'
p4984
g1
(g10
g3
NtRp4985
(dp4986
g4727
(lp4987
g1
(g4780
g3
NtRp4988
(dp4989
g4783
g3772
sg4784
I1
sbasg4729
(lp4990
sg3630
S''
sg4731
F80
sg4200
F0
sg4732
F8
sg4733
F100
sg4734
S'Politician001'
p4991
sg4735
F6
sg4736
F6
sg4737
F6
sg4738
S'Politician001'
p4992
sg4739
S'President'
p4993
sg3623
g4984
sg4740
S'Politician001'
p4994
sbsS'P-hard-06'
p4995
g1
(g10
g3
NtRp4996
(dp4997
g4727
(lp4998
sg4729
(lp4999
sg3630
S''
sg4731
F70
sg4200
F270
sg4732
F7
sg4733
F90
sg4734
S'Teacher001'
p5000
sg4735
F7
sg4736
F7
sg4737
S''
sg4738
S''
sg4739
S'Teacher001'
p5001
sg3623
g4995
sg4740
S'Teacher001'
p5002
sbsS'P-hard-07'
p5003
g1
(g10
g3
NtRp5004
(dp5005
g4727
(lp5006
g1
(g4780
g3
NtRp5007
(dp5008
g4783
g3886
sg4784
I1
sbasg4729
(lp5009
sg3630
S''
sg4731
F0
sg4200
F360
sg4732
F7
sg4733
F90
sg4734
S'Teacher001'
p5010
sg4735
F7
sg4736
F7
sg4737
F7
sg4738
S'Teacher001'
p5011
sg4739
S'Teacher001'
p5012
sg3623
g5003
sg4740
S'Teacher001'
p5013
sbsS'P-hard-04'
p5014
g1
(g10
g3
NtRp5015
(dp5016
g4727
(lp5017
sg4729
(lp5018
sg3630
S''
sg4731
F0
sg4200
F270
sg4732
F6
sg4733
F90
sg4734
S'WarVet001'
p5019
sg4735
F6
sg4736
F6
sg4737
S''
sg4738
S''
sg4739
S'WarVet001'
p5020
sg3623
g5014
sg4740
S'WarVet001'
p5021
sbsS'P-hard-05'
p5022
g1
(g10
g3
NtRp5023
(dp5024
g4727
(lp5025
sg4729
(lp5026
sg3630
S''
sg4731
F0
sg4200
F360
sg4732
F6
sg4733
F90
sg4734
S'WarVet001'
p5027
sg4735
F6
sg4736
F6
sg4737
F6
sg4738
S'WarVet001'
p5028
sg4739
S'WarVet001'
p5029
sg3623
g5022
sg4740
S'WarVet001'
p5030
sbsS'P-hard-02'
p5031
g1
(g10
g3
NtRp5032
(dp5033
g4727
(lp5034
sg4729
(lp5035
sg3630
S''
sg4731
F70
sg4200
F270
sg4732
F6
sg4733
F80
sg4734
S'Journalist001'
p5036
sg4735
F6
sg4736
F6
sg4737
S''
sg4738
S''
sg4739
S'TVPersonality001'
p5037
sg3623
g5031
sg4740
S'Journalist001'
p5038
sbsS'P-hard-03'
p5039
g1
(g10
g3
NtRp5040
(dp5041
g4727
(lp5042
g1
(g4780
g3
NtRp5043
(dp5044
g4783
g3772
sg4784
I1
sbasg4729
(lp5045
sg3630
S''
sg4731
F0
sg4200
F270
sg4732
F6
sg4733
F80
sg4734
S'Journalist001'
p5046
sg4735
F6
sg4736
F6
sg4737
S''
sg4738
S''
sg4739
S'Journalist001'
p5047
sg3623
g5039
sg4740
S'TVPersonality001'
p5048
sbsS'P-hard-01'
p5049
g1
(g10
g3
NtRp5050
(dp5051
g4727
(lp5052
sg4729
(lp5053
sg3630
S''
sg4731
F0
sg4200
F270
sg4732
F6
sg4733
F80
sg4734
S'Journalist001'
p5054
sg4735
F6
sg4736
F6
sg4737
S''
sg4738
S''
sg4739
S'Journalist001'
p5055
sg3623
g5049
sg4740
S'Journalist001'
p5056
sbsS'P-easy-10'
p5057
g1
(g10
g3
NtRp5058
(dp5059
g4727
(lp5060
sg4729
(lp5061
sg3630
S''
sg4731
F40
sg4200
F80
sg4732
F3
sg4733
F50
sg4734
S'Politician001'
p5062
sg4735
F2
sg4736
F3
sg4737
S''
sg4738
S''
sg4739
S'Mayor'
p5063
sg3623
g5057
sg4740
S'Politician001'
p5064
sbsS'P-med-19'
p5065
g1
(g10
g3
NtRp5066
(dp5067
g4727
(lp5068
g1
(g4780
g3
NtRp5069
(dp5070
g4783
g3886
sg4784
I1
sbasg4729
(lp5071
sg3630
S''
sg4731
F80
sg4200
F150
sg4732
F5
sg4733
F100
sg4734
S''
sg4735
F5
sg4736
S''
sg4737
S''
sg4738
S''
sg4739
S'DeepThroat'
p5072
sg3623
g5065
sg4740
S'DeepThroat'
p5073
sbsS'P-med-18'
p5074
g1
(g10
g3
NtRp5075
(dp5076
g4727
(lp5077
sg4729
(lp5078
sg3630
S''
sg4731
F70
sg4200
F300
sg4732
F5
sg4733
F60
sg4734
S'ReligiousNut001'
p5079
sg4735
F5
sg4736
F5
sg4737
F5
sg4738
S'ReligiousNut001'
p5080
sg4739
S'Constituent001'
p5081
sg3623
g5074
sg4740
S'HippyGirl001'
p5082
sbsS'P-med-15'
p5083
g1
(g10
g3
NtRp5084
(dp5085
g4727
(lp5086
g1
(g4780
g3
NtRp5087
(dp5088
g4783
g3886
sg4784
I1
sbasg4729
(lp5089
sg3630
S''
sg4731
F0
sg4200
F180
sg4732
F6
sg4733
F60
sg4734
S''
sg4735
F5
sg4736
S''
sg4737
S''
sg4738
S''
sg4739
S'ReligiousNut001'
p5090
sg3623
g5083
sg4740
S'ReligiousNut001'
p5091
sbsS'P-med-14'
p5092
g1
(g10
g3
NtRp5093
(dp5094
g4727
(lp5095
sg4729
(lp5096
sg3630
S''
sg4731
F0
sg4200
F240
sg4732
F4
sg4733
F60
sg4734
S'Constituent001'
p5097
sg4735
F4
sg4736
F4
sg4737
F5
sg4738
S'Lobbyist001'
p5098
sg4739
S'Lobbyist001'
p5099
sg3623
g5092
sg4740
S'Constituent001'
p5100
sbsS'P-med-17'
p5101
g1
(g10
g3
NtRp5102
(dp5103
g4727
(lp5104
sg4729
(lp5105
sg3630
S''
sg4731
F70
sg4200
F225
sg4732
F5
sg4733
F60
sg4734
S'ReligiousNut001'
p5106
sg4735
F5
sg4736
F5
sg4737
S''
sg4738
S''
sg4739
S'HippyGirl001'
p5107
sg3623
g5101
sg4740
S'ReligiousNut001'
p5108
sbsS'P-med-16'
p5109
g1
(g10
g3
NtRp5110
(dp5111
g4727
(lp5112
sg4729
(lp5113
sg3630
S''
sg4731
F0
sg4200
F225
sg4732
F5
sg4733
F60
sg4734
S'HippyGirl001'
p5114
sg4735
F5
sg4736
F5
sg4737
S''
sg4738
S''
sg4739
S'ReligiousNut001'
p5115
sg3623
g5109
sg4740
S'ReligiousNut001'
p5116
sbsS'P-med-11'
p5117
g1
(g10
g3
NtRp5118
(dp5119
g4727
(lp5120
g1
(g4780
g3
NtRp5121
(dp5122
g4783
g4032
sg4784
I1
sbasg4729
(lp5123
sg3630
S''
sg4731
F0
sg4200
F240
sg4732
F4
sg4733
F60
sg4734
S'Constituent001'
p5124
sg4735
F4
sg4736
F4
sg4737
F5
sg4738
S'Politician001'
p5125
sg4739
S'Politician001'
p5126
sg3623
g5117
sg4740
S'Constituent001'
p5127
sbsS'P-med-10'
p5128
g1
(g10
g3
NtRp5129
(dp5130
g4727
(lp5131
sg4729
(lp5132
sg3630
S''
sg4731
F0
sg4200
F180
sg4732
F4
sg4733
F60
sg4734
S'ReligiousNut001'
p5133
sg4735
F4
sg4736
F4
sg4737
S''
sg4738
S''
sg4739
S'Politician001'
p5134
sg3623
g5128
sg4740
S'Politician001'
p5135
sbsS'P-med-13'
p5136
g1
(g10
g3
NtRp5137
(dp5138
g4727
(lp5139
sg4729
(lp5140
sg3630
S''
sg4731
F50
sg4200
F180
sg4732
F4
sg4733
F60
sg4734
S'Lobbyist001'
p5141
sg4735
F4
sg4736
F4
sg4737
S''
sg4738
S''
sg4739
S'Constituent001'
p5142
sg3623
g5136
sg4740
S'Lobbyist001'
p5143
sbsS'P-med-12'
p5144
g1
(g10
g3
NtRp5145
(dp5146
g4727
(lp5147
sg4729
(lp5148
sg3630
S''
sg4731
F0
sg4200
F180
sg4732
F4
sg4733
F60
sg4734
S'Lobbyist001'
p5149
sg4735
F4
sg4736
F4
sg4737
S''
sg4738
S''
sg4739
S'Lobbyist001'
p5150
sg3623
g5144
sg4740
S'HippyGirl001'
p5151
sbssb.