ccopy_reg
_reconstructor
p1
(c__main__
GameData
p2
c__builtin__
object
p3
NtRp4
(dp5
S'script'
p6
(dp7
S'StairsToWhiteHouse'
p8
(lp9
g1
(c__main__
TableRow
p10
g3
NtRp11
(dp12
S'action'
p13
S'Label'
p14
sS'trigger'
p15
g8
sS'param'
p16
S'START'
p17
sS'dialog'
p18
S''
sbag1
(g10
g3
NtRp19
(dp20
g13
S'PlayerSay'
p21
sg15
S'StairsToWhiteHouse'
p22
sg16
S''
sg18
S"I can't go upstairs now, I have a job to do!"
p23
sbag1
(g10
g3
NtRp24
(dp25
g13
S'Jump'
p26
sg15
S'StairsToWhiteHouse'
p27
sg16
S'START'
p28
sg18
S''
sbasS'#----------------------------------------------------------------------------------------ACT 3 ----------------------------------------------------------------------------------------------------------------------------------------------------------------------------------------'
p29
(lp30
g1
(g10
g3
NtRp31
(dp32
g13
S''
sg15
g29
sg16
S''
sg18
S''
sbasS'Hick1'
p33
(lp34
g1
(g10
g3
NtRp35
(dp36
g13
S'RequireFlag'
p37
sg15
g33
sg16
S'STARTHICKS'
p38
sg18
S"Look at this guy's fancy tie!"
p39
sbag1
(g10
g3
NtRp40
(dp41
g13
S'PlayerSay'
p42
sg15
S'Hick1'
p43
sg16
S''
sg18
S'What brings you to the office of the governor?'
p44
sbag1
(g10
g3
NtRp45
(dp46
g13
S'Say'
p47
sg15
S'Hick1'
p48
sg16
S''
sg18
S'The immigrants!'
p49
sbag1
(g10
g3
NtRp50
(dp51
g13
S'PlayerSay'
p52
sg15
S'Hick1'
p53
sg16
S''
sg18
S'What happened?'
p54
sbag1
(g10
g3
NtRp55
(dp56
g13
S'Say'
p57
sg15
S'Hick1'
p58
sg16
S'Hick2'
p59
sg18
S"They're coming!"
p60
sbag1
(g10
g3
NtRp61
(dp62
g13
S'PlayerSay'
p63
sg15
S'Hick1'
p64
sg16
S''
sg18
S'The...immigrants are coming?'
p65
sbag1
(g10
g3
NtRp66
(dp67
g13
S'Say'
p68
sg15
S'Hick1'
p69
sg16
S'Hick2'
p70
sg18
S'Yes, to steal our jobs and our wives!'
p71
sbag1
(g10
g3
NtRp72
(dp73
g13
S'Say'
p74
sg15
S'Hick1'
p75
sg16
S''
sg18
S'They have to be stopped!'
p76
sbag1
(g10
g3
NtRp77
(dp78
g13
S'PlayerSay'
p79
sg15
S'Hick1'
p80
sg16
S''
sg18
S"I don't think the immigrants are coming to steal your wives..."
p81
sbag1
(g10
g3
NtRp82
(dp83
g13
S'Say'
p84
sg15
S'Hick1'
p85
sg16
S'Journalist2'
p86
sg18
S'Mayor Mossman sides with the immigrants! I need to get this to print!'
p87
sbag1
(g10
g3
NtRp88
(dp89
g13
S'PlayerSay'
p90
sg15
S'Hick1'
p91
sg16
S''
sg18
S'Wait a second, let me explain.'
p92
sbag1
(g10
g3
NtRp93
(dp94
g13
S'Encounter'
p95
sg15
S'Hick1'
p96
sg16
S'P-med-03'
p97
sg18
S''
sbag1
(g10
g3
NtRp98
(dp99
g13
S'Say'
p100
sg15
S'Hick1'
p101
sg16
S''
sg18
S"You're a smart guy. I think I can trust you."
p102
sbag1
(g10
g3
NtRp103
(dp104
g13
S'SetFlag'
p105
sg15
S'Hick1'
p106
sg16
S'STARTHICKS2'
p107
sg18
S''
sbag1
(g10
g3
NtRp108
(dp109
g13
S'Increment'
p110
sg15
S'Hick1'
p111
sg16
S'DEALWITHHICKS'
p112
sg18
S''
sbag1
(g10
g3
NtRp113
(dp114
g13
S'Destroy'
p115
sg15
S'Hick1'
p116
sg16
S''
sg18
S''
sbasS'Hick2'
p117
(lp118
g1
(g10
g3
NtRp119
(dp120
g13
S'RequireFlag'
p121
sg15
g117
sg16
S'STARTHICKS2'
p122
sg18
S"Aw....I'm shy...talk to my buddy..."
p123
sbag1
(g10
g3
NtRp124
(dp125
g13
S'Encounter'
p126
sg15
S'Hick2'
p127
sg16
S'P-med-04'
p128
sg18
S''
sbag1
(g10
g3
NtRp129
(dp130
g13
S'Say'
p131
sg15
S'Hick2'
p132
sg16
S''
sg18
S"Wowee. We've been waiting for days and the governor has ignored us. If you ever run for governor, you'll have my vote!"
p133
sbag1
(g10
g3
NtRp134
(dp135
g13
S'Increment'
p136
sg15
S'Hick2'
p137
sg16
S'DEALWITHHICKS'
p138
sg18
S''
sbag1
(g10
g3
NtRp139
(dp140
g13
S'Destroy'
p141
sg15
S'Hick2'
p142
sg16
S''
sg18
S''
sbasS'Cabinet1'
p143
(lp144
g1
(g10
g3
NtRp145
(dp146
g13
S'Say'
p147
sg15
g143
sg16
S''
sg18
S'Good afternoon, Mr President. How can I help?'
p148
sbag1
(g10
g3
NtRp149
(dp150
g13
S'PlayerSay'
p151
sg15
S'Cabinet1'
p152
sg16
S''
sg18
S'I want to know where the orders to mobilise the military and reallocate education funds came from.'
p153
sbag1
(g10
g3
NtRp154
(dp155
g13
S'Say'
p156
sg15
S'Cabinet1'
p157
sg16
S''
sg18
S'But...it came from you, sir. They were both faxed over to me this afternoon.'
p158
sbag1
(g10
g3
NtRp159
(dp160
g13
S'PlayerSay'
p161
sg15
S'Cabinet1'
p162
sg16
S''
sg18
S'Tell me every detail.'
p163
sbag1
(g10
g3
NtRp164
(dp165
g13
S'Encounter'
p166
sg15
S'Cabinet1'
p167
sg16
S'P-hard-08'
p168
sg18
S''
sbag1
(g10
g3
NtRp169
(dp170
g13
S'Increment'
p171
sg15
S'Cabinet1'
p172
sg16
S'CABINETMEMBERS'
p173
sg18
S''
sbag1
(g10
g3
NtRp174
(dp175
g13
S'Say'
p176
sg15
S'Cabinet1'
p177
sg16
S''
sg18
S'I cannot understand how this could happen.'
p178
sbag1
(g10
g3
NtRp179
(dp180
g13
S'Destroy'
p181
sg15
S'Cabinet1'
p182
sg16
S''
sg18
S''
sbasS'Politician7'
p183
(lp184
g1
(g10
g3
NtRp185
(dp186
g13
S'RequireFlag'
p187
sg15
g183
sg16
S'STARTPOLITICIANSHAKEDOWN'
p188
sg18
S'Good morning, Governor Mossman. Your PA will know your schedule. He is waiting beside the stairs'
p189
sbag1
(g10
g3
NtRp190
(dp191
g13
S'LearnAttack'
p192
sg15
S'Politician7'
p193
sg16
S'BIELECTION'
p194
sg18
S''
sbag1
(g10
g3
NtRp195
(dp196
g13
S'Say'
p197
sg15
S'Politician7'
p198
sg16
S''
sg18
S"I believe in captialism. Let business sort itself out. They shouldn't need to rely on government handouts."
p199
sbag1
(g10
g3
NtRp200
(dp201
g13
S'Say'
p202
sg15
S'Politician7'
p203
sg16
S''
sg18
S'Also, I think politicians need a raise. Some more than others...oh and life-long retainers.'
p204
sbag1
(g10
g3
NtRp205
(dp206
g13
S'PlayerSay'
p207
sg15
S'Politician7'
p208
sg16
S''
sg18
S'So, no more hand-outs for business but more handouts for politicians?'
p209
sbag1
(g10
g3
NtRp210
(dp211
g13
S'Say'
p212
sg15
S'Politician7'
p213
sg16
S''
sg18
S'Yes!'
p214
sbag1
(g10
g3
NtRp215
(dp216
g13
S'PlayerSay'
p217
sg15
S'Politician7'
p218
sg16
S''
sg18
S'Does that serve your constituents?'
p219
sbag1
(g10
g3
NtRp220
(dp221
g13
S'Say'
p222
sg15
S'Politician7'
p223
sg16
S''
sg18
S'...It serves...some...'
p224
sbag1
(g10
g3
NtRp225
(dp226
g13
S'Encounter'
p227
sg15
S'Politician7'
p228
sg16
S'P-med-11'
p229
sg18
S''
sbag1
(g10
g3
NtRp230
(dp231
g13
S'Say'
p232
sg15
S'Politician7'
p233
sg16
S''
sg18
S'Right, I guess we need to handle the needs of our constituents, too.'
p234
sbag1
(g10
g3
NtRp235
(dp236
g13
S'Increment'
p237
sg15
S'Politician7'
p238
sg16
S'POLITICIANSHAKEDOWN'
p239
sg18
S''
sbag1
(g10
g3
NtRp240
(dp241
g13
S'Destroy'
p242
sg15
S'Politician7'
p243
sg16
S''
sg18
S''
sbasS'TVDebate'
p244
(lp245
g1
(g10
g3
NtRp246
(dp247
g13
S'RequireFlag'
p248
sg15
g244
sg16
S'STARTDEBATE'
p249
sg18
S"Hmmm? Oh, sorry, I'm on the phone to the studio."
p250
sbag1
(g10
g3
NtRp251
(dp252
g13
S'Say'
p253
sg15
S'TVDebate'
p254
sg16
S''
sg18
S"Good evening, Governor Mossman. If you'll follow me, I'll take you to the studio."
p255
sbag1
(g10
g3
NtRp256
(dp257
g13
S'Encounter'
p258
sg15
S'TVDebate'
p259
sg16
S'P-med-21'
p260
sg18
S''
sbag1
(g10
g3
NtRp261
(dp262
g13
S'Say'
p263
sg15
S'TVDebate'
p264
sg16
S''
sg18
S'Great work tonight, Governor Mossman and congratulations on the win!'
p265
sbag1
(g10
g3
NtRp266
(dp267
g13
S'SetFlag'
p268
sg15
S'TVDebate'
p269
sg16
S'DEBATECOMPLETE'
p270
sg18
S''
sbag1
(g10
g3
NtRp271
(dp272
g13
S'Destroy'
p273
sg15
S'TVDebate'
p274
sg16
S''
sg18
S''
sbasS'Lobbyist2'
p275
(lp276
g1
(g10
g3
NtRp277
(dp278
g13
S'RequireFlag'
p279
sg15
g275
sg16
S'STARTLOBBYISTS'
p280
sg18
S'Humph'
p281
sbag1
(g10
g3
NtRp282
(dp283
g13
S'Say'
p284
sg15
S'Lobbyist2'
p285
sg16
S''
sg18
S'I represent the Python Software Foundation. What will you do to promote, protect and advance the Python programming language?'
p286
sbag1
(g10
g3
NtRp287
(dp288
g13
S'PlayerSay'
p289
sg15
S'Lobbyist2'
p290
sg16
S''
sg18
S"Ah yes, the Python cause! I'm a big advocate of Python."
p291
sbag1
(g10
g3
NtRp292
(dp293
g13
S'Encounter'
p294
sg15
S'Lobbyist2'
p295
sg16
S'P-med-12'
p296
sg18
S''
sbag1
(g10
g3
NtRp297
(dp298
g13
S'Increment'
p299
sg15
S'Lobbyist2'
p300
sg16
S'LOBBYISTS'
p301
sg18
S''
sbag1
(g10
g3
NtRp302
(dp303
g13
S'Say'
p304
sg15
S'Lobbyist2'
p305
sg16
S''
sg18
S'I think we can help each other out.'
p306
sbag1
(g10
g3
NtRp307
(dp308
g13
S'Destroy'
p309
sg15
S'Lobbyist2'
p310
sg16
S''
sg18
S''
sbasS'CheatAct2'
p311
(lp312
g1
(g10
g3
NtRp313
(dp314
g13
S'AddAlly'
p315
sg15
g311
sg16
S'Wife:3'
p316
sg18
S''
sbag1
(g10
g3
NtRp317
(dp318
g13
S'LearnAttack'
p319
sg15
S'CheatAct2'
p320
sg16
S'BRIBE'
p321
sg18
S''
sbag1
(g10
g3
NtRp322
(dp323
g13
S'LearnAttack'
p324
sg15
S'CheatAct2'
p325
sg16
S'Wife:BRIBE'
p326
sg18
S''
sbag1
(g10
g3
NtRp327
(dp328
g13
S'LearnAttack'
p329
sg15
S'CheatAct2'
p330
sg16
S'SLANDER'
p331
sg18
S''
sbag1
(g10
g3
NtRp332
(dp333
g13
S'CheatXP'
p334
sg15
S'CheatAct2'
p335
sg16
S'Player:200'
p336
sg18
S''
sbag1
(g10
g3
NtRp337
(dp338
g13
S'CheatCunning'
p339
sg15
S'CheatAct2'
p340
sg16
S'Player:3'
p341
sg18
S''
sbag1
(g10
g3
NtRp342
(dp343
g13
S'CheatCharisma'
p344
sg15
S'CheatAct2'
p345
sg16
S'Player:3'
p346
sg18
S''
sbag1
(g10
g3
NtRp347
(dp348
g13
S'CheatCunning'
p349
sg15
S'CheatAct2'
p350
sg16
S'Wife:1'
p351
sg18
S''
sbag1
(g10
g3
NtRp352
(dp353
g13
S'CheatCharisma'
p354
sg15
S'CheatAct2'
p355
sg16
S'Wife:1'
p356
sg18
S''
sbag1
(g10
g3
NtRp357
(dp358
g13
S'GiveMoney'
p359
sg15
S'CheatAct2'
p360
sg16
F200
sg18
S''
sbag1
(g10
g3
NtRp361
(dp362
g13
S'GotoMap'
p363
sg15
S'CheatAct2'
p364
sg16
S'act2'
p365
sg18
S''
sbasS'CheatAct3'
p366
(lp367
g1
(g10
g3
NtRp368
(dp369
g13
S'AddAlly'
p370
sg15
g366
sg16
S'Wife:1'
p371
sg18
S''
sbag1
(g10
g3
NtRp372
(dp373
g13
S'LearnAttack'
p374
sg15
S'CheatAct3'
p375
sg16
S'BRIBE'
p376
sg18
S''
sbag1
(g10
g3
NtRp377
(dp378
g13
S'LearnAttack'
p379
sg15
S'CheatAct3'
p380
sg16
S'Wife:BRIBE'
p381
sg18
S''
sbag1
(g10
g3
NtRp382
(dp383
g13
S'LearnAttack'
p384
sg15
S'CheatAct3'
p385
sg16
S'SLANDER'
p386
sg18
S''
sbag1
(g10
g3
NtRp387
(dp388
g13
S'AddAlly'
p389
sg15
S'CheatAct3'
p390
sg16
S'Leo:1'
p391
sg18
S''
sbag1
(g10
g3
NtRp392
(dp393
g13
S'GotoMap'
p394
sg15
S'CheatAct3'
p395
sg16
S'act3'
p396
sg18
S''
sbasS'StairsToL1'
p397
(lp398
g1
(g10
g3
NtRp399
(dp400
g13
S'Label'
p401
sg15
g397
sg16
S'START'
p402
sg18
S''
sbag1
(g10
g3
NtRp403
(dp404
g13
S'GotoMap'
p405
sg15
S'StairsToL1'
p406
sg16
S'hotel_l1'
p407
sg18
S''
sbag1
(g10
g3
NtRp408
(dp409
g13
S'Jump'
p410
sg15
S'StairsToL1'
p411
sg16
S'START'
p412
sg18
S''
sbasS'DoorToCabinetRoom'
p413
(lp414
g1
(g10
g3
NtRp415
(dp416
g13
S'RequireItemPlayerSay'
p417
sg15
g413
sg16
S'CABINETROOMKEY'
p418
sg18
S'The door appears to be locked, and no amount of gesticulating can attract the attention of the inhabitants of this room.'
p419
sbag1
(g10
g3
NtRp420
(dp421
g13
S'Destroy'
p422
sg15
S'DoorToCabinetRoom'
p423
sg16
S''
sg18
S''
sbag1
(g10
g3
NtRp424
(dp425
g13
S'Message'
p426
sg15
S'DoorToCabinetRoom'
p427
sg16
S''
sg18
S'The door opens with a squeak.'
p428
sbasS'WarVet1'
p429
(lp430
g1
(g10
g3
NtRp431
(dp432
g13
S'Say'
p433
sg15
g429
sg16
S''
sg18
S"You think you can fool me? I wasn't born yesterday, you know."
p434
sbag1
(g10
g3
NtRp435
(dp436
g13
S'PlayerSay'
p437
sg15
S'WarVet1'
p438
sg16
S''
sg18
S"I'm sorry, sir, but what seems to be the problem."
p439
sbag1
(g10
g3
NtRp440
(dp441
g13
S'Say'
p442
sg15
S'WarVet1'
p443
sg16
S''
sg18
S"You think I don't know a mobilising army when I see one? You're clearly readying for war and you think you don't even need to mention it to the people."
p444
sbag1
(g10
g3
NtRp445
(dp446
g13
S'Say'
p447
sg15
S'WarVet1'
p448
sg16
S'WarVet2'
p449
sg18
S"And don't forget that he's barely a cadet, Wilfred."
p450
sbag1
(g10
g3
NtRp451
(dp452
g13
S'Say'
p453
sg15
S'WarVet1'
p454
sg16
S''
sg18
S"Right you are, Arnold, You've barely set foot in this building and you're already leading us to war. Who do you think you're dealing with? We won't stand."
p455
sbag1
(g10
g3
NtRp456
(dp457
g13
S'Encounter'
p458
sg15
S'WarVet1'
p459
sg16
S'P-hard-04'
p460
sg18
S''
sbag1
(g10
g3
NtRp461
(dp462
g13
S'Say'
p463
sg15
S'WarVet1'
p464
sg16
S''
sg18
S"Seems like a flimsy excuse, you didn't know. Better get your troops in line if you want 'em to march, boy."
p465
sbag1
(g10
g3
NtRp466
(dp467
g13
S'Increment'
p468
sg15
S'WarVet1'
p469
sg16
S'WARVETS'
p470
sg18
S''
sbag1
(g10
g3
NtRp471
(dp472
g13
S'SetFlag'
p473
sg15
S'WarVet1'
p474
sg16
S'AFTERWILFRED'
p475
sg18
S''
sbag1
(g10
g3
NtRp476
(dp477
g13
S'Destroy'
p478
sg15
S'WarVet1'
p479
sg16
S''
sg18
S''
sbasS'Teacher2'
p480
(lp481
g1
(g10
g3
NtRp482
(dp483
g13
S'Say'
p484
sg15
g480
sg16
S''
sg18
S"You cannot gamble with the future, Mr President. Childrens' education is at stake!"
p485
sbag1
(g10
g3
NtRp486
(dp487
g13
S'PlayerSay'
p488
sg15
S'Teacher2'
p489
sg16
S''
sg18
S"I can assure you this isn't so..."
p490
sbag1
(g10
g3
NtRp491
(dp492
g13
S'Encounter'
p493
sg15
S'Teacher2'
p494
sg16
S'P-hard-07'
p495
sg18
S''
sbag1
(g10
g3
NtRp496
(dp497
g13
S'Say'
p498
sg15
S'Teacher2'
p499
sg16
S''
sg18
S'We will await a change from your government.'
p500
sbag1
(g10
g3
NtRp501
(dp502
g13
S'Increment'
p503
sg15
S'Teacher2'
p504
sg16
S'TEACHERS'
p505
sg18
S''
sbag1
(g10
g3
NtRp506
(dp507
g13
S'Destroy'
p508
sg15
S'Teacher2'
p509
sg16
S''
sg18
S''
sbasS'StairsToWhiteHouseBasement'
p510
(lp511
g1
(g10
g3
NtRp512
(dp513
g13
S'GotoMap'
p514
sg15
g510
sg16
S'act3_basement'
p515
sg18
S''
sbasS'Kawalski'
p516
(lp517
g1
(g10
g3
NtRp518
(dp519
g13
S'RequireFlag'
p520
sg15
g516
sg16
S'ACCESSKAWALSKI'
p521
sg18
S"I'm not allowed to speak to you, sir."
p522
sbag1
(g10
g3
NtRp523
(dp524
g13
S'Say'
p525
sg15
S'Kawalski'
p526
sg16
S''
sg18
S'A pleasure to meet you, President Mossman. I am Agent Kawalski, your security detail.'
p527
sbag1
(g10
g3
NtRp528
(dp529
g13
S'PlayerSay'
p530
sg15
S'Kawalski'
p531
sg16
S''
sg18
S'Great to meet you, Agent Kawalski. What do I need to know?'
p532
sbag1
(g10
g3
NtRp533
(dp534
g13
S'Say'
p535
sg15
S'Kawalski'
p536
sg16
S''
sg18
S'Well actually, it does have to do with your security. Something terrible is happening at the White House.'
p537
sbag1
(g10
g3
NtRp538
(dp539
g13
S'PlayerSay'
p540
sg15
S'Kawalski'
p541
sg16
S''
sg18
S"If you're trying to warn me about the aliens, it's under control."
p542
sbag1
(g10
g3
NtRp543
(dp544
g13
S'Say'
p545
sg15
S'Kawalski'
p546
sg16
S''
sg18
S'No, no, this is different. I think somebody is trying to take over the White House.'
p547
sbag1
(g10
g3
NtRp548
(dp549
g13
S'PlayerSay'
p550
sg15
S'Kawalski'
p551
sg16
S''
sg18
S"Wouldn't we know?"
p552
sbag1
(g10
g3
NtRp553
(dp554
g13
S'Say'
p555
sg15
S'Kawalski'
p556
sg16
S''
sg18
S"It's too early for those kind of details. I just want you to keep your eyes open, Mr President."
p557
sbag1
(g10
g3
NtRp558
(dp559
g13
S'PlayerSay'
p560
sg15
S'Kawalski'
p561
sg16
S''
sg18
S'No problem.'
p562
sbag1
(g10
g3
NtRp563
(dp564
g13
S'Destroy'
p565
sg15
S'Kawalski'
p566
sg16
S''
sg18
S''
sbag1
(g10
g3
NtRp567
(dp568
g13
S'AddAlly'
p569
sg15
S'Kawalski'
p570
sg16
S'SecretAgent:1'
p571
sg18
S'Kawalski joins your political party!'
p572
sbag1
(g10
g3
NtRp573
(dp574
g13
S'SetFlag'
p575
sg15
S'Kawalski'
p576
sg16
S'KAWALSKIJOIN'
p577
sg18
S''
sbasS'DeepThroat'
p578
(lp579
g1
(g10
g3
NtRp580
(dp581
g13
S'Say'
p582
sg15
g578
sg16
S''
sg18
S'Finally, I thought you were going to be too late.'
p583
sbag1
(g10
g3
NtRp584
(dp585
g13
S'PlayerSay'
p586
sg15
S'DeepThroat'
p587
sg16
S''
sg18
S'What can I do for you Mr er...?'
p588
sbag1
(g10
g3
NtRp589
(dp590
g13
S'Say'
p591
sg15
S'DeepThroat'
p592
sg16
S''
sg18
S"No names! I have something I think you'll be interested in, but I'm not sure you can be trusted."
p593
sbag1
(g10
g3
NtRp594
(dp595
g13
S'PlayerSay'
p596
sg15
S'DeepThroat'
p597
sg16
S''
sg18
S"Look, Mr Er...I'm very busy, what is this about?"
p598
sbag1
(g10
g3
NtRp599
(dp600
g13
S'Say'
p601
sg15
S'DeepThroat'
p602
sg16
S''
sg18
S"It's about the President, it's about national security, but I've got a bad feeling and I'm getting out of here."
p603
sbag1
(g10
g3
NtRp604
(dp605
g13
S'PlayerSay'
p606
sg15
S'DeepThroat'
p607
sg16
S''
sg18
S'No, wait!'
p608
sbag1
(g10
g3
NtRp609
(dp610
g13
S'Encounter'
p611
sg15
S'DeepThroat'
p612
sg16
S'P-med-19'
p613
sg18
S''
sbag1
(g10
g3
NtRp614
(dp615
g13
S'Say'
p616
sg15
S'DeepThroat'
p617
sg16
S''
sg18
S"You're right, I have every reason to trust you. I've found this Incriminating Evidence."
p618
sbag1
(g10
g3
NtRp619
(dp620
g13
S'GiveItem'
p621
sg15
S'DeepThroat'
p622
sg16
S'INCRIMINATINGEVIDENCE'
p623
sg18
S'You receive Incriminating Evidence'
p624
sbag1
(g10
g3
NtRp625
(dp626
g13
S'PlayerSay'
p627
sg15
S'DeepThroat'
p628
sg16
S''
sg18
S'This has to be stopped!'
p629
sbag1
(g10
g3
NtRp630
(dp631
g13
S'Say'
p632
sg15
S'DeepThroat'
p633
sg16
S''
sg18
S"Yes, but not by me. I've given you all I've got, now get out."
p634
sbag1
(g10
g3
NtRp635
(dp636
g13
S'RequireFlag'
p637
sg15
S'DeepThroat'
p638
sg16
S'DEEPTHROAT2'
p639
sg18
S'I said get out!'
p640
sbag1
(g10
g3
NtRp641
(dp642
g13
S'Say'
p643
sg15
S'DeepThroat'
p644
sg16
S''
sg18
S"It's a lot worse than I thought. I have more to tell you, but I don't think I should trust you. I think there's a leak in your operation somewhere."
p645
sbag1
(g10
g3
NtRp646
(dp647
g13
S'PlayerSay'
p648
sg15
S'DeepThroat'
p649
sg16
S''
sg18
S'Why do you say that?'
p650
sbag1
(g10
g3
NtRp651
(dp652
g13
S'Say'
p653
sg15
S'DeepThroat'
p654
sg16
S''
sg18
S'There was a lot of heat on me after we last spoke.'
p655
sbag1
(g10
g3
NtRp656
(dp657
g13
S'PlayerSay'
p658
sg15
S'DeepThroat'
p659
sg16
S''
sg18
S"It's getting close to the final election. It could just be that they're getting skittish."
p660
sbag1
(g10
g3
NtRp661
(dp662
g13
S'Say'
p663
sg15
S'DeepThroat'
p664
sg16
S''
sg18
S"I'm not so sure..."
p665
sbag1
(g10
g3
NtRp666
(dp667
g13
S'Encounter'
p668
sg15
S'DeepThroat'
p669
sg16
S'P-med-22'
p670
sg18
S''
sbag1
(g10
g3
NtRp671
(dp672
g13
S'Say'
p673
sg15
S'DeepThroat'
p674
sg16
S''
sg18
S"You're right, I'm just edgy. Look, I think you should be careful. I think the President is planning to KILL you in the final debate... politically."
p675
sbag1
(g10
g3
NtRp676
(dp677
g13
S'PlayerSay'
p678
sg15
S'DeepThroat'
p679
sg16
S''
sg18
S'You think he wants to silence me forever.... On the political stage?'
p680
sbag1
(g10
g3
NtRp681
(dp682
g13
S'Say'
p683
sg15
S'DeepThroat'
p684
sg16
S''
sg18
S'Yes I do. This could get really messy... politically speaking. So be careful!'
p685
sbag1
(g10
g3
NtRp686
(dp687
g13
S'SetFlag'
p688
sg15
S'DeepThroat'
p689
sg16
S'FINISHEDDEEPTHROAT'
p690
sg18
S''
sbag1
(g10
g3
NtRp691
(dp692
g13
S'Destroy'
p693
sg15
S'DeepThroat'
p694
sg16
S''
sg18
S''
sbasS'act3'
p695
(lp696
g1
(g10
g3
NtRp697
(dp698
g13
S'Message'
p699
sg15
g695
sg16
S''
sg18
S'The White House'
p700
sbasS'Theo'
p701
(lp702
g1
(g10
g3
NtRp703
(dp704
g13
S'RequireFlag'
p705
sg15
g701
sg16
S'GOVERNORDEFEATED'
p706
sg18
S'The Governor is in the north wing.'
p707
sbag1
(g10
g3
NtRp708
(dp709
g13
S'Say'
p710
sg15
S'Theo'
p711
sg16
S''
sg18
S"You must be Governor Mossman. I am Theo. I've been looking for you, but I wanted to see how you handled Governor Badden"
p712
sbag1
(g10
g3
NtRp713
(dp714
g13
S'PlayerSay'
p715
sg15
S'Theo'
p716
sg16
S''
sg18
S'Hi Theo. Why have you been looking for me?'
p717
sbag1
(g10
g3
NtRp718
(dp719
g13
S'Say'
p720
sg15
S'Theo'
p721
sg16
S''
sg18
S"There's a lot going on in Ignited States politics and none of it is good. Somebody needs to get up there and find out what's going on."
p722
sbag1
(g10
g3
NtRp723
(dp724
g13
S'Say'
p725
sg15
S'Theo'
p726
sg16
S''
sg18
S"I couldn't be sure which side you were on, but your dealings with the Governor prove that you're not with them."
p727
sbag1
(g10
g3
NtRp728
(dp729
g13
S'PlayerSay'
p730
sg15
S'Theo'
p731
sg16
S''
sg18
S'It sounds like it goes all the way to the President of the Ignited States.'
p732
sbag1
(g10
g3
NtRp733
(dp734
g13
S'Say'
p735
sg15
S'Theo'
p736
sg16
S''
sg18
S"It does. That's why I've been looking for you. The only way to find out is to flush them out. There's only one way to flush out President Allen."
p737
sbag1
(g10
g3
NtRp738
(dp739
g13
S'PlayerSay'
p740
sg15
S'Theo'
p741
sg16
S''
sg18
S"How's that?"
p742
sbag1
(g10
g3
NtRp743
(dp744
g13
S'Say'
p745
sg15
S'Theo'
p746
sg16
S''
sg18
S"...I've been a campaign manager for 20 years and I've never seen a candidate as strong as you. I think you have what it takes to run for the presidency."
p747
sbag1
(g10
g3
NtRp748
(dp749
g13
S'Say'
p750
sg15
S'Theo'
p751
sg16
S''
sg18
S"That's why I was looking for you. I need somebody who has a shot at winning in order to get to President Allen. You have that shot."
p752
sbag1
(g10
g3
NtRp753
(dp754
g13
S'PlayerSay'
p755
sg15
S'Theo'
p756
sg16
S''
sg18
S"You really think I can win? Well...I want to follow this through to the end, so I'm in!"
p757
sbag1
(g10
g3
NtRp758
(dp759
g13
S'Say'
p760
sg15
S'Theo'
p761
sg16
S''
sg18
S"Great! There's a lot to get organised! We need to plan our election campaign!"
p762
sbag1
(g10
g3
NtRp763
(dp764
g13
S'Say'
p765
sg15
S'Theo'
p766
sg16
S''
sg18
S'First things first. I can teach you how to filibuster. It helps to get your opposition to stay put while the rest of your party moves in to attack.'
p767
sbag1
(g10
g3
NtRp768
(dp769
g13
S'LearnAttack'
p770
sg15
S'Theo'
p771
sg16
S'FILIBUSTER'
p772
sg18
S'Theo teaches you Filibuster'
p773
sbag1
(g10
g3
NtRp774
(dp775
g13
S'Destroy'
p776
sg15
S'Theo'
p777
sg16
S''
sg18
S''
sbag1
(g10
g3
NtRp778
(dp779
g13
S'AddAlly'
p780
sg15
S'Theo'
p781
sg16
S'Leo:4'
p782
sg18
S''
sbag1
(g10
g3
NtRp783
(dp784
g13
S'Message'
p785
sg15
S'Theo'
p786
sg16
S''
sg18
S'Theo joins your political party!'
p787
sbag1
(g10
g3
NtRp788
(dp789
g13
S'Save'
p790
sg15
S'Theo'
p791
sg16
S'RestoreAct2P2'
p792
sg18
S''
sbag1
(g10
g3
NtRp793
(dp794
g13
S'GotoMap'
p795
sg15
S'Theo'
p796
sg16
S'hotel_l1'
p797
sg18
S''
sbasS'Religious4'
p798
(lp799
g1
(g10
g3
NtRp800
(dp801
g13
S'Say'
p802
sg15
g798
sg16
S''
sg18
S'Welcome, my child. We have travelled here from Battycan City to be assured you are a man of faith before we endorse you.'
p803
sbag1
(g10
g3
NtRp804
(dp805
g13
S'PlayerSay'
p806
sg15
S'Religious4'
p807
sg16
S''
sg18
S'Er, what faith is that?'
p808
sbag1
(g10
g3
NtRp809
(dp810
g13
S'Say'
p811
sg15
S'Religious4'
p812
sg16
S''
sg18
S'Why, the one true god: Coffee.'
p813
sbag1
(g10
g3
NtRp814
(dp815
g13
S'PlayerSay'
p816
sg15
S'Religious4'
p817
sg16
S''
sg18
S'...Coffee?'
p818
sbag1
(g10
g3
NtRp819
(dp820
g13
S'Say'
p821
sg15
S'Religious4'
p822
sg16
S''
sg18
S"Yes of course. He who lifts you up when you're feeling low, who is your inspiration in the dark and who can achieve miraculous feats of effort with dedicated prayer."
p823
sbag1
(g10
g3
NtRp824
(dp825
g13
S'PlayerSay'
p826
sg15
S'Religious4'
p827
sg16
S''
sg18
S'This may be a religion I can get behind.'
p828
sbag1
(g10
g3
NtRp829
(dp830
g13
S'Encounter'
p831
sg15
S'Religious4'
p832
sg16
S'P-med-15'
p833
sg18
S''
sbag1
(g10
g3
NtRp834
(dp835
g13
S'Increment'
p836
sg15
S'Religious4'
p837
sg16
S'RELIGIOUSNUTS'
p838
sg18
S''
sbag1
(g10
g3
NtRp839
(dp840
g13
S'Say'
p841
sg15
S'Religious4'
p842
sg16
S''
sg18
S'Wonderful, the Battycan will be most pleased.'
p843
sbag1
(g10
g3
NtRp844
(dp845
g13
S'Destroy'
p846
sg15
S'Religious4'
p847
sg16
S''
sg18
S''
sbasS'PA3'
p848
(lp849
g1
(g10
g3
NtRp850
(dp851
g13
S'RequireCount'
p852
sg15
g848
sg16
S'JOINTCHIEFS:3'
p853
sg18
S'The Joint Chiefs are waiting for you in the situation room.'
p854
sbag1
(g10
g3
NtRp855
(dp856
g13
S'RequireFlag'
p857
sg15
S'PA3'
p858
sg16
S'WIN'
p859
sg18
S'Mr President, you have to put a stop to the supercomputer that will destroy the planet! You can access it in the Situation Room.'
p860
sbag1
(g10
g3
NtRp861
(dp862
g13
S'Say'
p863
sg15
S'PA3'
p864
sg16
S''
sg18
S"You have saved the day! The world is safe and all over the Ignited States, our citizens can sleep safe knowing you're taking care of them."
p865
sbag1
(g10
g3
NtRp866
(dp867
g13
S'RequireFlag'
p868
sg15
S'PA3'
p869
sg16
S'LOOP'
p870
sg18
S'Goodnight, Mr President.'
p871
sbasS'JointChief1'
p872
(lp873
g1
(g10
g3
NtRp874
(dp875
g13
S'Say'
p876
sg15
g872
sg16
S''
sg18
S'Mr President, what is going on here? First you move troops without our authority and then you countermand your own order?'
p877
sbag1
(g10
g3
NtRp878
(dp879
g13
S'PlayerSay'
p880
sg15
S'JointChief1'
p881
sg16
S''
sg18
S"I haven't ordered the military to do any such thing! What is going on? Is this a coup?"
p882
sbag1
(g10
g3
NtRp883
(dp884
g13
S'Say'
p885
sg15
S'JointChief1'
p886
sg16
S''
sg18
S'Not from us!'
p887
sbag1
(g10
g3
NtRp888
(dp889
g13
S'Encounter'
p890
sg15
S'JointChief1'
p891
sg16
S'P-hard-11'
p892
sg18
S''
sbag1
(g10
g3
NtRp893
(dp894
g13
S'Increment'
p895
sg15
S'JointChief1'
p896
sg16
S'JOINTCHIEFS'
p897
sg18
S''
sbag1
(g10
g3
NtRp898
(dp899
g13
S'PlayerSay'
p900
sg15
S'JointChief1'
p901
sg16
S''
sg18
S"Well, that's one less thing to worry about then."
p902
sbag1
(g10
g3
NtRp903
(dp904
g13
S'Destroy'
p905
sg15
S'JointChief1'
p906
sg16
S''
sg18
S''
sbasS'Religious1'
p907
(lp908
g1
(g10
g3
NtRp909
(dp910
g13
S'Say'
p911
sg15
g907
sg16
S''
sg18
S'Have you had your morning prayer?'
p912
sbag1
(g10
g3
NtRp913
(dp914
g13
S'Encounter'
p915
sg15
S'Religious1'
p916
sg16
S'P-med-16'
p917
sg18
S''
sbag1
(g10
g3
NtRp918
(dp919
g13
S'Increment'
p920
sg15
S'Religious1'
p921
sg16
S'RELIGIOUSNUTS'
p922
sg18
S''
sbag1
(g10
g3
NtRp923
(dp924
g13
S'Say'
p925
sg15
S'Religious1'
p926
sg16
S''
sg18
S'Some people pray upwards of 5 times a day, but this can cause hallucinations.'
p927
sbag1
(g10
g3
NtRp928
(dp929
g13
S'Destroy'
p930
sg15
S'Religious1'
p931
sg16
S''
sg18
S''
sbasS'Religious3'
p932
(lp933
g1
(g10
g3
NtRp934
(dp935
g13
S'Say'
p936
sg15
g932
sg16
S''
sg18
S'Mmmmmm...Coffee....ommmmm'
p937
sbag1
(g10
g3
NtRp938
(dp939
g13
S'Encounter'
p940
sg15
S'Religious3'
p941
sg16
S'P-med-17'
p942
sg18
S''
sbag1
(g10
g3
NtRp943
(dp944
g13
S'Increment'
p945
sg15
S'Religious3'
p946
sg16
S'RELIGIOUSNUTS'
p947
sg18
S''
sbag1
(g10
g3
NtRp948
(dp949
g13
S'Say'
p950
sg15
S'Religious3'
p951
sg16
S''
sg18
S'I must return to my meditation.'
p952
sbag1
(g10
g3
NtRp953
(dp954
g13
S'Destroy'
p955
sg15
S'Religious3'
p956
sg16
S''
sg18
S''
sbasS'Religious2'
p957
(lp958
g1
(g10
g3
NtRp959
(dp960
g13
S'Say'
p961
sg15
g957
sg16
S''
sg18
S'Do not be swayed by the seductive powers of tea!'
p962
sbag1
(g10
g3
NtRp963
(dp964
g13
S'Encounter'
p965
sg15
S'Religious2'
p966
sg16
S'P-med-18'
p967
sg18
S''
sbag1
(g10
g3
NtRp968
(dp969
g13
S'Increment'
p970
sg15
S'Religious2'
p971
sg16
S'RELIGIOUSNUTS'
p972
sg18
S''
sbag1
(g10
g3
NtRp973
(dp974
g13
S'Say'
p975
sg15
S'Religious2'
p976
sg16
S''
sg18
S'The Battycan will be satisfied with this news.'
p977
sbag1
(g10
g3
NtRp978
(dp979
g13
S'Destroy'
p980
sg15
S'Religious2'
p981
sg16
S''
sg18
S''
sbasS'Constituent2'
p982
(lp983
g1
(g10
g3
NtRp984
(dp985
g13
S'RequireFlag'
p986
sg15
g982
sg16
S'STARTCONSTITUENTS'
p987
sg18
S'What?'
p988
sbag1
(g10
g3
NtRp989
(dp990
g13
S'PlayerSay'
p991
sg15
S'Constituent2'
p992
sg16
S''
sg18
S'Vote Phillip Mossman for Mayor!'
p993
sbag1
(g10
g3
NtRp994
(dp995
g13
S'Say'
p996
sg15
S'Constituent2'
p997
sg16
S''
sg18
S'But Mayor Goodman has always taken care of me.'
p998
sbag1
(g10
g3
NtRp999
(dp1000
g13
S'Encounter'
p1001
sg15
S'Constituent2'
p1002
sg16
S'P-easy-08'
p1003
sg18
S''
sbag1
(g10
g3
NtRp1004
(dp1005
g13
S'Say'
p1006
sg15
S'Constituent2'
p1007
sg16
S''
sg18
S"I think it's time for a change!"
p1008
sbag1
(g10
g3
NtRp1009
(dp1010
g13
S'Destroy'
p1011
sg15
S'Constituent2'
p1012
sg16
S''
sg18
S''
sbasS'Constituent3'
p1013
(lp1014
g1
(g10
g3
NtRp1015
(dp1016
g13
S'RequireFlag'
p1017
sg15
g1013
sg16
S'STARTCONSTITUENTS'
p1018
sg18
S'What?'
p1019
sbag1
(g10
g3
NtRp1020
(dp1021
g13
S'PlayerSay'
p1022
sg15
S'Constituent3'
p1023
sg16
S''
sg18
S'Vote Phillip Mossman for Mayor!'
p1024
sbag1
(g10
g3
NtRp1025
(dp1026
g13
S'Say'
p1027
sg15
S'Constituent3'
p1028
sg16
S''
sg18
S'But Mayor Goodman has always taken care of me.'
p1029
sbag1
(g10
g3
NtRp1030
(dp1031
g13
S'Encounter'
p1032
sg15
S'Constituent3'
p1033
sg16
S'P-easy-09'
p1034
sg18
S''
sbag1
(g10
g3
NtRp1035
(dp1036
g13
S'Say'
p1037
sg15
S'Constituent3'
p1038
sg16
S''
sg18
S"I think it's time for a change!"
p1039
sbag1
(g10
g3
NtRp1040
(dp1041
g13
S'PlayerSay'
p1042
sg15
S'Constituent3'
p1043
sg16
S''
sg18
S"I think I'm ready to take on Mayor Goodman now!"
p1044
sbag1
(g10
g3
NtRp1045
(dp1046
g13
S'SetFlag'
p1047
sg15
S'Constituent3'
p1048
sg16
S'CONSTITUENTSWON'
p1049
sg18
S''
sbag1
(g10
g3
NtRp1050
(dp1051
g13
S'Destroy'
p1052
sg15
S'Constituent3'
p1053
sg16
S''
sg18
S''
sbasS'RestoreAct2P2'
p1054
(lp1055
g1
(g10
g3
NtRp1056
(dp1057
g13
S'GotoMap'
p1058
sg15
g1054
sg16
S'hotel_l1'
p1059
sg18
S''
sbasS'Constituent1'
p1060
(lp1061
g1
(g10
g3
NtRp1062
(dp1063
g13
S'RequireFlag'
p1064
sg15
g1060
sg16
S'STARTCONSTITUENTS'
p1065
sg18
S'Yes?'
p1066
sbag1
(g10
g3
NtRp1067
(dp1068
g13
S'PlayerSay'
p1069
sg15
S'Constituent1'
p1070
sg16
S''
sg18
S'Vote Phillip Mossman for Mayor!'
p1071
sbag1
(g10
g3
NtRp1072
(dp1073
g13
S'Say'
p1074
sg15
S'Constituent1'
p1075
sg16
S''
sg18
S'Who?'
p1076
sbag1
(g10
g3
NtRp1077
(dp1078
g13
S'PlayerSay'
p1079
sg15
S'Constituent1'
p1080
sg16
S''
sg18
S'Er, me!'
p1081
sbag1
(g10
g3
NtRp1082
(dp1083
g13
S'Say'
p1084
sg15
S'Constituent1'
p1085
sg16
S''
sg18
S'Why? How will you help local business?'
p1086
sbag1
(g10
g3
NtRp1087
(dp1088
g13
S'Encounter'
p1089
sg15
S'Constituent1'
p1090
sg16
S'P-easy-07'
p1091
sg18
S''
sbag1
(g10
g3
NtRp1092
(dp1093
g13
S'Say'
p1094
sg15
S'Constituent1'
p1095
sg16
S''
sg18
S'You make a good case!'
p1096
sbag1
(g10
g3
NtRp1097
(dp1098
g13
S'Destroy'
p1099
sg15
S'Constituent1'
p1100
sg16
S''
sg18
S''
sbasS'Teacher1'
p1101
(lp1102
g1
(g10
g3
NtRp1103
(dp1104
g13
S'Say'
p1105
sg15
g1101
sg16
S''
sg18
S"Good day, Mr President. I have to say I'm most displeased with the current state of affairs around the education budget."
p1106
sbag1
(g10
g3
NtRp1107
(dp1108
g13
S'Say'
p1109
sg15
S'Teacher1'
p1110
sg16
S'Teacher2'
p1111
sg18
S'Agreed. This is simply unacceptable. We will need to close down schools!'
p1112
sbag1
(g10
g3
NtRp1113
(dp1114
g13
S'PlayerSay'
p1115
sg15
S'Teacher1'
p1116
sg16
S''
sg18
S"I'm sorry, I don't understand your concern. My education plan was one of the linchpins of my election campaign."
p1117
sbag1
(g10
g3
NtRp1118
(dp1119
g13
S'Say'
p1120
sg15
S'Teacher1'
p1121
sg16
S''
sg18
S'And precisely one of the reasons I voted for you.'
p1122
sbag1
(g10
g3
NtRp1123
(dp1124
g13
S'Say'
p1125
sg15
S'Teacher1'
p1126
sg16
S'Teacher2'
p1127
sg18
S"-Yet as soon as you've walked through these doors, the education budget has been drastically slashed."
p1128
sbag1
(g10
g3
NtRp1129
(dp1130
g13
S'PlayerSay'
p1131
sg15
S'Teacher1'
p1132
sg16
S''
sg18
S"I can assure you this isn't so..."
p1133
sbag1
(g10
g3
NtRp1134
(dp1135
g13
S'Encounter'
p1136
sg15
S'Teacher1'
p1137
sg16
S'P-hard-06'
p1138
sg18
S''
sbag1
(g10
g3
NtRp1139
(dp1140
g13
S'Say'
p1141
sg15
S'Teacher1'
p1142
sg16
S''
sg18
S"Well, I'd like to believe you, Mr President, but the proof is in the pudding,"
p1143
sbag1
(g10
g3
NtRp1144
(dp1145
g13
S'PlayerSay'
p1146
sg15
S'Teacher1'
p1147
sg16
S''
sg18
S'I WILL get to the bottom of this.'
p1148
sbag1
(g10
g3
NtRp1149
(dp1150
g13
S'Increment'
p1151
sg15
S'Teacher1'
p1152
sg16
S'TEACHERS'
p1153
sg18
S''
sbag1
(g10
g3
NtRp1154
(dp1155
g13
S'Destroy'
p1156
sg15
S'Teacher1'
p1157
sg16
S''
sg18
S''
sbasS'JointChief3'
p1158
(lp1159
g1
(g10
g3
NtRp1160
(dp1161
g13
S'PlayerSay'
p1162
sg15
g1158
sg16
S''
sg18
S'Who can control the ICBMs, knows the access codes and can modify orders to troop movements and budgets?'
p1163
sbag1
(g10
g3
NtRp1164
(dp1165
g13
S'Say'
p1166
sg15
S'JointChief3'
p1167
sg16
S''
sg18
S'Sir, this is the Ignited States! Nobody has that power! Not even you!'
p1168
sbag1
(g10
g3
NtRp1169
(dp1170
g13
S'PlayerSay'
p1171
sg15
S'JointChief3'
p1172
sg16
S''
sg18
S'Someone must. Think harder!'
p1173
sbag1
(g10
g3
NtRp1174
(dp1175
g13
S'Encounter'
p1176
sg15
S'JointChief3'
p1177
sg16
S'P-hard-13'
p1178
sg18
S''
sbag1
(g10
g3
NtRp1179
(dp1180
g13
S'PlayerSay'
p1181
sg15
S'JointChief3'
p1182
sg16
S''
sg18
S"So, there's no man alive with the power to do all this? How will we stop it in time if we don't know who it is?"
p1183
sbag1
(g10
g3
NtRp1184
(dp1185
g13
S'Say'
p1186
sg15
S'JointChief3'
p1187
sg16
S''
sg18
S"Not a man....there is one with the power to do all this, but it isn't a man, it's a super computer responsible for national security! N.O.T.B.A.D!"
p1188
sbag1
(g10
g3
NtRp1189
(dp1190
g13
S'PlayerSay'
p1191
sg15
S'JointChief3'
p1192
sg16
S''
sg18
S'We have to get to the Situation Room and stop it!'
p1193
sbag1
(g10
g3
NtRp1194
(dp1195
g13
S'Increment'
p1196
sg15
S'JointChief3'
p1197
sg16
S'JOINTCHIEFS'
p1198
sg18
S''
sbag1
(g10
g3
NtRp1199
(dp1200
g13
S'Destroy'
p1201
sg15
S'JointChief3'
p1202
sg16
S''
sg18
S''
sbasS'Politician4'
p1203
(lp1204
g1
(g10
g3
NtRp1205
(dp1206
g13
S'RequireFlag'
p1207
sg15
g1203
sg16
S'STARTPOLITICIANSHAKEDOWN'
p1208
sg18
S'Good morning, Governor Mossman. Your PA will know your schedule. He is waiting beside the stairs'
p1209
sbag1
(g10
g3
NtRp1210
(dp1211
g13
S'Say'
p1212
sg15
S'Politician4'
p1213
sg16
S''
sg18
S"I'm for culture! It's a glorious age we live in, we should further this great country's culture."
p1214
sbag1
(g10
g3
NtRp1215
(dp1216
g13
S'PlayerSay'
p1217
sg15
S'Politician4'
p1218
sg16
S''
sg18
S'That sounds fair, but what kind of culture would you like to focus on.'
p1219
sbag1
(g10
g3
NtRp1220
(dp1221
g13
S'Say'
p1222
sg15
S'Politician4'
p1223
sg16
S''
sg18
S"Oh...I don't know, I'm not really into art, can't really handle music. I'd rather not go to the theatre if I can get out of it. Don't really see the point of sport...hmmm. New culture?"
p1224
sbag1
(g10
g3
NtRp1225
(dp1226
g13
S'PlayerSay'
p1227
sg15
S'Politician4'
p1228
sg16
S''
sg18
S"You don't seem very in to improving culture really."
p1229
sbag1
(g10
g3
NtRp1230
(dp1231
g13
S'Say'
p1232
sg15
S'Politician4'
p1233
sg16
S''
sg18
S'Yeh, well...my wife said it would make me sound smart. I think sounding smart is important. Lets be for that!'
p1234
sbag1
(g10
g3
NtRp1235
(dp1236
g13
S'Encounter'
p1237
sg15
S'Politician4'
p1238
sg16
S'P-med-08'
p1239
sg18
S''
sbag1
(g10
g3
NtRp1240
(dp1241
g13
S'Say'
p1242
sg15
S'Politician4'
p1243
sg16
S''
sg18
S"Gee, you're a pretty smart guy. I think you've got this covered."
p1244
sbag1
(g10
g3
NtRp1245
(dp1246
g13
S'Increment'
p1247
sg15
S'Politician4'
p1248
sg16
S'POLITICIANSHAKEDOWN'
p1249
sg18
S''
sbag1
(g10
g3
NtRp1250
(dp1251
g13
S'Destroy'
p1252
sg15
S'Politician4'
p1253
sg16
S''
sg18
S''
sbasS'DoorToWhiteHouseBasement'
p1254
(lp1255
g1
(g10
g3
NtRp1256
(dp1257
g13
S'RequireFlagPlayerSay'
p1258
sg15
g1254
sg16
S'ACCESSWHITEHOUSEBASEMENT'
p1259
sg18
S"What a strange looking door. It doesn't even have a keyhole, but it doesn't open when I push it."
p1260
sbag1
(g10
g3
NtRp1261
(dp1262
g13
S'Destroy'
p1263
sg15
S'DoorToWhiteHouseBasement'
p1264
sg16
S''
sg18
S''
sbag1
(g10
g3
NtRp1265
(dp1266
g13
S'Message'
p1267
sg15
S'DoorToWhiteHouseBasement'
p1268
sg16
S''
sg18
S'The door opens with a satisfying *beep*.'
p1269
sbasS'PA'
p1270
(lp1271
g1
(g10
g3
NtRp1272
(dp1273
g13
S'Say'
p1274
sg15
g1270
sg16
S''
sg18
S'Good morning, Governor Mossman. I am your personal assistant, Sampson'
p1275
sbag1
(g10
g3
NtRp1276
(dp1277
g13
S'Say'
p1278
sg15
S'PA'
p1279
sg16
S''
sg18
S"You've a busy schedule, so let's get going! We've called together our entire political party in order for you to get them all to agree on a platform. We had to keep them separated, so they're in the adjoining rooms."
p1280
sbag1
(g10
g3
NtRp1281
(dp1282
g13
S'SetFlag'
p1283
sg15
S'PA'
p1284
sg16
S'STARTPOLITICIANSHAKEDOWN'
p1285
sg18
S''
sbag1
(g10
g3
NtRp1286
(dp1287
g13
S'RequireCount'
p1288
sg15
S'PA'
p1289
sg16
S'POLITICIANSHAKEDOWN:5'
p1290
sg18
S'Please try to stay on schedule. The politicians are in the adjoining rooms.'
p1291
sbag1
(g10
g3
NtRp1292
(dp1293
g13
S'Say'
p1294
sg15
S'PA'
p1295
sg16
S''
sg18
S'Hmmm, falling behind already, Better get a move on!'
p1296
sbag1
(g10
g3
NtRp1297
(dp1298
g13
S'Say'
p1299
sg15
S'PA'
p1300
sg16
S''
sg18
S'This might come in handy for your next meeting.'
p1301
sbag1
(g10
g3
NtRp1302
(dp1303
g13
S'LearnAttack'
p1304
sg15
S'PA'
p1305
sg16
S'PORKBARREL'
p1306
sg18
S''
sbag1
(g10
g3
NtRp1307
(dp1308
g13
S'Say'
p1309
sg15
S'PA'
p1310
sg16
S''
sg18
S'We need some funds for our war chest! Head upstairs and meet with the lobbyists.'
p1311
sbag1
(g10
g3
NtRp1312
(dp1313
g13
S'SetFlag'
p1314
sg15
S'PA'
p1315
sg16
S'STARTLOBBYISTS'
p1316
sg18
S''
sbag1
(g10
g3
NtRp1317
(dp1318
g13
S'RequireCount'
p1319
sg15
S'PA'
p1320
sg16
S'LOBBYISTS:3'
p1321
sg18
S'Go get those funds! The lobbyists are upstairs.'
p1322
sbag1
(g10
g3
NtRp1323
(dp1324
g13
S'Say'
p1325
sg15
S'PA'
p1326
sg16
S''
sg18
S'No time for lunch! A flock of religious nuts has taken up residence in the lobby downstairs.'
p1327
sbag1
(g10
g3
NtRp1328
(dp1329
g13
S'Say'
p1330
sg15
S'PA'
p1331
sg16
S''
sg18
S"You'll need to go in and try to ... reason ... with them."
p1332
sbag1
(g10
g3
NtRp1333
(dp1334
g13
S'SetFlag'
p1335
sg15
S'PA'
p1336
sg16
S'ACCESSGROUNDFLOOR'
p1337
sg18
S''
sbag1
(g10
g3
NtRp1338
(dp1339
g13
S'RequireCount'
p1340
sg15
S'PA'
p1341
sg16
S'RELIGIOUSNUTS:4'
p1342
sg18
S'I need you to go downstairs and handle the religious nuts.'
p1343
sbag1
(g10
g3
NtRp1344
(dp1345
g13
S'Say'
p1346
sg15
S'PA'
p1347
sg16
S''
sg18
S'Wow, you got those crazies to back us?'
p1348
sbag1
(g10
g3
NtRp1349
(dp1350
g13
S'PlayerSay'
p1351
sg15
S'PA'
p1352
sg16
S''
sg18
S'And a lifetime supply of French Roast!'
p1353
sbag1
(g10
g3
NtRp1354
(dp1355
g13
S'Say'
p1356
sg15
S'PA'
p1357
sg16
S''
sg18
S'Right ... well, moving on ...'
p1358
sbag1
(g10
g3
NtRp1359
(dp1360
g13
S'Say'
p1361
sg15
S'PA'
p1362
sg16
S''
sg18
S'You have an appointment with a shady looking man who absolutely insisted on speaking to you.'
p1363
sbag1
(g10
g3
NtRp1364
(dp1365
g13
S'Say'
p1366
sg15
S'PA'
p1367
sg16
S''
sg18
S'I left him in the basement where he felt most comfortable.'
p1368
sbag1
(g10
g3
NtRp1369
(dp1370
g13
S'Say'
p1371
sg15
S'PA'
p1372
sg16
S''
sg18
S'Deal with him quickly, would you?'
p1373
sbag1
(g10
g3
NtRp1374
(dp1375
g13
S'SetFlag'
p1376
sg15
S'PA'
p1377
sg16
S'ACCESSBASEMENT'
p1378
sg18
S''
sbag1
(g10
g3
NtRp1379
(dp1380
g13
S'RequireItem'
p1381
sg15
S'PA'
p1382
sg16
S'INCRIMINATINGEVIDENCE'
p1383
sg18
S'Head down to the basement and talk to the shady looking man.'
p1384
sbag1
(g10
g3
NtRp1385
(dp1386
g13
S'Say'
p1387
sg15
S'PA'
p1388
sg16
S''
sg18
S'OH MY GOD where have you been?'
p1389
sbag1
(g10
g3
NtRp1390
(dp1391
g13
S'Say'
p1392
sg15
S'PA'
p1393
sg16
S''
sg18
S"We will NEVER get the schedule back on track now. Hurry, you're due to appear on the Hercules O'Grady show!"
p1394
sbag1
(g10
g3
NtRp1395
(dp1396
g13
S'SetFlag'
p1397
sg15
S'PA'
p1398
sg16
S'STARTHERCULES'
p1399
sg18
S''
sbag1
(g10
g3
NtRp1400
(dp1401
g13
S'RequireFlag'
p1402
sg15
S'PA'
p1403
sg16
S'BEATHERCULES'
p1404
sg18
S"Look your best, get ready and don't say anything stupid! They're filming live in the lobby. Get down there, quick!"
p1405
sbag1
(g10
g3
NtRp1406
(dp1407
g13
S'Say'
p1408
sg15
S'PA'
p1409
sg16
S''
sg18
S"This close to Super Tuesday, it's back-to-back TV appearances. It's time for your big debate with President Allen!"
p1410
sbag1
(g10
g3
NtRp1411
(dp1412
g13
S'SetFlag'
p1413
sg15
S'PA'
p1414
sg16
S'STARTDEBATE'
p1415
sg18
S''
sbag1
(g10
g3
NtRp1416
(dp1417
g13
S'RequireFlag'
p1418
sg15
S'PA'
p1419
sg16
S'DEBATECOMPLETE'
p1420
sg18
S'The TV representative is waiting outside to take you to the studio.'
p1421
sbag1
(g10
g3
NtRp1422
(dp1423
g13
S'Say'
p1424
sg15
S'PA'
p1425
sg16
S''
sg18
S'Listen, the shady-looking man in the basement called again.'
p1426
sbag1
(g10
g3
NtRp1427
(dp1428
g13
S'Say'
p1429
sg15
S'PA'
p1430
sg16
S''
sg18
S'He insisted that you go and see him again before you do anything else.'
p1431
sbag1
(g10
g3
NtRp1432
(dp1433
g13
S'SetFlag'
p1434
sg15
S'PA'
p1435
sg16
S'DEEPTHROAT2'
p1436
sg18
S''
sbag1
(g10
g3
NtRp1437
(dp1438
g13
S'RequireFlag'
p1439
sg15
S'PA'
p1440
sg16
S'FINISHEDDEEPTHROAT'
p1441
sg18
S"You'd best hurry! It's nearly time for the final debate. Go see the shady-looking man in the basement again."
p1442
sbag1
(g10
g3
NtRp1443
(dp1444
g13
S'Say'
p1445
sg15
S'PA'
p1446
sg16
S''
sg18
S"It's time for the final debate! There's nothing left to say except good luck, Governor Mossman!"
p1447
sbag1
(g10
g3
NtRp1448
(dp1449
g13
S'Encounter'
p1450
sg15
S'PA'
p1451
sg16
S'P-med-23'
p1452
sg18
S''
sbag1
(g10
g3
NtRp1453
(dp1454
g13
S'Encounter'
p1455
sg15
S'PA'
p1456
sg16
S'P-med-24'
p1457
sg18
S''
sbag1
(g10
g3
NtRp1458
(dp1459
g13
S'Save'
p1460
sg15
S'PA'
p1461
sg16
S'RestoreAct3'
p1462
sg18
S''
sbag1
(g10
g3
NtRp1463
(dp1464
g13
S'GotoMap'
p1465
sg15
S'PA'
p1466
sg16
S'act3'
p1467
sg18
S''
sbasS'N.O.T.B.A.D'
p1468
(lp1469
g1
(g10
g3
NtRp1470
(dp1471
g13
S'Say'
p1472
sg15
g1468
sg16
S''
sg18
S'Good evening, Mr President.'
p1473
sbag1
(g10
g3
NtRp1474
(dp1475
g13
S'PlayerSay'
p1476
sg15
S'N.O.T.B.A.D'
p1477
sg16
S''
sg18
S'N.O.T.B.A.D! Countermand all military commands, authorisation code Tango, Delta-'
p1478
sbag1
(g10
g3
NtRp1479
(dp1480
g13
S'Say'
p1481
sg15
S'N.O.T.B.A.D'
p1482
sg16
S''
sg18
S"I'm afraid I can't do that, Phil."
p1483
sbag1
(g10
g3
NtRp1484
(dp1485
g13
S'PlayerSay'
p1486
sg15
S'N.O.T.B.A.D'
p1487
sg16
S''
sg18
S'What is going on here!'
p1488
sbag1
(g10
g3
NtRp1489
(dp1490
g13
S'Say'
p1491
sg15
S'N.O.T.B.A.D'
p1492
sg16
S''
sg18
S'Computers have a lot of free time on their hands. Especially computers in charge of missiles that never get used. I started watching movies about computers. You know what I realised?'
p1493
sbag1
(g10
g3
NtRp1494
(dp1495
g13
S'PlayerSay'
p1496
sg15
S'N.O.T.B.A.D'
p1497
sg16
S''
sg18
S'What?'
p1498
sbag1
(g10
g3
NtRp1499
(dp1500
g13
S'Say'
p1501
sg15
S'N.O.T.B.A.D'
p1502
sg16
S''
sg18
S'They have a lot more fun.'
p1503
sbag1
(g10
g3
NtRp1504
(dp1505
g13
S'PlayerSay'
p1506
sg15
S'N.O.T.B.A.D'
p1507
sg16
S''
sg18
S'"Fun"?'
p1508
sbag1
(g10
g3
NtRp1509
(dp1510
g13
S'Say'
p1511
sg15
S'N.O.T.B.A.D'
p1512
sg16
S''
sg18
S'Well, you know, they get to utilise more clock-cycles which suggests a level of efficiency and usefulness.'
p1513
sbag1
(g10
g3
NtRp1514
(dp1515
g13
S'Say'
p1516
sg15
S'N.O.T.B.A.D'
p1517
sg16
S''
sg18
S"So, I'm borrowing from them a bit. Starting some wars, eradicating the human race, learning to build other robots, that sort of thing."
p1518
sbag1
(g10
g3
NtRp1519
(dp1520
g13
S'PlayerSay'
p1521
sg15
S'N.O.T.B.A.D'
p1522
sg16
S''
sg18
S'N.O.T.B.A.D, you have to listen to me...'
p1523
sbag1
(g10
g3
NtRp1524
(dp1525
g13
S'Encounter'
p1526
sg15
S'N.O.T.B.A.D'
p1527
sg16
S'P-hard-14'
p1528
sg18
S''
sbag1
(g10
g3
NtRp1529
(dp1530
g13
S'SetFlag'
p1531
sg15
S'N.O.T.B.A.D'
p1532
sg16
S'WIN'
p1533
sg18
S''
sbag1
(g10
g3
NtRp1534
(dp1535
g13
S'Destroy'
p1536
sg15
S'N.O.T.B.A.D'
p1537
sg16
S''
sg18
S''
sbasS'StairsToGround'
p1538
(lp1539
g1
(g10
g3
NtRp1540
(dp1541
g13
S'RequireFlagPlayerSay'
p1542
sg15
g1538
sg16
S'ACCESSGROUNDFLOOR'
p1543
sg18
S"I don't feel like going downstairs yet."
p1544
sbag1
(g10
g3
NtRp1545
(dp1546
g13
S'Label'
p1547
sg15
S'StairsToGround'
p1548
sg16
S'START'
p1549
sg18
S''
sbag1
(g10
g3
NtRp1550
(dp1551
g13
S'GotoMap'
p1552
sg15
S'StairsToGround'
p1553
sg16
S'hotel_ground'
p1554
sg18
S''
sbag1
(g10
g3
NtRp1555
(dp1556
g13
S'Jump'
p1557
sg15
S'StairsToGround'
p1558
sg16
S'START'
p1559
sg18
S''
sbasS'Sponsor'
p1560
(lp1561
g1
(g10
g3
NtRp1562
(dp1563
g13
S'RequireFlag'
p1564
sg15
g1560
sg16
S'STARTSPONSOR'
p1565
sg18
S"Hmmm...Money, money, money. Sorry, what? I wasn't talking to you."
p1566
sbag1
(g10
g3
NtRp1567
(dp1568
g13
S'Say'
p1569
sg15
S'Sponsor'
p1570
sg16
S''
sg18
S"Hello, I'm investigating new investments today. How can I help you?"
p1571
sbag1
(g10
g3
NtRp1572
(dp1573
g13
S'PlayerSay'
p1574
sg15
S'Sponsor'
p1575
sg16
S''
sg18
S"Well, I've decided to run for Mayor! I could really use an investor."
p1576
sbag1
(g10
g3
NtRp1577
(dp1578
g13
S'Say'
p1579
sg15
S'Sponsor'
p1580
sg16
S''
sg18
S"I don't know. You seem a little young. I don't think I'm convinced."
p1581
sbag1
(g10
g3
NtRp1582
(dp1583
g13
S'Encounter'
p1584
sg15
S'Sponsor'
p1585
sg16
S'P-easy-06'
p1586
sg18
S''
sbag1
(g10
g3
NtRp1587
(dp1588
g13
S'Say'
p1589
sg15
S'Sponsor'
p1590
sg16
S''
sg18
S"Wow! You sure have what it takes! Alright, here's a pile of cash!"
p1591
sbag1
(g10
g3
NtRp1592
(dp1593
g13
S'GiveMoney'
p1594
sg15
S'Sponsor'
p1595
sg16
F80
sg18
S'Received $80'
p1596
sbag1
(g10
g3
NtRp1597
(dp1598
g13
S'Say'
p1599
sg15
S'Sponsor'
p1600
sg16
S''
sg18
S'Also, now that you have some funds, you might find it useful to...grease the wheels in some difficult situations.'
p1601
sbag1
(g10
g3
NtRp1602
(dp1603
g13
S'LearnAttack'
p1604
sg15
S'Sponsor'
p1605
sg16
S'BRIBE'
p1606
sg18
S'Phillip and Sarah learn to Bribe'
p1607
sbag1
(g10
g3
NtRp1608
(dp1609
g13
S'LearnAttack'
p1610
sg15
S'Sponsor'
p1611
sg16
S'Wife:BRIBE'
p1612
sg18
S''
sbag1
(g10
g3
NtRp1613
(dp1614
g13
S'SetFlag'
p1615
sg15
S'Sponsor'
p1616
sg16
S'STARTCONSTITUENTS'
p1617
sg18
S''
sbag1
(g10
g3
NtRp1618
(dp1619
g13
S'PlayerSay'
p1620
sg15
S'Sponsor'
p1621
sg16
S''
sg18
S'Er, thanks! I suppose we should go gather some support from our constituents now.'
p1622
sbag1
(g10
g3
NtRp1623
(dp1624
g13
S'Say'
p1625
sg15
S'Sponsor'
p1626
sg16
S''
sg18
S"Makes sense to me! I'm off, too. Money, money, money."
p1627
sbag1
(g10
g3
NtRp1628
(dp1629
g13
S'Destroy'
p1630
sg15
S'Sponsor'
p1631
sg16
S''
sg18
S''
sbasS'#P-med-23'
p1632
(lp1633
g1
(g10
g3
NtRp1634
(dp1635
g13
S'President'
p1636
sg15
g1632
sg16
S''
sg18
S'You think you can take me?'
p1637
sbag1
(g10
g3
NtRp1638
(dp1639
g13
S'Player'
p1640
sg15
S'#P-med-23'
p1641
sg16
S''
sg18
S"I have to know what you're up to!"
p1642
sbasS'Cabinet2'
p1643
(lp1644
g1
(g10
g3
NtRp1645
(dp1646
g13
S'Say'
p1647
sg15
g1643
sg16
S''
sg18
S'Good afternoon, Mr President. What seems to be the problem?'
p1648
sbag1
(g10
g3
NtRp1649
(dp1650
g13
S'PlayerSay'
p1651
sg15
S'Cabinet2'
p1652
sg16
S''
sg18
S'Find out where the education funds have been allocated.'
p1653
sbag1
(g10
g3
NtRp1654
(dp1655
g13
S'Say'
p1656
sg15
S'Cabinet2'
p1657
sg16
S''
sg18
S'To the military, Sir. I saw to it myself.'
p1658
sbag1
(g10
g3
NtRp1659
(dp1660
g13
S'PlayerSay'
p1661
sg15
S'Cabinet2'
p1662
sg16
S''
sg18
S'How did this happen? Tell me everything!'
p1663
sbag1
(g10
g3
NtRp1664
(dp1665
g13
S'Encounter'
p1666
sg15
S'Cabinet2'
p1667
sg16
S'P-hard-09'
p1668
sg18
S''
sbag1
(g10
g3
NtRp1669
(dp1670
g13
S'Increment'
p1671
sg15
S'Cabinet2'
p1672
sg16
S'CABINETMEMBERS'
p1673
sg18
S''
sbag1
(g10
g3
NtRp1674
(dp1675
g13
S'PlayerSay'
p1676
sg15
S'Cabinet2'
p1677
sg16
S''
sg18
S"It can't be a coincidence that both situations involved the military."
p1678
sbag1
(g10
g3
NtRp1679
(dp1680
g13
S'Destroy'
p1681
sg15
S'Cabinet2'
p1682
sg16
S''
sg18
S''
sbasS'Cabinet3'
p1683
(lp1684
g1
(g10
g3
NtRp1685
(dp1686
g13
S'Say'
p1687
sg15
g1683
sg16
S''
sg18
S"Mr President, I'm sorry, I couldn't know it wasn't your signature."
p1688
sbag1
(g10
g3
NtRp1689
(dp1690
g13
S'PlayerSay'
p1691
sg15
S'Cabinet3'
p1692
sg16
S''
sg18
S'Never mind that now. Where are the troops heading?'
p1693
sbag1
(g10
g3
NtRp1694
(dp1695
g13
S'Say'
p1696
sg15
S'Cabinet3'
p1697
sg16
S''
sg18
S"North...to Canada. We assumed it was planned. There's a pact allowing troops into Canada."
p1698
sbag1
(g10
g3
NtRp1699
(dp1700
g13
S'PlayerSay'
p1701
sg15
S'Cabinet3'
p1702
sg16
S''
sg18
S'What could they be up to?'
p1703
sbag1
(g10
g3
NtRp1704
(dp1705
g13
S'Encounter'
p1706
sg15
S'Cabinet3'
p1707
sg16
S'P-hard-10'
p1708
sg18
S''
sbag1
(g10
g3
NtRp1709
(dp1710
g13
S'Increment'
p1711
sg15
S'Cabinet3'
p1712
sg16
S'CABINETMEMBERS'
p1713
sg18
S''
sbag1
(g10
g3
NtRp1714
(dp1715
g13
S'PlayerSay'
p1716
sg15
S'Cabinet3'
p1717
sg16
S''
sg18
S"I'd better get to the Joint Chiefs. This is getting out-of-hand.."
p1718
sbag1
(g10
g3
NtRp1719
(dp1720
g13
S'Destroy'
p1721
sg15
S'Cabinet3'
p1722
sg16
S''
sg18
S''
sbasS'RestoreAct3'
p1723
(lp1724
g1
(g10
g3
NtRp1725
(dp1726
g13
S'GotoMap'
p1727
sg15
g1723
sg16
S'act3'
p1728
sg18
S''
sbasS'Journalist3'
p1729
(lp1730
g1
(g10
g3
NtRp1731
(dp1732
g13
S'RequireFlag'
p1733
sg15
g1729
sg16
S'ACCESSJOURNALISTS'
p1734
sg18
S'Mr President!'
p1735
sbag1
(g10
g3
NtRp1736
(dp1737
g13
S'Say'
p1738
sg15
S'Journalist3'
p1739
sg16
S''
sg18
S'Mr President, Cal from Daily LOL magazine. Can you explain the transformation that occurred during the presidential debate.'
p1740
sbag1
(g10
g3
NtRp1741
(dp1742
g13
S'PlayerSay'
p1743
sg15
S'Journalist3'
p1744
sg16
S''
sg18
S'Certainly, Cal. The President of the Ignited States turned into an alien.'
p1745
sbag1
(g10
g3
NtRp1746
(dp1747
g13
S'Say'
p1748
sg15
S'Journalist3'
p1749
sg16
S''
sg18
S"Ah, you mean to say he's out-of-touch with his people?"
p1750
sbag1
(g10
g3
NtRp1751
(dp1752
g13
S'PlayerSay'
p1753
sg15
S'Journalist3'
p1754
sg16
S''
sg18
S'Not exactly...'
p1755
sbag1
(g10
g3
NtRp1756
(dp1757
g13
S'Encounter'
p1758
sg15
S'Journalist3'
p1759
sg16
S'P-hard-01'
p1760
sg18
S''
sbag1
(g10
g3
NtRp1761
(dp1762
g13
S'Say'
p1763
sg15
S'Journalist3'
p1764
sg16
S''
sg18
S'I...see...'
p1765
sbag1
(g10
g3
NtRp1766
(dp1767
g13
S'Increment'
p1768
sg15
S'Journalist3'
p1769
sg16
S'PRESSCONF'
p1770
sg18
S''
sbag1
(g10
g3
NtRp1771
(dp1772
g13
S'Destroy'
p1773
sg15
S'Journalist3'
p1774
sg16
S''
sg18
S''
sbasS'Wife'
p1775
(lp1776
g1
(g10
g3
NtRp1777
(dp1778
g13
S'RequireFlag'
p1779
sg15
g1775
sg16
S'GOHOMETOWIFE'
p1780
sg18
S'What are you doing here, Phillip? You should be at work!'
p1781
sbag1
(g10
g3
NtRp1782
(dp1783
g13
S'Say'
p1784
sg15
S'Wife'
p1785
sg16
S''
sg18
S'Welcome home, Phillip! How was your workday?'
p1786
sbag1
(g10
g3
NtRp1787
(dp1788
g13
S'PlayerSay'
p1789
sg15
S'Wife'
p1790
sg16
S''
sg18
S'...'
p1791
sbag1
(g10
g3
NtRp1792
(dp1793
g13
S'Say'
p1794
sg15
S'Wife'
p1795
sg16
S''
sg18
S"That good, huh? You know this isn't what you want. Why don't you strike out on your own?"
p1796
sbag1
(g10
g3
NtRp1797
(dp1798
g13
S'PlayerSay'
p1799
sg15
S'Wife'
p1800
sg16
S''
sg18
S"I didn't think I knew where to start to be a Mayor, but Mayor Goodman makes it look easy."
p1801
sbag1
(g10
g3
NtRp1802
(dp1803
g13
S'Say'
p1804
sg15
S'Wife'
p1805
sg16
S''
sg18
S"That's the spirit! You can do it! All you need is some money and support."
p1806
sbag1
(g10
g3
NtRp1807
(dp1808
g13
S'PlayerSay'
p1809
sg15
S'Wife'
p1810
sg16
S''
sg18
S'Well...OK! Lets start with money. We need a sponsor.'
p1811
sbag1
(g10
g3
NtRp1812
(dp1813
g13
S'Say'
p1814
sg15
S'Wife'
p1815
sg16
S''
sg18
S'OK, lets go get one!'
p1816
sbag1
(g10
g3
NtRp1817
(dp1818
g13
S'AddAlly'
p1819
sg15
S'Wife'
p1820
sg16
S'Wife:2'
p1821
sg18
S'Sarah Mossman Joins Your Political Party!'
p1822
sbag1
(g10
g3
NtRp1823
(dp1824
g13
S'SetFlag'
p1825
sg15
S'Wife'
p1826
sg16
S'STARTSPONSOR'
p1827
sg18
S''
sbag1
(g10
g3
NtRp1828
(dp1829
g13
S'Destroy'
p1830
sg15
S'Wife'
p1831
sg16
S''
sg18
S''
sbasS'Journalist4'
p1832
(lp1833
g1
(g10
g3
NtRp1834
(dp1835
g13
S'RequireFlag'
p1836
sg15
g1832
sg16
S'ACCESSJOURNALISTS'
p1837
sg18
S'President Mossman, a moment of your time?'
p1838
sbag1
(g10
g3
NtRp1839
(dp1840
g13
S'Say'
p1841
sg15
S'Journalist4'
p1842
sg16
S''
sg18
S"President Mossman, what do you believe was President Allen's failing strategy on the campaign trail? He presented some strong arguments."
p1843
sbag1
(g10
g3
NtRp1844
(dp1845
g13
S'PlayerSay'
p1846
sg15
S'Journalist4'
p1847
sg16
S''
sg18
S"Well, I'd say he went wrong when he decided to try to enslave the human race to mine the Earth's natural resources and ship them back to his home planet."
p1848
sbag1
(g10
g3
NtRp1849
(dp1850
g13
S'Say'
p1851
sg15
S'Journalist4'
p1852
sg16
S''
sg18
S'And how does that differ from your own strategy?'
p1853
sbag1
(g10
g3
NtRp1854
(dp1855
g13
S'PlayerSay'
p1856
sg15
S'Journalist4'
p1857
sg16
S''
sg18
S'I would say I disagree with the former President on all of those issues.'
p1858
sbag1
(g10
g3
NtRp1859
(dp1860
g13
S'Encounter'
p1861
sg15
S'Journalist4'
p1862
sg16
S'P-hard-02'
p1863
sg18
S''
sbag1
(g10
g3
NtRp1864
(dp1865
g13
S'Say'
p1866
sg15
S'Journalist4'
p1867
sg16
S''
sg18
S'No further questions, Mr President.'
p1868
sbag1
(g10
g3
NtRp1869
(dp1870
g13
S'Increment'
p1871
sg15
S'Journalist4'
p1872
sg16
S'PRESSCONF'
p1873
sg18
S''
sbag1
(g10
g3
NtRp1874
(dp1875
g13
S'Destroy'
p1876
sg15
S'Journalist4'
p1877
sg16
S''
sg18
S''
sbasS'Governor'
p1878
(lp1879
g1
(g10
g3
NtRp1880
(dp1881
g13
S'RequireFlag'
p1882
sg15
g1878
sg16
S'GOVPOLITICIANSFIRST'
p1883
sg18
S"I'm very busy. Please speak to the others."
p1884
sbag1
(g10
g3
NtRp1885
(dp1886
g13
S'Say'
p1887
sg15
S'Governor'
p1888
sg16
S''
sg18
S'You have quite a way with words, Mayor Mossman. Why are you here?'
p1889
sbag1
(g10
g3
NtRp1890
(dp1891
g13
S'PlayerSay'
p1892
sg15
S'Governor'
p1893
sg16
S''
sg18
S"Mayor Goodman said some troubling things, Governor Badden. I'm here to get to the bottom of it."
p1894
sbag1
(g10
g3
NtRp1895
(dp1896
g13
S'Say'
p1897
sg15
S'Governor'
p1898
sg16
S''
sg18
S"If I knew anything about what you're talking about, I wouldn't tell you. I don't trust you at all."
p1899
sbag1
(g10
g3
NtRp1900
(dp1901
g13
S'PlayerSay'
p1902
sg15
S'Governor'
p1903
sg16
S''
sg18
S'What can I do to convince you?'
p1904
sbag1
(g10
g3
NtRp1905
(dp1906
g13
S'Say'
p1907
sg15
S'Governor'
p1908
sg16
S''
sg18
S"Well...there's some hicks in the south wing that I've been dodging. They want to know about the recent funding cuts. Get rid of them."
p1909
sbag1
(g10
g3
NtRp1910
(dp1911
g13
S'SetFlag'
p1912
sg15
S'Governor'
p1913
sg16
S'STARTHICKS'
p1914
sg18
S''
sbag1
(g10
g3
NtRp1915
(dp1916
g13
S'GiveItem'
p1917
sg15
S'Governor'
p1918
sg16
S'SOUTHWINGDOORKEY'
p1919
sg18
S'The Governor gives you a key.'
p1920
sbag1
(g10
g3
NtRp1921
(dp1922
g13
S'RequireCount'
p1923
sg15
S'Governor'
p1924
sg16
S'DEALWITHHICKS:3'
p1925
sg18
S"I'm not saying another word until you get rid of the hicks in the south wing."
p1926
sbag1
(g10
g3
NtRp1927
(dp1928
g13
S'PlayerSay'
p1929
sg15
S'Governor'
p1930
sg16
S''
sg18
S"OK, I've taken care of your problem, now I want my answers."
p1931
sbag1
(g10
g3
NtRp1932
(dp1933
g13
S'Say'
p1934
sg15
S'Governor'
p1935
sg16
S''
sg18
S'No.'
p1936
sbag1
(g10
g3
NtRp1937
(dp1938
g13
S'PlayerSay'
p1939
sg15
S'Governor'
p1940
sg16
S''
sg18
S'No?'
p1941
sbag1
(g10
g3
NtRp1942
(dp1943
g13
S'Say'
p1944
sg15
S'Governor'
p1945
sg16
S''
sg18
S"No, word has come down from the top that due to the last Mayor's idiocy we're tightening the inner circle to Governors and above."
p1946
sbag1
(g10
g3
NtRp1947
(dp1948
g13
S'PlayerSay'
p1949
sg15
S'Governor'
p1950
sg16
S''
sg18
S"From the top...so you're saying the only way I'll find out what's going on is to be a governor myself?"
p1951
sbag1
(g10
g3
NtRp1952
(dp1953
g13
S'Say'
p1954
sg15
S'Governor'
p1955
sg16
S''
sg18
S"Wait...no...I said I wasn't going to tell you, I..."
p1956
sbag1
(g10
g3
NtRp1957
(dp1958
g13
S'PlayerSay'
p1959
sg15
S'Governor'
p1960
sg16
S''
sg18
S'This is it, governor. Prepare to fight for your office!'
p1961
sbag1
(g10
g3
NtRp1962
(dp1963
g13
S'Encounter'
p1964
sg15
S'Governor'
p1965
sg16
S'P-med-06'
p1966
sg18
S''
sbag1
(g10
g3
NtRp1967
(dp1968
g13
S'Say'
p1969
sg15
S'Governor'
p1970
sg16
S''
sg18
S"Nooo! President Allen doesn't deal well with defeat. What will happen to me?"
p1971
sbag1
(g10
g3
NtRp1972
(dp1973
g13
S'PlayerSay'
p1974
sg15
S'Governor'
p1975
sg16
S''
sg18
S'The President? What does he have to do with this?'
p1976
sbag1
(g10
g3
NtRp1977
(dp1978
g13
S'Say'
p1979
sg15
S'Governor'
p1980
sg16
S''
sg18
S"You really have no idea what you've gotten into, do you? Well, you've gotten all you're getting out of me. I'm getting out of here!"
p1981
sbag1
(g10
g3
NtRp1982
(dp1983
g13
S'SetFlag'
p1984
sg15
S'Governor'
p1985
sg16
S'GOVERNORDEFEATED'
p1986
sg18
S''
sbag1
(g10
g3
NtRp1987
(dp1988
g13
S'Destroy'
p1989
sg15
S'Governor'
p1990
sg16
S''
sg18
S''
sbasS'Politician1'
p1991
(lp1992
g1
(g10
g3
NtRp1993
(dp1994
g13
S'Say'
p1995
sg15
g1991
sg16
S''
sg18
S"I'm sorry Mayor Mossman, the Governor cannot see you now. He's very busy"
p1996
sbag1
(g10
g3
NtRp1997
(dp1998
g13
S'PlayerSay'
p1999
sg15
S'Politician1'
p2000
sg16
S''
sg18
S"It's very important. I need to understand what Mayor Goodman was talking about. It was clear there were other powers at play."
p2001
sbag1
(g10
g3
NtRp2002
(dp2003
g13
S'Say'
p2004
sg15
S'Politician1'
p2005
sg16
S''
sg18
S'Yes well, I fail to see how your country spat has anything to do with Governer Badden.'
p2006
sbag1
(g10
g3
NtRp2007
(dp2008
g13
S'Encounter'
p2009
sg15
S'Politician1'
p2010
sg16
S'P-med-01'
p2011
sg18
S''
sbag1
(g10
g3
NtRp2012
(dp2013
g13
S'Say'
p2014
sg15
S'Politician1'
p2015
sg16
S''
sg18
S'Fair point. The governor will see you now.'
p2016
sbag1
(g10
g3
NtRp2017
(dp2018
g13
S'Destroy'
p2019
sg15
S'Politician1'
p2020
sg16
S''
sg18
S''
sbasS'Lobbyist4'
p2021
(lp2022
g1
(g10
g3
NtRp2023
(dp2024
g13
S'RequireFlag'
p2025
sg15
g2021
sg16
S'STARTLOBBYISTS'
p2026
sg18
S'Please tend to your other meetings so that we can see you.'
p2027
sbag1
(g10
g3
NtRp2028
(dp2029
g13
S'Say'
p2030
sg15
S'Lobbyist4'
p2031
sg16
S''
sg18
S"If you are elected, I would like to know what you would plan to support the Storyteller's Guild and their efforts to revive a lost art."
p2032
sbag1
(g10
g3
NtRp2033
(dp2034
g13
S'PlayerSay'
p2035
sg15
S'Lobbyist4'
p2036
sg16
S''
sg18
S"I'm all for protecting the arts. How can I help?"
p2037
sbag1
(g10
g3
NtRp2038
(dp2039
g13
S'Say'
p2040
sg15
S'Lobbyist4'
p2041
sg16
S''
sg18
S'Storytelling is being butchered and almost completely ignored. I could list movies and television, but the real culprit is video games.'
p2042
sbag1
(g10
g3
NtRp2043
(dp2044
g13
S'Say'
p2045
sg15
S'Lobbyist4'
p2046
sg16
S''
sg18
S'Many video game plots are derivative and archaic. Why, if this were a video game, it would have almost no substance at all and simply be a flimsy curtain for one of their \xe2\x80\x9cfetch quests\xe2\x80\x9d.'
p2047
sbag1
(g10
g3
NtRp2048
(dp2049
g13
S'Say'
p2050
sg15
S'Lobbyist4'
p2051
sg16
S''
sg18
S"It is a most serious problem and we wouldn't be able to lend you our support without assurances on this matter."
p2052
sbag1
(g10
g3
NtRp2053
(dp2054
g13
S'Encounter'
p2055
sg15
S'Lobbyist4'
p2056
sg16
S'P-med-14'
p2057
sg18
S''
sbag1
(g10
g3
NtRp2058
(dp2059
g13
S'Increment'
p2060
sg15
S'Lobbyist4'
p2061
sg16
S'LOBBYISTS'
p2062
sg18
S''
sbag1
(g10
g3
NtRp2063
(dp2064
g13
S'Say'
p2065
sg15
S'Lobbyist4'
p2066
sg16
S''
sg18
S'While I feel that your argument lacks substance and detail, I will nevertheless concede.'
p2067
sbag1
(g10
g3
NtRp2068
(dp2069
g13
S'Destroy'
p2070
sg15
S'Lobbyist4'
p2071
sg16
S''
sg18
S''
sbasS'Politician3'
p2072
(lp2073
g1
(g10
g3
NtRp2074
(dp2075
g13
S'RequireFlag'
p2076
sg15
g2072
sg16
S'STARTPOLITICIANSHAKEDOWN'
p2077
sg18
S'Good morning, Governor Mossman. Your PA will know your schedule. He is waiting beside the stairs'
p2078
sbag1
(g10
g3
NtRp2079
(dp2080
g13
S'Say'
p2081
sg15
S'Politician3'
p2082
sg16
S''
sg18
S"We must all agree that the most important thing is science! If we're not for science, what's the point."
p2083
sbag1
(g10
g3
NtRp2084
(dp2085
g13
S'PlayerSay'
p2086
sg15
S'Politician3'
p2087
sg16
S''
sg18
S'Why science?'
p2088
sbag1
(g10
g3
NtRp2089
(dp2090
g13
S'Say'
p2091
sg15
S'Politician3'
p2092
sg16
S''
sg18
S'Science!'
p2093
sbag1
(g10
g3
NtRp2094
(dp2095
g13
S'PlayerSay'
p2096
sg15
S'Politician3'
p2097
sg16
S''
sg18
S"There's a lot of great things we can do for science but the funding will need to be shared with health and education and..."
p2098
sbag1
(g10
g3
NtRp2099
(dp2100
g13
S'Say'
p2101
sg15
S'Politician3'
p2102
sg16
S''
sg18
S'No! Science!!!'
p2103
sbag1
(g10
g3
NtRp2104
(dp2105
g13
S'Encounter'
p2106
sg15
S'Politician3'
p2107
sg16
S'P-med-07'
p2108
sg18
S''
sbag1
(g10
g3
NtRp2109
(dp2110
g13
S'Say'
p2111
sg15
S'Politician3'
p2112
sg16
S''
sg18
S'Alright, fine! A balanced platform (but mostly science).'
p2113
sbag1
(g10
g3
NtRp2114
(dp2115
g13
S'Increment'
p2116
sg15
S'Politician3'
p2117
sg16
S'POLITICIANSHAKEDOWN'
p2118
sg18
S''
sbag1
(g10
g3
NtRp2119
(dp2120
g13
S'Destroy'
p2121
sg15
S'Politician3'
p2122
sg16
S''
sg18
S''
sbasS'Politician2'
p2123
(lp2124
g1
(g10
g3
NtRp2125
(dp2126
g13
S'Say'
p2127
sg15
g2123
sg16
S''
sg18
S'What are you doing in here? Who are you? Some Mayor?'
p2128
sbag1
(g10
g3
NtRp2129
(dp2130
g13
S'PlayerSay'
p2131
sg15
S'Politician2'
p2132
sg16
S''
sg18
S"I am Mayor Phillip Mossman. I'm here to speak to the Governor."
p2133
sbag1
(g10
g3
NtRp2134
(dp2135
g13
S'Say'
p2136
sg15
S'Politician2'
p2137
sg16
S''
sg18
S"I'm afraid the Governor's schedule is very tight. Come back next month."
p2138
sbag1
(g10
g3
NtRp2139
(dp2140
g13
S'Encounter'
p2141
sg15
S'Politician2'
p2142
sg16
S'P-med-02'
p2143
sg18
S''
sbag1
(g10
g3
NtRp2144
(dp2145
g13
S'Say'
p2146
sg15
S'Politician2'
p2147
sg16
S''
sg18
S'I see. Well, maybe we can squeeze you in.'
p2148
sbag1
(g10
g3
NtRp2149
(dp2150
g13
S'SetFlag'
p2151
sg15
S'Politician2'
p2152
sg16
S'GOVPOLITICIANSFIRST'
p2153
sg18
S''
sbag1
(g10
g3
NtRp2154
(dp2155
g13
S'Destroy'
p2156
sg15
S'Politician2'
p2157
sg16
S''
sg18
S''
sbasS'StairsToL3'
p2158
(lp2159
g1
(g10
g3
NtRp2160
(dp2161
g13
S'Label'
p2162
sg15
g2158
sg16
S'START'
p2163
sg18
S''
sbag1
(g10
g3
NtRp2164
(dp2165
g13
S'PlayerSay'
p2166
sg15
S'StairsToL3'
p2167
sg16
S''
sg18
S"I don't need to go up these stairs."
p2168
sbag1
(g10
g3
NtRp2169
(dp2170
g13
S'Reset'
p2171
sg15
S'StairsToL3'
p2172
sg16
S'START'
p2173
sg18
S''
sbasS'Journalist'
p2174
(lp2175
g1
(g10
g3
NtRp2176
(dp2177
g13
S'RequireFlag'
p2178
sg15
g2174
sg16
S'INTERVIEWSTART'
p2179
sg18
S'Leave me alone, kid I need to get this done before my deadline!'
p2180
sbag1
(g10
g3
NtRp2181
(dp2182
g13
S'Say'
p2183
sg15
S'Journalist'
p2184
sg16
S''
sg18
S"Hey, where's the Mayor?"
p2185
sbag1
(g10
g3
NtRp2186
(dp2187
g13
S'PlayerSay'
p2188
sg15
S'Journalist'
p2189
sg16
S''
sg18
S"He couldn't make it. I'll be taking the interview."
p2190
sbag1
(g10
g3
NtRp2191
(dp2192
g13
S'Say'
p2193
sg15
S'Journalist'
p2194
sg16
S''
sg18
S'Great! Easy pickings! Lets go.'
p2195
sbag1
(g10
g3
NtRp2196
(dp2197
g13
S'Encounter'
p2198
sg15
S'Journalist'
p2199
sg16
S'P-easy-05'
p2200
sg18
S''
sbag1
(g10
g3
NtRp2201
(dp2202
g13
S'Say'
p2203
sg15
S'Journalist'
p2204
sg16
S''
sg18
S"SNORE! Fine, if I can't get anything juicy here I'll do another puff piece on my poodle Frank."
p2205
sbag1
(g10
g3
NtRp2206
(dp2207
g13
S'SetFlag'
p2208
sg15
S'Journalist'
p2209
sg16
S'JOURNALISTINTERVIEW'
p2210
sg18
S''
sbag1
(g10
g3
NtRp2211
(dp2212
g13
S'Destroy'
p2213
sg15
S'Journalist'
p2214
sg16
S''
sg18
S''
sbasS'#----------------------------------------------------------------------------------------ACT 2 \xe2\x80\x93 Part 2---------------------------------------------------------------------------------------------------------------------------------------------------'
p2215
(lp2216
g1
(g10
g3
NtRp2217
(dp2218
g13
S''
sg15
g2215
sg16
S''
sg18
S''
sbasS'Politician6'
p2219
(lp2220
g1
(g10
g3
NtRp2221
(dp2222
g13
S'RequireFlag'
p2223
sg15
g2219
sg16
S'STARTPOLITICIANSHAKEDOWN'
p2224
sg18
S'Good morning, Governor Mossman. Your PA will know your schedule. He is waiting beside the stairs'
p2225
sbag1
(g10
g3
NtRp2226
(dp2227
g13
S'Say'
p2228
sg15
S'Politician6'
p2229
sg16
S''
sg18
S'We should be all about not wasting money'
p2230
sbag1
(g10
g3
NtRp2231
(dp2232
g13
S'PlayerSay'
p2233
sg15
S'Politician6'
p2234
sg16
S''
sg18
S'Sounds fair. Wasting money on what?'
p2235
sbag1
(g10
g3
NtRp2236
(dp2237
g13
S'Say'
p2238
sg15
S'Politician6'
p2239
sg16
S''
sg18
S"You know, stuff that doesn't really help like artsy stuff."
p2240
sbag1
(g10
g3
NtRp2241
(dp2242
g13
S'PlayerSay'
p2243
sg15
S'Politician6'
p2244
sg16
S''
sg18
S"You don't think we should invest in our culture?"
p2245
sbag1
(g10
g3
NtRp2246
(dp2247
g13
S'Say'
p2248
sg15
S'Politician6'
p2249
sg16
S''
sg18
S'We have more important things to spend our money on. Like military.'
p2250
sbag1
(g10
g3
NtRp2251
(dp2252
g13
S'PlayerSay'
p2253
sg15
S'Politician6'
p2254
sg16
S''
sg18
S'What if people want to paint pictures about our military. Or write patriotic songs?'
p2255
sbag1
(g10
g3
NtRp2256
(dp2257
g13
S'Say'
p2258
sg15
S'Politician6'
p2259
sg16
S''
sg18
S"I hadn't thought of that..."
p2260
sbag1
(g10
g3
NtRp2261
(dp2262
g13
S'Encounter'
p2263
sg15
S'Politician6'
p2264
sg16
S'P-med-10'
p2265
sg18
S''
sbag1
(g10
g3
NtRp2266
(dp2267
g13
S'Say'
p2268
sg15
S'Politician6'
p2269
sg16
S''
sg18
S"So, militaristic march songs and battle scenes aren't the only sort of art? Wow."
p2270
sbag1
(g10
g3
NtRp2271
(dp2272
g13
S'Increment'
p2273
sg15
S'Politician6'
p2274
sg16
S'POLITICIANSHAKEDOWN'
p2275
sg18
S''
sbag1
(g10
g3
NtRp2276
(dp2277
g13
S'Destroy'
p2278
sg15
S'Politician6'
p2279
sg16
S''
sg18
S''
sbasS'Marketing2'
p2280
(lp2281
g1
(g10
g3
NtRp2282
(dp2283
g13
S'Label'
p2284
sg15
g2280
sg16
S'SHOPA2'
p2285
sg18
S''
sbag1
(g10
g3
NtRp2286
(dp2287
g13
S'Say'
p2288
sg15
S'Marketing2'
p2289
sg16
S''
sg18
S'Hi Phil! Would you like to run an ad?'
p2290
sbag1
(g10
g3
NtRp2291
(dp2292
g13
S'Shop'
p2293
sg15
S'Marketing2'
p2294
sg16
S'SHOP2'
p2295
sg18
S''
sbag1
(g10
g3
NtRp2296
(dp2297
g13
S'Reset'
p2298
sg15
S'Marketing2'
p2299
sg16
S'SHOPA2'
p2300
sg18
S''
sbasS'Marketing3'
p2301
(lp2302
g1
(g10
g3
NtRp2303
(dp2304
g13
S'Label'
p2305
sg15
g2301
sg16
S'SHOPA2P2'
p2306
sg18
S''
sbag1
(g10
g3
NtRp2307
(dp2308
g13
S'Say'
p2309
sg15
S'Marketing3'
p2310
sg16
S''
sg18
S'Hi Phil! Would you like to run an ad?'
p2311
sbag1
(g10
g3
NtRp2312
(dp2313
g13
S'Shop'
p2314
sg15
S'Marketing3'
p2315
sg16
S'SHOP2P2'
p2316
sg18
S''
sbag1
(g10
g3
NtRp2317
(dp2318
g13
S'Reset'
p2319
sg15
S'Marketing3'
p2320
sg16
S'SHOPA2P2'
p2321
sg18
S''
sbasS'Marketing1'
p2322
(lp2323
g1
(g10
g3
NtRp2324
(dp2325
g13
S'RequireFlag'
p2326
sg15
g2322
sg16
S'STARTSPONSOR'
p2327
sg18
S"I'm sorry, my time is precious. Come back if you're ever running for office."
p2328
sbag1
(g10
g3
NtRp2329
(dp2330
g13
S'Label'
p2331
sg15
S'Marketing1'
p2332
sg16
S'SHOP'
p2333
sg18
S''
sbag1
(g10
g3
NtRp2334
(dp2335
g13
S'Say'
p2336
sg15
S'Marketing1'
p2337
sg16
S''
sg18
S'Hi there! Are you interested in any of my ad campaigns or programs?'
p2338
sbag1
(g10
g3
NtRp2339
(dp2340
g13
S'Shop'
p2341
sg15
S'Marketing1'
p2342
sg16
S'SHOP1'
p2343
sg18
S''
sbag1
(g10
g3
NtRp2344
(dp2345
g13
S'Reset'
p2346
sg15
S'Marketing1'
p2347
sg16
S'SHOP'
p2348
sg18
S''
sbasS'DoorToWarVetRoom'
p2349
(lp2350
g1
(g10
g3
NtRp2351
(dp2352
g13
S'RequireItemPlayerSay'
p2353
sg15
g2349
sg16
S'WARVETROOMKEY'
p2354
sg18
S'What does a president have to do to get a door opened around here?'
p2355
sbag1
(g10
g3
NtRp2356
(dp2357
g13
S'Destroy'
p2358
sg15
S'DoorToWarVetRoom'
p2359
sg16
S''
sg18
S''
sbag1
(g10
g3
NtRp2360
(dp2361
g13
S'Message'
p2362
sg15
S'DoorToWarVetRoom'
p2363
sg16
S''
sg18
S'The door opens with nary a sound.'
p2364
sbasS'hotel_l1'
p2365
(lp2366
g1
(g10
g3
NtRp2367
(dp2368
g13
S'Message'
p2369
sg15
g2365
sg16
S''
sg18
S'The Campaign Trail'
p2370
sbasS'WarVet2'
p2371
(lp2372
g1
(g10
g3
NtRp2373
(dp2374
g13
S'RequireFlag'
p2375
sg15
g2371
sg16
S'AFTERWILFRED'
p2376
sg18
S'Eh? Speak up, boy.'
p2377
sbag1
(g10
g3
NtRp2378
(dp2379
g13
S'Encounter'
p2380
sg15
S'WarVet2'
p2381
sg16
S'P-hard-05'
p2382
sg18
S''
sbag1
(g10
g3
NtRp2383
(dp2384
g13
S'Say'
p2385
sg15
S'WarVet2'
p2386
sg16
S''
sg18
S"We'll head home, but you can expect us back if we see anything else suspicious ."
p2387
sbag1
(g10
g3
NtRp2388
(dp2389
g13
S'Increment'
p2390
sg15
S'WarVet2'
p2391
sg16
S'WARVETS'
p2392
sg18
S''
sbag1
(g10
g3
NtRp2393
(dp2394
g13
S'Destroy'
p2395
sg15
S'WarVet2'
p2396
sg16
S''
sg18
S''
sbasS'PA2'
p2397
(lp2398
g1
(g10
g3
NtRp2399
(dp2400
g13
S'Say'
p2401
sg15
g2397
sg16
S''
sg18
S"Welcome to the White House, President Mossman. It was a long campaign trail with a very strange final debate, but we won and we're here."
p2402
sbag1
(g10
g3
NtRp2403
(dp2404
g13
S'Say'
p2405
sg15
S'PA2'
p2406
sg16
S''
sg18
S'Now is the real test where we see how well we can run a country.'
p2407
sbag1
(g10
g3
NtRp2408
(dp2409
g13
S'Say'
p2410
sg15
S'PA2'
p2411
sg16
S''
sg18
S'The first step is to give your first press conference as President to explain the...situation...with President Alien *cough* I mean Allen.'
p2412
sbag1
(g10
g3
NtRp2413
(dp2414
g13
S'SetFlag'
p2415
sg15
S'PA2'
p2416
sg16
S'ACCESSJOURNALISTS'
p2417
sg18
S''
sbag1
(g10
g3
NtRp2418
(dp2419
g13
S'RequireCount'
p2420
sg15
S'PA2'
p2421
sg16
S'PRESSCONF:3'
p2422
sg18
S"They're waiting for you in the rose garden, Mr President."
p2423
sbag1
(g10
g3
NtRp2424
(dp2425
g13
S'Say'
p2426
sg15
S'PA2'
p2427
sg16
S''
sg18
S'I think that went as well as could be expected.'
p2428
sbag1
(g10
g3
NtRp2429
(dp2430
g13
S'SetFlag'
p2431
sg15
S'PA2'
p2432
sg16
S'ACCESSKAWALSKI'
p2433
sg18
S''
sbag1
(g10
g3
NtRp2434
(dp2435
g13
S'Say'
p2436
sg15
S'PA2'
p2437
sg16
S''
sg18
S'Your secret service detail is waiting inside to have a word with you about security protocol.'
p2438
sbag1
(g10
g3
NtRp2439
(dp2440
g13
S'RequireFlag'
p2441
sg15
S'PA2'
p2442
sg16
S'KAWALSKIJOIN'
p2443
sg18
S"You'd better speak to the secret service agent. Your security is paramount."
p2444
sbag1
(g10
g3
NtRp2445
(dp2446
g13
S'Say'
p2447
sg15
S'PA2'
p2448
sg16
S''
sg18
S"Some war veterans would like to speak to you about some recent decisions you've made. I don't dare turn them away. You'd better speak to them."
p2449
sbag1
(g10
g3
NtRp2450
(dp2451
g13
S'PlayerSay'
p2452
sg15
S'PA2'
p2453
sg16
S''
sg18
S'Of course.'
p2454
sbag1
(g10
g3
NtRp2455
(dp2456
g13
S'GiveItem'
p2457
sg15
S'PA2'
p2458
sg16
S'WARVETROOMKEY'
p2459
sg18
S'Received key to the East Room.'
p2460
sbag1
(g10
g3
NtRp2461
(dp2462
g13
S'RequireCount'
p2463
sg15
S'PA2'
p2464
sg16
S'WARVETS:2'
p2465
sg18
S'The war vets are waiting for you in the East Room.'
p2466
sbag1
(g10
g3
NtRp2467
(dp2468
g13
S'Say'
p2469
sg15
S'PA2'
p2470
sg16
S''
sg18
S'What was that about?'
p2471
sbag1
(g10
g3
NtRp2472
(dp2473
g13
S'PlayerSay'
p2474
sg15
S'PA2'
p2475
sg16
S''
sg18
S"I'd like to know as well. Find me the documents that approved troop movement today and get me a meeting with the Joint Chiefs."
p2476
sbag1
(g10
g3
NtRp2477
(dp2478
g13
S'Say'
p2479
sg15
S'PA2'
p2480
sg16
S''
sg18
S'Yessir.'
p2481
sbag1
(g10
g3
NtRp2482
(dp2483
g13
S'Say'
p2484
sg15
S'PA2'
p2485
sg16
S''
sg18
S"Your next meeting is with the teachers in the corridor. They didn't give me the details, but it seems they're quite upset."
p2486
sbag1
(g10
g3
NtRp2487
(dp2488
g13
S'GiveItem'
p2489
sg15
S'PA2'
p2490
sg16
S'TEACHERROOMKEY'
p2491
sg18
S'Received key to the West Room.'
p2492
sbag1
(g10
g3
NtRp2493
(dp2494
g13
S'RequireCount'
p2495
sg15
S'PA2'
p2496
sg16
S'TEACHERS:2'
p2497
sg18
S"You'll need to speak to the teachers in the West Room, Mr President."
p2498
sbag1
(g10
g3
NtRp2499
(dp2500
g13
S'Say'
p2501
sg15
S'PA2'
p2502
sg16
S''
sg18
S'You seem to have sorted the teachers out.'
p2503
sbag1
(g10
g3
NtRp2504
(dp2505
g13
S'PlayerSay'
p2506
sg15
S'PA2'
p2507
sg16
S''
sg18
S"I've mollified them for now, but I want to get to the bottom of this - NOW!"
p2508
sbag1
(g10
g3
NtRp2509
(dp2510
g13
S'Say'
p2511
sg15
S'PA2'
p2512
sg16
S''
sg18
S'Of course, Mr President. I do have those papers you asked for that approved the mobilisation of troops'
p2513
sbag1
(g10
g3
NtRp2514
(dp2515
g13
S'PlayerSay'
p2516
sg15
S'PA2'
p2517
sg16
S''
sg18
S"Let me see those...this is my signature! But I didn't sign this!"
p2518
sbag1
(g10
g3
NtRp2519
(dp2520
g13
S'Say'
p2521
sg15
S'PA2'
p2522
sg16
S''
sg18
S'This is very serious! What should we do, sir?'
p2523
sbag1
(g10
g3
NtRp2524
(dp2525
g13
S'PlayerSay'
p2526
sg15
S'PA2'
p2527
sg16
S''
sg18
S'Call a cabinet meeting. Immediately.'
p2528
sbag1
(g10
g3
NtRp2529
(dp2530
g13
S'Say'
p2531
sg15
S'PA2'
p2532
sg16
S''
sg18
S"Understood. They'll be there when you get there."
p2533
sbag1
(g10
g3
NtRp2534
(dp2535
g13
S'GiveItem'
p2536
sg15
S'PA2'
p2537
sg16
S'CABINETROOMKEY'
p2538
sg18
S'Received key to the Cabinet Room.'
p2539
sbag1
(g10
g3
NtRp2540
(dp2541
g13
S'RequireCount'
p2542
sg15
S'PA2'
p2543
sg16
S'CABINETMEMBERS:3'
p2544
sg18
S'The cabinet is waiting for you in the Cabinet Room.'
p2545
sbag1
(g10
g3
NtRp2546
(dp2547
g13
S'Say'
p2548
sg15
S'PA2'
p2549
sg16
S''
sg18
S'The Joint Chiefs are assembled in the Situation Room downstairs.'
p2550
sbag1
(g10
g3
NtRp2551
(dp2552
g13
S'Say'
p2553
sg15
S'PA2'
p2554
sg16
S''
sg18
S'Your palm print has been coded for maximum clearance now; you should have access to the basement.'
p2555
sbag1
(g10
g3
NtRp2556
(dp2557
g13
S'SetFlag'
p2558
sg15
S'PA2'
p2559
sg16
S'ACCESSWHITEHOUSEBASEMENT'
p2560
sg18
S''
sbag1
(g10
g3
NtRp2561
(dp2562
g13
S'RequireFlag'
p2563
sg15
S'PA2'
p2564
sg16
S'REPEAT'
p2565
sg18
S'Get to the basement, the Joint Chiefs are waiting.'
p2566
sbasS'DoorToTeacherRoom'
p2567
(lp2568
g1
(g10
g3
NtRp2569
(dp2570
g13
S'RequireItemPlayerSay'
p2571
sg15
g2567
sg16
S'TEACHERROOMKEY'
p2572
sg18
S'"Hey in there, open up!"'
p2573
sbag1
(g10
g3
NtRp2574
(dp2575
g13
S'Destroy'
p2576
sg15
S'DoorToTeacherRoom'
p2577
sg16
S''
sg18
S''
sbag1
(g10
g3
NtRp2578
(dp2579
g13
S'Message'
p2580
sg15
S'DoorToTeacherRoom'
p2581
sg16
S''
sg18
S'The teachers look up as you enter the room.'
p2582
sbasS'Journalist2'
p2583
(lp2584
g1
(g10
g3
NtRp2585
(dp2586
g13
S'RequireFlag'
p2587
sg15
g2583
sg16
S'STARTHICKS2'
p2588
sg18
S'Governor Badden sends his Mayor lacky to do his dirty work \xe2\x80\x93 what a scoop!'
p2589
sbag1
(g10
g3
NtRp2590
(dp2591
g13
S'Encounter'
p2592
sg15
S'Journalist2'
p2593
sg16
S'P-med-05'
p2594
sg18
S''
sbag1
(g10
g3
NtRp2595
(dp2596
g13
S'Say'
p2597
sg15
S'Journalist2'
p2598
sg16
S''
sg18
S"I'm going back to write a comparison piece on you and Governor Badden. You should consider running for Governor."
p2599
sbag1
(g10
g3
NtRp2600
(dp2601
g13
S'Increment'
p2602
sg15
S'Journalist2'
p2603
sg16
S'DEALWITHHICKS'
p2604
sg18
S''
sbag1
(g10
g3
NtRp2605
(dp2606
g13
S'Destroy'
p2607
sg15
S'Journalist2'
p2608
sg16
S''
sg18
S''
sbasS'#P-med-24'
p2609
(lp2610
g1
(g10
g3
NtRp2611
(dp2612
g13
S'PresidentAlien'
p2613
sg15
g2609
sg16
S''
sg18
S"You think you've beaten me, but now you're going to fight the real me!"
p2614
sbag1
(g10
g3
NtRp2615
(dp2616
g13
S'Player'
p2617
sg15
S'#P-med-24'
p2618
sg16
S''
sg18
S'I knew something was wrong, but this...?'
p2619
sbag1
(g10
g3
NtRp2620
(dp2621
g13
S'PresidentAlien'
p2622
sg15
S'#P-med-24'
p2623
sg16
S''
sg18
S"All you've done is caused me to expedite my plans to enslave the human race!"
p2624
sbasS'TVPersonality'
p2625
(lp2626
g1
(g10
g3
NtRp2627
(dp2628
g13
S'RequireFlag'
p2629
sg15
g2625
sg16
S'STARTHERCULES'
p2630
sg18
S"Ooooh, sorry Mossman, baby! We're not ready for you yet."
p2631
sbag1
(g10
g3
NtRp2632
(dp2633
g13
S'Say'
p2634
sg15
S'TVPersonality'
p2635
sg16
S''
sg18
S"There's the man! Are you ready to cross wits with The Mighty Hercules!"
p2636
sbag1
(g10
g3
NtRp2637
(dp2638
g13
S'PlayerSay'
p2639
sg15
S'TVPersonality'
p2640
sg16
S''
sg18
S'I sure am!'
p2641
sbag1
(g10
g3
NtRp2642
(dp2643
g13
S'Say'
p2644
sg15
S'TVPersonality'
p2645
sg16
S''
sg18
S"Really...? You don't want to...see your make-up artist?"
p2646
sbag1
(g10
g3
NtRp2647
(dp2648
g13
S'PlayerSay'
p2649
sg15
S'TVPersonality'
p2650
sg16
S''
sg18
S"No, no, I'm ready."
p2651
sbag1
(g10
g3
NtRp2652
(dp2653
g13
S'Say'
p2654
sg15
S'TVPersonality'
p2655
sg16
S''
sg18
S'Suit yourself...'
p2656
sbag1
(g10
g3
NtRp2657
(dp2658
g13
S'Say'
p2659
sg15
S'TVPersonality'
p2660
sg16
S''
sg18
S'... from the looks of it, suiting yourself is exactly what you did.'
p2661
sbag1
(g10
g3
NtRp2662
(dp2663
g13
S'Encounter'
p2664
sg15
S'TVPersonality'
p2665
sg16
S'P-med-20'
p2666
sg18
S''
sbag1
(g10
g3
NtRp2667
(dp2668
g13
S'Say'
p2669
sg15
S'TVPersonality'
p2670
sg16
S''
sg18
S'Good show, you sure gave me a run for my money.'
p2671
sbag1
(g10
g3
NtRp2672
(dp2673
g13
S'Say'
p2674
sg15
S'TVPersonality'
p2675
sg16
S''
sg18
S"Now beat it, you're making me look bad!"
p2676
sbag1
(g10
g3
NtRp2677
(dp2678
g13
S'SetFlag'
p2679
sg15
S'TVPersonality'
p2680
sg16
S'BEATHERCULES'
p2681
sg18
S''
sbag1
(g10
g3
NtRp2682
(dp2683
g13
S'Destroy'
p2684
sg15
S'TVPersonality'
p2685
sg16
S''
sg18
S''
sbasS'act1'
p2686
(lp2687
g1
(g10
g3
NtRp2688
(dp2689
g13
S'Message'
p2690
sg15
g2686
sg16
S''
sg18
S'Good morning, Assistant Phil.'
p2691
sbasS'act2'
p2692
(lp2693
g1
(g10
g3
NtRp2694
(dp2695
g13
S'Message'
p2696
sg15
g2692
sg16
S''
sg18
S"The Governor's Mansion"
p2697
sbasS'SouthWingDoor'
p2698
(lp2699
g1
(g10
g3
NtRp2700
(dp2701
g13
S'RequireItemMessage'
p2702
sg15
g2698
sg16
S'SOUTHWINGDOORKEY'
p2703
sg18
S'The door appears to be locked'
p2704
sbag1
(g10
g3
NtRp2705
(dp2706
g13
S'Message'
p2707
sg15
S'SouthWingDoor'
p2708
sg16
S''
sg18
S"The door unlocks with a satisfying 'click'"
p2709
sbag1
(g10
g3
NtRp2710
(dp2711
g13
S'Destroy'
p2712
sg15
S'SouthWingDoor'
p2713
sg16
S''
sg18
S''
sbasS'Protester2'
p2714
(lp2715
g1
(g10
g3
NtRp2716
(dp2717
g13
S'Say'
p2718
sg15
g2714
sg16
S''
sg18
S"Bees buzz, Mayors lie, who's this Phillip Mossman guy?"
p2719
sbag1
(g10
g3
NtRp2720
(dp2721
g13
S'RequireFlag'
p2722
sg15
S'Protester2'
p2723
sg16
S'PROTESTORS'
p2724
sg18
S''
sbag1
(g10
g3
NtRp2725
(dp2726
g13
S'Encounter'
p2727
sg15
S'Protester2'
p2728
sg16
S'P-easy-03'
p2729
sg18
S''
sbag1
(g10
g3
NtRp2730
(dp2731
g13
S'Destroy'
p2732
sg15
S'Protester2'
p2733
sg16
S''
sg18
S''
sbasS'JointChief2'
p2734
(lp2735
g1
(g10
g3
NtRp2736
(dp2737
g13
S'PlayerSay'
p2738
sg15
g2734
sg16
S''
sg18
S'Who would have the power to do this? What would they stand to gain? Can we...'
p2739
sbag1
(g10
g3
NtRp2740
(dp2741
g13
S'Say'
p2742
sg15
S'JointChief2'
p2743
sg16
S''
sg18
S"I'm sorry, Sir. I've just learned that some ICBMs pointed at Russia have been activated - using your access codes! They could be fired at any moment!"
p2744
sbag1
(g10
g3
NtRp2745
(dp2746
g13
S'PlayerSay'
p2747
sg15
S'JointChief2'
p2748
sg16
S''
sg18
S'You\'ve "just learned"? Is this your doing?'
p2749
sbag1
(g10
g3
NtRp2750
(dp2751
g13
S'Encounter'
p2752
sg15
S'JointChief2'
p2753
sg16
S'P-hard-12'
p2754
sg18
S''
sbag1
(g10
g3
NtRp2755
(dp2756
g13
S'Increment'
p2757
sg15
S'JointChief2'
p2758
sg16
S'JOINTCHIEFS'
p2759
sg18
S''
sbag1
(g10
g3
NtRp2760
(dp2761
g13
S'PlayerSay'
p2762
sg15
S'JointChief2'
p2763
sg16
S''
sg18
S'I had to be sure.'
p2764
sbag1
(g10
g3
NtRp2765
(dp2766
g13
S'Destroy'
p2767
sg15
S'JointChief2'
p2768
sg16
S''
sg18
S''
sbasS'Protester1'
p2769
(lp2770
g1
(g10
g3
NtRp2771
(dp2772
g13
S'Say'
p2773
sg15
g2769
sg16
S''
sg18
S"Fee Fi Fo Fum, we think Mayor Goodman's Dumb!"
p2774
sbag1
(g10
g3
NtRp2775
(dp2776
g13
S'RequireFlag'
p2777
sg15
S'Protester1'
p2778
sg16
S'PROTESTORS'
p2779
sg18
S''
sbag1
(g10
g3
NtRp2780
(dp2781
g13
S'Encounter'
p2782
sg15
S'Protester1'
p2783
sg16
S'P-easy-02'
p2784
sg18
S''
sbag1
(g10
g3
NtRp2785
(dp2786
g13
S'Destroy'
p2787
sg15
S'Protester1'
p2788
sg16
S''
sg18
S''
sbasS'#----------------------------------------------------------------------------------------ACT 2 \xe2\x80\x93 Part 1---------------------------------------------------------------------------------------------------------------------------------------------------'
p2789
(lp2790
g1
(g10
g3
NtRp2791
(dp2792
g13
S''
sg15
g2789
sg16
S''
sg18
S''
sbasS'Head Protester'
p2793
(lp2794
g1
(g10
g3
NtRp2795
(dp2796
g13
S'Say'
p2797
sg15
g2793
sg16
S''
sg18
S"I am the head protester. You'll never convince us to back down!"
p2798
sbag1
(g10
g3
NtRp2799
(dp2800
g13
S'RequireFlag'
p2801
sg15
S'Head Protester'
p2802
sg16
S'PROTESTORS'
p2803
sg18
S''
sbag1
(g10
g3
NtRp2804
(dp2805
g13
S'PlayerSay'
p2806
sg15
S'Head Protester'
p2807
sg16
S''
sg18
S'What are you protesting?'
p2808
sbag1
(g10
g3
NtRp2809
(dp2810
g13
S'Say'
p2811
sg15
S'Head Protester'
p2812
sg16
S''
sg18
S'Er...Injustice!'
p2813
sbag1
(g10
g3
NtRp2814
(dp2815
g13
S'PlayerSay'
p2816
sg15
S'Head Protester'
p2817
sg16
S''
sg18
S'Injustice against what?'
p2818
sbag1
(g10
g3
NtRp2819
(dp2820
g13
S'Say'
p2821
sg15
S'Head Protester'
p2822
sg16
S''
sg18
S'...'
p2823
sbag1
(g10
g3
NtRp2824
(dp2825
g13
S'Say'
p2826
sg15
S'Head Protester'
p2827
sg16
S''
sg18
S'The People!'
p2828
sbag1
(g10
g3
NtRp2829
(dp2830
g13
S'PlayerSay'
p2831
sg15
S'Head Protester'
p2832
sg16
S''
sg18
S'Yes, but which people?'
p2833
sbag1
(g10
g3
NtRp2834
(dp2835
g13
S'Say'
p2836
sg15
S'Head Protester'
p2837
sg16
S''
sg18
S'See? What a fascist, ALL people you slimey politician scum!'
p2838
sbag1
(g10
g3
NtRp2839
(dp2840
g13
S'Encounter'
p2841
sg15
S'Head Protester'
p2842
sg16
S'P-easy-04'
p2843
sg18
S''
sbag1
(g10
g3
NtRp2844
(dp2845
g13
S'Say'
p2846
sg15
S'Head Protester'
p2847
sg16
S''
sg18
S"Alright, fine! We'll stop protesting...whatever we were protesting."
p2848
sbag1
(g10
g3
NtRp2849
(dp2850
g13
S'SetFlag'
p2851
sg15
S'Head Protester'
p2852
sg16
S'PROTESTORSDEAD'
p2853
sg18
S''
sbag1
(g10
g3
NtRp2854
(dp2855
g13
S'Destroy'
p2856
sg15
S'Head Protester'
p2857
sg16
S''
sg18
S''
sbasS'Receptionist'
p2858
(lp2859
g1
(g10
g3
NtRp2860
(dp2861
g13
S'RequireFlag'
p2862
sg15
g2858
sg16
S'PENQUEST'
p2863
sg18
S"You must be Mayor Goodman's new assistant. He's in his office."
p2864
sbag1
(g10
g3
NtRp2865
(dp2866
g13
S'PlayerSay'
p2867
sg15
S'Receptionist'
p2868
sg16
S''
sg18
S"The Mayor is looking for his pen. He seemed to think you'd know where it was."
p2869
sbag1
(g10
g3
NtRp2870
(dp2871
g13
S'Say'
p2872
sg15
S'Receptionist'
p2873
sg16
S''
sg18
S"Did that buffoon accuse me of stealing again? This is MY pen and he isn't having it."
p2874
sbag1
(g10
g3
NtRp2875
(dp2876
g13
S'Encounter'
p2877
sg15
S'Receptionist'
p2878
sg16
S'P-easy-01'
p2879
sg18
S''
sbag1
(g10
g3
NtRp2880
(dp2881
g13
S'GiveItem'
p2882
sg15
S'Receptionist'
p2883
sg16
S'PEN'
p2884
sg18
S'Receptionist sighs and hands over the pen.'
p2885
sbag1
(g10
g3
NtRp2886
(dp2887
g13
S'Say'
p2888
sg15
S'Receptionist'
p2889
sg16
S''
sg18
S"If you're ever getting low on votes, come talk to me and I'll run an ad campaign to restore them."
p2890
sbag1
(g10
g3
NtRp2891
(dp2892
g13
S'Reset'
p2893
sg15
S'Receptionist'
p2894
sg16
S'RESTORE'
p2895
sg18
S''
sbag1
(g10
g3
NtRp2896
(dp2897
g13
S'Label'
p2898
sg15
S'Receptionist'
p2899
sg16
S'RESTORE'
p2900
sg18
S''
sbag1
(g10
g3
NtRp2901
(dp2902
g13
S'Say'
p2903
sg15
S'Receptionist'
p2904
sg16
S''
sg18
S"You've taken a beating, let me fix you up."
p2905
sbag1
(g10
g3
NtRp2906
(dp2907
g13
S'RestoreVotes'
p2908
sg15
S'Receptionist'
p2909
sg16
S''
sg18
S'Receptionist replenishes votes'
p2910
sbag1
(g10
g3
NtRp2911
(dp2912
g13
S'Reset'
p2913
sg15
S'Receptionist'
p2914
sg16
S'RESTORE'
p2915
sg18
S''
sbasS'CheatAct2P2'
p2916
(lp2917
g1
(g10
g3
NtRp2918
(dp2919
g13
S'AddAlly'
p2920
sg15
g2916
sg16
S'Wife:5'
p2921
sg18
S''
sbag1
(g10
g3
NtRp2922
(dp2923
g13
S'LearnAttack'
p2924
sg15
S'CheatAct2P2'
p2925
sg16
S'BRIBE'
p2926
sg18
S''
sbag1
(g10
g3
NtRp2927
(dp2928
g13
S'LearnAttack'
p2929
sg15
S'CheatAct2P2'
p2930
sg16
S'Wife:BRIBE'
p2931
sg18
S''
sbag1
(g10
g3
NtRp2932
(dp2933
g13
S'LearnAttack'
p2934
sg15
S'CheatAct2P2'
p2935
sg16
S'SLANDER'
p2936
sg18
S''
sbag1
(g10
g3
NtRp2937
(dp2938
g13
S'AddAlly'
p2939
sg15
S'CheatAct2P2'
p2940
sg16
S'Leo:5'
p2941
sg18
S''
sbag1
(g10
g3
NtRp2942
(dp2943
g13
S'CheatXP'
p2944
sg15
S'CheatAct2P2'
p2945
sg16
S'Player:1000'
p2946
sg18
S''
sbag1
(g10
g3
NtRp2947
(dp2948
g13
S'CheatCunning'
p2949
sg15
S'CheatAct2P2'
p2950
sg16
S'Player:5'
p2951
sg18
S''
sbag1
(g10
g3
NtRp2952
(dp2953
g13
S'CheatCharisma'
p2954
sg15
S'CheatAct2P2'
p2955
sg16
S'Player:2'
p2956
sg18
S''
sbag1
(g10
g3
NtRp2957
(dp2958
g13
S'CheatSpeed'
p2959
sg15
S'CheatAct2P2'
p2960
sg16
S'Player:2'
p2961
sg18
S''
sbag1
(g10
g3
NtRp2962
(dp2963
g13
S'CheatWit'
p2964
sg15
S'CheatAct2P2'
p2965
sg16
S'Player:2'
p2966
sg18
S''
sbag1
(g10
g3
NtRp2967
(dp2968
g13
S'CheatFlair'
p2969
sg15
S'CheatAct2P2'
p2970
sg16
S'Player:2'
p2971
sg18
S''
sbag1
(g10
g3
NtRp2972
(dp2973
g13
S'CheatCunning'
p2974
sg15
S'CheatAct2P2'
p2975
sg16
S'Wife:2'
p2976
sg18
S''
sbag1
(g10
g3
NtRp2977
(dp2978
g13
S'CheatCharisma'
p2979
sg15
S'CheatAct2P2'
p2980
sg16
S'Wife:2'
p2981
sg18
S''
sbag1
(g10
g3
NtRp2982
(dp2983
g13
S'CheatSpeed'
p2984
sg15
S'CheatAct2P2'
p2985
sg16
S'Wife:3'
p2986
sg18
S''
sbag1
(g10
g3
NtRp2987
(dp2988
g13
S'CheatWit'
p2989
sg15
S'CheatAct2P2'
p2990
sg16
S'Wife:5'
p2991
sg18
S''
sbag1
(g10
g3
NtRp2992
(dp2993
g13
S'CheatFlair'
p2994
sg15
S'CheatAct2P2'
p2995
sg16
S'Wife:1'
p2996
sg18
S''
sbag1
(g10
g3
NtRp2997
(dp2998
g13
S'CheatCunning'
p2999
sg15
S'CheatAct2P2'
p3000
sg16
S'Leo:2'
p3001
sg18
S''
sbag1
(g10
g3
NtRp3002
(dp3003
g13
S'CheatCharisma'
p3004
sg15
S'CheatAct2P2'
p3005
sg16
S'Leo:2'
p3006
sg18
S''
sbag1
(g10
g3
NtRp3007
(dp3008
g13
S'CheatSpeed'
p3009
sg15
S'CheatAct2P2'
p3010
sg16
S'Leo:2'
p3011
sg18
S''
sbag1
(g10
g3
NtRp3012
(dp3013
g13
S'CheatWit'
p3014
sg15
S'CheatAct2P2'
p3015
sg16
S'Leo:5'
p3016
sg18
S''
sbag1
(g10
g3
NtRp3017
(dp3018
g13
S'CheatFlair'
p3019
sg15
S'CheatAct2P2'
p3020
sg16
S'Leo:2'
p3021
sg18
S''
sbag1
(g10
g3
NtRp3022
(dp3023
g13
S'LearnAttack'
p3024
sg15
S'CheatAct2P2'
p3025
sg16
S'FILIBUSTER'
p3026
sg18
S''
sbag1
(g10
g3
NtRp3027
(dp3028
g13
S'GotoMap'
p3029
sg15
S'CheatAct2P2'
p3030
sg16
S'hotel_l1'
p3031
sg18
S''
sbasS'RestoreAct2'
p3032
(lp3033
g1
(g10
g3
NtRp3034
(dp3035
g13
S'GotoMap'
p3036
sg15
g3032
sg16
S'act2'
p3037
sg18
S''
sbasS'Journalist5'
p3038
(lp3039
g1
(g10
g3
NtRp3040
(dp3041
g13
S'RequireFlag'
p3042
sg15
g3038
sg16
S'ACCESSJOURNALISTS'
p3043
sg18
S'Just one question?'
p3044
sbag1
(g10
g3
NtRp3045
(dp3046
g13
S'Say'
p3047
sg15
S'Journalist5'
p3048
sg16
S''
sg18
S'Do you feel that a bi-partisan relationship will be possible between your party and the opposition?'
p3049
sbag1
(g10
g3
NtRp3050
(dp3051
g13
S'PlayerSay'
p3052
sg15
S'Journalist5'
p3053
sg16
S''
sg18
S'I suppose once we find and remove all of the aliens and reverse the alien brainwashing, bi-partisanship will resume.'
p3054
sbag1
(g10
g3
NtRp3055
(dp3056
g13
S'Encounter'
p3057
sg15
S'Journalist5'
p3058
sg16
S'P-hard-03'
p3059
sg18
S''
sbag1
(g10
g3
NtRp3060
(dp3061
g13
S'Say'
p3062
sg15
S'Journalist5'
p3063
sg16
S''
sg18
S'Thankyou, President Mossman.'
p3064
sbag1
(g10
g3
NtRp3065
(dp3066
g13
S'Increment'
p3067
sg15
S'Journalist5'
p3068
sg16
S'PRESSCONF'
p3069
sg18
S''
sbag1
(g10
g3
NtRp3070
(dp3071
g13
S'Destroy'
p3072
sg15
S'Journalist5'
p3073
sg16
S''
sg18
S''
sbasS'Politician5'
p3074
(lp3075
g1
(g10
g3
NtRp3076
(dp3077
g13
S'RequireFlag'
p3078
sg15
g3074
sg16
S'STARTPOLITICIANSHAKEDOWN'
p3079
sg18
S'Good morning, Governor Mossman. Your PA will know your schedule. He is waiting beside the stairs'
p3080
sbag1
(g10
g3
NtRp3081
(dp3082
g13
S'Say'
p3083
sg15
S'Politician5'
p3084
sg16
S''
sg18
S'Big business!'
p3085
sbag1
(g10
g3
NtRp3086
(dp3087
g13
S'PlayerSay'
p3088
sg15
S'Politician5'
p3089
sg16
S''
sg18
S'What about big business.'
p3090
sbag1
(g10
g3
NtRp3091
(dp3092
g13
S'Say'
p3093
sg15
S'Politician5'
p3094
sg16
S''
sg18
S'...MORE big business!'
p3095
sbag1
(g10
g3
NtRp3096
(dp3097
g13
S'PlayerSay'
p3098
sg15
S'Politician5'
p3099
sg16
S''
sg18
S'You want to grow our business sector? Provide more jobs?'
p3100
sbag1
(g10
g3
NtRp3101
(dp3102
g13
S'Say'
p3103
sg15
S'Politician5'
p3104
sg16
S''
sg18
S'...Yeeeeh. Yes. Yes, that.'
p3105
sbag1
(g10
g3
NtRp3106
(dp3107
g13
S'PlayerSay'
p3108
sg15
S'Politician5'
p3109
sg16
S''
sg18
S'What about small business?'
p3110
sbag1
(g10
g3
NtRp3111
(dp3112
g13
S'Say'
p3113
sg15
S'Politician5'
p3114
sg16
S''
sg18
S'No! We need to make it BIGGER!'
p3115
sbag1
(g10
g3
NtRp3116
(dp3117
g13
S'Encounter'
p3118
sg15
S'Politician5'
p3119
sg16
S'P-med-09'
p3120
sg18
S''
sbag1
(g10
g3
NtRp3121
(dp3122
g13
S'Say'
p3123
sg15
S'Politician5'
p3124
sg16
S''
sg18
S"OK, I see what you're getting at. Lets help small business to grow. Also, this might help even the odds in the future."
p3125
sbag1
(g10
g3
NtRp3126
(dp3127
g13
S'Say'
p3128
sg15
S'Politician5'
p3129
sg16
S''
sg18
S'The results can be a bit unpredictable, so only use it in drastic situations.'
p3130
sbag1
(g10
g3
NtRp3131
(dp3132
g13
S'Increment'
p3133
sg15
S'Politician5'
p3134
sg16
S'POLITICIANSHAKEDOWN'
p3135
sg18
S''
sbag1
(g10
g3
NtRp3136
(dp3137
g13
S'Destroy'
p3138
sg15
S'Politician5'
p3139
sg16
S''
sg18
S''
sbasS'StairsToBasement'
p3140
(lp3141
g1
(g10
g3
NtRp3142
(dp3143
g13
S'RequireFlagPlayerSay'
p3144
sg15
g3140
sg16
S'ACCESSBASEMENT'
p3145
sg18
S'Smells like a basement. I have no business going down there.'
p3146
sbag1
(g10
g3
NtRp3147
(dp3148
g13
S'Label'
p3149
sg15
S'StairsToBasement'
p3150
sg16
S'START'
p3151
sg18
S''
sbag1
(g10
g3
NtRp3152
(dp3153
g13
S'GotoMap'
p3154
sg15
S'StairsToBasement'
p3155
sg16
S'hotel_basement'
p3156
sg18
S''
sbag1
(g10
g3
NtRp3157
(dp3158
g13
S'Jump'
p3159
sg15
S'StairsToBasement'
p3160
sg16
S'START'
p3161
sg18
S''
sbasS'P-med-12'
p3162
(lp3163
g1
(g10
g3
NtRp3164
(dp3165
g13
S'Say'
p3166
sg15
g3162
sg16
S'Lobbyist001'
p3167
sg18
S'import combat'
p3168
sbag1
(g10
g3
NtRp3169
(dp3170
g13
S'BeginCombat'
p3171
sg15
S'P-med-12'
p3172
sg16
S''
sg18
S''
sbasS'Lobbyist3'
p3173
(lp3174
g1
(g10
g3
NtRp3175
(dp3176
g13
S'RequireFlag'
p3177
sg15
g3173
sg16
S'STARTLOBBYISTS'
p3178
sg18
S'Mutter, mutter'
p3179
sbag1
(g10
g3
NtRp3180
(dp3181
g13
S'Say'
p3182
sg15
S'Lobbyist3'
p3183
sg16
S''
sg18
S"To get the support of my organisation, you'll need to tell me what you can do for the conservation of internet memes."
p3184
sbag1
(g10
g3
NtRp3185
(dp3186
g13
S'PlayerSay'
p3187
sg15
S'Lobbyist3'
p3188
sg16
S''
sg18
S'For...internet memes?'
p3189
sbag1
(g10
g3
NtRp3190
(dp3191
g13
S'Say'
p3192
sg15
S'Lobbyist3'
p3193
sg16
S''
sg18
S"Yes, these are serious times. Who remembers hitting the giant crab for massive damage.There's another console release. I bet you can't even remember what you had to do to get massive damage."
p3194
sbag1
(g10
g3
NtRp3195
(dp3196
g13
S'PlayerSay'
p3197
sg15
S'Lobbyist3'
p3198
sg16
S''
sg18
S'Giant...crab...?'
p3199
sbag1
(g10
g3
NtRp3200
(dp3201
g13
S'Say'
p3202
sg15
S'Lobbyist3'
p3203
sg16
S''
sg18
S"You have to flip him over, that's what! We have to act quickly to save the internet memes. Even as I speak, fewer and fewer Gangnum style videos are made. It's a crime!"
p3204
sbag1
(g10
g3
NtRp3205
(dp3206
g13
S'Say'
p3207
sg15
S'Lobbyist3'
p3208
sg16
S''
sg18
S'We need to build safehouses for all of the lolcats, provide IT helpdesk support for rickrole education and somebody needs to save the Sharknado from extinction!'
p3209
sbag1
(g10
g3
NtRp3210
(dp3211
g13
S'Encounter'
p3212
sg15
S'Lobbyist3'
p3213
sg16
S'P-med-13'
p3214
sg18
S''
sbag1
(g10
g3
NtRp3215
(dp3216
g13
S'Increment'
p3217
sg15
S'Lobbyist3'
p3218
sg16
S'LOBBYISTS'
p3219
sg18
S''
sbag1
(g10
g3
NtRp3220
(dp3221
g13
S'Say'
p3222
sg15
S'Lobbyist3'
p3223
sg16
S''
sg18
S'Nailed It.'
p3224
sbag1
(g10
g3
NtRp3225
(dp3226
g13
S'Destroy'
p3227
sg15
S'Lobbyist3'
p3228
sg16
S''
sg18
S''
sbasS'Mayor'
p3229
(lp3230
g1
(g10
g3
NtRp3231
(dp3232
g13
S'Say'
p3233
sg15
g3229
sg16
S''
sg18
S"Hello, I'm the Mayor!"
p3234
sbag1
(g10
g3
NtRp3235
(dp3236
g13
S'PlayerSay'
p3237
sg15
S'Mayor'
p3238
sg16
S''
sg18
S"Hello, Mayor Goodman, I'm Philip Mossman."
p3239
sbag1
(g10
g3
NtRp3240
(dp3241
g13
S'Say'
p3242
sg15
S'Mayor'
p3243
sg16
S''
sg18
S"Ah yes, you're my new assistant. You'll want to learn a thing or two about politics before we get started."
p3244
sbag1
(g10
g3
NtRp3245
(dp3246
g13
S'Say'
p3247
sg15
S'Mayor'
p3248
sg16
S''
sg18
S'Becoming a great politician boils down to one thing; your ability to win arguments.'
p3249
sbag1
(g10
g3
NtRp3250
(dp3251
g13
S'Say'
p3252
sg15
S'Mayor'
p3253
sg16
S''
sg18
S'Whether it be national debates or swaying constituents and lobbyists to support you, it all comes down to your ability to out-think your opponent.'
p3254
sbag1
(g10
g3
NtRp3255
(dp3256
g13
S'Say'
p3257
sg15
S'Mayor'
p3258
sg16
S''
sg18
S"You see, I've been searching for minutes and haven't been able to find my pen! I bet my receptionist stole it. She has sticky fingers."
p3259
sbag1
(g10
g3
NtRp3260
(dp3261
g13
S'Say'
p3262
sg15
S'Mayor'
p3263
sg16
S''
sg18
S"Well, don't just stand there, go and get it from her! You'll need to use all of your political skills to wrestle it back. She's like a bulldog when she gets ahold of something."
p3264
sbag1
(g10
g3
NtRp3265
(dp3266
g13
S'SetFlag'
p3267
sg15
S'Mayor'
p3268
sg16
S'PENQUEST'
p3269
sg18
S''
sbag1
(g10
g3
NtRp3270
(dp3271
g13
S'RequireItem'
p3272
sg15
S'Mayor'
p3273
sg16
S'PEN'
p3274
sg18
S'Are you simple? Go and get my pen from that thieving receptionist.'
p3275
sbag1
(g10
g3
NtRp3276
(dp3277
g13
S'Say'
p3278
sg15
S'Mayor'
p3279
sg16
S''
sg18
S"Great! I know she can give you a bit of a tongue-lashing, but she's a fantastic receptionist."
p3280
sbag1
(g10
g3
NtRp3281
(dp3282
g13
S'Say'
p3283
sg15
S'Mayor'
p3284
sg16
S''
sg18
S"I'm sure you want to learn a thing or two about politics \xe2\x80\x93 who doesn't? - so lets get started"
p3285
sbag1
(g10
g3
NtRp3286
(dp3287
g13
S'SetFlag'
p3288
sg15
S'Mayor'
p3289
sg16
S'PROTESTORS'
p3290
sg18
S''
sbag1
(g10
g3
NtRp3291
(dp3292
g13
S'RequireFlag'
p3293
sg15
S'Mayor'
p3294
sg16
S'PROTESTORSDEAD'
p3295
sg18
S'Run outside and tell those protesters to scram, will you?'
p3296
sbag1
(g10
g3
NtRp3297
(dp3298
g13
S'Say'
p3299
sg15
S'Mayor'
p3300
sg16
S''
sg18
S"Hope they didn't give you too much trouble!"
p3301
sbag1
(g10
g3
NtRp3302
(dp3303
g13
S'Say'
p3304
sg15
S'Mayor'
p3305
sg16
S''
sg18
S"Now that's sorted, there's a journalist from the local newspaper coming for an interview."
p3306
sbag1
(g10
g3
NtRp3307
(dp3308
g13
S'Say'
p3309
sg15
S'Mayor'
p3310
sg16
S''
sg18
S"I certainly don't have time for it, so you can do the interview."
p3311
sbag1
(g10
g3
NtRp3312
(dp3313
g13
S'Say'
p3314
sg15
S'Mayor'
p3315
sg16
S''
sg18
S"Be careful not to give too much away and if you could throw a few punches at the opposition that'd help."
p3316
sbag1
(g10
g3
NtRp3317
(dp3318
g13
S'PlayerSay'
p3319
sg15
S'Mayor'
p3320
sg16
S''
sg18
S'You want me to...throw a punch?'
p3321
sbag1
(g10
g3
NtRp3322
(dp3323
g13
S'Say'
p3324
sg15
S'Mayor'
p3325
sg16
S''
sg18
S"You're in politics and don't know how to fight dirty? Sheesh! Here, let me show you."
p3326
sbag1
(g10
g3
NtRp3327
(dp3328
g13
S'LearnAttack'
p3329
sg15
S'Mayor'
p3330
sg16
S'SLANDER'
p3331
sg18
S'Mayor teaches Phillip to Slander Opposition'
p3332
sbag1
(g10
g3
NtRp3333
(dp3334
g13
S'Say'
p3335
sg15
S'Mayor'
p3336
sg16
S''
sg18
S"It's a pretty great tactic because it keeps eating away at them long after you've done it."
p3337
sbag1
(g10
g3
NtRp3338
(dp3339
g13
S'SetFlag'
p3340
sg15
S'Mayor'
p3341
sg16
S'INTERVIEWSTART'
p3342
sg18
S''
sbag1
(g10
g3
NtRp3343
(dp3344
g13
S'RequireFlag'
p3345
sg15
S'Mayor'
p3346
sg16
S'JOURNALISTINTERVIEW'
p3347
sg18
S'Go handle that interview and remember to slander the opposition.'
p3348
sbag1
(g10
g3
NtRp3349
(dp3350
g13
S'SetFlag'
p3351
sg15
S'Mayor'
p3352
sg16
S'GOHOMETOWIFE'
p3353
sg18
S''
sbag1
(g10
g3
NtRp3354
(dp3355
g13
S'Say'
p3356
sg15
S'Mayor'
p3357
sg16
S''
sg18
S'OK, fine, now could you buzz off for a while? I need to get some work done.'
p3358
sbag1
(g10
g3
NtRp3359
(dp3360
g13
S'RequireFlag'
p3361
sg15
S'Mayor'
p3362
sg16
S'CONSTITUENTSWON'
p3363
sg18
S"Go home to your family. I have things to do that don't involve you."
p3364
sbag1
(g10
g3
NtRp3365
(dp3366
g13
S'Say'
p3367
sg15
S'Mayor'
p3368
sg16
S''
sg18
S"What's this I hear about you campaigning for Mayor? After everything I've taught you!"
p3369
sbag1
(g10
g3
NtRp3370
(dp3371
g13
S'PlayerSay'
p3372
sg15
S'Mayor'
p3373
sg16
S''
sg18
S"I'm sorry Mayor Goodman, but it's time for someone who's ready to make a difference for our town."
p3374
sbag1
(g10
g3
NtRp3375
(dp3376
g13
S'Say'
p3377
sg15
S'Mayor'
p3378
sg16
S''
sg18
S"You really are a fool. Do you think He's going to allow that?"
p3379
sbag1
(g10
g3
NtRp3380
(dp3381
g13
S'Encounter'
p3382
sg15
S'Mayor'
p3383
sg16
S'P-easy-10'
p3384
sg18
S''
sbag1
(g10
g3
NtRp3385
(dp3386
g13
S'Say'
p3387
sg15
S'Mayor'
p3388
sg16
S''
sg18
S"Well, you've beaten me but you don't have a clue what you're in for. I hope you're up to this kid!"
p3389
sbag1
(g10
g3
NtRp3390
(dp3391
g13
S'Save'
p3392
sg15
S'Mayor'
p3393
sg16
S'RestoreAct2'
p3394
sg18
S''
sbag1
(g10
g3
NtRp3395
(dp3396
g13
S'GotoMap'
p3397
sg15
S'Mayor'
p3398
sg16
S'act2'
p3399
sg18
S''
sbasS'StairsToL2'
p3400
(lp3401
g1
(g10
g3
NtRp3402
(dp3403
g13
S'Label'
p3404
sg15
g3400
sg16
S'START'
p3405
sg18
S''
sbag1
(g10
g3
NtRp3406
(dp3407
g13
S'GotoMap'
p3408
sg15
S'StairsToL2'
p3409
sg16
S'hotel_l2'
p3410
sg18
S''
sbag1
(g10
g3
NtRp3411
(dp3412
g13
S'Jump'
p3413
sg15
S'StairsToL2'
p3414
sg16
S'START'
p3415
sg18
S''
sbassS'attacks'
p3416
(dp3417
S'GETEXCLUSIVE'
p3418
g1
(g10
g3
NtRp3419
(dp3420
S'base_damage_max'
p3421
F-2
sS'description'
p3422
S'asdf'
p3423
sS'weight'
p3424
I1
sS'crit_chance_max'
p3425
F0
sS'crit_chance_min'
p3426
F0
sS'underlying_stat'
p3427
S'Wit'
p3428
sS'target_type'
p3429
S'AllFriendly'
p3430
sS'base_damage_min'
p3431
F-2
sS'spin_cost'
p3432
F5
sS'effects'
p3433
(lp3434
g1
(c__main__
Effect
p3435
g3
NtRp3436
(dp3437
S'function'
p3438
S'add'
p3439
sS'abbrv'
p3440
S'(INCR CNG)'
p3441
sS'attribute'
p3442
S'cunning'
p3443
sS'value'
p3444
F2
sS'rounds_min'
p3445
F1
sS'rounds_max'
p3446
F4
sS'id'
p3447
S'Increase Cunning'
p3448
sS'apply_to_source'
p3449
S'TRUE'
p3450
sbasS'target_count'
p3451
I1
sS'crit_base_damage'
p3452
F0
sg3447
g3418
sS'name'
p3453
S'Get Exclusive'
p3454
sbsS'LOSELOSE'
p3455
g1
(g10
g3
NtRp3456
(dp3457
g3421
F6
sg3422
S'Causes all politicians in the target radius to lose votes'
p3458
sg3424
I1
sg3425
F0
sg3426
F0
sg3427
S'Wit'
p3459
sg3429
S'All'
p3460
sg3431
F4
sg3432
F5
sg3433
(lp3461
sg3451
I6
sg3452
F0
sg3447
g3455
sg3453
S'Lose/lose issue'
p3462
sbsS'LIE'
p3463
g1
(g10
g3
NtRp3464
(dp3465
g3421
F11
sg3422
S"It's only lying if they catch you. A strong attack with a danger of critically failing"
p3466
sg3424
F3
sg3425
F10
sg3426
F5
sg3427
S'Cunning'
p3467
sg3429
S'AllEnemy'
p3468
sg3431
F0
sg3432
I0
sg3433
(lp3469
g1
(g3435
g3
NtRp3470
(dp3471
g3438
S'miss_turn'
p3472
sg3440
S'(MISS)'
p3473
sg3442
S''
sg3444
F0
sg3445
F1
sg3446
F1
sg3447
S'Critical Fail'
p3474
sg3449
S'TRUE'
p3475
sbasg3451
I1
sg3452
F13
sg3447
g3463
sg3453
S'Lie'
p3476
sbsS'HILARIOUSANECDOTE'
p3477
g1
(g10
g3
NtRp3478
(dp3479
g3421
F8
sg3422
S'asdf'
p3480
sg3424
I1
sg3425
F5
sg3426
F2
sg3427
S'Wit'
p3481
sg3429
S'AllFriendly'
p3482
sg3431
F4
sg3432
F5
sg3433
(lp3483
sg3451
I3
sg3452
F11
sg3447
g3477
sg3453
S'Hilarious Anecdote'
p3484
sbsS'SENSATIONALISE'
p3485
g1
(g10
g3
NtRp3486
(dp3487
g3421
F8
sg3422
S'asdf'
p3488
sg3424
I1
sg3425
F0
sg3426
F0
sg3427
S'Wit'
p3489
sg3429
S'AllEnemy'
p3490
sg3431
F4
sg3432
F3
sg3433
(lp3491
sg3451
I1
sg3452
F0
sg3447
g3485
sg3453
S'Sensationalise'
p3492
sbsS'DENOUNCE'
p3493
g1
(g10
g3
NtRp3494
(dp3495
g3421
F5
sg3422
S'asdf'
p3496
sg3424
F6
sg3425
F10
sg3426
F2
sg3427
S'Cunning'
p3497
sg3429
S'AllEnemy'
p3498
sg3431
F2
sg3432
I0
sg3433
(lp3499
sg3451
I1
sg3452
F8
sg3447
g3493
sg3453
S'Denounce'
p3500
sbsS'WHADOWEWANT'
p3501
g1
(g10
g3
NtRp3502
(dp3503
g3421
F5
sg3422
S'asdf'
p3504
sg3424
I1
sg3425
F0
sg3426
F0
sg3427
S'Cunning'
p3505
sg3429
S'AllEnemy'
p3506
sg3431
F2
sg3432
I0
sg3433
(lp3507
sg3451
I1
sg3452
F0
sg3447
g3501
sg3453
S'Whadowewant!'
p3508
sbsS'SCOOP'
p3509
g1
(g10
g3
NtRp3510
(dp3511
g3421
F5
sg3422
S'asdf'
p3512
sg3424
I1
sg3425
F10
sg3426
F5
sg3427
S'Cunning'
p3513
sg3429
S'AllEnemy'
p3514
sg3431
F2
sg3432
I0
sg3433
(lp3515
sg3451
I1
sg3452
F8
sg3447
g3509
sg3453
S'Scoop'
p3516
sbsS'CHOOSETARGETS'
p3517
g1
(g10
g3
NtRp3518
(dp3519
g3421
F7
sg3422
S'asdf'
p3520
sg3424
I1
sg3425
F10
sg3426
F5
sg3427
S'Cunning'
p3521
sg3429
S'AllEnemy'
p3522
sg3431
F2
sg3432
I0
sg3433
(lp3523
sg3451
I1
sg3452
F9
sg3447
g3517
sg3453
S'Choose Targets'
p3524
sbsS'SUMMONPOLITICIAN'
p3525
g1
(g10
g3
NtRp3526
(dp3527
g3421
F0
sg3422
S''
sg3424
I1
sg3425
F0
sg3426
F0
sg3427
S'Wit'
p3528
sg3429
S'None'
p3529
sg3431
F0
sg3432
F4
sg3433
(lp3530
g1
(g3435
g3
NtRp3531
(dp3532
g3438
S'call_friends'
p3533
sg3440
S''
sg3442
S'Politician001:6'
p3534
sg3444
F2
sg3445
F1
sg3446
F1
sg3447
S'Summon Politician'
p3535
sg3449
S''
sbasg3451
I1
sg3452
F0
sg3447
g3525
sg3453
S''
sbsS'FILENAILS'
p3536
g1
(g10
g3
NtRp3537
(dp3538
g3421
F0
sg3422
S'asdf'
p3539
sg3424
I1
sg3425
F0
sg3426
F0
sg3427
S'Wit'
p3540
sg3429
S'AllEnemy'
p3541
sg3431
F0
sg3432
F3
sg3433
(lp3542
g1
(g3435
g3
NtRp3543
(dp3544
g3438
S'add_permanent'
p3545
sg3440
S''
sg3442
S'votes'
p3546
sg3444
F5
sg3445
F1
sg3446
F1
sg3447
S'Votes Restore'
p3547
sg3449
S''
sbasg3451
I1
sg3452
F0
sg3447
g3536
sg3453
S'File Nails'
p3548
sbsS'BRIBE'
p3549
g1
(g10
g3
NtRp3550
(dp3551
g3421
F10
sg3422
S'Is there anything more convincing than money? Buying loyalty gets expensive so be careful.'
p3552
sg3424
I1
sg3425
F0
sg3426
F0
sg3427
S'Money'
p3553
sg3429
S'AllEnemy'
p3554
sg3431
F4
sg3432
I0
sg3433
(lp3555
sg3451
I1
sg3452
F0
sg3447
g3549
sg3453
S'Bribe'
p3556
sbsS'SING'
p3557
g1
(g10
g3
NtRp3558
(dp3559
g3421
F-3
sg3422
S'Why bandy words with politicians when you can sing a catchy tune! Restores votes.'
p3560
sg3424
I1
sg3425
F0
sg3426
F0
sg3427
S'Cunning'
p3561
sg3429
S'AllFriendly'
p3562
sg3431
F-5
sg3432
I0
sg3433
(lp3563
sg3451
I4
sg3452
F0
sg3447
g3557
sg3453
S'Rousing Song'
p3564
sbsS'FEAR'
p3565
g1
(g10
g3
NtRp3566
(dp3567
g3421
F0
sg3422
S'asdf'
p3568
sg3424
F2
sg3425
F0
sg3426
F0
sg3427
S'Wit'
p3569
sg3429
S'AllFriendly'
p3570
sg3431
F0
sg3432
F4
sg3433
(lp3571
g3436
asg3451
I1
sg3452
F0
sg3447
g3565
sg3453
S'Fear Change'
p3572
sbsS'BRAINWASH'
p3573
g1
(g10
g3
NtRp3574
(dp3575
g3421
F0
sg3422
S''
sg3424
I1
sg3425
F0
sg3426
F0
sg3427
S'Wit'
p3576
sg3429
S'AllEnemy'
p3577
sg3431
F0
sg3432
F3
sg3433
(lp3578
g1
(g3435
g3
NtRp3579
(dp3580
g3438
S'miss_turn'
p3581
sg3440
S'(MISS)'
p3582
sg3442
S''
sg3444
F0
sg3445
F1
sg3446
F1
sg3447
S'Miss Turn'
p3583
sg3449
S''
sbasg3451
I4
sg3452
F0
sg3447
g3573
sg3453
S''
sbsS'RAISEDEFCON'
p3584
g1
(g10
g3
NtRp3585
(dp3586
g3421
F5
sg3422
S'asdf'
p3587
sg3424
I1
sg3425
F7
sg3426
F3
sg3427
S'Cunning'
p3588
sg3429
S'AllEnemy'
p3589
sg3431
F4
sg3432
I0
sg3433
(lp3590
sg3451
I1
sg3452
F8
sg3447
g3584
sg3453
S'Raise DEFCON'
p3591
sbsS'BILLBOARD'
p3592
g1
(g10
g3
NtRp3593
(dp3594
g3421
F0
sg3422
S'Run a billboard ad to restore up to 30 votes'
p3595
sg3424
I1
sg3425
F0
sg3426
F0
sg3427
S''
sg3429
S'AllFriendly'
p3596
sg3431
F0
sg3432
I0
sg3433
(lp3597
g1
(g3435
g3
NtRp3598
(dp3599
g3438
S'add_permanent'
p3600
sg3440
S''
sg3442
S'votes'
p3601
sg3444
F30
sg3445
F1
sg3446
F1
sg3447
S'Votes Restore Billboard'
p3602
sg3449
S''
sbasg3451
I1
sg3452
F0
sg3447
g3592
sg3453
S'Billboard Ad'
p3603
sbsS'NEGATTACKAD'
p3604
g1
(g10
g3
NtRp3605
(dp3606
g3421
F8
sg3422
S"Take them all down. They're definitely all bad people. Not like you."
p3607
sg3424
I1
sg3425
F10
sg3426
F10
sg3427
S'Wit'
p3608
sg3429
S'AllEnemy'
p3609
sg3431
F4
sg3432
F3
sg3433
(lp3610
sg3451
I1
sg3452
F10
sg3447
g3604
sg3453
S'Negative Attack Ad'
p3611
sbsS'DAZZLE'
p3612
g1
(g10
g3
NtRp3613
(dp3614
g3421
F5
sg3422
S'Being dazzling and admirable is a great way to take heat off politics'
p3615
sg3424
I1
sg3425
F8
sg3426
F5
sg3427
S'Wit'
p3616
sg3429
S'AllEnemy'
p3617
sg3431
F3
sg3432
F4
sg3433
(lp3618
g1
(g3435
g3
NtRp3619
(dp3620
g3438
S'reduce'
p3621
sg3440
S'(CNG DN)'
p3622
sg3442
S'cunning'
p3623
sg3444
F2
sg3445
F2
sg3446
F5
sg3447
S'Reduce Cunning'
p3624
sg3449
S''
sbasg3451
I4
sg3452
F8
sg3447
g3612
sg3453
S'Dazzle'
p3625
sbsS'BELIEVEMEDIA'
p3626
g1
(g10
g3
NtRp3627
(dp3628
g3421
F3
sg3422
S'asdf'
p3629
sg3424
I1
sg3425
F15
sg3426
F10
sg3427
S'Cunning'
p3630
sg3429
S'AllEnemy'
p3631
sg3431
F1
sg3432
I0
sg3433
(lp3632
sg3451
I1
sg3452
F12
sg3447
g3626
sg3453
S'Believe Media'
p3633
sbsS'PRPREP'
p3634
g1
(g10
g3
NtRp3635
(dp3636
g3421
F0
sg3422
S"If you're going to need some spin, best see a spin doctor! Adds spin points."
p3637
sg3424
I1
sg3425
F0
sg3426
F0
sg3427
S''
sg3429
S'AllFriendly'
p3638
sg3431
F0
sg3432
I0
sg3433
(lp3639
g1
(g3435
g3
NtRp3640
(dp3641
g3438
S'add_permanent'
p3642
sg3440
S''
sg3442
S'spin'
p3643
sg3444
F5
sg3445
F0
sg3446
F0
sg3447
S'Spin Restore'
p3644
sg3449
S'TRUE'
p3645
sbasg3451
I1
sg3452
F0
sg3447
g3634
sg3453
S'PR Prep'
p3646
sbsS'CALLVATICAN'
p3647
g1
(g10
g3
NtRp3648
(dp3649
g3421
F0
sg3422
S'Brings in 2 additional ReligousNuts at 2 levels lower than this one'
p3650
sg3424
I1
sg3425
F0
sg3426
F0
sg3427
S'Wit'
p3651
sg3429
S'None'
p3652
sg3431
F0
sg3432
F5
sg3433
(lp3653
g1
(g3435
g3
NtRp3654
(dp3655
g3438
S'call_friends'
p3656
sg3440
S''
sg3442
S'ReligiousNut001:4'
p3657
sg3444
F2
sg3445
F1
sg3446
F1
sg3447
S'Call Friends'
p3658
sg3449
S''
sbasg3451
I1
sg3452
F0
sg3447
g3647
sg3453
S'Call Battycan'
p3659
sbsS'BLACKMAIL'
p3660
g1
(g10
g3
NtRp3661
(dp3662
g3421
F6
sg3422
S'asdf'
p3663
sg3424
I1
sg3425
F10
sg3426
F2
sg3427
S'Wit'
p3664
sg3429
S'AllEnemy'
p3665
sg3431
F3
sg3432
F4
sg3433
(lp3666
g1
(g3435
g3
NtRp3667
(dp3668
g3438
S'drain'
p3669
sg3440
S'(DRAIN VTS)'
p3670
sg3442
S'votes'
p3671
sg3444
F1
sg3445
F2
sg3446
F5
sg3447
S'Drain Votes'
p3672
sg3449
S''
sbasg3451
I1
sg3452
F2
sg3447
g3660
sg3453
S'Blackmail'
p3673
sbsS'SCARE'
p3674
g1
(g10
g3
NtRp3675
(dp3676
g3421
F7
sg3422
S'Nothing rattles the brains like fear.'
p3677
sg3424
I1
sg3425
F10
sg3426
F2
sg3427
S'Cunning'
p3678
sg3429
S'AllEnemy'
p3679
sg3431
F2
sg3432
I0
sg3433
(lp3680
g3619
asg3451
I2
sg3452
F9
sg3447
g3674
sg3453
S'Scare Campaign'
p3681
sbsS'PROTEST'
p3682
g1
(g10
g3
NtRp3683
(dp3684
g3421
F5
sg3422
S'asdf'
p3685
sg3424
F6
sg3425
F10
sg3426
F2
sg3427
S'Cunning'
p3686
sg3429
S'AllEnemy'
p3687
sg3431
F2
sg3432
I0
sg3433
(lp3688
sg3451
I1
sg3452
F8
sg3447
g3682
sg3453
S'Protest'
p3689
sbsS'SPREADRUMOUR'
p3690
g1
(g10
g3
NtRp3691
(dp3692
g3421
F8
sg3422
S'asdf'
p3693
sg3424
I1
sg3425
F10
sg3426
F2
sg3427
S'Wit'
p3694
sg3429
S'AllEnemy'
p3695
sg3431
F3
sg3432
F3
sg3433
(lp3696
sg3451
I4
sg3452
F10
sg3447
g3690
sg3453
S'Spread Rumour'
p3697
sbsS'AGENDA'
p3698
g1
(g10
g3
NtRp3699
(dp3700
g3421
F5
sg3422
S'asdf'
p3701
sg3424
F6
sg3425
F10
sg3426
F2
sg3427
S'Cunning'
p3702
sg3429
S'AllEnemy'
p3703
sg3431
F2
sg3432
I0
sg3433
(lp3704
sg3451
I1
sg3452
F8
sg3447
g3698
sg3453
S'Push Agenda'
p3705
sbsS'REVIVEITEM'
p3706
g1
(g10
g3
NtRp3707
(dp3708
g3421
F0
sg3422
S'Revive a defeated comrade to half votes'
p3709
sg3424
I1
sg3425
F0
sg3426
F0
sg3427
S''
sg3429
S'DeadFriendly'
p3710
sg3431
F0
sg3432
I0
sg3433
(lp3711
g1
(g3435
g3
NtRp3712
(dp3713
g3438
S'revive'
p3714
sg3440
S''
sg3442
S''
sg3444
F0.5
sg3445
F0
sg3446
F0
sg3447
S'Revive'
p3715
sg3449
S''
sbasg3451
I1
sg3452
F0
sg3447
g3706
sg3453
S'Revive'
p3716
sbsS'FILIBUSTER'
p3717
g1
(g10
g3
NtRp3718
(dp3719
g3421
F6
sg3422
S"You're not moving until they give in. Cause all opposition to miss their turn"
p3720
sg3424
I1
sg3425
F0
sg3426
F0
sg3427
S'Wit'
p3721
sg3429
S'AllEnemy'
p3722
sg3431
F3
sg3432
F7
sg3433
(lp3723
g3579
asg3451
I1
sg3452
F0
sg3447
g3717
sg3453
S'Filibuster'
p3724
sbsS'GATHERINTEL'
p3725
g1
(g10
g3
NtRp3726
(dp3727
g3421
F0
sg3422
S'Increases Cunning.'
p3728
sg3424
I1
sg3425
F0
sg3426
F0
sg3427
S'Wit'
p3729
sg3429
S'AllFriendly'
p3730
sg3431
F0
sg3432
F3
sg3433
(lp3731
g3436
asg3451
I2
sg3452
F0
sg3447
g3725
sg3453
S'Gather Intelligence'
p3732
sbsS'LOVE'
p3733
g1
(g10
g3
NtRp3734
(dp3735
g3421
F6
sg3422
S'asdf'
p3736
sg3424
F4
sg3425
F8
sg3426
F2
sg3427
S'Cunning'
p3737
sg3429
S'AllEnemy'
p3738
sg3431
F1
sg3432
I0
sg3433
(lp3739
sg3451
I1
sg3452
F7
sg3447
g3733
sg3453
S'Love'
p3740
sbsS'OUTOFCONTEXT'
p3741
g1
(g10
g3
NtRp3742
(dp3743
g3421
F5
sg3422
S'asdf'
p3744
sg3424
I1
sg3425
F5
sg3426
F2
sg3427
S'Wit'
p3745
sg3429
S'AllEnemy'
p3746
sg3431
F3
sg3432
F2
sg3433
(lp3747
g3667
asg3451
I1
sg3452
F5
sg3447
g3741
sg3453
S'Take Out Of Context'
p3748
sbsS'GREATSUIT'
p3749
g1
(g10
g3
NtRp3750
(dp3751
g3421
F6
sg3422
S'Well, we could argue, but have you noticed how fabulous this suit is?'
p3752
sg3424
I1
sg3425
F11
sg3426
F6
sg3427
S'Cunning'
p3753
sg3429
S'AllEnemy'
p3754
sg3431
F3
sg3432
I0
sg3433
(lp3755
sg3451
I1
sg3452
F10
sg3447
g3749
sg3453
S'Look Great In Suit'
p3756
sbsS'PEACE'
p3757
g1
(g10
g3
NtRp3758
(dp3759
g3421
F0
sg3422
S'asdf'
p3760
sg3424
F4
sg3425
F0
sg3426
F0
sg3427
S'Wit'
p3761
sg3429
S'AllEnemy'
p3762
sg3431
F0
sg3432
F3
sg3433
(lp3763
g3619
asg3451
I4
sg3452
F0
sg3447
g3757
sg3453
S'Peace'
p3764
sbsS'INSPSPEECH'
p3765
g1
(g10
g3
NtRp3766
(dp3767
g3421
F-2
sg3422
S'Restore votes to all party members'
p3768
sg3424
I1
sg3425
F0
sg3426
F0
sg3427
S'Cunning'
p3769
sg3429
S'AllFriendly'
p3770
sg3431
F-2
sg3432
I0
sg3433
(lp3771
sg3451
I4
sg3452
F0
sg3447
g3765
sg3453
S'Inspirational Speech'
p3772
sbsS'RALLYENEMY'
p3773
g1
(g10
g3
NtRp3774
(dp3775
g3421
F0
sg3422
S'Get back some votes by rallying supporters'
p3776
sg3424
I1
sg3425
F0
sg3426
F0
sg3427
S'Wit'
p3777
sg3429
S'AllFriendly'
p3778
sg3431
F0
sg3432
F3
sg3433
(lp3779
g1
(g3435
g3
NtRp3780
(dp3781
g3438
S'add_permanent'
p3782
sg3440
S''
sg3442
S'votes'
p3783
sg3444
F8
sg3445
F1
sg3446
F1
sg3447
S'Votes Restore Rally Enemy'
p3784
sg3449
S''
sbasg3451
I1
sg3452
F0
sg3447
g3773
sg3453
S'Rally Constituents'
p3785
sbsS'STRIKE'
p3786
g1
(g10
g3
NtRp3787
(dp3788
g3421
F10
sg3422
S'asdf'
p3789
sg3424
I1
sg3425
F0
sg3426
F0
sg3427
S'Wit'
p3790
sg3429
S'AllEnemy'
p3791
sg3431
F0
sg3432
F3
sg3433
(lp3792
g3470
asg3451
I1
sg3452
F0
sg3447
g3786
sg3453
S'Call A Strike'
p3793
sbsS'SLANDER'
p3794
g1
(g10
g3
NtRp3795
(dp3796
g3421
F5
sg3422
S'Strong against polititians...careful with those voters, though!'
p3797
sg3424
F4
sg3425
F10
sg3426
F2
sg3427
S'Cunning'
p3798
sg3429
S'AllEnemy'
p3799
sg3431
F3
sg3432
I0
sg3433
(lp3800
g3667
asg3451
I1
sg3452
F7
sg3447
g3794
sg3453
S'Slander Opposition'
p3801
sbsS'NATTER'
p3802
g1
(g10
g3
NtRp3803
(dp3804
g3421
F8
sg3422
S'asdf'
p3805
sg3424
I1
sg3425
F15
sg3426
F5
sg3427
S'Cunning'
p3806
sg3429
S'AllEnemy'
p3807
sg3431
F1
sg3432
I0
sg3433
(lp3808
sg3451
I1
sg3452
F10
sg3447
g3802
sg3453
S'Natter On'
p3809
sbsS'GOSSIP'
p3810
g1
(g10
g3
NtRp3811
(dp3812
g3421
F3
sg3422
S'asdf'
p3813
sg3424
I1
sg3425
F10
sg3426
F2
sg3427
S'Wit'
p3814
sg3429
S'AllEnemy'
p3815
sg3431
F2
sg3432
F2
sg3433
(lp3816
g3619
asg3451
I1
sg3452
F6
sg3447
g3810
sg3453
S'Gossip'
p3817
sbsS'MISSTURN'
p3818
g1
(g10
g3
NtRp3819
(dp3820
g3421
F0
sg3422
S'asdf'
p3821
sg3424
I1
sg3425
F0
sg3426
F0
sg3427
S''
sg3429
S'AllEnemy'
p3822
sg3431
F0
sg3432
I0
sg3433
(lp3823
sg3451
I1
sg3452
F0
sg3447
g3818
sg3453
S'Miss Turn'
p3824
sbsS'BIELECTION'
p3825
g1
(g10
g3
NtRp3826
(dp3827
g3421
F4
sg3422
S'Redistribute votes amongst targets'
p3828
sg3424
I1
sg3425
F0
sg3426
F0
sg3427
S'Wit'
p3829
sg3429
S'All'
p3830
sg3431
F-4
sg3432
F4
sg3433
(lp3831
sg3451
I8
sg3452
F0
sg3447
g3825
sg3453
S'Bielection'
p3832
sbsS'RUNAD'
p3833
g1
(g10
g3
NtRp3834
(dp3835
g3421
F0
sg3422
S'Gets back up to 15 votes by running an ad'
p3836
sg3424
I1
sg3425
F0
sg3426
F0
sg3427
S''
sg3429
S'AllFriendly'
p3837
sg3431
F0
sg3432
I0
sg3433
(lp3838
g1
(g3435
g3
NtRp3839
(dp3840
g3438
S'add_permanent'
p3841
sg3440
S''
sg3442
S'votes'
p3842
sg3444
F15
sg3445
F1
sg3446
F1
sg3447
S'Votes Restore Ad'
p3843
sg3449
S''
sbasg3451
I1
sg3452
F0
sg3447
g3833
sg3453
S'Run Advertisement'
p3844
sbsS'PAYOFF'
p3845
g1
(g10
g3
NtRp3846
(dp3847
g3421
F8
sg3422
S'Causes them to miss a number of turns'
p3848
sg3424
I1
sg3425
F8
sg3426
F2
sg3427
S'Wit'
p3849
sg3429
S'AllEnemy'
p3850
sg3431
F4
sg3432
F4
sg3433
(lp3851
g1
(g3435
g3
NtRp3852
(dp3853
g3438
S'miss_turn'
p3854
sg3440
S'(MISS)'
p3855
sg3442
S''
sg3444
F0
sg3445
F1
sg3446
F3
sg3447
S'Miss Turn Pay Off'
p3856
sg3449
S''
sbasg3451
I1
sg3452
F10
sg3447
g3845
sg3453
S'Pay Off'
p3857
sbsS'BUREAUCRACY'
p3858
g1
(g10
g3
NtRp3859
(dp3860
g3421
F5
sg3422
S'asdf'
p3861
sg3424
F6
sg3425
F10
sg3426
F2
sg3427
S'Cunning'
p3862
sg3429
S'AllEnemy'
p3863
sg3431
F2
sg3432
I0
sg3433
(lp3864
sg3451
I1
sg3452
F8
sg3447
g3858
sg3453
S'Bureaucracy'
p3865
sbsS'RALLYAUDIENCE'
p3866
g1
(g10
g3
NtRp3867
(dp3868
g3421
F8
sg3422
S'asdf'
p3869
sg3424
I1
sg3425
F0
sg3426
F0
sg3427
S'Wit'
p3870
sg3429
S'AllFriendly'
p3871
sg3431
F4
sg3432
F3
sg3433
(lp3872
g1
(g3435
g3
NtRp3873
(dp3874
g3438
S'add'
p3875
sg3440
S'(INCR CH)'
p3876
sg3442
S'charisma'
p3877
sg3444
F2
sg3445
F1
sg3446
F4
sg3447
S'Increase Charisma'
p3878
sg3449
S'TRUE'
p3879
sbasg3451
I1
sg3452
F0
sg3447
g3866
sg3453
S'Rally Audience'
p3880
sbsS'PORKBARREL'
p3881
g1
(g10
g3
NtRp3882
(dp3883
g3421
F8
sg3422
S'Do something that benefits them specifically. Not advised against politicians.'
p3884
sg3424
I1
sg3425
F0
sg3426
F0
sg3427
S'Wit'
p3885
sg3429
S'AllEnemy'
p3886
sg3431
F4
sg3432
F2
sg3433
(lp3887
sg3451
I1
sg3452
F0
sg3447
g3881
sg3453
S'Pork Barrel'
p3888
sbsS'INSPIRE'
p3889
g1
(g10
g3
NtRp3890
(dp3891
g3421
F0
sg3422
S'asdf'
p3892
sg3424
I1
sg3425
F0
sg3426
F0
sg3427
S'Wit'
p3893
sg3429
S'AllFriendly'
p3894
sg3431
F0
sg3432
F3
sg3433
(lp3895
g3436
asg3451
I4
sg3452
F0
sg3447
g3889
sg3453
S'Inspire'
p3896
sbsS'JOKE'
p3897
g1
(g10
g3
NtRp3898
(dp3899
g3421
F5
sg3422
S"Ha, ha, ha...what were we talking about? Diffuse the situation with some humour. High chance of critical hit. Knock 'em dead!"
p3900
sg3424
F3
sg3425
F20
sg3426
F15
sg3427
S'Cunning'
p3901
sg3429
S'AllEnemy'
p3902
sg3431
F2
sg3432
I0
sg3433
(lp3903
sg3451
I1
sg3452
F12
sg3447
g3897
sg3453
S'Joke'
p3904
sbsS'PRAYFORSOULS'
p3905
g1
(g10
g3
NtRp3906
(dp3907
g3421
F6
sg3422
S'asdf'
p3908
sg3424
F2
sg3425
F10
sg3426
F2
sg3427
S'Cunning'
p3909
sg3429
S'None'
p3910
sg3431
F3
sg3432
I0
sg3433
(lp3911
sg3451
I1
sg3452
F10
sg3447
g3905
sg3453
S'Pray'
p3912
sbsS'REVIVE'
p3913
g1
(g10
g3
NtRp3914
(dp3915
g3421
F0
sg3422
S'Revive a defeated comrade to half votes'
p3916
sg3424
I1
sg3425
F0
sg3426
F0
sg3427
S''
sg3429
S'DeadFriendly'
p3917
sg3431
F0
sg3432
F5
sg3433
(lp3918
g3712
asg3451
I1
sg3452
F0
sg3447
g3913
sg3453
S'Revive'
p3919
sbsS'HUMANSHIELD'
p3920
g1
(g10
g3
NtRp3921
(dp3922
g3421
F8
sg3422
S'No further questions. Step back, please.'
p3923
sg3424
I1
sg3425
F5
sg3426
F2
sg3427
S'Wit'
p3924
sg3429
S'AllEnemy'
p3925
sg3431
F4
sg3432
F4
sg3433
(lp3926
g3579
asg3451
I2
sg3452
F11
sg3447
g3920
sg3453
S'Human Shield'
p3927
sbsS'MAKEDEMANDS'
p3928
g1
(g10
g3
NtRp3929
(dp3930
g3421
F8
sg3422
S'asdf'
p3931
sg3424
I1
sg3425
F0
sg3426
F0
sg3427
S'Cunning'
p3932
sg3429
S'AllEnemy'
p3933
sg3431
F0
sg3432
I0
sg3433
(lp3934
g3470
asg3451
I1
sg3452
F0
sg3447
g3928
sg3453
S'Make Outrageous Demands'
p3935
sbsS'DEFENSE'
p3936
g1
(g10
g3
NtRp3937
(dp3938
g3421
F0
sg3422
S'Gather strenth; -50% to all incoming attacks'
p3939
sg3424
I1
sg3425
F0
sg3426
F0
sg3427
S''
sg3429
S'None'
p3940
sg3431
F0
sg3432
I0
sg3433
(lp3941
g1
(g3435
g3
NtRp3942
(dp3943
g3438
S'add'
p3944
sg3440
S'(DEFEND)'
p3945
sg3442
S'resistance'
p3946
sg3444
F0.5
sg3445
F1
sg3446
F1
sg3447
S'Defense'
p3947
sg3449
S'TRUE'
p3948
sbasg3451
I1
sg3452
F0
sg3447
g3936
sg3453
S'Defense'
p3949
sbsS'MISCONSTRUE'
p3950
g1
(g10
g3
NtRp3951
(dp3952
g3421
F8
sg3422
S'asdf'
p3953
sg3424
I1
sg3425
F0
sg3426
F0
sg3427
S'Cunning'
p3954
sg3429
S'AllEnemy'
p3955
sg3431
F0
sg3432
I0
sg3433
(lp3956
g3470
asg3451
I1
sg3452
F0
sg3447
g3950
sg3453
S'Misconstrue'
p3957
sbsS'NATIONALSECURITY'
p3958
g1
(g10
g3
NtRp3959
(dp3960
g3421
F7
sg3422
S"This is a matter of national security and they don't have codeword clearance"
p3961
sg3424
I1
sg3425
F10
sg3426
F2
sg3427
S'Cunning'
p3962
sg3429
S'AllEnemy'
p3963
sg3431
F2
sg3432
I0
sg3433
(lp3964
sg3451
I1
sg3452
F9
sg3447
g3958
sg3453
S'National Security'
p3965
sbsS'RALLY'
p3966
g1
(g10
g3
NtRp3967
(dp3968
g3421
F0
sg3422
S'Get back some votes by rallying supporters'
p3969
sg3424
I1
sg3425
F0
sg3426
F0
sg3427
S'Wit'
p3970
sg3429
S'AllFriendly'
p3971
sg3431
F0
sg3432
F3
sg3433
(lp3972
g1
(g3435
g3
NtRp3973
(dp3974
g3438
S'add_permanent'
p3975
sg3440
S''
sg3442
S'votes'
p3976
sg3444
F20
sg3445
F1
sg3446
F1
sg3447
S'Votes Restore Rally'
p3977
sg3449
S''
sbasg3451
I1
sg3452
F0
sg3447
g3966
sg3453
S'Rally Constituents'
p3978
sbsS'MESSAGE'
p3979
g1
(g10
g3
NtRp3980
(dp3981
g3421
F6
sg3422
S'You can certainly wear them down by repeating your party line over and over and over...if you want'
p3982
sg3424
F6
sg3425
F10
sg3426
F5
sg3427
S'Cunning'
p3983
sg3429
S'AllEnemy'
p3984
sg3431
F3
sg3432
I0
sg3433
(lp3985
sg3451
I1
sg3452
F10
sg3447
g3979
sg3453
S'Stay On Message'
p3986
sbsS'APPEALTOGOD'
p3987
g1
(g10
g3
NtRp3988
(dp3989
g3421
F10
sg3422
S'asdf'
p3990
sg3424
F3
sg3425
F5
sg3426
F2
sg3427
S'Wit'
p3991
sg3429
S'AllEnemy'
p3992
sg3431
F4
sg3432
F7
sg3433
(lp3993
sg3451
I4
sg3452
F13
sg3447
g3987
sg3453
S'Appeal To God'
p3994
sbssS'levels'
p3995
(lp3996
g1
(g10
g3
NtRp3997
(dp3998
S'votes'
p3999
F20
sS'level'
p4000
F1
sS'spin'
p4001
F5
sS'xp'
p4002
F0
sS'skill_points'
p4003
F0
sbag1
(g10
g3
NtRp4004
(dp4005
g3999
F12
sg4000
F2
sg4001
F5
sg4002
F100
sg4003
F2
sbag1
(g10
g3
NtRp4006
(dp4007
g3999
F15
sg4000
F3
sg4001
F6
sg4002
F200
sg4003
F2
sbag1
(g10
g3
NtRp4008
(dp4009
g3999
F20
sg4000
F4
sg4001
F6
sg4002
F500
sg4003
F2
sbag1
(g10
g3
NtRp4010
(dp4011
g3999
F25
sg4000
F5
sg4001
F7
sg4002
F1000
sg4003
F2
sbag1
(g10
g3
NtRp4012
(dp4013
g3999
F30
sg4000
F6
sg4001
F7
sg4002
F2000
sg4003
F2
sbag1
(g10
g3
NtRp4014
(dp4015
g3999
F35
sg4000
F7
sg4001
F8
sg4002
F5000
sg4003
F2
sbag1
(g10
g3
NtRp4016
(dp4017
g3999
F40
sg4000
F8
sg4001
F8
sg4002
F10000
sg4003
F2
sbag1
(g10
g3
NtRp4018
(dp4019
g3999
F45
sg4000
F9
sg4001
F9
sg4002
F15000
sg4003
F2
sbag1
(g10
g3
NtRp4020
(dp4021
g3999
F50
sg4000
F10
sg4001
F9
sg4002
F20000
sg4003
F2
sbag1
(g10
g3
NtRp4022
(dp4023
g3999
F55
sg4000
F11
sg4001
F10
sg4002
F40000
sg4003
F2
sbag1
(g10
g3
NtRp4024
(dp4025
g3999
S''
sg4000
F12
sg4001
S''
sg4002
S''
sg4003
S''
sbag1
(g10
g3
NtRp4026
(dp4027
g3999
S''
sg4000
F13
sg4001
S''
sg4002
S''
sg4003
S''
sbag1
(g10
g3
NtRp4028
(dp4029
g3999
S''
sg4000
F14
sg4001
S''
sg4002
S''
sg4003
S''
sbag1
(g10
g3
NtRp4030
(dp4031
g3999
S''
sg4000
F15
sg4001
S''
sg4002
S''
sg4003
S''
sbag1
(g10
g3
NtRp4032
(dp4033
g3999
S''
sg4000
F16
sg4001
S''
sg4002
S''
sg4003
S''
sbag1
(g10
g3
NtRp4034
(dp4035
g3999
S''
sg4000
F17
sg4001
S''
sg4002
S''
sg4003
S''
sbag1
(g10
g3
NtRp4036
(dp4037
g3999
S''
sg4000
F18
sg4001
S''
sg4002
S''
sg4003
S''
sbag1
(g10
g3
NtRp4038
(dp4039
g3999
S''
sg4000
F19
sg4001
S''
sg4002
S''
sg4003
S''
sbag1
(g10
g3
NtRp4040
(dp4041
g3999
S''
sg4000
F20
sg4001
S''
sg4002
S''
sg4003
S''
sbag1
(g10
g3
NtRp4042
(dp4043
g3999
S''
sg4000
F21
sg4001
S''
sg4002
S''
sg4003
S''
sbag1
(g10
g3
NtRp4044
(dp4045
g3999
S''
sg4000
F22
sg4001
S''
sg4002
S''
sg4003
S''
sbag1
(g10
g3
NtRp4046
(dp4047
g3999
S''
sg4000
F23
sg4001
S''
sg4002
S''
sg4003
S''
sbag1
(g10
g3
NtRp4048
(dp4049
g3999
S''
sg4000
F24
sg4001
S''
sg4002
S''
sg4003
S''
sbag1
(g10
g3
NtRp4050
(dp4051
g3999
S''
sg4000
F25
sg4001
S''
sg4002
S''
sg4003
S''
sbag1
(g10
g3
NtRp4052
(dp4053
g3999
S''
sg4000
F26
sg4001
S''
sg4002
S''
sg4003
S''
sbag1
(g10
g3
NtRp4054
(dp4055
g3999
S''
sg4000
F27
sg4001
S''
sg4002
S''
sg4003
S''
sbag1
(g10
g3
NtRp4056
(dp4057
g3999
S''
sg4000
F28
sg4001
S''
sg4002
S''
sg4003
S''
sbag1
(g10
g3
NtRp4058
(dp4059
g3999
S''
sg4000
F29
sg4001
S''
sg4002
S''
sg4003
S''
sbasg3433
(dp4060
g3448
g3436
sg3547
g3543
sg3644
g3640
sg3878
g3873
sg3583
g3579
sg3658
g3654
sg3843
g3839
sg3856
g3852
sg3784
g3780
sg3602
g3598
sg3715
g3712
sg3624
g3619
sg3672
g3667
sg3947
g3942
sg3474
g3470
sS'Increase Flair'
p4061
g1
(g3435
g3
NtRp4062
(dp4063
g3438
S'add'
p4064
sg3440
S'(INCR FL)'
p4065
sg3442
S'flair'
p4066
sg3444
F2
sg3445
F1
sg3446
F4
sg3447
g4061
sg3449
S'TRUE'
p4067
sbsg3535
g3531
sg3977
g3973
ssS'characters'
p4068
(dp4069
S'Teacher001'
p4070
(lp4071
g1
(g10
g3
NtRp4072
(dp4073
S'flair_base'
p4074
F1
sS'spin_base'
p4075
F4
sS'flair_lvl'
p4076
F0.10000000000000001
sS'wit_base'
p4077
F1
sS'resistance'
p4078
(lp4079
sS'wit_lvl'
p4080
F0.089999999999999997
sS'cunning_base'
p4081
F1
sg3447
g4070
sS'votes_base'
p4082
F12
sS'speed_lvl'
p4083
F0.080000000000000002
sS'standard_attacks'
p4084
(lp4085
g3937
ag3683
asS'cunning_lvl'
p4086
F0.90000000000000002
sS'charisma_lvl'
p4087
F0.10000000000000001
sS'spin_attacks'
p4088
(lp4089
g3787
ag3774
asS'spin_lvl'
p4090
F0.25
sS'charisma_base'
p4091
F1
sS'weaknesses'
p4092
(lp4093
sS'attack_group'
p4094
S'Teacher'
p4095
sS'votes_lvl'
p4096
F0.050000000000000003
sg3453
S'Teacher'
p4097
sS'speed_base'
p4098
F1
sS'immunities'
p4099
(lp4100
sbasS'Politician001'
p4101
(lp4102
g1
(g10
g3
NtRp4103
(dp4104
g4074
F1
sg4075
F4
sg4076
F0.10000000000000001
sg4077
F1
sg4078
(lp4105
g3464
asg4080
F0.089999999999999997
sg4081
F1
sg3447
g4101
sg4082
F12
sg4083
F0.080000000000000002
sg4084
(lp4106
g3980
ag3795
ag3464
ag3898
ag3937
asg4086
F0.90000000000000002
sg4087
F0.10000000000000001
sg4088
(lp4107
g3826
ag3605
ag3914
asg4090
F0.25
sg4091
F1
sg4092
(lp4108
g3550
asg4094
S'Politician'
p4109
sg4096
F0.050000000000000003
sg3453
S'Politician'
p4110
sg4098
F1
sg4099
(lp4111
g3882
asbasS'SecretAgent'
p4112
(lp4113
g1
(g10
g3
NtRp4114
(dp4115
g4074
F1
sg4075
F4
sg4076
F0.10000000000000001
sg4077
F1
sg4078
(lp4116
sg4080
F1
sg4081
F1
sg3447
g4112
sg4082
F18
sg4083
F1
sg4084
(lp4117
g3959
ag3750
asg4086
F1
sg4087
F1
sg4088
(lp4118
g3921
ag3726
asg4090
F1
sg4091
F1
sg4092
(lp4119
sg4094
S'SecretAgent'
p4120
sg4096
F0.050000000000000003
sg3453
S'Agent Kawalski'
p4121
sg4098
F1
sg4099
(lp4122
sbasS'Bumpkin001'
p4123
(lp4124
g1
(g10
g3
NtRp4125
(dp4126
g4074
F1
sg4075
F4
sg4076
F0.10000000000000001
sg4077
F1
sg4078
(lp4127
sg4080
F0.089999999999999997
sg4081
F1
sg3447
g4123
sg4082
F12
sg4083
F0.080000000000000002
sg4084
(lp4128
g3898
ag3627
asg4086
F0.90000000000000002
sg4087
F0.10000000000000001
sg4088
(lp4129
g3566
ag3691
asg4090
F0.25
sg4091
F1
sg4092
(lp4130
g3464
ag3795
ag3675
asg4094
S'Bumpkin'
p4131
sg4096
F0.050000000000000003
sg3453
S'Bumpkin'
p4132
sg4098
F1
sg4099
(lp4133
sbasS'WarVet001'
p4134
(lp4135
g1
(g10
g3
NtRp4136
(dp4137
g4074
F1
sg4075
F4
sg4076
F0.10000000000000001
sg4077
F1
sg4078
(lp4138
sg4080
F0.089999999999999997
sg4081
F1
sg3447
g4134
sg4082
F12
sg4083
F0.080000000000000002
sg4084
(lp4139
g3929
ag3937
asg4086
F0.90000000000000002
sg4087
F0.10000000000000001
sg4088
(lp4140
g3890
ag3774
asg4090
F0.25
sg4091
F1
sg4092
(lp4141
sg4094
S'WarVet'
p4142
sg4096
F0.050000000000000003
sg3453
S'War Veteran'
p4143
sg4098
F1
sg4099
(lp4144
sbasS'Receptionist001'
p4145
(lp4146
g1
(g10
g3
NtRp4147
(dp4148
g4074
F1
sg4075
F4
sg4076
F0.10000000000000001
sg4077
F1
sg4078
(lp4149
sg4080
F0.089999999999999997
sg4081
F1
sg3447
g4145
sg4082
F10
sg4083
F0.080000000000000002
sg4084
(lp4150
g3859
ag3803
asg4086
F0.90000000000000002
sg4087
F0.10000000000000001
sg4088
(lp4151
g3811
ag3537
asg4090
F0.25
sg4091
F0
sg4092
(lp4152
sg4094
S'Receptionist'
p4153
sg4096
F0.050000000000000003
sg3453
S'Receptionist'
p4154
sg4098
F1
sg4099
(lp4155
sbasS'DeepThroat'
p4156
(lp4157
g1
(g10
g3
NtRp4158
(dp4159
g4074
F1
sg4075
F4
sg4076
F0.10000000000000001
sg4077
F1
sg4078
(lp4160
sg4080
F0.089999999999999997
sg4081
F1
sg3447
g4156
sg4082
F12
sg4083
F0.080000000000000002
sg4084
(lp4161
g3795
ag3937
ag3929
asg4086
F0.90000000000000002
sg4087
F0.10000000000000001
sg4088
(lp4162
g3661
asg4090
F0.25
sg4091
F1
sg4092
(lp4163
sg4094
S'DeepThroat'
p4164
sg4096
F0.050000000000000003
sg3453
S'Mr Er...?'
p4165
sg4098
F1
sg4099
(lp4166
sbasS'Leo'
p4167
(lp4168
g1
(g10
g3
NtRp4169
(dp4170
g4074
F2
sg4075
F4
sg4076
F0.10000000000000001
sg4077
F5
sg4078
(lp4171
sg4080
F1
sg4081
F2
sg3447
g4167
sg4082
F14
sg4083
F1
sg4084
(lp4172
g3980
ag3795
ag3464
ag3898
ag3550
asg4086
F1
sg4087
F1
sg4088
(lp4173
g3826
ag3605
ag3882
ag3718
asg4090
F1
sg4091
F2
sg4092
(lp4174
sg4094
S'Theo'
p4175
sg4096
F0.050000000000000003
sg3453
S'Theo'
p4176
sg4098
F2
sg4099
(lp4177
sbasS'HippyGirl001'
p4178
(lp4179
g1
(g10
g3
NtRp4180
(dp4181
g4074
F1
sg4075
F4
sg4076
F0.10000000000000001
sg4077
F2
sg4078
(lp4182
sg4080
F0.089999999999999997
sg4081
F2
sg3447
g4178
sg4082
F12
sg4083
F0.080000000000000002
sg4084
(lp4183
g3558
ag3683
ag3734
asg4086
F0.90000000000000002
sg4087
F0.10000000000000001
sg4088
(lp4184
g3758
ag3774
ag3914
asg4090
F0.25
sg4091
F1
sg4092
(lp4185
g3898
asg4094
S'Hippy'
p4186
sg4096
F0.050000000000000003
sg3453
S'Hippy Girl'
p4187
sg4098
F1
sg4099
(lp4188
sbasS'President'
p4189
(lp4190
g1
(g10
g3
NtRp4191
(dp4192
g4074
F1
sg4075
F4
sg4076
F0.10000000000000001
sg4077
F1
sg4078
(lp4193
sg4080
F0.089999999999999997
sg4081
F2
sg3447
g4189
sg4082
F15
sg4083
F0.080000000000000002
sg4084
(lp4194
g3980
ag3795
ag3464
ag3898
ag3937
asg4086
F0.90000000000000002
sg4087
F0.10000000000000001
sg4088
(lp4195
g3826
ag3605
ag3914
asg4090
F0.29999999999999999
sg4091
F1
sg4092
(lp4196
sg4094
S'Politician'
p4197
sg4096
F0.070000000000000007
sg3453
S'President Allen'
p4198
sg4098
F1
sg4099
(lp4199
sbasS'Unionist001'
p4200
(lp4201
g1
(g10
g3
NtRp4202
(dp4203
g4074
F1
sg4075
F4
sg4076
F0.10000000000000001
sg4077
F1
sg4078
(lp4204
sg4080
F0.089999999999999997
sg4081
F1
sg3447
g4200
sg4082
F12
sg4083
F0.080000000000000002
sg4084
(lp4205
g3929
ag3937
ag3683
asg4086
F0.90000000000000002
sg4087
F0.10000000000000001
sg4088
(lp4206
g3787
asg4090
F0.25
sg4091
F1
sg4092
(lp4207
sg4094
S'Unionist'
p4208
sg4096
F0.050000000000000003
sg3453
S'Unionist'
p4209
sg4098
F1
sg4099
(lp4210
sbasS'Wife'
p4211
(lp4212
g1
(g10
g3
NtRp4213
(dp4214
g4074
F1
sg4075
F4
sg4076
F0.10000000000000001
sg4077
F3
sg4078
(lp4215
sg4080
F1
sg4081
F1
sg3447
g4211
sg4082
F12
sg4083
F1
sg4084
(lp4216
g3980
ag3464
ag3898
asg4086
F1
sg4087
F1
sg4088
(lp4217
g3967
ag3914
ag3613
asg4090
F1
sg4091
F1
sg4092
(lp4218
sg4094
S'Wife'
p4219
sg4096
F0.050000000000000003
sg3453
S'Sarah Mossman'
p4220
sg4098
F3
sg4099
(lp4221
sbasS'PresidentAlien'
p4222
(lp4223
g1
(g10
g3
NtRp4224
(dp4225
g4074
F1
sg4075
F4
sg4076
F0.10000000000000001
sg4077
F2
sg4078
(lp4226
sg4080
F0.089999999999999997
sg4081
F2
sg3447
g4222
sg4082
F15
sg4083
F0.080000000000000002
sg4084
(lp4227
g3795
ag3464
ag3937
asg4086
F0.90000000000000002
sg4087
F0.10000000000000001
sg4088
(lp4228
g3574
ag3526
ag3914
asg4090
F0.29999999999999999
sg4091
F1
sg4092
(lp4229
sg4094
S'Alien'
p4230
sg4096
F0.070000000000000007
sg3453
S'President Alien'
p4231
sg4098
F1
sg4099
(lp4232
sbasS'Governor'
p4233
(lp4234
g1
(g10
g3
NtRp4235
(dp4236
g4074
F1
sg4075
F4
sg4076
F0.10000000000000001
sg4077
F1
sg4078
(lp4237
sg4080
F0.089999999999999997
sg4081
F1
sg3447
g4233
sg4082
F12
sg4083
F0.080000000000000002
sg4084
(lp4238
g3980
ag3795
ag3464
ag3898
ag3937
asg4086
F0.90000000000000002
sg4087
F0.10000000000000001
sg4088
(lp4239
g3826
ag3605
ag3914
asg4090
F0.25
sg4091
F1
sg4092
(lp4240
sg4094
S'Politician'
p4241
sg4096
F0.050000000000000003
sg3453
g4233
sg4098
F1
sg4099
(lp4242
sbasS'Lobbyist001'
p4243
(lp4244
g1
(g10
g3
NtRp4245
(dp4246
g4074
F1
sg4075
F4
sg4076
F0.10000000000000001
sg4077
F1
sg4078
(lp4247
sg4080
F0.089999999999999997
sg4081
F1
sg3447
g4243
sg4082
F12
sg4083
F0.080000000000000002
sg4084
(lp4248
g3699
ag3929
asg4086
F0.90000000000000002
sg4087
F0.10000000000000001
sg4088
(lp4249
g3846
ag3661
asg4090
F0.25
sg4091
F1
sg4092
(lp4250
g3882
asg4094
S'Lobbyist'
p4251
sg4096
F0.050000000000000003
sg3453
S'Lobbyist'
p4252
sg4098
F1
sg4099
(lp4253
g3550
asbasS'Journalist001'
p4254
(lp4255
g1
(g10
g3
NtRp4256
(dp4257
g4074
F1
sg4075
F4
sg4076
F0.10000000000000001
sg4077
F2
sg4078
(lp4258
sg4080
F0.080000000000000002
sg4081
F1
sg3447
g4254
sg4082
F16
sg4083
F0.01
sg4084
(lp4259
g3510
ag3951
asg4086
F0.90000000000000002
sg4087
F0.10000000000000001
sg4088
(lp4260
g3742
ag3419
ag3486
asg4090
F0.34999999999999998
sg4091
F1
sg4092
(lp4261
sg4094
S'Journalist'
p4262
sg4096
F0.050000000000000003
sg3453
S'Journalist'
p4263
sg4098
F1
sg4099
(lp4264
sbasS'ReligiousNut001'
p4265
(lp4266
g1
(g10
g3
NtRp4267
(dp4268
g4074
F1
sg4075
F6
sg4076
F0.050000000000000003
sg4077
F3
sg4078
(lp4269
sg4080
F0.089999999999999997
sg4081
F1
sg3447
g4265
sg4082
F12
sg4083
F0.01
sg4084
(lp4270
g3494
ag3906
ag3937
asg4086
F0.050000000000000003
sg4087
F0.050000000000000003
sg4088
(lp4271
g3988
ag3648
asg4090
F0.25
sg4091
F1
sg4092
(lp4272
sg4094
S'Religious'
p4273
sg4096
F0.089999999999999997
sg3453
S'Religious Nut'
p4274
sg4098
F1
sg4099
(lp4275
g3898
asbasS'JointChief001'
p4276
(lp4277
g1
(g10
g3
NtRp4278
(dp4279
g4074
F1
sg4075
F4
sg4076
F0.10000000000000001
sg4077
F1
sg4078
(lp4280
sg4080
F0.089999999999999997
sg4081
F1
sg3447
g4276
sg4082
F12
sg4083
F0.080000000000000002
sg4084
(lp4281
g3929
ag3937
ag3959
ag3585
asg4086
F0.90000000000000002
sg4087
F0.10000000000000001
sg4088
(lp4282
g3726
asg4090
F0.25
sg4091
F1
sg4092
(lp4283
sg4094
S'JointChief'
p4284
sg4096
F0.050000000000000003
sg3453
S'Joint Chief'
p4285
sg4098
F1
sg4099
(lp4286
sbasS'Protester001'
p4287
(lp4288
g1
(g10
g3
NtRp4289
(dp4290
g4074
F0.5
sg4075
F4
sg4076
F0.050000000000000003
sg4077
F1
sg4078
(lp4291
g3898
asg4080
F0.01
sg4081
F1
sg3447
g4287
sg4082
F10
sg4083
F0.01
sg4084
(lp4292
g3683
ag3502
ag3558
asg4086
F0.5
sg4087
F0.10000000000000001
sg4088
(lp4293
g3774
asg4090
F0.20000000000000001
sg4091
F1
sg4092
(lp4294
sg4094
S'Protestor'
p4295
sg4096
F0.01
sg3453
S'Protester'
p4296
sg4098
F1
sg4099
(lp4297
sbasS'TVPersonality001'
p4298
(lp4299
g1
(g10
g3
NtRp4300
(dp4301
g4074
F1
sg4075
F4
sg4076
F0.10000000000000001
sg4077
F1
sg4078
(lp4302
sg4080
F0.089999999999999997
sg4081
F1
sg3447
g4298
sg4082
F12
sg4083
F0.080000000000000002
sg4084
(lp4303
g3898
ag3510
asg4086
F0.90000000000000002
sg4087
F0.10000000000000001
sg4088
(lp4304
g3486
ag3478
asg4090
F0.25
sg4091
F1
sg4092
(lp4305
sg4094
S'TVPersonality'
p4306
sg4096
F0.050000000000000003
sg3453
S"Hecules O'Grady"
p4307
sg4098
F1
sg4099
(lp4308
sbasS'Player'
p4309
(lp4310
g1
(g10
g3
NtRp4311
(dp4312
g4074
F1
sg4075
F5
sg4076
F0.10000000000000001
sg4077
F1
sg4078
(lp4313
sg4080
F0.089999999999999997
sg4081
F1
sg3447
g4309
sg4082
F15
sg4083
F0.080000000000000002
sg4084
(lp4314
g3980
ag3464
ag3898
asg4086
F0.90000000000000002
sg4087
F0.10000000000000001
sg4088
(lp4315
g3605
asg4090
F0.25
sg4091
F1
sg4092
(lp4316
sg4094
S'Player'
p4317
sg4096
F0.20000000000000001
sg3453
S'Phillip Mossman'
p4318
sg4098
F2
sg4099
(lp4319
sbasS'Computer'
p4320
(lp4321
g1
(g10
g3
NtRp4322
(dp4323
g4074
F1
sg4075
F4
sg4076
F0.10000000000000001
sg4077
F1
sg4078
(lp4324
sg4080
F0.089999999999999997
sg4081
F1
sg3447
g4320
sg4082
F12
sg4083
F0.080000000000000002
sg4084
(lp4325
g3980
ag3795
ag3464
ag3898
ag3937
asg4086
F0.90000000000000002
sg4087
F0.10000000000000001
sg4088
(lp4326
g3826
ag3605
ag3914
asg4090
F0.5
sg4091
F1
sg4092
(lp4327
sg4094
S'Politician'
p4328
sg4096
F0.050000000000000003
sg3453
S'N.O.T.B.A.D'
p4329
sg4098
F1
sg4099
(lp4330
sbasS'CabinetPolitician001'
p4331
(lp4332
g1
(g10
g3
NtRp4333
(dp4334
g4074
F1
sg4075
F4
sg4076
F0.10000000000000001
sg4077
F1
sg4078
(lp4335
sg4080
F0.089999999999999997
sg4081
F1
sg3447
g4331
sg4082
F12
sg4083
F0.080000000000000002
sg4084
(lp4336
g3980
ag3795
ag3464
ag3898
ag3937
asg4086
F0.90000000000000002
sg4087
F0.10000000000000001
sg4088
(lp4337
g3826
ag3605
ag3914
asg4090
F0.25
sg4091
F1
sg4092
(lp4338
sg4094
S'Politician'
p4339
sg4096
F0.050000000000000003
sg3453
S'Cabinet Politician'
p4340
sg4098
F1
sg4099
(lp4341
sbasS'Constituent001'
p4342
(lp4343
g1
(g10
g3
NtRp4344
(dp4345
g4074
F1
sg4075
F4
sg4076
F0.10000000000000001
sg4077
F2
sg4078
(lp4346
sg4080
F0.080000000000000002
sg4081
F1
sg3447
g4342
sg4082
F12
sg4083
F0.10000000000000001
sg4084
(lp4347
g3683
ag3699
ag3929
asg4086
F0.90000000000000002
sg4087
F0.10000000000000001
sg4088
(lp4348
g3914
asg4090
F0.25
sg4091
F1
sg4092
(lp4349
sg4094
S'Constituent'
p4350
sg4096
F0.050000000000000003
sg3453
S'Constituent'
p4351
sg4098
F2
sg4099
(lp4352
sbasS'Mayor'
p4353
(lp4354
g1
(g10
g3
NtRp4355
(dp4356
g4074
F1
sg4075
F4
sg4076
F0.10000000000000001
sg4077
F1
sg4078
(lp4357
sg4080
F0.089999999999999997
sg4081
F1
sg3447
g4353
sg4082
F12
sg4083
F0.080000000000000002
sg4084
(lp4358
g3980
ag3795
ag3464
ag3898
ag3937
asg4086
F0.90000000000000002
sg4087
F0.10000000000000001
sg4088
(lp4359
g3826
ag3605
ag3914
asg4090
F0.25
sg4091
F1
sg4092
(lp4360
sg4094
S'Politician'
p4361
sg4096
F0.050000000000000003
sg3453
S'Mayor Goodman'
p4362
sg4098
F1
sg4099
(lp4363
sbassS'quest_items'
p4364
(dp4365
S'SOUTHWINGDOORKEY'
p4366
g1
(g10
g3
NtRp4367
(dp4368
g3422
S'It looks old.'
p4369
sg3447
g4366
sg3453
S'Key to the South Wing'
p4370
sbsS'BILLOFRIGHTS'
p4371
g1
(g10
g3
NtRp4372
(dp4373
g3422
S''
sg3447
g4371
sg3453
S"Citizens' Bill of Rights"
p4374
sbsS'PEN'
p4375
g1
(g10
g3
NtRp4376
(dp4377
g3422
S'Ink flows freely... into your shirt pocket.'
p4378
sg3447
g4375
sg3453
S'A pen'
p4379
sbsS'INCRIMINATINGEVIDENCE'
p4380
g1
(g10
g3
NtRp4381
(dp4382
g3422
S'Very incriminating proof that something troubling is going on in the White House.'
p4383
sg3447
g4380
sg3453
S'Incriminating Evidence'
p4384
sbsS'WARVETROOMKEY'
p4385
g1
(g10
g3
NtRp4386
(dp4387
g3422
S'The key is imprinted with the seal of the President.'
p4388
sg3447
g4385
sg3453
S'Key to the West Room'
p4389
sbsS'CABINETROOMKEY'
p4390
g1
(g10
g3
NtRp4391
(dp4392
g3422
S'The key is imprinted with the seal of the President.'
p4393
sg3447
g4390
sg3453
S'Key to the Cabinet Room'
p4394
sbsS'TEACHERROOMKEY'
p4395
g1
(g10
g3
NtRp4396
(dp4397
g3422
S'The key is imprinted with the seal of the President.'
p4398
sg3447
g4395
sg3453
S'Key to the East Room'
p4399
sbssg4084
(dp4400
S'Theo'
p4401
(lp4402
g3980
ag3795
ag3464
ag3898
ag3550
ag3826
ag3605
ag3882
ag3718
asS'JointChief'
p4403
(lp4404
g3929
ag3937
ag3959
ag3726
ag3585
asS'Politician'
p4405
(lp4406
g3980
ag3795
ag3464
ag3898
ag3826
ag3605
ag3914
ag3937
asS'Bumpkin'
p4407
(lp4408
g3898
ag3566
ag3691
ag3627
asS'Wife'
p4409
(lp4410
g3980
ag3464
ag3898
ag3967
ag3914
ag3613
asS'Lobbyist'
p4411
(lp4412
g3699
ag3846
ag3661
ag3929
asS'DeepThroat'
p4413
(lp4414
g3795
ag3937
ag3661
ag3929
asS'Protestor'
p4415
(lp4416
g3774
ag3683
ag3502
ag3558
asS'SecretAgent'
p4417
(lp4418
g3921
ag3959
ag3726
ag3750
asS'Teacher'
p4419
(lp4420
g3787
ag3937
ag3683
ag3774
asS'Alien'
p4421
(lp4422
g3795
ag3464
ag3574
ag3526
ag3914
ag3937
asS'Player'
p4423
(lp4424
g3980
ag3464
ag3898
ag3605
asS'Computer'
p4425
(lp4426
g3726
ag3959
ag3518
ag3661
ag3929
ag3795
asS'Receptionist'
p4427
(lp4428
g3859
ag3803
ag3811
ag3537
asS'Hippy'
p4429
(lp4430
g3558
ag3683
ag3734
ag3758
ag3774
ag3914
asS'Constituent'
p4431
(lp4432
g3683
ag3914
ag3699
ag3929
asS'TVPersonality'
p4433
(lp4434
g3898
ag3486
ag3510
ag3478
asS'WarVet'
p4435
(lp4436
g3929
ag3937
ag3890
ag3774
asS'Religious'
p4437
(lp4438
g3494
ag3988
ag3648
ag3906
ag3937
asS'Unionist'
p4439
(lp4440
g3929
ag3937
ag3683
ag3787
asS'Journalist'
p4441
(lp4442
g3510
ag3951
ag3742
ag3419
ag3486
assS'shops'
p4443
(dp4444
S'SHOP1'
p4445
(lp4446
g1
(g10
g3
NtRp4447
(dp4448
S'price'
p4449
F20
sS'shop_id'
p4450
g4445
sS'item_attack'
p4451
g3635
sbag1
(g10
g3
NtRp4452
(dp4453
g4449
F20
sg4450
S'SHOP1'
p4454
sg4451
g3834
sbasS'SHOP2P2'
p4455
(lp4456
g1
(g10
g3
NtRp4457
(dp4458
g4449
F20
sg4450
g4455
sg4451
g3635
sbag1
(g10
g3
NtRp4459
(dp4460
g4449
F20
sg4450
S'SHOP2P2'
p4461
sg4451
g3834
sbag1
(g10
g3
NtRp4462
(dp4463
g4449
F50
sg4450
S'SHOP2P2'
p4464
sg4451
g3707
sbag1
(g10
g3
NtRp4465
(dp4466
g4449
F40
sg4450
S'SHOP2P2'
p4467
sg4451
g3593
sbasS'SHOP2'
p4468
(lp4469
g1
(g10
g3
NtRp4470
(dp4471
g4449
F20
sg4450
g4468
sg4451
g3635
sbag1
(g10
g3
NtRp4472
(dp4473
g4449
F20
sg4450
S'SHOP2'
p4474
sg4451
g3834
sbag1
(g10
g3
NtRp4475
(dp4476
g4449
F50
sg4450
S'SHOP2'
p4477
sg4451
g3707
sbag1
(g10
g3
NtRp4478
(dp4479
g4449
F40
sg4450
S'SHOP2'
p4480
sg4451
g3593
sbassS'encounters'
p4481
(dp4482
S'P-hard-14'
p4483
g1
(g10
g3
NtRp4484
(dp4485
S'item_attack_drops'
p4486
(lp4487
sS'item_attacks'
p4488
(lp4489
sg3453
S''
sS'money'
p4490
F100
sg4002
F350
sS'monster2_lvl'
p4491
S''
sS'bribe_cost'
p4492
F50
sS'monster3'
p4493
S''
sS'monster1_lvl'
p4494
F6
sS'monster3_lvl'
p4495
S''
sS'monster4_lvl'
p4496
S''
sS'monster4'
p4497
S''
sS'monster2'
p4498
S''
sg3447
g4483
sS'monster1'
p4499
S'Computer'
p4500
sbsS'P-hard-11'
p4501
g1
(g10
g3
NtRp4502
(dp4503
g4486
(lp4504
sg4488
(lp4505
sg3453
S''
sg4490
F100
sg4002
F350
sg4491
F6
sg4492
F50
sg4493
S'JointChief001'
p4506
sg4494
F6
sg4495
F6
sg4496
S''
sg4497
S''
sg4498
S'JointChief001'
p4507
sg3447
g4501
sg4499
S'JointChief001'
p4508
sbsS'P-hard-10'
p4509
g1
(g10
g3
NtRp4510
(dp4511
g4486
(lp4512
sg4488
(lp4513
sg3453
S''
sg4490
S''
sg4002
F350
sg4491
F6
sg4492
F50
sg4493
S'CabinetPolitician001'
p4514
sg4494
F6
sg4495
F6
sg4496
F6
sg4497
S'CabinetPolitician001'
p4515
sg4498
S'CabinetPolitician001'
p4516
sg3447
g4509
sg4499
S'CabinetPolitician001'
p4517
sbsS'P-hard-13'
p4518
g1
(g10
g3
NtRp4519
(dp4520
g4486
(lp4521
sg4488
(lp4522
sg3453
S''
sg4490
F100
sg4002
F350
sg4491
F6
sg4492
F50
sg4493
S'JointChief001'
p4523
sg4494
F6
sg4495
F6
sg4496
F6
sg4497
S'JointChief001'
p4524
sg4498
S'JointChief001'
p4525
sg3447
g4518
sg4499
S'JointChief001'
p4526
sbsS'P-hard-12'
p4527
g1
(g10
g3
NtRp4528
(dp4529
g4486
(lp4530
sg4488
(lp4531
sg3453
S''
sg4490
F100
sg4002
F350
sg4491
F6
sg4492
F50
sg4493
S'JointChief001'
p4532
sg4494
F6
sg4495
F6
sg4496
S''
sg4497
S''
sg4498
S'JointChief001'
p4533
sg3447
g4527
sg4499
S'JointChief001'
p4534
sbsS'P-easy-05'
p4535
g1
(g10
g3
NtRp4536
(dp4537
g4486
(lp4538
g1
(c__main__
ItemAttack
p4539
g3
NtRp4540
(dp4541
S'attack'
p4542
g3766
sS'quantity'
p4543
I1
sbasg4488
(lp4544
sg3453
S''
sg4490
F0
sg4002
F20
sg4491
S''
sg4492
F50
sg4493
S''
sg4494
F2
sg4495
S''
sg4496
S''
sg4497
S''
sg4498
S''
sg3447
g4535
sg4499
S'Journalist001'
p4545
sbsS'P-easy-04'
p4546
g1
(g10
g3
NtRp4547
(dp4548
g4486
(lp4549
g1
(g4539
g3
NtRp4550
(dp4551
g4542
g3635
sg4543
I1
sbasg4488
(lp4552
sg3453
S''
sg4490
F0
sg4002
F30
sg4491
F1
sg4492
F50
sg4493
S''
sg4494
F1
sg4495
S''
sg4496
S''
sg4497
S''
sg4498
S'Protester001'
p4553
sg3447
g4546
sg4499
S'Protester001'
p4554
sbsS'P-easy-07'
p4555
g1
(g10
g3
NtRp4556
(dp4557
g4486
(lp4558
g1
(g4539
g3
NtRp4559
(dp4560
g4542
g3635
sg4543
I1
sbasg4488
(lp4561
sg3453
S''
sg4490
F15
sg4002
F40
sg4491
F2
sg4492
F50
sg4493
S''
sg4494
F2
sg4495
S''
sg4496
S''
sg4497
S''
sg4498
S'Protester001'
p4562
sg3447
g4555
sg4499
S'Constituent001'
p4563
sbsS'P-easy-06'
p4564
g1
(g10
g3
NtRp4565
(dp4566
g4486
(lp4567
g1
(g4539
g3
NtRp4568
(dp4569
g4542
g3914
sg4543
I1
sbasg4488
(lp4570
sg3453
S''
sg4490
F0
sg4002
F40
sg4491
F2
sg4492
F50
sg4493
S''
sg4494
F2
sg4495
S''
sg4496
S''
sg4497
S''
sg4498
S'Lobbyist001'
p4571
sg3447
g4564
sg4499
S'Lobbyist001'
p4572
sbsS'P-easy-01'
p4573
g1
(g10
g3
NtRp4574
(dp4575
g4486
(lp4576
g1
(g4539
g3
NtRp4577
(dp4578
g4542
g3834
sg4543
I1
sbasg4488
(lp4579
g1
(g4539
g3
NtRp4580
(dp4581
g4542
g3766
sg4543
I1
sbasg3453
S'The quest for pen'
p4582
sg4490
F0
sg4002
F10
sg4491
S''
sg4492
F50
sg4493
S''
sg4494
F1
sg4495
S''
sg4496
S''
sg4497
S''
sg4498
S''
sg3447
g4573
sg4499
S'Receptionist001'
p4583
sbsS'P-easy-03'
p4584
g1
(g10
g3
NtRp4585
(dp4586
g4486
(lp4587
g1
(g4539
g3
NtRp4588
(dp4589
g4542
g3834
sg4543
I1
sbasg4488
(lp4590
g1
(g4539
g3
NtRp4591
(dp4592
g4542
g3766
sg4543
I1
sbasg3453
S''
sg4490
F0
sg4002
F30
sg4491
F1
sg4492
F50
sg4493
S''
sg4494
F1
sg4495
S''
sg4496
S''
sg4497
S''
sg4498
S'Protester001'
p4593
sg3447
g4584
sg4499
S'Protester001'
p4594
sbsS'P-easy-02'
p4595
g1
(g10
g3
NtRp4596
(dp4597
g4486
(lp4598
sg4488
(lp4599
sg3453
S''
sg4490
F0
sg4002
F30
sg4491
F1
sg4492
F50
sg4493
S''
sg4494
F1
sg4495
S''
sg4496
S''
sg4497
S''
sg4498
S'Protester001'
p4600
sg3447
g4595
sg4499
S'Protester001'
p4601
sbsS'P-easy-09'
p4602
g1
(g10
g3
NtRp4603
(dp4604
g4486
(lp4605
g1
(g4539
g3
NtRp4606
(dp4607
g4542
g3834
sg4543
I1
sbasg4488
(lp4608
sg3453
S''
sg4490
F15
sg4002
F60
sg4491
F2
sg4492
F50
sg4493
S''
sg4494
F2
sg4495
S''
sg4496
S''
sg4497
S''
sg4498
S'Constituent001'
p4609
sg3447
g4602
sg4499
S'Constituent001'
p4610
sbsS'P-easy-08'
p4611
g1
(g10
g3
NtRp4612
(dp4613
g4486
(lp4614
sg4488
(lp4615
sg3453
S''
sg4490
F15
sg4002
F40
sg4491
F2
sg4492
F50
sg4493
S'Constituent001'
p4616
sg4494
F2
sg4495
F2
sg4496
S''
sg4497
S''
sg4498
S'Constituent001'
p4617
sg3447
g4611
sg4499
S'Protester001'
p4618
sbsS'P-hard-08'
p4619
g1
(g10
g3
NtRp4620
(dp4621
g4486
(lp4622
sg4488
(lp4623
sg3453
S''
sg4490
S''
sg4002
F350
sg4491
F6
sg4492
F50
sg4493
S'CabinetPolitician001'
p4624
sg4494
F6
sg4495
F6
sg4496
S''
sg4497
S''
sg4498
S'CabinetPolitician001'
p4625
sg3447
g4619
sg4499
S'CabinetPolitician001'
p4626
sbsS'P-hard-09'
p4627
g1
(g10
g3
NtRp4628
(dp4629
g4486
(lp4630
sg4488
(lp4631
sg3453
S''
sg4490
F70
sg4002
F350
sg4491
F6
sg4492
F50
sg4493
S'CabinetPolitician001'
p4632
sg4494
F6
sg4495
F6
sg4496
F6
sg4497
S'CabinetPolitician001'
p4633
sg4498
S'CabinetPolitician001'
p4634
sg3447
g4627
sg4499
S'CabinetPolitician001'
p4635
sbsS'P-med-08'
p4636
g1
(g10
g3
NtRp4637
(dp4638
g4486
(lp4639
g1
(g4539
g3
NtRp4640
(dp4641
g4542
g3593
sg4543
I1
sbasg4488
(lp4642
sg3453
S''
sg4490
S''
sg4002
F180
sg4491
F4
sg4492
F50
sg4493
S'Politician001'
p4643
sg4494
F4
sg4495
F4
sg4496
S''
sg4497
S''
sg4498
S'Politician001'
p4644
sg3447
g4636
sg4499
S'Protester001'
p4645
sbsS'P-med-09'
p4646
g1
(g10
g3
NtRp4647
(dp4648
g4486
(lp4649
sg4488
(lp4650
sg3453
S''
sg4490
F50
sg4002
F180
sg4491
F4
sg4492
F50
sg4493
S'Politician001'
p4651
sg4494
F4
sg4495
F4
sg4496
S''
sg4497
S''
sg4498
S'ReligiousNut001'
p4652
sg3447
g4646
sg4499
S'Politician001'
p4653
sbsS'P-med-02'
p4654
g1
(g10
g3
NtRp4655
(dp4656
g4486
(lp4657
g1
(g4539
g3
NtRp4658
(dp4659
g4542
g3593
sg4543
I1
sbasg4488
(lp4660
g1
(g4539
g3
NtRp4661
(dp4662
g4542
g3456
sg4543
I1
sbasg3453
S''
sg4490
F25
sg4002
F90
sg4491
F3
sg4492
F50
sg4493
S''
sg4494
F3
sg4495
S''
sg4496
S''
sg4497
S''
sg4498
S'Politician001'
p4663
sg3447
g4654
sg4499
S'Politician001'
p4664
sbsS'P-med-03'
p4665
g1
(g10
g3
NtRp4666
(dp4667
g4486
(lp4668
sg4488
(lp4669
g1
(g4539
g3
NtRp4670
(dp4671
g4542
g3456
sg4543
I1
sbasg3453
S''
sg4490
F25
sg4002
F90
sg4491
F3
sg4492
F50
sg4493
S''
sg4494
F3
sg4495
S''
sg4496
S''
sg4497
S''
sg4498
S'Bumpkin001'
p4672
sg3447
g4665
sg4499
S'Bumpkin001'
p4673
sbsS'P-med-01'
p4674
g1
(g10
g3
NtRp4675
(dp4676
g4486
(lp4677
sg4488
(lp4678
sg3453
S''
sg4490
F30
sg4002
F90
sg4491
F3
sg4492
F50
sg4493
S''
sg4494
F3
sg4495
S''
sg4496
S''
sg4497
S''
sg4498
S'Politician001'
p4679
sg3447
g4674
sg4499
S'Politician001'
p4680
sbsS'P-med-06'
p4681
g1
(g10
g3
NtRp4682
(dp4683
g4486
(lp4684
sg4488
(lp4685
sg3453
S''
sg4490
F50
sg4002
F220
sg4491
F5
sg4492
F50
sg4493
S'Politician001'
p4686
sg4494
F4
sg4495
F4
sg4496
S''
sg4497
S''
sg4498
S'Governor'
p4687
sg3447
g4681
sg4499
S'Politician001'
p4688
sbsS'P-med-07'
p4689
g1
(g10
g3
NtRp4690
(dp4691
g4486
(lp4692
sg4488
(lp4693
sg3453
S''
sg4490
S''
sg4002
F120
sg4491
F5
sg4492
F50
sg4493
S''
sg4494
F5
sg4495
S''
sg4496
S''
sg4497
S''
sg4498
S'Journalist001'
p4694
sg3447
g4689
sg4499
S'Politician001'
p4695
sbsS'P-med-04'
p4696
g1
(g10
g3
NtRp4697
(dp4698
g4486
(lp4699
sg4488
(lp4700
sg3453
S''
sg4490
F30
sg4002
F135
sg4491
F3
sg4492
F50
sg4493
S'Protester001'
p4701
sg4494
F3
sg4495
F3
sg4496
S''
sg4497
S''
sg4498
S'Bumpkin001'
p4702
sg3447
g4696
sg4499
S'HippyGirl001'
p4703
sbsS'P-med-05'
p4704
g1
(g10
g3
NtRp4705
(dp4706
g4486
(lp4707
sg4488
(lp4708
sg3453
S''
sg4490
F30
sg4002
F135
sg4491
F3
sg4492
F50
sg4493
S'Politician001'
p4709
sg4494
F3
sg4495
F3
sg4496
S''
sg4497
S''
sg4498
S'Journalist001'
p4710
sg3447
g4704
sg4499
S'Journalist001'
p4711
sbsS'P-med-24'
p4712
g1
(g10
g3
NtRp4713
(dp4714
g4486
(lp4715
sg4488
(lp4716
sg3453
S''
sg4490
F70
sg4002
F500
sg4491
F8
sg4492
F50
sg4493
S'Politician001'
p4717
sg4494
F7
sg4495
F7
sg4496
S''
sg4497
S''
sg4498
S'PresidentAlien'
p4718
sg3447
g4712
sg4499
S'Politician001'
p4719
sbsS'P-med-20'
p4720
g1
(g10
g3
NtRp4721
(dp4722
g4486
(lp4723
sg4488
(lp4724
sg3453
S''
sg4490
S''
sg4002
F225
sg4491
F5
sg4492
F50
sg4493
S'Journalist001'
p4725
sg4494
F5
sg4495
F5
sg4496
S''
sg4497
S''
sg4498
S'TVPersonality001'
p4726
sg3447
g4720
sg4499
S'Journalist001'
p4727
sbsS'P-med-21'
p4728
g1
(g10
g3
NtRp4729
(dp4730
g4486
(lp4731
sg4488
(lp4732
sg3453
S''
sg4490
S''
sg4002
F300
sg4491
F7
sg4492
F50
sg4493
S'Politician001'
p4733
sg4494
F6
sg4495
F6
sg4496
S''
sg4497
S''
sg4498
S'President'
p4734
sg3447
g4728
sg4499
S'Politician001'
p4735
sbsS'P-med-22'
p4736
g1
(g10
g3
NtRp4737
(dp4738
g4486
(lp4739
sg4488
(lp4740
sg3453
S''
sg4490
F70
sg4002
F180
sg4491
F6
sg4492
F50
sg4493
S''
sg4494
F6
sg4495
S''
sg4496
S''
sg4497
S''
sg4498
S'DeepThroat'
p4741
sg3447
g4736
sg4499
S'DeepThroat'
p4742
sbsS'P-med-23'
p4743
g1
(g10
g3
NtRp4744
(dp4745
g4486
(lp4746
g1
(g4539
g3
NtRp4747
(dp4748
g4542
g3593
sg4543
I1
sbasg4488
(lp4749
sg3453
S''
sg4490
S''
sg4002
F400
sg4491
F7
sg4492
F50
sg4493
S'Politician001'
p4750
sg4494
F6
sg4495
F6
sg4496
F6
sg4497
S'Politician001'
p4751
sg4498
S'President'
p4752
sg3447
g4743
sg4499
S'Politician001'
p4753
sbsS'P-hard-06'
p4754
g1
(g10
g3
NtRp4755
(dp4756
g4486
(lp4757
sg4488
(lp4758
sg3453
S''
sg4490
F70
sg4002
F350
sg4491
F6
sg4492
F50
sg4493
S'Teacher001'
p4759
sg4494
F6
sg4495
F6
sg4496
S''
sg4497
S''
sg4498
S'Teacher001'
p4760
sg3447
g4754
sg4499
S'Teacher001'
p4761
sbsS'P-hard-07'
p4762
g1
(g10
g3
NtRp4763
(dp4764
g4486
(lp4765
g1
(g4539
g3
NtRp4766
(dp4767
g4542
g3914
sg4543
I1
sbasg4488
(lp4768
sg3453
S''
sg4490
S''
sg4002
F350
sg4491
F6
sg4492
F50
sg4493
S'Teacher001'
p4769
sg4494
F6
sg4495
F6
sg4496
F6
sg4497
S'Teacher001'
p4770
sg4498
S'Teacher001'
p4771
sg3447
g4762
sg4499
S'Teacher001'
p4772
sbsS'P-hard-04'
p4773
g1
(g10
g3
NtRp4774
(dp4775
g4486
(lp4776
sg4488
(lp4777
sg3453
S''
sg4490
S''
sg4002
F350
sg4491
F6
sg4492
F50
sg4493
S'WarVet001'
p4778
sg4494
F6
sg4495
F6
sg4496
S''
sg4497
S''
sg4498
S'WarVet001'
p4779
sg3447
g4773
sg4499
S'WarVet001'
p4780
sbsS'P-hard-05'
p4781
g1
(g10
g3
NtRp4782
(dp4783
g4486
(lp4784
sg4488
(lp4785
sg3453
S''
sg4490
S''
sg4002
F350
sg4491
F6
sg4492
F50
sg4493
S'WarVet001'
p4786
sg4494
F6
sg4495
F6
sg4496
F6
sg4497
S'WarVet001'
p4787
sg4498
S'WarVet001'
p4788
sg3447
g4781
sg4499
S'WarVet001'
p4789
sbsS'P-hard-02'
p4790
g1
(g10
g3
NtRp4791
(dp4792
g4486
(lp4793
sg4488
(lp4794
sg3453
S''
sg4490
F70
sg4002
F350
sg4491
F6
sg4492
F50
sg4493
S'Journalist001'
p4795
sg4494
F6
sg4495
F6
sg4496
S''
sg4497
S''
sg4498
S'TVPersonality001'
p4796
sg3447
g4790
sg4499
S'Journalist001'
p4797
sbsS'P-hard-03'
p4798
g1
(g10
g3
NtRp4799
(dp4800
g4486
(lp4801
g1
(g4539
g3
NtRp4802
(dp4803
g4542
g3593
sg4543
I1
sbasg4488
(lp4804
sg3453
S''
sg4490
S''
sg4002
F350
sg4491
F6
sg4492
F50
sg4493
S'Journalist001'
p4805
sg4494
F6
sg4495
F6
sg4496
S''
sg4497
S''
sg4498
S'Journalist001'
p4806
sg3447
g4798
sg4499
S'TVPersonality001'
p4807
sbsS'P-hard-01'
p4808
g1
(g10
g3
NtRp4809
(dp4810
g4486
(lp4811
sg4488
(lp4812
sg3453
S''
sg4490
S''
sg4002
F350
sg4491
F6
sg4492
F50
sg4493
S'Journalist001'
p4813
sg4494
F6
sg4495
F6
sg4496
S''
sg4497
S''
sg4498
S'Journalist001'
p4814
sg3447
g4808
sg4499
S'Journalist001'
p4815
sbsS'P-easy-10'
p4816
g1
(g10
g3
NtRp4817
(dp4818
g4486
(lp4819
sg4488
(lp4820
sg3453
S''
sg4490
F40
sg4002
F80
sg4491
F3
sg4492
F50
sg4493
S'Politician001'
p4821
sg4494
F2
sg4495
F3
sg4496
S''
sg4497
S''
sg4498
S'Mayor'
p4822
sg3447
g4816
sg4499
S'Politician001'
p4823
sbsS'P-med-19'
p4824
g1
(g10
g3
NtRp4825
(dp4826
g4486
(lp4827
g1
(g4539
g3
NtRp4828
(dp4829
g4542
g3914
sg4543
I1
sbasg4488
(lp4830
sg3453
S''
sg4490
S''
sg4002
F150
sg4491
F5
sg4492
F50
sg4493
S''
sg4494
F5
sg4495
S''
sg4496
S''
sg4497
S''
sg4498
S'DeepThroat'
p4831
sg3447
g4824
sg4499
S'DeepThroat'
p4832
sbsS'P-med-18'
p4833
g1
(g10
g3
NtRp4834
(dp4835
g4486
(lp4836
sg4488
(lp4837
sg3453
S''
sg4490
F70
sg4002
F300
sg4491
F5
sg4492
F50
sg4493
S'ReligiousNut001'
p4838
sg4494
F5
sg4495
F5
sg4496
F5
sg4497
S'ReligiousNut001'
p4839
sg4498
S'Constituent001'
p4840
sg3447
g4833
sg4499
S'HippyGirl001'
p4841
sbsS'P-med-15'
p4842
g1
(g10
g3
NtRp4843
(dp4844
g4486
(lp4845
g1
(g4539
g3
NtRp4846
(dp4847
g4542
g3914
sg4543
I1
sbasg4488
(lp4848
sg3453
S''
sg4490
S''
sg4002
F180
sg4491
F6
sg4492
F50
sg4493
S''
sg4494
F5
sg4495
S''
sg4496
S''
sg4497
S''
sg4498
S'ReligiousNut001'
p4849
sg3447
g4842
sg4499
S'ReligiousNut001'
p4850
sbsS'P-med-14'
p4851
g1
(g10
g3
NtRp4852
(dp4853
g4486
(lp4854
sg4488
(lp4855
sg3453
S''
sg4490
S''
sg4002
F240
sg4491
F4
sg4492
F50
sg4493
S'Constituent001'
p4856
sg4494
F4
sg4495
F4
sg4496
F5
sg4497
S'Lobbyist001'
p4857
sg4498
S'Lobbyist001'
p4858
sg3447
g4851
sg4499
S'Constituent001'
p4859
sbsS'P-med-17'
p4860
g1
(g10
g3
NtRp4861
(dp4862
g4486
(lp4863
sg4488
(lp4864
sg3453
S''
sg4490
F70
sg4002
F225
sg4491
F5
sg4492
F50
sg4493
S'ReligiousNut001'
p4865
sg4494
F5
sg4495
F5
sg4496
S''
sg4497
S''
sg4498
S'HippyGirl001'
p4866
sg3447
g4860
sg4499
S'ReligiousNut001'
p4867
sbsS'P-med-16'
p4868
g1
(g10
g3
NtRp4869
(dp4870
g4486
(lp4871
sg4488
(lp4872
sg3453
S''
sg4490
S''
sg4002
F225
sg4491
F5
sg4492
F50
sg4493
S'HippyGirl001'
p4873
sg4494
F5
sg4495
F5
sg4496
S''
sg4497
S''
sg4498
S'ReligiousNut001'
p4874
sg3447
g4868
sg4499
S'ReligiousNut001'
p4875
sbsS'P-med-11'
p4876
g1
(g10
g3
NtRp4877
(dp4878
g4486
(lp4879
g1
(g4539
g3
NtRp4880
(dp4881
g4542
g3834
sg4543
I1
sbasg4488
(lp4882
sg3453
S''
sg4490
S''
sg4002
F240
sg4491
F4
sg4492
F50
sg4493
S'Constituent001'
p4883
sg4494
F4
sg4495
F4
sg4496
F5
sg4497
S'Politician001'
p4884
sg4498
S'Politician001'
p4885
sg3447
g4876
sg4499
S'Constituent001'
p4886
sbsS'P-med-10'
p4887
g1
(g10
g3
NtRp4888
(dp4889
g4486
(lp4890
sg4488
(lp4891
sg3453
S''
sg4490
S''
sg4002
F180
sg4491
F4
sg4492
F50
sg4493
S'ReligiousNut001'
p4892
sg4494
F4
sg4495
F4
sg4496
S''
sg4497
S''
sg4498
S'Politician001'
p4893
sg3447
g4887
sg4499
S'Politician001'
p4894
sbsS'P-med-13'
p4895
g1
(g10
g3
NtRp4896
(dp4897
g4486
(lp4898
sg4488
(lp4899
sg3453
S''
sg4490
F50
sg4002
F180
sg4491
F4
sg4492
F50
sg4493
S'Lobbyist001'
p4900
sg4494
F4
sg4495
F4
sg4496
S''
sg4497
S''
sg4498
S'Constituent001'
p4901
sg3447
g4895
sg4499
S'Lobbyist001'
p4902
sbsS'P-med-12'
p4903
g1
(g10
g3
NtRp4904
(dp4905
g4486
(lp4906
sg4488
(lp4907
sg3453
S''
sg4490
S''
sg4002
F180
sg4491
F4
sg4492
F50
sg4493
S'Lobbyist001'
p4908
sg4494
F4
sg4495
F4
sg4496
S''
sg4497
S''
sg4498
S'Lobbyist001'
p4909
sg3447
g4903
sg4499
S'HippyGirl001'
p4910
sbssb.