ccopy_reg
_reconstructor
p1
(c__main__
GameData
p2
c__builtin__
object
p3
NtRp4
(dp5
S'script'
p6
(dp7
S'_Receptionist'
p8
(lp9
g1
(c__main__
TableRow
p10
g3
NtRp11
(dp12
S'action'
p13
S'RequireFlag'
p14
sS'trigger'
p15
g8
sS'param'
p16
S'PENQUEST'
p17
sS'dialog'
p18
S"You must be Mayor Goodman's new assistant. He's in his office."
p19
sbag1
(g10
g3
NtRp20
(dp21
g13
S'PlayerSay'
p22
sg15
S'_Receptionist'
p23
sg16
S''
sg18
S"The Mayor is looking for his pen. He seemed to think you'd know where it was."
p24
sbag1
(g10
g3
NtRp25
(dp26
g13
S'Say'
p27
sg15
S'_Receptionist'
p28
sg16
S''
sg18
S"Did that buffoon accuse me of stealing again? This is MY pen and he isn't having it."
p29
sbasS'Wife'
p30
(lp31
g1
(g10
g3
NtRp32
(dp33
g13
S'GotoMap'
p34
sg15
g30
sg16
S'act1'
p35
sg18
S''
sbag1
(g10
g3
NtRp36
(dp37
g13
S'_RequireFlag'
p38
sg15
S'Wife'
p39
sg16
S'GOHOMETOWIFE'
p40
sg18
S'What are you doing here, Phillip? You should be at work!'
p41
sbag1
(g10
g3
NtRp42
(dp43
g13
S'Say'
p44
sg15
S'Wife'
p45
sg16
S''
sg18
S'Welcome home, Phillip! How was your workday?'
p46
sbag1
(g10
g3
NtRp47
(dp48
g13
S'PlayerSay'
p49
sg15
S'Wife'
p50
sg16
S''
sg18
S'\xe2\x80\xa6'
p51
sbag1
(g10
g3
NtRp52
(dp53
g13
S'Say'
p54
sg15
S'Wife'
p55
sg16
S''
sg18
S"That good, huh? You know this isn't what you want. Why don't you strike out on your own?"
p56
sbag1
(g10
g3
NtRp57
(dp58
g13
S'PlayerSay'
p59
sg15
S'Wife'
p60
sg16
S''
sg18
S"I didn't think I knew where to start to be a Mayor, but Mayor Goodman makes it look easy."
p61
sbag1
(g10
g3
NtRp62
(dp63
g13
S'Say'
p64
sg15
S'Wife'
p65
sg16
S''
sg18
S"That's the spirit! You can do it! All you need is some money and support."
p66
sbag1
(g10
g3
NtRp67
(dp68
g13
S'PlayerSay'
p69
sg15
S'Wife'
p70
sg16
S''
sg18
S'Well...OK! Lets start with money. We need a sponsor.'
p71
sbag1
(g10
g3
NtRp72
(dp73
g13
S'Say'
p74
sg15
S'Wife'
p75
sg16
S''
sg18
S'OK, lets go get one!'
p76
sbag1
(g10
g3
NtRp77
(dp78
g13
S'AddAlly'
p79
sg15
S'Wife'
p80
sg16
S'Wife:1'
p81
sg18
S'Sarah Mossman Joins Your Political Party!'
p82
sbag1
(g10
g3
NtRp83
(dp84
g13
S'SetFlag'
p85
sg15
S'Wife'
p86
sg16
S'STARTSPONSOR'
p87
sg18
S''
sbag1
(g10
g3
NtRp88
(dp89
g13
S'Destroy'
p90
sg15
S'Wife'
p91
sg16
S''
sg18
S''
sbasS'Protester2'
p92
(lp93
g1
(g10
g3
NtRp94
(dp95
g13
S'Say'
p96
sg15
g92
sg16
S''
sg18
S"Bees buzz, Mayors lie, who's this Phillip Mossman guy?"
p97
sbag1
(g10
g3
NtRp98
(dp99
g13
S'RequireFlag'
p100
sg15
S'Protester2'
p101
sg16
S'PROTESTORS'
p102
sg18
S''
sbag1
(g10
g3
NtRp103
(dp104
g13
S'Encounter'
p105
sg15
S'Protester2'
p106
sg16
S'P-easy-03'
p107
sg18
S''
sbag1
(g10
g3
NtRp108
(dp109
g13
S'Destroy'
p110
sg15
S'Protester2'
p111
sg16
S''
sg18
S''
sbasS'Protester1'
p112
(lp113
g1
(g10
g3
NtRp114
(dp115
g13
S'Say'
p116
sg15
g112
sg16
S''
sg18
S"Fee Fi Fo Fum, we think Mayor Goodman's Dumb!"
p117
sbag1
(g10
g3
NtRp118
(dp119
g13
S'RequireFlag'
p120
sg15
S'Protester1'
p121
sg16
S'PROTESTORS'
p122
sg18
S''
sbag1
(g10
g3
NtRp123
(dp124
g13
S'Encounter'
p125
sg15
S'Protester1'
p126
sg16
S'P-easy-02'
p127
sg18
S''
sbag1
(g10
g3
NtRp128
(dp129
g13
S'Destroy'
p130
sg15
S'Protester1'
p131
sg16
S''
sg18
S''
sbasS'Head Protester'
p132
(lp133
g1
(g10
g3
NtRp134
(dp135
g13
S'Say'
p136
sg15
g132
sg16
S''
sg18
S"I am the head protester. You'll never convince us to back down!"
p137
sbag1
(g10
g3
NtRp138
(dp139
g13
S'RequireFlag'
p140
sg15
S'Head Protester'
p141
sg16
S'PROTESTORS'
p142
sg18
S''
sbag1
(g10
g3
NtRp143
(dp144
g13
S'PlayerSay'
p145
sg15
S'Head Protester'
p146
sg16
S''
sg18
S'What are you protesting?'
p147
sbag1
(g10
g3
NtRp148
(dp149
g13
S'Say'
p150
sg15
S'Head Protester'
p151
sg16
S''
sg18
S'Er...Injustice!'
p152
sbag1
(g10
g3
NtRp153
(dp154
g13
S'PlayerSay'
p155
sg15
S'Head Protester'
p156
sg16
S''
sg18
S'Injustice against what?'
p157
sbag1
(g10
g3
NtRp158
(dp159
g13
S'Say'
p160
sg15
S'Head Protester'
p161
sg16
S''
sg18
S'\xe2\x80\xa6'
p162
sbag1
(g10
g3
NtRp163
(dp164
g13
S'Say'
p165
sg15
S'Head Protester'
p166
sg16
S''
sg18
S'The People!'
p167
sbag1
(g10
g3
NtRp168
(dp169
g13
S'PlayerSay'
p170
sg15
S'Head Protester'
p171
sg16
S''
sg18
S'Yes, but which people?'
p172
sbag1
(g10
g3
NtRp173
(dp174
g13
S'Say'
p175
sg15
S'Head Protester'
p176
sg16
S''
sg18
S'See? What a fascist, ALL people you slimey politician scum!'
p177
sbag1
(g10
g3
NtRp178
(dp179
g13
S'Encounter'
p180
sg15
S'Head Protester'
p181
sg16
S'P-easy-04'
p182
sg18
S''
sbag1
(g10
g3
NtRp183
(dp184
g13
S'Say'
p185
sg15
S'Head Protester'
p186
sg16
S''
sg18
S"Alright, fine! We'll stop protesting...whatever we were protesting."
p187
sbag1
(g10
g3
NtRp188
(dp189
g13
S'SetFlag'
p190
sg15
S'Head Protester'
p191
sg16
S'PROTESTORSDEAD'
p192
sg18
S''
sbag1
(g10
g3
NtRp193
(dp194
g13
S'Destroy'
p195
sg15
S'Head Protester'
p196
sg16
S''
sg18
S''
sbasS'Receptionist'
p197
(lp198
g1
(g10
g3
NtRp199
(dp200
g13
S'GotoMap'
p201
sg15
g197
sg16
S'act2'
p202
sg18
S''
sbag1
(g10
g3
NtRp203
(dp204
g13
S'Encounter'
p205
sg15
S'Receptionist'
p206
sg16
S'P-easy-01'
p207
sg18
S''
sbag1
(g10
g3
NtRp208
(dp209
g13
S'GiveItem'
p210
sg15
S'Receptionist'
p211
sg16
S'PEN'
p212
sg18
S'Receptionist sighs and hands over the pen.'
p213
sbag1
(g10
g3
NtRp214
(dp215
g13
S'Destroy'
p216
sg15
S'Receptionist'
p217
sg16
S''
sg18
S''
sbasS'Sponsor'
p218
(lp219
g1
(g10
g3
NtRp220
(dp221
g13
S'RequireFlag'
p222
sg15
g218
sg16
S'STARTSPONSOR'
p223
sg18
S"Hmmm...Money, money, money. Sorry, what? I wasn't talking to you."
p224
sbag1
(g10
g3
NtRp225
(dp226
g13
S'Say'
p227
sg15
S'Sponsor'
p228
sg16
S''
sg18
S"Hello, I'm investigating new investments today. How can I help you?"
p229
sbag1
(g10
g3
NtRp230
(dp231
g13
S'PlayerSay'
p232
sg15
S'Sponsor'
p233
sg16
S''
sg18
S"Well, I've decided to run for Mayor! I could really use an investor."
p234
sbag1
(g10
g3
NtRp235
(dp236
g13
S'Say'
p237
sg15
S'Sponsor'
p238
sg16
S''
sg18
S"I don't know. You seem a little young. I don't think I'm convinced."
p239
sbag1
(g10
g3
NtRp240
(dp241
g13
S'Encounter'
p242
sg15
S'Sponsor'
p243
sg16
S'P-easy-06'
p244
sg18
S''
sbag1
(g10
g3
NtRp245
(dp246
g13
S'Say'
p247
sg15
S'Sponsor'
p248
sg16
S''
sg18
S"Wow! You sure have what it takes! Alright, he's a pile of cash!"
p249
sbag1
(g10
g3
NtRp250
(dp251
g13
S'Say'
p252
sg15
S'Sponsor'
p253
sg16
S''
sg18
S'Also, now that you have some funds, you might find it useful to...grease the wheels in some difficult situations.'
p254
sbag1
(g10
g3
NtRp255
(dp256
g13
S'LearnAttack'
p257
sg15
S'Sponsor'
p258
sg16
S'BRIBE'
p259
sg18
S'Phillip and Sarah learn to Bribe'
p260
sbag1
(g10
g3
NtRp261
(dp262
g13
S'LearnAttack'
p263
sg15
S'Sponsor'
p264
sg16
S'Wife:BRIBE'
p265
sg18
S''
sbag1
(g10
g3
NtRp266
(dp267
g13
S'SetFlag'
p268
sg15
S'Sponsor'
p269
sg16
S'STARTCONSTITUENTS'
p270
sg18
S''
sbag1
(g10
g3
NtRp271
(dp272
g13
S'PlayerSay'
p273
sg15
S'Sponsor'
p274
sg16
S''
sg18
S'Er, thanks! I suppose we should go gather some support from our constituents now.'
p275
sbag1
(g10
g3
NtRp276
(dp277
g13
S'Say'
p278
sg15
S'Sponsor'
p279
sg16
S''
sg18
S"Makes sense to me! I'm off, too. Money, money, money."
p280
sbag1
(g10
g3
NtRp281
(dp282
g13
S'Destroy'
p283
sg15
S'Sponsor'
p284
sg16
S''
sg18
S''
sbasS'Mayor'
p285
(lp286
g1
(g10
g3
NtRp287
(dp288
g13
S'Say'
p289
sg15
g285
sg16
S''
sg18
S"Hello, I'm the Mayor!"
p290
sbag1
(g10
g3
NtRp291
(dp292
g13
S'PlayerSay'
p293
sg15
S'Mayor'
p294
sg16
S''
sg18
S"Hello, Mayor Goodman, I'm Philip Mossman."
p295
sbag1
(g10
g3
NtRp296
(dp297
g13
S'Say'
p298
sg15
S'Mayor'
p299
sg16
S''
sg18
S"Ah yes, you're my new assistant. A good thing, too."
p300
sbag1
(g10
g3
NtRp301
(dp302
g13
S'Say'
p303
sg15
S'Mayor'
p304
sg16
S''
sg18
S"I've been searching for minutes and haven't been able to find my pen! I bet my receptionist stole it. She has sticky fingers."
p305
sbag1
(g10
g3
NtRp306
(dp307
g13
S'Say'
p308
sg15
S'Mayor'
p309
sg16
S''
sg18
S"Well, don't just stand there, go and get it!"
p310
sbag1
(g10
g3
NtRp311
(dp312
g13
S'SetFlag'
p313
sg15
S'Mayor'
p314
sg16
S'PENQUEST'
p315
sg18
S''
sbag1
(g10
g3
NtRp316
(dp317
g13
S'RequireItem'
p318
sg15
S'Mayor'
p319
sg16
S'PEN'
p320
sg18
S'Are you simple? Go and get my pen from that thieving receptionist.'
p321
sbag1
(g10
g3
NtRp322
(dp323
g13
S'Say'
p324
sg15
S'Mayor'
p325
sg16
S''
sg18
S"Great! I know she can give you a bit of a tongue-lashing, but she's a fantastic receptionist."
p326
sbag1
(g10
g3
NtRp327
(dp328
g13
S'Say'
p329
sg15
S'Mayor'
p330
sg16
S''
sg18
S"I'm sure you want to learn a thing or two about politics \xe2\x80\x93 who doesn't? - so lets get started"
p331
sbag1
(g10
g3
NtRp332
(dp333
g13
S'SetFlag'
p334
sg15
S'Mayor'
p335
sg16
S'PROTESTORS'
p336
sg18
S''
sbag1
(g10
g3
NtRp337
(dp338
g13
S'RequireFlag'
p339
sg15
S'Mayor'
p340
sg16
S'PROTESTORSDEAD'
p341
sg18
S'Run outside and tell those protesters to scram, will you?'
p342
sbag1
(g10
g3
NtRp343
(dp344
g13
S'Say'
p345
sg15
S'Mayor'
p346
sg16
S''
sg18
S"Hope they didn't give you too much trouble!"
p347
sbag1
(g10
g3
NtRp348
(dp349
g13
S'Say'
p350
sg15
S'Mayor'
p351
sg16
S''
sg18
S"Now that's sorted, there's a journalist from the local newspaper coming for an interview."
p352
sbag1
(g10
g3
NtRp353
(dp354
g13
S'Say'
p355
sg15
S'Mayor'
p356
sg16
S''
sg18
S"I certainly don't have time for it, so you can do the interview."
p357
sbag1
(g10
g3
NtRp358
(dp359
g13
S'Say'
p360
sg15
S'Mayor'
p361
sg16
S''
sg18
S"Be careful not to give too much away and if you could throw a few punches at the opposition that'd help."
p362
sbag1
(g10
g3
NtRp363
(dp364
g13
S'PlayerSay'
p365
sg15
S'Mayor'
p366
sg16
S''
sg18
S'You want me to...throw a punch?'
p367
sbag1
(g10
g3
NtRp368
(dp369
g13
S'Say'
p370
sg15
S'Mayor'
p371
sg16
S''
sg18
S"You're in politics and don't know how to fight dirty? Sheesh! Here, let me show you."
p372
sbag1
(g10
g3
NtRp373
(dp374
g13
S'LearnAttack'
p375
sg15
S'Mayor'
p376
sg16
S'SLANDER'
p377
sg18
S'Mayor teaches Phillip to Slander Opposition'
p378
sbag1
(g10
g3
NtRp379
(dp380
g13
S'Say'
p381
sg15
S'Mayor'
p382
sg16
S''
sg18
S"It's a pretty great tactic because it keeps eating away at them long after you've done it."
p383
sbag1
(g10
g3
NtRp384
(dp385
g13
S'SetFlag'
p386
sg15
S'Mayor'
p387
sg16
S'INTERVIEWSTART'
p388
sg18
S''
sbag1
(g10
g3
NtRp389
(dp390
g13
S'RequireFlag'
p391
sg15
S'Mayor'
p392
sg16
S'JOURNALISTINTERVIEW'
p393
sg18
S'Go handle that interview and remember to slander the opposition.'
p394
sbag1
(g10
g3
NtRp395
(dp396
g13
S'SetFlag'
p397
sg15
S'Mayor'
p398
sg16
S'GOHOMETOWIFE'
p399
sg18
S''
sbag1
(g10
g3
NtRp400
(dp401
g13
S'Say'
p402
sg15
S'Mayor'
p403
sg16
S''
sg18
S'OK, fine, now could you buzz off for a while? I need to get some work done.'
p404
sbag1
(g10
g3
NtRp405
(dp406
g13
S'RequireFlag'
p407
sg15
S'Mayor'
p408
sg16
S'CONSTITUENTSWON'
p409
sg18
S"Go home to your family. I have things to do that don't involve you."
p410
sbasS'Journalist'
p411
(lp412
g1
(g10
g3
NtRp413
(dp414
g13
S'RequireFlag'
p415
sg15
g411
sg16
S'INTERVIEWSTART'
p416
sg18
S'Leave me alone, kid I need to get this done before my deadline!'
p417
sbag1
(g10
g3
NtRp418
(dp419
g13
S'Say'
p420
sg15
S'Journalist'
p421
sg16
S''
sg18
S"Hey, where's the Mayor?"
p422
sbag1
(g10
g3
NtRp423
(dp424
g13
S'PlayerSay'
p425
sg15
S'Journalist'
p426
sg16
S''
sg18
S"He couldn't make it. I'll be taking the interview."
p427
sbag1
(g10
g3
NtRp428
(dp429
g13
S'Say'
p430
sg15
S'Journalist'
p431
sg16
S''
sg18
S'Great! Easy pickings! Lets go.'
p432
sbag1
(g10
g3
NtRp433
(dp434
g13
S'Encounter'
p435
sg15
S'Journalist'
p436
sg16
S'P-easy-05'
p437
sg18
S''
sbag1
(g10
g3
NtRp438
(dp439
g13
S'Say'
p440
sg15
S'Journalist'
p441
sg16
S''
sg18
S"SNORE! Fine, if I can't get anything juicy here I'll do another puff piece on my poodle Frank."
p442
sbag1
(g10
g3
NtRp443
(dp444
g13
S'SetFlag'
p445
sg15
S'Journalist'
p446
sg16
S'JOURNALISTINTERVIEW'
p447
sg18
S''
sbag1
(g10
g3
NtRp448
(dp449
g13
S'Destroy'
p450
sg15
S'Journalist'
p451
sg16
S''
sg18
S''
sbassS'attacks'
p452
(dp453
S'GETEXCLUSIVE'
p454
g1
(g10
g3
NtRp455
(dp456
S'base_damage_max'
p457
F4
sS'description'
p458
S'asdf'
p459
sS'weight'
p460
I1
sS'crit_chance_max'
p461
F5
sS'crit_chance_min'
p462
F2
sS'underlying_stat'
p463
S'Wit'
p464
sS'target_type'
p465
S'AllFriendly'
p466
sS'base_damage_min'
p467
F2
sS'spin_cost'
p468
F5
sS'effects'
p469
(lp470
g1
(c__main__
Effect
p471
g3
NtRp472
(dp473
S'function'
p474
S'add'
p475
sS'abbrv'
p476
S'(INCREASE)'
p477
sS'attribute'
p478
S'cunning'
p479
sS'value'
p480
F2
sS'rounds_min'
p481
F1
sS'rounds_max'
p482
F4
sS'id'
p483
S'Increase Cunning'
p484
sS'apply_to_source'
p485
S'TRUE'
p486
sbasS'target_count'
p487
I1
sS'crit_base_damage'
p488
F8
sg483
g454
sS'name'
p489
S'Get Exclusive'
p490
sbsS'LOSELOSE'
p491
g1
(g10
g3
NtRp492
(dp493
g457
F4
sg458
S'Causes all politicians in the target radius to lose votes'
p494
sg460
I1
sg461
F0
sg462
F0
sg463
S'Cunning'
p495
sg465
S'All'
p496
sg467
F4
sg468
I0
sg469
(lp497
sg487
I6
sg488
F0
sg483
g491
sg489
S'Lose/lose issue'
p498
sbsS'LIE'
p499
g1
(g10
g3
NtRp500
(dp501
g457
F6
sg458
S"It's only lying if they catch you. A strong attack with a danger of failing entirely and leaving you high and dry."
p502
sg460
F3
sg461
F10
sg462
F2
sg463
S'Wit'
p503
sg465
S'AllEnemy'
p504
sg467
F0
sg468
I0
sg469
(lp505
g1
(g471
g3
NtRp506
(dp507
g474
S'miss_turn'
p508
sg476
S'(MISS)'
p509
sg478
S''
sg480
F0
sg481
F1
sg482
F1
sg483
S'Critical Fail'
p510
sg485
S'TRUE'
p511
sbasg487
I1
sg488
F10
sg483
g499
sg489
S'Lie'
p512
sbsS'HILARIOUSANECDOTE'
p513
g1
(g10
g3
NtRp514
(dp515
g457
F8
sg458
S'asdf'
p516
sg460
I1
sg461
F0
sg462
F0
sg463
S'Wit'
p517
sg465
S'AllFriendly'
p518
sg467
F4
sg468
F5
sg469
(lp519
g1
(g471
g3
NtRp520
(dp521
g474
S'add'
p522
sg476
S'(INCREASE)'
p523
sg478
S'flair'
p524
sg480
F2
sg481
F1
sg482
F4
sg483
S'Increase Flair'
p525
sg485
S'TRUE'
p526
sbasg487
I1
sg488
F0
sg483
g513
sg489
S'Hilarious Anecdote'
p527
sbsS'SENSATIONALISE'
p528
g1
(g10
g3
NtRp529
(dp530
g457
F8
sg458
S'asdf'
p531
sg460
I1
sg461
F0
sg462
F0
sg463
S'Wit'
p532
sg465
S'AllEnemy'
p533
sg467
F4
sg468
F3
sg469
(lp534
sg487
I1
sg488
F0
sg483
g528
sg489
S'Sensationalise'
p535
sbsS'DENOUNCE'
p536
g1
(g10
g3
NtRp537
(dp538
g457
F5
sg458
S'asdf'
p539
sg460
F6
sg461
F10
sg462
F2
sg463
S'Cunning'
p540
sg465
S'AllEnemy'
p541
sg467
F2
sg468
I0
sg469
(lp542
sg487
I1
sg488
F8
sg483
g536
sg489
S'Denounce'
p543
sbsS'WHADOWEWANT'
p544
g1
(g10
g3
NtRp545
(dp546
g457
F6
sg458
S'asdf'
p547
sg460
I1
sg461
F0
sg462
F0
sg463
S'Cunning'
p548
sg465
S'AllEnemy'
p549
sg467
F3
sg468
I0
sg469
(lp550
sg487
I1
sg488
F0
sg483
g544
sg489
S'Whadowewant!'
p551
sbsS'SCOOP'
p552
g1
(g10
g3
NtRp553
(dp554
g457
F5
sg458
S'asdf'
p555
sg460
I1
sg461
F10
sg462
F5
sg463
S'Cunning'
p556
sg465
S'AllEnemy'
p557
sg467
F2
sg468
I0
sg469
(lp558
sg487
I1
sg488
F8
sg483
g552
sg489
S'Scoop'
p559
sbsS'CHOOSETARGETS'
p560
g1
(g10
g3
NtRp561
(dp562
g457
F7
sg458
S'asdf'
p563
sg460
I1
sg461
F10
sg462
F5
sg463
S'Cunning'
p564
sg465
S'AllEnemy'
p565
sg467
F2
sg468
I0
sg469
(lp566
sg487
I1
sg488
F9
sg483
g560
sg489
S'Choose Targets'
p567
sbsS'FILENAILS'
p568
g1
(g10
g3
NtRp569
(dp570
g457
F0
sg458
S'asdf'
p571
sg460
I1
sg461
F0
sg462
F0
sg463
S'Wit'
p572
sg465
S'AllEnemy'
p573
sg467
F0
sg468
F3
sg469
(lp574
g1
(g471
g3
NtRp575
(dp576
g474
S'add_permanent'
p577
sg476
S''
sg478
S'votes'
p578
sg480
F5
sg481
F1
sg482
F1
sg483
S'Votes Restore'
p579
sg485
S'TRUE'
p580
sbasg487
I1
sg488
F0
sg483
g568
sg489
S'File Nails'
p581
sbsS'BRIBE'
p582
g1
(g10
g3
NtRp583
(dp584
g457
F1
sg458
S'Is there anything more convincing than money? Buying loyalty gets expensive so be careful.'
p585
sg460
I1
sg461
F1
sg462
F1
sg463
S'Money'
p586
sg465
S'AllEnemy'
p587
sg467
F2
sg468
I0
sg469
(lp588
sg487
I1
sg488
F1
sg483
g582
sg489
S'Bribe'
p589
sbsS'SING'
p590
g1
(g10
g3
NtRp591
(dp592
g457
F-3
sg458
S'Why bandy words with politicians when you can sing a catchy tune! Restores votes.'
p593
sg460
I1
sg461
F0
sg462
F0
sg463
S'Wit'
p594
sg465
S'AllFriendly'
p595
sg467
F-5
sg468
I0
sg469
(lp596
sg487
I4
sg488
F0
sg483
g590
sg489
S'Rousing Song'
p597
sbsS'FEAR'
p598
g1
(g10
g3
NtRp599
(dp600
g457
F0
sg458
S'asdf'
p601
sg460
F2
sg461
F0
sg462
F0
sg463
S'Wit'
p602
sg465
S'AllFriendly'
p603
sg467
F0
sg468
F4
sg469
(lp604
g472
asg487
I1
sg488
F0
sg483
g598
sg489
S'Fear Change'
p605
sbsS'RAISEDEFCON'
p606
g1
(g10
g3
NtRp607
(dp608
g457
F5
sg458
S'asdf'
p609
sg460
I1
sg461
F7
sg462
F3
sg463
S'Cunning'
p610
sg465
S'AllEnemy'
p611
sg467
F4
sg468
I0
sg469
(lp612
sg487
I1
sg488
F8
sg483
g606
sg489
S'Raise DEFCON'
p613
sbsS'NEGATTACKAD'
p614
g1
(g10
g3
NtRp615
(dp616
g457
F8
sg458
S"Take them all down. They're definitely all bad people. Not like you."
p617
sg460
I1
sg461
F10
sg462
F10
sg463
S'Cunning'
p618
sg465
S'AllEnemy'
p619
sg467
F3
sg468
F5
sg469
(lp620
sg487
I1
sg488
F10
sg483
g614
sg489
S'Negative Attack Ad'
p621
sbsS'DAZZLE'
p622
g1
(g10
g3
NtRp623
(dp624
g457
F3
sg458
S'Being dazzling and admirable is a great way to take heat off politics'
p625
sg460
I1
sg461
F8
sg462
F5
sg463
S'Wit'
p626
sg465
S'AllEnemy'
p627
sg467
F2
sg468
F3
sg469
(lp628
g1
(g471
g3
NtRp629
(dp630
g474
S'reduce'
p631
sg476
S'(REDUCE)'
p632
sg478
S'cunning'
p633
sg480
F2
sg481
F2
sg482
F5
sg483
S'Reduce Cunning'
p634
sg485
S''
sbasg487
I4
sg488
F8
sg483
g622
sg489
S'Dazzle'
p635
sbsS'BELIEVEMEDIA'
p636
g1
(g10
g3
NtRp637
(dp638
g457
F3
sg458
S'asdf'
p639
sg460
I1
sg461
F15
sg462
F5
sg463
S'Cunning'
p640
sg465
S'AllEnemy'
p641
sg467
F1
sg468
I0
sg469
(lp642
sg487
I1
sg488
F12
sg483
g636
sg489
S'Believe Media'
p643
sbsS'PRPREP'
p644
g1
(g10
g3
NtRp645
(dp646
g457
F0
sg458
S"If you're going to need some spin, best see a spin doctor! Adds spin points."
p647
sg460
I1
sg461
F0
sg462
F0
sg463
S''
sg465
S'AllFriendly'
p648
sg467
F0
sg468
I0
sg469
(lp649
g1
(g471
g3
NtRp650
(dp651
g474
S'add_permanent'
p652
sg476
S''
sg478
S'spin'
p653
sg480
F5
sg481
F0
sg482
F0
sg483
S'Spin Restore'
p654
sg485
S'TRUE'
p655
sbasg487
I1
sg488
F0
sg483
g644
sg489
S'PR Prep'
p656
sbsS'CALLVATICAN'
p657
g1
(g10
g3
NtRp658
(dp659
g457
F0
sg458
S'Brings in 2 additional ReligousNuts at 2 levels lower than this one'
p660
sg460
I1
sg461
F0
sg462
F0
sg463
S'Wit'
p661
sg465
S'None'
p662
sg467
F0
sg468
F5
sg469
(lp663
g1
(g471
g3
NtRp664
(dp665
g474
S'call_friends'
p666
sg476
S''
sg478
S''
sg480
F2
sg481
F1
sg482
F1
sg483
S'Call Friends'
p667
sg485
S''
sbasg487
I1
sg488
F0
sg483
g657
sg489
S'Call Vatican'
p668
sbsS'BLACKMAIL'
p669
g1
(g10
g3
NtRp670
(dp671
g457
F6
sg458
S'asdf'
p672
sg460
I1
sg461
F10
sg462
F2
sg463
S'Wit'
p673
sg465
S'AllEnemy'
p674
sg467
F3
sg468
F4
sg469
(lp675
g1
(g471
g3
NtRp676
(dp677
g474
S'drain'
p678
sg476
S'(DRAIN)'
p679
sg478
S'votes'
p680
sg480
F1
sg481
F2
sg482
F5
sg483
S'Drain Votes'
p681
sg485
S''
sbasg487
I1
sg488
F2
sg483
g669
sg489
S'Blackmail'
p682
sbsS'PROTEST'
p683
g1
(g10
g3
NtRp684
(dp685
g457
F5
sg458
S'asdf'
p686
sg460
F6
sg461
F10
sg462
F2
sg463
S'Cunning'
p687
sg465
S'AllEnemy'
p688
sg467
F2
sg468
I0
sg469
(lp689
sg487
I1
sg488
F8
sg483
g683
sg489
S'Protest'
p690
sbsS'SPREADRUMOUR'
p691
g1
(g10
g3
NtRp692
(dp693
g457
F6
sg458
S'asdf'
p694
sg460
I1
sg461
F10
sg462
F2
sg463
S'Wit'
p695
sg465
S'AllEnemy'
p696
sg467
F2
sg468
F3
sg469
(lp697
sg487
I4
sg488
F8
sg483
g691
sg489
S'Spread Rumour'
p698
sbsS'AGENDA'
p699
g1
(g10
g3
NtRp700
(dp701
g457
F5
sg458
S'asdf'
p702
sg460
F6
sg461
F10
sg462
F2
sg463
S'Cunning'
p703
sg465
S'AllEnemy'
p704
sg467
F2
sg468
I0
sg469
(lp705
sg487
I1
sg488
F8
sg483
g699
sg489
S'Push Agenda'
p706
sbsS'FILIBUSTER'
p707
g1
(g10
g3
NtRp708
(dp709
g457
F0
sg458
S"You're not moving until they give in. Cause all opposition to miss their turn"
p710
sg460
I1
sg461
F0
sg462
F0
sg463
S'Wit'
p711
sg465
S'AllEnemy'
p712
sg467
F0
sg468
F8
sg469
(lp713
g1
(g471
g3
NtRp714
(dp715
g474
S'miss_turn'
p716
sg476
S'(MISS)'
p717
sg478
S''
sg480
F0
sg481
F1
sg482
F1
sg483
S'Miss Turn'
p718
sg485
S''
sbasg487
I1
sg488
F0
sg483
g707
sg489
S'Filibuster'
p719
sbsS'GATHERINTEL'
p720
g1
(g10
g3
NtRp721
(dp722
g457
F0
sg458
S'Increases Cunning.'
p723
sg460
I1
sg461
F0
sg462
F0
sg463
S'Wit'
p724
sg465
S'AllFriendly'
p725
sg467
F0
sg468
F3
sg469
(lp726
g472
asg487
I2
sg488
F0
sg483
g720
sg489
S'Gather Intelligence'
p727
sbsS'LOVE'
p728
g1
(g10
g3
NtRp729
(dp730
g457
F6
sg458
S'asdf'
p731
sg460
F2
sg461
F8
sg462
F2
sg463
S'Cunning'
p732
sg465
S'AllEnemy'
p733
sg467
F1
sg468
I0
sg469
(lp734
sg487
I1
sg488
F7
sg483
g728
sg489
S'Love'
p735
sbsS'OUTOFCONTEXT'
p736
g1
(g10
g3
NtRp737
(dp738
g457
F3
sg458
S'asdf'
p739
sg460
I1
sg461
F5
sg462
F2
sg463
S'Wit'
p740
sg465
S'AllEnemy'
p741
sg467
F2
sg468
F2
sg469
(lp742
g676
asg487
I1
sg488
F5
sg483
g736
sg489
S'Take Out Of Context'
p743
sbsS'GREATSUIT'
p744
g1
(g10
g3
NtRp745
(dp746
g457
F6
sg458
S'Well, we could argue, but have you noticed how fabulous this suit is?'
p747
sg460
I1
sg461
F11
sg462
F6
sg463
S'Cunning'
p748
sg465
S'AllEnemy'
p749
sg467
F3
sg468
I0
sg469
(lp750
sg487
I1
sg488
F12
sg483
g744
sg489
S'Look Great In Suit'
p751
sbsS'PEACE'
p752
g1
(g10
g3
NtRp753
(dp754
g457
F0
sg458
S'asdf'
p755
sg460
I1
sg461
F0
sg462
F0
sg463
S'Wit'
p756
sg465
S'AllEnemy'
p757
sg467
F0
sg468
F3
sg469
(lp758
g629
asg487
I4
sg488
F0
sg483
g752
sg489
S'Peace'
p759
sbsS'INSPSPEECH'
p760
g1
(g10
g3
NtRp761
(dp762
g457
F-2
sg458
S'Restore votes to all party members'
p763
sg460
I1
sg461
F0
sg462
F0
sg463
S'Cunning'
p764
sg465
S'AllFriendly'
p765
sg467
F-2
sg468
I0
sg469
(lp766
sg487
I4
sg488
F0
sg483
g760
sg489
S'Inspirational Speech'
p767
sbsS'STRIKE'
p768
g1
(g10
g3
NtRp769
(dp770
g457
F8
sg458
S'asdf'
p771
sg460
I1
sg461
F0
sg462
F0
sg463
S'Wit'
p772
sg465
S'AllEnemy'
p773
sg467
F0
sg468
F3
sg469
(lp774
g506
asg487
I1
sg488
F0
sg483
g768
sg489
S'Call A Strike'
p775
sbsS'SLANDER'
p776
g1
(g10
g3
NtRp777
(dp778
g457
F3
sg458
S'Strong against polititians...careful with those voters, though!'
p779
sg460
F4
sg461
F10
sg462
F2
sg463
S'Wit'
p780
sg465
S'AllEnemy'
p781
sg467
F2
sg468
I0
sg469
(lp782
g676
asg487
I1
sg488
F5
sg483
g776
sg489
S'Slander Opposition'
p783
sbsS'NATTER'
p784
g1
(g10
g3
NtRp785
(dp786
g457
F8
sg458
S'asdf'
p787
sg460
I1
sg461
F15
sg462
F5
sg463
S'Cunning'
p788
sg465
S'AllEnemy'
p789
sg467
F1
sg468
I0
sg469
(lp790
sg487
I1
sg488
F10
sg483
g784
sg489
S'Natter On'
p791
sbsS'GOSSIP'
p792
g1
(g10
g3
NtRp793
(dp794
g457
F3
sg458
S'asdf'
p795
sg460
I1
sg461
F10
sg462
F2
sg463
S'Wit'
p796
sg465
S'AllEnemy'
p797
sg467
F1
sg468
F2
sg469
(lp798
g629
asg487
I1
sg488
F6
sg483
g792
sg489
S'Gossip'
p799
sbsS'MISSTURN'
p800
g1
(g10
g3
NtRp801
(dp802
g457
F0
sg458
S'asdf'
p803
sg460
I1
sg461
F0
sg462
F0
sg463
S''
sg465
S'AllEnemy'
p804
sg467
F0
sg468
I0
sg469
(lp805
sg487
I1
sg488
F0
sg483
g800
sg489
S'Miss Turn'
p806
sbsS'BIELECTION'
p807
g1
(g10
g3
NtRp808
(dp809
g457
F4
sg458
S'Redistribute votes amongst targets'
p810
sg460
I1
sg461
F0
sg462
F0
sg463
S'Cunning'
p811
sg465
S'All'
p812
sg467
F-4
sg468
F4
sg469
(lp813
sg487
I8
sg488
F0
sg483
g807
sg489
S'Bielection'
p814
sbsS'SCARE'
p815
g1
(g10
g3
NtRp816
(dp817
g457
F7
sg458
S'Nothing rattles the brains like fear.'
p818
sg460
I1
sg461
F10
sg462
F2
sg463
S'Wit'
p819
sg465
S'AllEnemy'
p820
sg467
F2
sg468
I0
sg469
(lp821
g629
asg487
I2
sg488
F9
sg483
g815
sg489
S'Scare Campaign'
p822
sbsS'PAYOFF'
p823
g1
(g10
g3
NtRp824
(dp825
g457
F7
sg458
S'causes them to miss a number of turns'
p826
sg460
I1
sg461
F8
sg462
F2
sg463
S'Wit'
p827
sg465
S'AllEnemy'
p828
sg467
F2
sg468
F4
sg469
(lp829
g1
(g471
g3
NtRp830
(dp831
g474
S'miss_turn'
p832
sg476
S'(MISS)'
p833
sg478
S''
sg480
F0
sg481
F1
sg482
F3
sg483
S'Miss Turn Pay Off'
p834
sg485
S''
sbasg487
I1
sg488
F9
sg483
g823
sg489
S'Pay Off'
p835
sbsS'BUREAUCRACY'
p836
g1
(g10
g3
NtRp837
(dp838
g457
F5
sg458
S'asdf'
p839
sg460
F6
sg461
F10
sg462
F2
sg463
S'Cunning'
p840
sg465
S'AllEnemy'
p841
sg467
F2
sg468
I0
sg469
(lp842
sg487
I1
sg488
F8
sg483
g836
sg489
S'Bureaucracy'
p843
sbsS'RALLYAUDIENCE'
p844
g1
(g10
g3
NtRp845
(dp846
g457
F8
sg458
S'asdf'
p847
sg460
I1
sg461
F0
sg462
F0
sg463
S'Wit'
p848
sg465
S'AllFriendly'
p849
sg467
F4
sg468
F3
sg469
(lp850
g1
(g471
g3
NtRp851
(dp852
g474
S'add'
p853
sg476
S'(INCREASE)'
p854
sg478
S'charisma'
p855
sg480
F2
sg481
F1
sg482
F4
sg483
S'Increase Charisma'
p856
sg485
S'TRUE'
p857
sbasg487
I1
sg488
F0
sg483
g844
sg489
S'Rally Audience'
p858
sbsS'PORKBARREL'
p859
g1
(g10
g3
NtRp860
(dp861
g457
F6
sg458
S'Do something that benefits them specifically. Not advised against politicians.'
p862
sg460
I1
sg461
F0
sg462
F0
sg463
S'Wit'
p863
sg465
S'AllEnemy'
p864
sg467
F2
sg468
F2
sg469
(lp865
sg487
I1
sg488
F0
sg483
g859
sg489
S'Pork Barrel'
p866
sbsS'INSPIRE'
p867
g1
(g10
g3
NtRp868
(dp869
g457
F0
sg458
S'asdf'
p870
sg460
I1
sg461
F0
sg462
F0
sg463
S'Wit'
p871
sg465
S'AllFriendly'
p872
sg467
F0
sg468
F3
sg469
(lp873
g472
asg487
I4
sg488
F0
sg483
g867
sg489
S'Inspire'
p874
sbsS'JOKE'
p875
g1
(g10
g3
NtRp876
(dp877
g457
F3
sg458
S"Ha, ha, ha...what were we talking about? Diffuse the situation with some humour. Not good if it falls flat, but if they get it, it'll knock 'em dead."
p878
sg460
F3
sg461
F30
sg462
F10
sg463
S'Wit'
p879
sg465
S'AllEnemy'
p880
sg467
F2
sg468
I0
sg469
(lp881
sg487
I1
sg488
F10
sg483
g875
sg489
S'Joke'
p882
sbsS'PRAYFORSOULS'
p883
g1
(g10
g3
NtRp884
(dp885
g457
F6
sg458
S'asdf'
p886
sg460
F2
sg461
F10
sg462
F2
sg463
S'Cunning'
p887
sg465
S'None'
p888
sg467
F3
sg468
I0
sg469
(lp889
sg487
I1
sg488
F10
sg483
g883
sg489
S'Pray'
p890
sbsS'REVIVE'
p891
g1
(g10
g3
NtRp892
(dp893
g457
F0
sg458
S'Revive a defeated comrade to half votes'
p894
sg460
I1
sg461
F0
sg462
F0
sg463
S''
sg465
S'DeadFriendly'
p895
sg467
F0
sg468
F3
sg469
(lp896
g1
(g471
g3
NtRp897
(dp898
g474
S'revive'
p899
sg476
S''
sg478
S''
sg480
F0.5
sg481
F0
sg482
F0
sg483
S'Revive'
p900
sg485
S''
sbasg487
I1
sg488
F0
sg483
g891
sg489
S'Revive'
p901
sbsS'HUMANSHIELD'
p902
g1
(g10
g3
NtRp903
(dp904
g457
F5
sg458
S'No further questions. Step back, please.'
p905
sg460
I1
sg461
F5
sg462
F2
sg463
S'Wit'
p906
sg465
S'AllEnemy'
p907
sg467
F2
sg468
F4
sg469
(lp908
g714
asg487
I2
sg488
F12
sg483
g902
sg489
S'Human Shield'
p909
sbsS'MAKEDEMANDS'
p910
g1
(g10
g3
NtRp911
(dp912
g457
F8
sg458
S'asdf'
p913
sg460
I1
sg461
F0
sg462
F0
sg463
S'Cunning'
p914
sg465
S'AllEnemy'
p915
sg467
F0
sg468
I0
sg469
(lp916
g506
asg487
I1
sg488
F0
sg483
g910
sg489
S'Make Outrageous Demands'
p917
sbsS'DEFENSE'
p918
g1
(g10
g3
NtRp919
(dp920
g457
F0
sg458
S'Gather strenth; -50% to all incoming attacks'
p921
sg460
I1
sg461
F0
sg462
F0
sg463
S''
sg465
S'None'
p922
sg467
F0
sg468
I0
sg469
(lp923
g1
(g471
g3
NtRp924
(dp925
g474
S'add'
p926
sg476
S'(DFND)'
p927
sg478
S'resistance'
p928
sg480
F0.5
sg481
F1
sg482
F1
sg483
S'Defense'
p929
sg485
S'TRUE'
p930
sbasg487
I1
sg488
F0
sg483
g918
sg489
S'Defense'
p931
sbsS'MISCONSTRUE'
p932
g1
(g10
g3
NtRp933
(dp934
g457
F8
sg458
S'asdf'
p935
sg460
I1
sg461
F0
sg462
F0
sg463
S'Cunning'
p936
sg465
S'AllEnemy'
p937
sg467
F0
sg468
I0
sg469
(lp938
g506
asg487
I1
sg488
F0
sg483
g932
sg489
S'Misconstrue'
p939
sbsS'NATIONALSECURITY'
p940
g1
(g10
g3
NtRp941
(dp942
g457
F7
sg458
S"This is a matter of national security and they don't have codeword clearance"
p943
sg460
I1
sg461
F10
sg462
F2
sg463
S'Cunning'
p944
sg465
S'AllEnemy'
p945
sg467
F2
sg468
I0
sg469
(lp946
sg487
I1
sg488
F9
sg483
g940
sg489
S'National Security'
p947
sbsS'RALLY'
p948
g1
(g10
g3
NtRp949
(dp950
g457
F-2
sg458
S'Get back some votes by rallying supporters'
p951
sg460
I1
sg461
F0
sg462
F0
sg463
S'Wit'
p952
sg465
S'AllFriendly'
p953
sg467
F-4
sg468
F2
sg469
(lp954
sg487
I1
sg488
F0
sg483
g948
sg489
S'Rally Constituents'
p955
sbsS'MESSAGE'
p956
g1
(g10
g3
NtRp957
(dp958
g457
F5
sg458
S'You can certainly wear them down by repeating your party line over and over and over...if you want'
p959
sg460
F6
sg461
F10
sg462
F2
sg463
S'Wit'
p960
sg465
S'AllEnemy'
p961
sg467
F2
sg468
I0
sg469
(lp962
sg487
I1
sg488
F8
sg483
g956
sg489
S'Stay On Message'
p963
sbsS'APPEALTOGOD'
p964
g1
(g10
g3
NtRp965
(dp966
g457
F6
sg458
S'asdf'
p967
sg460
F3
sg461
F0
sg462
F0
sg463
S'Wit'
p968
sg465
S'AllEnemy'
p969
sg467
F4
sg468
F7
sg469
(lp970
sg487
I4
sg488
F0
sg483
g964
sg489
S'Appeal To God'
p971
sbssS'levels'
p972
(lp973
g1
(g10
g3
NtRp974
(dp975
S'votes'
p976
F10
sS'level'
p977
F1
sS'spin'
p978
F5
sS'xp'
p979
F0
sS'skill_points'
p980
F0
sbag1
(g10
g3
NtRp981
(dp982
g976
F12
sg977
F2
sg978
F5
sg979
F5
sg980
F2
sbag1
(g10
g3
NtRp983
(dp984
g976
F15
sg977
F3
sg978
F6
sg979
F200
sg980
F2
sbag1
(g10
g3
NtRp985
(dp986
g976
F20
sg977
F4
sg978
F6
sg979
F500
sg980
F2
sbag1
(g10
g3
NtRp987
(dp988
g976
F25
sg977
F5
sg978
F7
sg979
F1000
sg980
F2
sbag1
(g10
g3
NtRp989
(dp990
g976
F30
sg977
F6
sg978
F7
sg979
F2000
sg980
F2
sbag1
(g10
g3
NtRp991
(dp992
g976
F35
sg977
F7
sg978
F8
sg979
F5000
sg980
F2
sbag1
(g10
g3
NtRp993
(dp994
g976
F40
sg977
F8
sg978
F8
sg979
F10000
sg980
F2
sbag1
(g10
g3
NtRp995
(dp996
g976
F45
sg977
F9
sg978
F9
sg979
F15000
sg980
F2
sbag1
(g10
g3
NtRp997
(dp998
g976
F50
sg977
F10
sg978
F9
sg979
F20000
sg980
F2
sbag1
(g10
g3
NtRp999
(dp1000
g976
F55
sg977
F11
sg978
F10
sg979
F40000
sg980
F2
sbag1
(g10
g3
NtRp1001
(dp1002
g976
S''
sg977
F12
sg978
S''
sg979
S''
sg980
S''
sbag1
(g10
g3
NtRp1003
(dp1004
g976
S''
sg977
F13
sg978
S''
sg979
S''
sg980
S''
sbag1
(g10
g3
NtRp1005
(dp1006
g976
S''
sg977
F14
sg978
S''
sg979
S''
sg980
S''
sbag1
(g10
g3
NtRp1007
(dp1008
g976
S''
sg977
F15
sg978
S''
sg979
S''
sg980
S''
sbag1
(g10
g3
NtRp1009
(dp1010
g976
S''
sg977
F16
sg978
S''
sg979
S''
sg980
S''
sbag1
(g10
g3
NtRp1011
(dp1012
g976
S''
sg977
F17
sg978
S''
sg979
S''
sg980
S''
sbag1
(g10
g3
NtRp1013
(dp1014
g976
S''
sg977
F18
sg978
S''
sg979
S''
sg980
S''
sbag1
(g10
g3
NtRp1015
(dp1016
g976
S''
sg977
F19
sg978
S''
sg979
S''
sg980
S''
sbag1
(g10
g3
NtRp1017
(dp1018
g976
S''
sg977
F20
sg978
S''
sg979
S''
sg980
S''
sbag1
(g10
g3
NtRp1019
(dp1020
g976
S''
sg977
F21
sg978
S''
sg979
S''
sg980
S''
sbag1
(g10
g3
NtRp1021
(dp1022
g976
S''
sg977
F22
sg978
S''
sg979
S''
sg980
S''
sbag1
(g10
g3
NtRp1023
(dp1024
g976
S''
sg977
F23
sg978
S''
sg979
S''
sg980
S''
sbag1
(g10
g3
NtRp1025
(dp1026
g976
S''
sg977
F24
sg978
S''
sg979
S''
sg980
S''
sbag1
(g10
g3
NtRp1027
(dp1028
g976
S''
sg977
F25
sg978
S''
sg979
S''
sg980
S''
sbag1
(g10
g3
NtRp1029
(dp1030
g976
S''
sg977
F26
sg978
S''
sg979
S''
sg980
S''
sbag1
(g10
g3
NtRp1031
(dp1032
g976
S''
sg977
F27
sg978
S''
sg979
S''
sg980
S''
sbag1
(g10
g3
NtRp1033
(dp1034
g976
S''
sg977
F28
sg978
S''
sg979
S''
sg980
S''
sbag1
(g10
g3
NtRp1035
(dp1036
g976
S''
sg977
F29
sg978
S''
sg979
S''
sg980
S''
sbasg469
(dp1037
g484
g472
sg579
g575
sg654
g650
sg856
g851
sg718
g714
sg667
g664
sg834
g830
sg900
g897
sg634
g629
sg681
g676
sg929
g924
sg510
g506
sg525
g520
ssS'characters'
p1038
(dp1039
S'Teacher001'
p1040
(lp1041
g1
(g10
g3
NtRp1042
(dp1043
S'flair_base'
p1044
F1
sS'spin_base'
p1045
F4
sS'flair_lvl'
p1046
F1.1499999999999999
sS'wit_base'
p1047
F1
sS'resistance'
p1048
(lp1049
sS'wit_lvl'
p1050
F1.0900000000000001
sS'cunning_base'
p1051
F1
sg483
g1040
sS'votes_base'
p1052
F10
sS'speed_lvl'
p1053
F1.0800000000000001
sS'standard_attacks'
p1054
(lp1055
g919
ag684
asS'cunning_lvl'
p1056
F1.1000000000000001
sS'charisma_lvl'
p1057
F1.1499999999999999
sS'spin_attacks'
p1058
(lp1059
g769
ag949
asS'spin_lvl'
p1060
F1.0800000000000001
sS'charisma_base'
p1061
F1
sS'weaknesses'
p1062
(lp1063
sS'attack_group'
p1064
S'Teacher'
p1065
sS'votes_lvl'
p1066
F1.2
sg489
S'Teacher'
p1067
sS'speed_base'
p1068
F1
sS'immunities'
p1069
(lp1070
sbasS'Politician001'
p1071
(lp1072
g1
(g10
g3
NtRp1073
(dp1074
g1044
F1
sg1045
F4
sg1046
F1.1499999999999999
sg1047
F1
sg1048
(lp1075
g500
asg1050
F1.0900000000000001
sg1051
F1
sg483
g1071
sg1052
F10
sg1053
F1.0800000000000001
sg1054
(lp1076
g957
ag777
ag500
ag876
ag919
asg1056
F1.1000000000000001
sg1057
F1.1499999999999999
sg1058
(lp1077
g808
ag615
ag892
asg1060
F1.0800000000000001
sg1061
F1
sg1062
(lp1078
g583
asg1064
S'Politician'
p1079
sg1066
F1.2
sg489
S'Politician'
p1080
sg1068
F1
sg1069
(lp1081
g860
asbasS'SecretAgent'
p1082
(lp1083
g1
(g10
g3
NtRp1084
(dp1085
g1044
F1
sg1045
F4
sg1046
F1.1499999999999999
sg1047
F1
sg1048
(lp1086
sg1050
F1.0900000000000001
sg1051
F1
sg483
g1082
sg1052
F18
sg1053
F1.0800000000000001
sg1054
(lp1087
g919
ag941
ag745
asg1056
F1.1000000000000001
sg1057
F1.1499999999999999
sg1058
(lp1088
g903
ag721
asg1060
F1.0800000000000001
sg1061
F1
sg1062
(lp1089
sg1064
S'SecretAgent'
p1090
sg1066
F1.2
sg489
S'Agent Kawalski'
p1091
sg1068
F1
sg1069
(lp1092
sbasS'Bumpkin001'
p1093
(lp1094
g1
(g10
g3
NtRp1095
(dp1096
g1044
F1
sg1045
F4
sg1046
F1.1499999999999999
sg1047
F1
sg1048
(lp1097
sg1050
F1.0900000000000001
sg1051
F1
sg483
g1093
sg1052
F10
sg1053
F1.0800000000000001
sg1054
(lp1098
g876
ag637
asg1056
F1.1000000000000001
sg1057
F1.1499999999999999
sg1058
(lp1099
g599
ag692
asg1060
F1.0800000000000001
sg1061
F1
sg1062
(lp1100
g500
ag777
ag816
asg1064
S'Bumpkin'
p1101
sg1066
F1.2
sg489
S'Bumpkin'
p1102
sg1068
F1
sg1069
(lp1103
sbasS'WarVet001'
p1104
(lp1105
g1
(g10
g3
NtRp1106
(dp1107
g1044
F1
sg1045
F4
sg1046
F1.1499999999999999
sg1047
F1
sg1048
(lp1108
sg1050
F1.0900000000000001
sg1051
F1
sg483
g1104
sg1052
F10
sg1053
F1.0800000000000001
sg1054
(lp1109
g911
ag919
asg1056
F1.1000000000000001
sg1057
F1.1499999999999999
sg1058
(lp1110
g868
ag949
asg1060
F1.0800000000000001
sg1061
F1
sg1062
(lp1111
sg1064
S'WarVet'
p1112
sg1066
F1.2
sg489
S'War Veteran'
p1113
sg1068
F1
sg1069
(lp1114
sbasS'Receptionist001'
p1115
(lp1116
g1
(g10
g3
NtRp1117
(dp1118
g1044
F1
sg1045
F4
sg1046
F1.1499999999999999
sg1047
F1
sg1048
(lp1119
sg1050
F1.0900000000000001
sg1051
F1
sg483
g1115
sg1052
F10
sg1053
F1.0800000000000001
sg1054
(lp1120
g837
ag785
asg1056
F1.1000000000000001
sg1057
F1.1499999999999999
sg1058
(lp1121
g793
ag569
asg1060
F1.0800000000000001
sg1061
F1
sg1062
(lp1122
sg1064
S'Receptionist'
p1123
sg1066
F1.2
sg489
S'Receptionist'
p1124
sg1068
F1
sg1069
(lp1125
sbasS'DeepThroat'
p1126
(lp1127
g1
(g10
g3
NtRp1128
(dp1129
g1044
F1
sg1045
F4
sg1046
F1.1499999999999999
sg1047
F1
sg1048
(lp1130
sg1050
F1.0900000000000001
sg1051
F1
sg483
g1126
sg1052
F10
sg1053
F1.0800000000000001
sg1054
(lp1131
g777
ag919
ag911
asg1056
F1.1000000000000001
sg1057
F1.1499999999999999
sg1058
(lp1132
g670
asg1060
F1.0800000000000001
sg1061
F1
sg1062
(lp1133
sg1064
S'DeepThroat'
p1134
sg1066
F1.2
sg489
S'Deep Throat'
p1135
sg1068
F1
sg1069
(lp1136
sbasS'Leo'
p1137
(lp1138
g1
(g10
g3
NtRp1139
(dp1140
g1044
F1
sg1045
F4
sg1046
F1.1499999999999999
sg1047
F1
sg1048
(lp1141
sg1050
F1.0900000000000001
sg1051
F1
sg483
g1137
sg1052
F14
sg1053
F1.0800000000000001
sg1054
(lp1142
g957
ag777
ag500
ag876
ag583
asg1056
F1.1000000000000001
sg1057
F1.1499999999999999
sg1058
(lp1143
g808
ag615
ag860
ag708
asg1060
F1.0800000000000001
sg1061
F1
sg1062
(lp1144
sg1064
S'Theo'
p1145
sg1066
F1.2
sg489
S'Theo'
p1146
sg1068
F1
sg1069
(lp1147
sbasS'HippyGirl001'
p1148
(lp1149
g1
(g10
g3
NtRp1150
(dp1151
g1044
F1
sg1045
F4
sg1046
F1.1499999999999999
sg1047
F1
sg1048
(lp1152
sg1050
F1.0900000000000001
sg1051
F1
sg483
g1148
sg1052
F10
sg1053
F1.0800000000000001
sg1054
(lp1153
g591
ag684
ag729
asg1056
F1.1000000000000001
sg1057
F1.1499999999999999
sg1058
(lp1154
g753
ag949
ag892
asg1060
F1.0800000000000001
sg1061
F1
sg1062
(lp1155
g876
asg1064
S'Hippy'
p1156
sg1066
F1.2
sg489
S'Hippy Girl'
p1157
sg1068
F1
sg1069
(lp1158
sbasS'President'
p1159
(lp1160
g1
(g10
g3
NtRp1161
(dp1162
g1044
F1
sg1045
F4
sg1046
F1.1499999999999999
sg1047
F1
sg1048
(lp1163
sg1050
F1.0900000000000001
sg1051
F1
sg483
g1159
sg1052
F10
sg1053
F1.0800000000000001
sg1054
(lp1164
g957
ag777
ag500
ag876
ag919
asg1056
F1.1000000000000001
sg1057
F1.1499999999999999
sg1058
(lp1165
g808
ag615
ag892
asg1060
F1.0800000000000001
sg1061
F1
sg1062
(lp1166
sg1064
S'Politician'
p1167
sg1066
F1.2
sg489
S'President Allen'
p1168
sg1068
F1
sg1069
(lp1169
sbasS'Unionist001'
p1170
(lp1171
g1
(g10
g3
NtRp1172
(dp1173
g1044
F1
sg1045
F4
sg1046
F1.1499999999999999
sg1047
F1
sg1048
(lp1174
sg1050
F1.0900000000000001
sg1051
F1
sg483
g1170
sg1052
F10
sg1053
F1.0800000000000001
sg1054
(lp1175
g911
ag919
ag684
asg1056
F1.1000000000000001
sg1057
F1.1499999999999999
sg1058
(lp1176
g769
asg1060
F1.0800000000000001
sg1061
F1
sg1062
(lp1177
sg1064
S'Unionist'
p1178
sg1066
F1.2
sg489
S'Unionist'
p1179
sg1068
F1
sg1069
(lp1180
sbasS'Wife'
p1181
(lp1182
g1
(g10
g3
NtRp1183
(dp1184
g1044
F1
sg1045
F4
sg1046
F1.1499999999999999
sg1047
F1
sg1048
(lp1185
sg1050
F1.0900000000000001
sg1051
F1
sg483
g1181
sg1052
F12
sg1053
F1.0800000000000001
sg1054
(lp1186
g919
ag957
asg1056
F1.1000000000000001
sg1057
F1.1499999999999999
sg1058
(lp1187
g949
ag892
ag623
asg1060
F1.0800000000000001
sg1061
F1
sg1062
(lp1188
sg1064
S'Wife'
p1189
sg1066
F1.2
sg489
S'Sarah Mossman'
p1190
sg1068
F1
sg1069
(lp1191
sbasS'PresidentAlien'
p1192
(lp1193
g1
(g10
g3
NtRp1194
(dp1195
g1044
F1
sg1045
F4
sg1046
F1.1499999999999999
sg1047
F1
sg1048
(lp1196
sg1050
F1.0900000000000001
sg1051
F1
sg483
g1192
sg1052
F10
sg1053
F1.0800000000000001
sg1054
(lp1197
g957
ag777
ag500
ag876
ag919
asg1056
F1.1000000000000001
sg1057
F1.1499999999999999
sg1058
(lp1198
g808
ag615
ag892
asg1060
F1.0800000000000001
sg1061
F1
sg1062
(lp1199
sg1064
S'Politician'
p1200
sg1066
F1.2
sg489
S'President Alien'
p1201
sg1068
F1
sg1069
(lp1202
sbasS'Governor'
p1203
(lp1204
g1
(g10
g3
NtRp1205
(dp1206
g1044
F1
sg1045
F4
sg1046
F1.1499999999999999
sg1047
F1
sg1048
(lp1207
sg1050
F1.0900000000000001
sg1051
F1
sg483
g1203
sg1052
F10
sg1053
F1.0800000000000001
sg1054
(lp1208
g957
ag777
ag500
ag876
ag919
asg1056
F1.1000000000000001
sg1057
F1.1499999999999999
sg1058
(lp1209
g808
ag615
ag892
asg1060
F1.0800000000000001
sg1061
F1
sg1062
(lp1210
sg1064
S'Politician'
p1211
sg1066
F1.2
sg489
g1203
sg1068
F1
sg1069
(lp1212
sbasS'Lobbyist001'
p1213
(lp1214
g1
(g10
g3
NtRp1215
(dp1216
g1044
F1
sg1045
F4
sg1046
F1.1499999999999999
sg1047
F1
sg1048
(lp1217
sg1050
F1.0900000000000001
sg1051
F1
sg483
g1213
sg1052
F10
sg1053
F1.0800000000000001
sg1054
(lp1218
g700
ag911
asg1056
F1.1000000000000001
sg1057
F1.1499999999999999
sg1058
(lp1219
g824
ag670
asg1060
F1.0800000000000001
sg1061
F1
sg1062
(lp1220
g860
asg1064
S'Lobbyist'
p1221
sg1066
F1.2
sg489
S'Lobbyist'
p1222
sg1068
F1
sg1069
(lp1223
g583
asbasS'Journalist001'
p1224
(lp1225
g1
(g10
g3
NtRp1226
(dp1227
g1044
F1
sg1045
F4
sg1046
F1.1499999999999999
sg1047
F1
sg1048
(lp1228
sg1050
F1.0900000000000001
sg1051
F1
sg483
g1224
sg1052
F10
sg1053
F1.0800000000000001
sg1054
(lp1229
g553
ag933
asg1056
F1.1000000000000001
sg1057
F1.1499999999999999
sg1058
(lp1230
g737
ag455
ag529
asg1060
F1.0800000000000001
sg1061
F1
sg1062
(lp1231
sg1064
S'Journalist'
p1232
sg1066
F1.2
sg489
S'Journalist'
p1233
sg1068
F1
sg1069
(lp1234
sbasS'ReligiousNut001'
p1235
(lp1236
g1
(g10
g3
NtRp1237
(dp1238
g1044
F1
sg1045
F4
sg1046
F1.1499999999999999
sg1047
F1
sg1048
(lp1239
sg1050
F1.0900000000000001
sg1051
F1
sg483
g1235
sg1052
F10
sg1053
F1.0800000000000001
sg1054
(lp1240
g537
ag884
ag919
asg1056
F1.1000000000000001
sg1057
F1.1499999999999999
sg1058
(lp1241
g965
ag658
asg1060
F1.0800000000000001
sg1061
F1
sg1062
(lp1242
sg1064
S'Religious'
p1243
sg1066
F1.2
sg489
S'Religious Nut'
p1244
sg1068
F1
sg1069
(lp1245
g876
asbasS'JointChief001'
p1246
(lp1247
g1
(g10
g3
NtRp1248
(dp1249
g1044
F1
sg1045
F4
sg1046
F1.1499999999999999
sg1047
F1
sg1048
(lp1250
sg1050
F1.0900000000000001
sg1051
F1
sg483
g1246
sg1052
F10
sg1053
F1.0800000000000001
sg1054
(lp1251
g911
ag919
ag941
ag607
asg1056
F1.1000000000000001
sg1057
F1.1499999999999999
sg1058
(lp1252
g721
asg1060
F1.0800000000000001
sg1061
F1
sg1062
(lp1253
sg1064
S'JointChief'
p1254
sg1066
F1.2
sg489
S'Joint Chief'
p1255
sg1068
F1
sg1069
(lp1256
sbasS'Protester001'
p1257
(lp1258
g1
(g10
g3
NtRp1259
(dp1260
g1044
F1
sg1045
F4
sg1046
F1.1499999999999999
sg1047
F1
sg1048
(lp1261
sg1050
F1.0900000000000001
sg1051
F1
sg483
g1257
sg1052
F10
sg1053
F1.0800000000000001
sg1054
(lp1262
g684
ag545
ag591
asg1056
F1.1000000000000001
sg1057
F1.1499999999999999
sg1058
(lp1263
g949
asg1060
F1.0800000000000001
sg1061
F1
sg1062
(lp1264
sg1064
S'Protestor'
p1265
sg1066
F1.2
sg489
S'Protester'
p1266
sg1068
F1
sg1069
(lp1267
sbasS'TVPersonality001'
p1268
(lp1269
g1
(g10
g3
NtRp1270
(dp1271
g1044
F1
sg1045
F4
sg1046
F1.1499999999999999
sg1047
F1
sg1048
(lp1272
sg1050
F1.0900000000000001
sg1051
F1
sg483
g1268
sg1052
F10
sg1053
F1.0800000000000001
sg1054
(lp1273
g876
ag553
asg1056
F1.1000000000000001
sg1057
F1.1499999999999999
sg1058
(lp1274
g529
ag514
asg1060
F1.0800000000000001
sg1061
F1
sg1062
(lp1275
sg1064
S'TVPersonality'
p1276
sg1066
F1.2
sg489
S"Hecules O'Grady"
p1277
sg1068
F1
sg1069
(lp1278
sbasS'Player'
p1279
(lp1280
g1
(g10
g3
NtRp1281
(dp1282
g1044
F1
sg1045
F5
sg1046
F1.1499999999999999
sg1047
F1
sg1048
(lp1283
sg1050
F1.0900000000000001
sg1051
F1
sg483
g1279
sg1052
F15
sg1053
F1.0800000000000001
sg1054
(lp1284
g957
ag500
ag876
asg1056
F1.1000000000000001
sg1057
F1.1499999999999999
sg1058
(lp1285
g808
ag615
ag949
asg1060
F1.0800000000000001
sg1061
F1
sg1062
(lp1286
sg1064
S'Player'
p1287
sg1066
F1.2
sg489
S'Phillip Mossman'
p1288
sg1068
F2
sg1069
(lp1289
sbasS'Computer'
p1290
(lp1291
g1
(g10
g3
NtRp1292
(dp1293
g1044
F1
sg1045
F4
sg1046
F1.1499999999999999
sg1047
F1
sg1048
(lp1294
sg1050
F1.0900000000000001
sg1051
F1
sg483
g1290
sg1052
F10
sg1053
F1.0800000000000001
sg1054
(lp1295
g957
ag777
ag500
ag876
ag919
asg1056
F1.1000000000000001
sg1057
F1.1499999999999999
sg1058
(lp1296
g808
ag615
ag892
asg1060
F1.0800000000000001
sg1061
F1
sg1062
(lp1297
sg1064
S'Politician'
p1298
sg1066
F1.2
sg489
S'N.O.T.B.A.D'
p1299
sg1068
F1
sg1069
(lp1300
sbasS'CabinetPolitician001'
p1301
(lp1302
g1
(g10
g3
NtRp1303
(dp1304
g1044
F1
sg1045
F4
sg1046
F1.1499999999999999
sg1047
F1
sg1048
(lp1305
sg1050
F1.0900000000000001
sg1051
F1
sg483
g1301
sg1052
F10
sg1053
F1.0800000000000001
sg1054
(lp1306
g957
ag777
ag500
ag876
ag919
asg1056
F1.1000000000000001
sg1057
F1.1499999999999999
sg1058
(lp1307
g808
ag615
ag892
asg1060
F1.0800000000000001
sg1061
F1
sg1062
(lp1308
sg1064
S'Politician'
p1309
sg1066
F1.2
sg489
S'Cabinet Politician'
p1310
sg1068
F1
sg1069
(lp1311
sbasS'Constituent001'
p1312
(lp1313
g1
(g10
g3
NtRp1314
(dp1315
g1044
F1
sg1045
F4
sg1046
F1.1499999999999999
sg1047
F1
sg1048
(lp1316
sg1050
F1.0900000000000001
sg1051
F1
sg483
g1312
sg1052
F10
sg1053
F1.0800000000000001
sg1054
(lp1317
g684
ag700
ag911
asg1056
F1.1000000000000001
sg1057
F1.1499999999999999
sg1058
(lp1318
g892
asg1060
F1.0800000000000001
sg1061
F1
sg1062
(lp1319
sg1064
S'Constituent'
p1320
sg1066
F1.2
sg489
S'Constituent'
p1321
sg1068
F1
sg1069
(lp1322
sbasS'Mayor'
p1323
(lp1324
g1
(g10
g3
NtRp1325
(dp1326
g1044
F1
sg1045
F4
sg1046
F1.1499999999999999
sg1047
F1
sg1048
(lp1327
sg1050
F1.0900000000000001
sg1051
F1
sg483
g1323
sg1052
F10
sg1053
F1.0800000000000001
sg1054
(lp1328
g957
ag777
ag500
ag876
ag919
asg1056
F1.1000000000000001
sg1057
F1.1499999999999999
sg1058
(lp1329
g808
ag615
ag892
asg1060
F1.0800000000000001
sg1061
F1
sg1062
(lp1330
sg1064
S'Politician'
p1331
sg1066
F1.2
sg489
S'Mayor Goodman'
p1332
sg1068
F1
sg1069
(lp1333
sbassS'quest_items'
p1334
(dp1335
S'PEN'
p1336
g1
(g10
g3
NtRp1337
(dp1338
g489
S'A pen'
p1339
sg483
g1336
sbsS'BILLOFRIGHTS'
p1340
g1
(g10
g3
NtRp1341
(dp1342
g489
S"Citizens' Bill of Rights"
p1343
sg483
g1340
sbssg1054
(dp1344
S'Theo'
p1345
(lp1346
g957
ag777
ag500
ag876
ag583
ag808
ag615
ag860
ag708
asS'JointChief'
p1347
(lp1348
g911
ag919
ag941
ag721
ag607
asS'Politician'
p1349
(lp1350
g957
ag777
ag500
ag876
ag808
ag615
ag892
ag919
asS'Bumpkin'
p1351
(lp1352
g876
ag599
ag692
ag637
asS'TVPersonality'
p1353
(lp1354
g876
ag529
ag553
ag514
asS'SecretAgent'
p1355
(lp1356
g919
ag903
ag941
ag721
ag745
asS'DeepThroat'
p1357
(lp1358
g777
ag919
ag670
ag911
asS'Protestor'
p1359
(lp1360
g949
ag684
ag545
ag591
asS'Lobbyist'
p1361
(lp1362
g700
ag824
ag670
ag911
asS'Teacher'
p1363
(lp1364
g769
ag919
ag684
ag949
asS'Player'
p1365
(lp1366
g957
ag500
ag876
ag808
ag615
ag949
asS'Computer'
p1367
(lp1368
g721
ag941
ag561
ag670
ag911
ag777
asS'Receptionist'
p1369
(lp1370
g837
ag785
ag793
ag569
asS'Hippy'
p1371
(lp1372
g591
ag684
ag729
ag753
ag949
ag892
asS'Constituent'
p1373
(lp1374
g684
ag892
ag700
ag911
asS'Wife'
p1375
(lp1376
g949
ag892
ag919
ag957
ag623
asS'WarVet'
p1377
(lp1378
g911
ag919
ag868
ag949
asS'Religious'
p1379
(lp1380
g537
ag965
ag658
ag884
ag919
asS'Unionist'
p1381
(lp1382
g911
ag919
ag684
ag769
asS'Journalist'
p1383
(lp1384
g553
ag933
ag737
ag455
ag529
assS'encounters'
p1385
(dp1386
S'P-easy-05'
p1387
g1
(g10
g3
NtRp1388
(dp1389
S'item_attack_drops'
p1390
(lp1391
sS'item_attacks'
p1392
(lp1393
sg979
F10
sS'monster2_lvl'
p1394
S''
sS'monster3'
p1395
S''
sS'monster1_lvl'
p1396
F1
sS'monster3_lvl'
p1397
S''
sS'monster4_lvl'
p1398
S''
sS'monster4'
p1399
S''
sS'monster2'
p1400
S''
sg483
g1387
sS'monster1'
p1401
S'Journalist001'
p1402
sbsS'P-easy-04'
p1403
g1
(g10
g3
NtRp1404
(dp1405
g1390
(lp1406
sg1392
(lp1407
sg979
F10
sg1394
F1
sg1395
S'Protester001'
p1408
sg1396
F1
sg1397
F1
sg1398
S''
sg1399
S''
sg1400
S'Protester001'
p1409
sg483
g1403
sg1401
S'Protester001'
p1410
sbsS'P-easy-06'
p1411
g1
(g10
g3
NtRp1412
(dp1413
g1390
(lp1414
sg1392
(lp1415
sg979
F10
sg1394
F1
sg1395
S''
sg1396
F1
sg1397
S''
sg1398
S''
sg1399
S''
sg1400
S'Lobbyist001'
p1416
sg483
g1411
sg1401
S'Lobbyist001'
p1417
sbsS'P-easy-01'
p1418
g1
(g10
g3
NtRp1419
(dp1420
g1390
(lp1421
g1
(c__main__
ItemAttack
p1422
g3
NtRp1423
(dp1424
S'attack'
p1425
g492
sS'quantity'
p1426
I1
sbasg1392
(lp1427
g1
(g1422
g3
NtRp1428
(dp1429
g1425
g761
sg1426
I1
sbasg979
F10
sg1394
S''
sg1395
S''
sg1396
F1
sg1397
S''
sg1398
S''
sg1399
S''
sg1400
S''
sg483
g1418
sg1401
S'Receptionist001'
p1430
sbsS'P-easy-03'
p1431
g1
(g10
g3
NtRp1432
(dp1433
g1390
(lp1434
sg1392
(lp1435
sg979
F10
sg1394
F1
sg1395
S''
sg1396
F1
sg1397
S''
sg1398
S''
sg1399
S''
sg1400
S'Protester001'
p1436
sg483
g1431
sg1401
S'Protester001'
p1437
sbsS'P-easy-02'
p1438
g1
(g10
g3
NtRp1439
(dp1440
g1390
(lp1441
sg1392
(lp1442
sg979
F10
sg1394
F1
sg1395
S''
sg1396
F1
sg1397
S''
sg1398
S''
sg1399
S''
sg1400
S'Protester001'
p1443
sg483
g1438
sg1401
S'Protester001'
p1444
sbssb.