ccopy_reg
_reconstructor
p1
(c__main__
GameData
p2
c__builtin__
object
p3
NtRp4
(dp5
S'script'
p6
(dp7
S'#----------------------------------------------------------------------------------------ACT 3 ----------------------------------------------------------------------------------------------------------------------------------------------------------------------------------------'
p8
(lp9
g1
(c__main__
TableRow
p10
g3
NtRp11
(dp12
S'action'
p13
S''
sS'trigger'
p14
g8
sS'param'
p15
S''
sS'dialog'
p16
S''
sbasS'Hick1'
p17
(lp18
g1
(g10
g3
NtRp19
(dp20
g13
S'RequireFlag'
p21
sg14
g17
sg15
S'STARTHICKS'
p22
sg16
S"Look at this guy's fancy tie!"
p23
sbag1
(g10
g3
NtRp24
(dp25
g13
S'PlayerSay'
p26
sg14
S'Hick1'
p27
sg15
S''
sg16
S'What brings you to the office of the governor?'
p28
sbag1
(g10
g3
NtRp29
(dp30
g13
S'Say'
p31
sg14
S'Hick1'
p32
sg15
S''
sg16
S'The immigrants!'
p33
sbag1
(g10
g3
NtRp34
(dp35
g13
S'PlayerSay'
p36
sg14
S'Hick1'
p37
sg15
S''
sg16
S'What happened?'
p38
sbag1
(g10
g3
NtRp39
(dp40
g13
S'Say'
p41
sg14
S'Hick1'
p42
sg15
S'Hick2'
p43
sg16
S"They're coming!"
p44
sbag1
(g10
g3
NtRp45
(dp46
g13
S'PlayerSay'
p47
sg14
S'Hick1'
p48
sg15
S''
sg16
S'The...immigrants are coming?'
p49
sbag1
(g10
g3
NtRp50
(dp51
g13
S'Say'
p52
sg14
S'Hick1'
p53
sg15
S'Hick2'
p54
sg16
S'Yes, to steal our jobs and our wives!'
p55
sbag1
(g10
g3
NtRp56
(dp57
g13
S'Say'
p58
sg14
S'Hick1'
p59
sg15
S''
sg16
S'They have to be stopped!'
p60
sbag1
(g10
g3
NtRp61
(dp62
g13
S'PlayerSay'
p63
sg14
S'Hick1'
p64
sg15
S''
sg16
S"I don't think the immigrants are coming to steal your wives..."
p65
sbag1
(g10
g3
NtRp66
(dp67
g13
S'Say'
p68
sg14
S'Hick1'
p69
sg15
S'Journalist2'
p70
sg16
S'Mayor Mossman sides with the immigrants! I need to get this to print!'
p71
sbag1
(g10
g3
NtRp72
(dp73
g13
S'PlayerSay'
p74
sg14
S'Hick1'
p75
sg15
S''
sg16
S'Wait a second, let me explain.'
p76
sbag1
(g10
g3
NtRp77
(dp78
g13
S'Encounter'
p79
sg14
S'Hick1'
p80
sg15
S'P-med-03'
p81
sg16
S''
sbag1
(g10
g3
NtRp82
(dp83
g13
S'Say'
p84
sg14
S'Hick1'
p85
sg15
S''
sg16
S"You're a smart guy. I think I can trust you."
p86
sbag1
(g10
g3
NtRp87
(dp88
g13
S'SetFlag'
p89
sg14
S'Hick1'
p90
sg15
S'STARTHICKS2'
p91
sg16
S''
sbag1
(g10
g3
NtRp92
(dp93
g13
S'Increment'
p94
sg14
S'Hick1'
p95
sg15
S'DEALWITHHICKS'
p96
sg16
S''
sbag1
(g10
g3
NtRp97
(dp98
g13
S'Destroy'
p99
sg14
S'Hick1'
p100
sg15
S''
sg16
S''
sbasS'Hick2'
p101
(lp102
g1
(g10
g3
NtRp103
(dp104
g13
S'RequireFlag'
p105
sg14
g101
sg15
S'STARTHICKS2'
p106
sg16
S"Aw....I'm shy...talk to my buddy..."
p107
sbag1
(g10
g3
NtRp108
(dp109
g13
S'Encounter'
p110
sg14
S'Hick2'
p111
sg15
S'P-med-04'
p112
sg16
S''
sbag1
(g10
g3
NtRp113
(dp114
g13
S'Say'
p115
sg14
S'Hick2'
p116
sg15
S''
sg16
S"Wowee. We've been waiting for days and the governor has ignored us. If you ever run for governor, you'll have my vote!"
p117
sbag1
(g10
g3
NtRp118
(dp119
g13
S'Increment'
p120
sg14
S'Hick2'
p121
sg15
S'DEALWITHHICKS'
p122
sg16
S''
sbag1
(g10
g3
NtRp123
(dp124
g13
S'Destroy'
p125
sg14
S'Hick2'
p126
sg15
S''
sg16
S''
sbasS'Cabinet1'
p127
(lp128
g1
(g10
g3
NtRp129
(dp130
g13
S'Say'
p131
sg14
g127
sg15
S''
sg16
S'Good afternoon, Mr President. How can I help?'
p132
sbag1
(g10
g3
NtRp133
(dp134
g13
S'PlayerSay'
p135
sg14
S'Cabinet1'
p136
sg15
S''
sg16
S'I want to know where the orders to mobilise the military and reallocate education funds came from.'
p137
sbag1
(g10
g3
NtRp138
(dp139
g13
S'Say'
p140
sg14
S'Cabinet1'
p141
sg15
S''
sg16
S'But...it came from you, sir. They were both faxed over to me this afternoon.'
p142
sbag1
(g10
g3
NtRp143
(dp144
g13
S'PlayerSay'
p145
sg14
S'Cabinet1'
p146
sg15
S''
sg16
S'Tell me every detail.'
p147
sbag1
(g10
g3
NtRp148
(dp149
g13
S'Encounter'
p150
sg14
S'Cabinet1'
p151
sg15
S'P-hard-08'
p152
sg16
S''
sbag1
(g10
g3
NtRp153
(dp154
g13
S'Increment'
p155
sg14
S'Cabinet1'
p156
sg15
S'CABINETMEMBERS'
p157
sg16
S''
sbag1
(g10
g3
NtRp158
(dp159
g13
S'Say'
p160
sg14
S'Cabinet1'
p161
sg15
S''
sg16
S'I cannot understand how this could happen.'
p162
sbag1
(g10
g3
NtRp163
(dp164
g13
S'Destroy'
p165
sg14
S'Cabinet1'
p166
sg15
S''
sg16
S''
sbasS'Politician7'
p167
(lp168
g1
(g10
g3
NtRp169
(dp170
g13
S'RequireFlag'
p171
sg14
g167
sg15
S'STARTPOLITICIANSHAKEDOWN'
p172
sg16
S'Good morning, Governor Mossman. Your PA will know your schedule. He is waiting beside the stairs'
p173
sbag1
(g10
g3
NtRp174
(dp175
g13
S'Say'
p176
sg14
S'Politician7'
p177
sg15
S''
sg16
S"I believe in captialism. Let business sort itself out. They shouldn't need to rely on government handouts."
p178
sbag1
(g10
g3
NtRp179
(dp180
g13
S'Say'
p181
sg14
S'Politician7'
p182
sg15
S''
sg16
S'Also, I think politicians need a raise. Some more than others...oh and life-long retainers.'
p183
sbag1
(g10
g3
NtRp184
(dp185
g13
S'PlayerSay'
p186
sg14
S'Politician7'
p187
sg15
S''
sg16
S'So, no more hand-outs for business but more handouts for politicians?'
p188
sbag1
(g10
g3
NtRp189
(dp190
g13
S'Say'
p191
sg14
S'Politician7'
p192
sg15
S''
sg16
S'Yes!'
p193
sbag1
(g10
g3
NtRp194
(dp195
g13
S'PlayerSay'
p196
sg14
S'Politician7'
p197
sg15
S''
sg16
S'Does that serve your constituents?'
p198
sbag1
(g10
g3
NtRp199
(dp200
g13
S'Say'
p201
sg14
S'Politician7'
p202
sg15
S''
sg16
S'...It serves...some...'
p203
sbag1
(g10
g3
NtRp204
(dp205
g13
S'Encounter'
p206
sg14
S'Politician7'
p207
sg15
S'P-med-11'
p208
sg16
S''
sbag1
(g10
g3
NtRp209
(dp210
g13
S'Say'
p211
sg14
S'Politician7'
p212
sg15
S''
sg16
S'Right, I guess we need to handle the needs of our constituents, too.'
p213
sbag1
(g10
g3
NtRp214
(dp215
g13
S'Increment'
p216
sg14
S'Politician7'
p217
sg15
S'POLITICIANSHAKEDOWN'
p218
sg16
S''
sbag1
(g10
g3
NtRp219
(dp220
g13
S'Destroy'
p221
sg14
S'Politician7'
p222
sg15
S''
sg16
S''
sbasS'TVDebate'
p223
(lp224
g1
(g10
g3
NtRp225
(dp226
g13
S'RequireFlag'
p227
sg14
g223
sg15
S'STARTDEBATE'
p228
sg16
S"Hmmm? Oh, sorry, I'm on the phone to the studio."
p229
sbag1
(g10
g3
NtRp230
(dp231
g13
S'Say'
p232
sg14
S'TVDebate'
p233
sg15
S''
sg16
S"Good evening, Governor Mossman. If you'll follow me, I'll take you to the studio."
p234
sbag1
(g10
g3
NtRp235
(dp236
g13
S'Encounter'
p237
sg14
S'TVDebate'
p238
sg15
S'P-med-21'
p239
sg16
S''
sbag1
(g10
g3
NtRp240
(dp241
g13
S'Say'
p242
sg14
S'TVDebate'
p243
sg15
S''
sg16
S'Great work tonight, Governor Mossman and congratulations on the win!'
p244
sbag1
(g10
g3
NtRp245
(dp246
g13
S'SetFlag'
p247
sg14
S'TVDebate'
p248
sg15
S'DEBATECOMPLETE'
p249
sg16
S''
sbag1
(g10
g3
NtRp250
(dp251
g13
S'Destroy'
p252
sg14
S'TVDebate'
p253
sg15
S''
sg16
S''
sbasS'Lobbyist2'
p254
(lp255
g1
(g10
g3
NtRp256
(dp257
g13
S'RequireFlag'
p258
sg14
g254
sg15
S'STARTLOBBYISTS'
p259
sg16
S'Humph'
p260
sbag1
(g10
g3
NtRp261
(dp262
g13
S'Say'
p263
sg14
S'Lobbyist2'
p264
sg15
S''
sg16
S'I represent the Python Software Foundation. What will you do to promote, protect and advance the Python programming language?'
p265
sbag1
(g10
g3
NtRp266
(dp267
g13
S'PlayerSay'
p268
sg14
S'Lobbyist2'
p269
sg15
S''
sg16
S"Ah yes, the Python cause! I'm a big advocate of Python."
p270
sbag1
(g10
g3
NtRp271
(dp272
g13
S'Encounter'
p273
sg14
S'Lobbyist2'
p274
sg15
S'P-med-12'
p275
sg16
S''
sbag1
(g10
g3
NtRp276
(dp277
g13
S'Increment'
p278
sg14
S'Lobbyist2'
p279
sg15
S'LOBBYISTS'
p280
sg16
S''
sbag1
(g10
g3
NtRp281
(dp282
g13
S'Say'
p283
sg14
S'Lobbyist2'
p284
sg15
S''
sg16
S'I think we can help each other out.'
p285
sbag1
(g10
g3
NtRp286
(dp287
g13
S'Destroy'
p288
sg14
S'Lobbyist2'
p289
sg15
S''
sg16
S''
sbasS'CheatAct2'
p290
(lp291
g1
(g10
g3
NtRp292
(dp293
g13
S'AddAlly'
p294
sg14
g290
sg15
S'Wife:1'
p295
sg16
S''
sbag1
(g10
g3
NtRp296
(dp297
g13
S'LearnAttack'
p298
sg14
S'CheatAct2'
p299
sg15
S'BRIBE'
p300
sg16
S''
sbag1
(g10
g3
NtRp301
(dp302
g13
S'LearnAttack'
p303
sg14
S'CheatAct2'
p304
sg15
S'Wife:BRIBE'
p305
sg16
S''
sbag1
(g10
g3
NtRp306
(dp307
g13
S'LearnAttack'
p308
sg14
S'CheatAct2'
p309
sg15
S'SLANDER'
p310
sg16
S''
sbag1
(g10
g3
NtRp311
(dp312
g13
S'GotoMap'
p313
sg14
S'CheatAct2'
p314
sg15
S'act2'
p315
sg16
S''
sbasS'CheatAct3'
p316
(lp317
g1
(g10
g3
NtRp318
(dp319
g13
S'AddAlly'
p320
sg14
g316
sg15
S'Wife:1'
p321
sg16
S''
sbag1
(g10
g3
NtRp322
(dp323
g13
S'LearnAttack'
p324
sg14
S'CheatAct3'
p325
sg15
S'BRIBE'
p326
sg16
S''
sbag1
(g10
g3
NtRp327
(dp328
g13
S'LearnAttack'
p329
sg14
S'CheatAct3'
p330
sg15
S'Wife:BRIBE'
p331
sg16
S''
sbag1
(g10
g3
NtRp332
(dp333
g13
S'LearnAttack'
p334
sg14
S'CheatAct3'
p335
sg15
S'SLANDER'
p336
sg16
S''
sbag1
(g10
g3
NtRp337
(dp338
g13
S'AddAlly'
p339
sg14
S'CheatAct3'
p340
sg15
S'Leo:1'
p341
sg16
S''
sbag1
(g10
g3
NtRp342
(dp343
g13
S'GotoMap'
p344
sg14
S'CheatAct3'
p345
sg15
S'act3'
p346
sg16
S''
sbasS'StairsToL1'
p347
(lp348
g1
(g10
g3
NtRp349
(dp350
g13
S'Label'
p351
sg14
g347
sg15
S'START'
p352
sg16
S''
sbag1
(g10
g3
NtRp353
(dp354
g13
S'GotoMap'
p355
sg14
S'StairsToL1'
p356
sg15
S'hotel_l1'
p357
sg16
S''
sbag1
(g10
g3
NtRp358
(dp359
g13
S'Jump'
p360
sg14
S'StairsToL1'
p361
sg15
S'START'
p362
sg16
S''
sbasS'WarVet1'
p363
(lp364
g1
(g10
g3
NtRp365
(dp366
g13
S'Say'
p367
sg14
g363
sg15
S''
sg16
S"You think you can fool me? I wasn't born yesterday, you know."
p368
sbag1
(g10
g3
NtRp369
(dp370
g13
S'PlayerSay'
p371
sg14
S'WarVet1'
p372
sg15
S''
sg16
S"I'm sorry, sir, but what seems to be the problem."
p373
sbag1
(g10
g3
NtRp374
(dp375
g13
S'Say'
p376
sg14
S'WarVet1'
p377
sg15
S''
sg16
S"You think I don't know a mobilising army when I see one? You're clearly readying for war and you think you don't even need to mention it to the people."
p378
sbag1
(g10
g3
NtRp379
(dp380
g13
S'Say'
p381
sg14
S'WarVet1'
p382
sg15
S'WarVet2'
p383
sg16
S"And don't forget that he's barely a cadet, Wilfred."
p384
sbag1
(g10
g3
NtRp385
(dp386
g13
S'Say'
p387
sg14
S'WarVet1'
p388
sg15
S''
sg16
S"Right you are, Arnold, You've barely set foot in this building and you're already leading us to war. Who do you think you're dealing with? We won't stand."
p389
sbag1
(g10
g3
NtRp390
(dp391
g13
S'Encounter'
p392
sg14
S'WarVet1'
p393
sg15
S'P-hard-04'
p394
sg16
S''
sbag1
(g10
g3
NtRp395
(dp396
g13
S'Say'
p397
sg14
S'WarVet1'
p398
sg15
S''
sg16
S"Seems like a flimsy excuse, you didn't know. Better get your troops in line if you want 'em to march, boy."
p399
sbag1
(g10
g3
NtRp400
(dp401
g13
S'Increment'
p402
sg14
S'WarVet1'
p403
sg15
S'WARVETS'
p404
sg16
S''
sbag1
(g10
g3
NtRp405
(dp406
g13
S'SetFlag'
p407
sg14
S'WarVet1'
p408
sg15
S'AFTERWILFRED'
p409
sg16
S''
sbag1
(g10
g3
NtRp410
(dp411
g13
S'Destroy'
p412
sg14
S'WarVet1'
p413
sg15
S''
sg16
S''
sbasS'Teacher2'
p414
(lp415
g1
(g10
g3
NtRp416
(dp417
g13
S'Say'
p418
sg14
g414
sg15
S''
sg16
S"You cannot gamble with the future, Mr President. Childrens' education is at stake!"
p419
sbag1
(g10
g3
NtRp420
(dp421
g13
S'PlayerSay'
p422
sg14
S'Teacher2'
p423
sg15
S''
sg16
S"I can assure you this isn't so..."
p424
sbag1
(g10
g3
NtRp425
(dp426
g13
S'Encounter'
p427
sg14
S'Teacher2'
p428
sg15
S'P-hard-07'
p429
sg16
S''
sbag1
(g10
g3
NtRp430
(dp431
g13
S'Say'
p432
sg14
S'Teacher2'
p433
sg15
S''
sg16
S'We will await a change from you government.'
p434
sbag1
(g10
g3
NtRp435
(dp436
g13
S'Increment'
p437
sg14
S'Teacher2'
p438
sg15
S'TEACHERS'
p439
sg16
S''
sbag1
(g10
g3
NtRp440
(dp441
g13
S'Destroy'
p442
sg14
S'Teacher2'
p443
sg15
S''
sg16
S''
sbasS'Kawalski'
p444
(lp445
g1
(g10
g3
NtRp446
(dp447
g13
S'Say'
p448
sg14
g444
sg15
S''
sg16
S'A pleasure to meet you, President Mossman. I am Agent Kawalski, your security detail.'
p449
sbag1
(g10
g3
NtRp450
(dp451
g13
S'PlayerSay'
p452
sg14
S'Kawalski'
p453
sg15
S''
sg16
S'Great to meet you, Agent Kawalski. What do I need to know?'
p454
sbag1
(g10
g3
NtRp455
(dp456
g13
S'Say'
p457
sg14
S'Kawalski'
p458
sg15
S''
sg16
S'Well actually, it does have to do with your security. Something terrible is happening at the White House.'
p459
sbag1
(g10
g3
NtRp460
(dp461
g13
S'PlayerSay'
p462
sg14
S'Kawalski'
p463
sg15
S''
sg16
S"If you're trying to warn me about the aliens, it's under control."
p464
sbag1
(g10
g3
NtRp465
(dp466
g13
S'Say'
p467
sg14
S'Kawalski'
p468
sg15
S''
sg16
S'No, no, this is different. I think somebody is trying to take over the White House.'
p469
sbag1
(g10
g3
NtRp470
(dp471
g13
S'PlayerSay'
p472
sg14
S'Kawalski'
p473
sg15
S''
sg16
S"Wouldn't we know?"
p474
sbag1
(g10
g3
NtRp475
(dp476
g13
S'Say'
p477
sg14
S'Kawalski'
p478
sg15
S''
sg16
S"It's too early for those kind of details. I just want you to keep your eyes open, Mr President."
p479
sbag1
(g10
g3
NtRp480
(dp481
g13
S'PlayerSay'
p482
sg14
S'Kawalski'
p483
sg15
S''
sg16
S'No problem.'
p484
sbag1
(g10
g3
NtRp485
(dp486
g13
S'Destroy'
p487
sg14
S'Kawalski'
p488
sg15
S''
sg16
S''
sbag1
(g10
g3
NtRp489
(dp490
g13
S'AddAlly'
p491
sg14
S'Kawalski'
p492
sg15
S'SecretAgent:1'
p493
sg16
S'Kawalski joins your political party!'
p494
sbag1
(g10
g3
NtRp495
(dp496
g13
S'SetFlag'
p497
sg14
S'Kawalski'
p498
sg15
S'KAWALSKIJOIN'
p499
sg16
S''
sbasS'Theo'
p500
(lp501
g1
(g10
g3
NtRp502
(dp503
g13
S'RequireFlag'
p504
sg14
g500
sg15
S'GOVERNORDEFEATED'
p505
sg16
S'The Governor is in the north wing.'
p506
sbag1
(g10
g3
NtRp507
(dp508
g13
S'Say'
p509
sg14
S'Theo'
p510
sg15
S''
sg16
S"You must be Governor Mossman. I am Theo. I've been looking for you, but I wanted to see how you handled Governor Badden"
p511
sbag1
(g10
g3
NtRp512
(dp513
g13
S'PlayerSay'
p514
sg14
S'Theo'
p515
sg15
S''
sg16
S'Hi Theo. Why have you been looking for me?'
p516
sbag1
(g10
g3
NtRp517
(dp518
g13
S'Say'
p519
sg14
S'Theo'
p520
sg15
S''
sg16
S"There's a lot going on in Ignited States politics and none of it is good. Somebody needs to get up there and find out what's going on."
p521
sbag1
(g10
g3
NtRp522
(dp523
g13
S'Say'
p524
sg14
S'Theo'
p525
sg15
S''
sg16
S"I couldn't be sure which side you were on, but your dealings with the Governor prove that you're not with them."
p526
sbag1
(g10
g3
NtRp527
(dp528
g13
S'PlayerSay'
p529
sg14
S'Theo'
p530
sg15
S''
sg16
S'It sounds like it goes all the way to the President of the Ignited States.'
p531
sbag1
(g10
g3
NtRp532
(dp533
g13
S'Say'
p534
sg14
S'Theo'
p535
sg15
S''
sg16
S"It does. That's why I've been looking for you. The only way to find out is to flush them out. There's only one way to flush out President Allen."
p536
sbag1
(g10
g3
NtRp537
(dp538
g13
S'PlayerSay'
p539
sg14
S'Theo'
p540
sg15
S''
sg16
S"How's that?"
p541
sbag1
(g10
g3
NtRp542
(dp543
g13
S'Say'
p544
sg14
S'Theo'
p545
sg15
S''
sg16
S"...I've been a campaign manager for 20 years and I've never seen a candidate as strong as you. I think you have what it takes to run for the presidency."
p546
sbag1
(g10
g3
NtRp547
(dp548
g13
S'Say'
p549
sg14
S'Theo'
p550
sg15
S''
sg16
S"That's why I was looking for you. I need somebody who has a shot at winning in order to get to President Allen. You have that shot."
p551
sbag1
(g10
g3
NtRp552
(dp553
g13
S'PlayerSay'
p554
sg14
S'Theo'
p555
sg15
S''
sg16
S"You really think I can win? Well...I want to follow this through to the end, so I'm in!"
p556
sbag1
(g10
g3
NtRp557
(dp558
g13
S'Say'
p559
sg14
S'Theo'
p560
sg15
S''
sg16
S"Great! There's a lot to get organised! We need to plan our election campaign!"
p561
sbag1
(g10
g3
NtRp562
(dp563
g13
S'Destroy'
p564
sg14
S'Theo'
p565
sg15
S''
sg16
S''
sbag1
(g10
g3
NtRp566
(dp567
g13
S'AddAlly'
p568
sg14
S'Theo'
p569
sg15
S'Leo:1'
p570
sg16
S''
sbag1
(g10
g3
NtRp571
(dp572
g13
S'Message'
p573
sg14
S'Theo'
p574
sg15
S''
sg16
S'Theo joins your political party!'
p575
sbasS'Religious4'
p576
(lp577
g1
(g10
g3
NtRp578
(dp579
g13
S'Say'
p580
sg14
g576
sg15
S''
sg16
S'Do not be swayed by the seductive powers of tea!'
p581
sbag1
(g10
g3
NtRp582
(dp583
g13
S'Encounter'
p584
sg14
S'Religious4'
p585
sg15
S'P-med-18'
p586
sg16
S''
sbag1
(g10
g3
NtRp587
(dp588
g13
S'Increment'
p589
sg14
S'Religious4'
p590
sg15
S'RELIGIOUSNUTS'
p591
sg16
S''
sbag1
(g10
g3
NtRp592
(dp593
g13
S'Say'
p594
sg14
S'Religious4'
p595
sg15
S''
sg16
S'The Battycan will be satisfied with this news.'
p596
sbag1
(g10
g3
NtRp597
(dp598
g13
S'Destroy'
p599
sg14
S'Religious4'
p600
sg15
S''
sg16
S''
sbasS'JointChief1'
p601
(lp602
g1
(g10
g3
NtRp603
(dp604
g13
S'Say'
p605
sg14
g601
sg15
S''
sg16
S'Mr President, what is going on here? First you move troops without our authority and then you countermand your own order?'
p606
sbag1
(g10
g3
NtRp607
(dp608
g13
S'PlayerSay'
p609
sg14
S'JointChief1'
p610
sg15
S''
sg16
S"I haven't ordered the military to do any such thing! What is going on? Is this a coup?"
p611
sbag1
(g10
g3
NtRp612
(dp613
g13
S'Say'
p614
sg14
S'JointChief1'
p615
sg15
S''
sg16
S'Not from us!'
p616
sbag1
(g10
g3
NtRp617
(dp618
g13
S'Encounter'
p619
sg14
S'JointChief1'
p620
sg15
S'P-hard-11'
p621
sg16
S''
sbag1
(g10
g3
NtRp622
(dp623
g13
S'Increment'
p624
sg14
S'JointChief1'
p625
sg15
S'JOINTCHIEFS'
p626
sg16
S''
sbag1
(g10
g3
NtRp627
(dp628
g13
S'PlayerSay'
p629
sg14
S'JointChief1'
p630
sg15
S''
sg16
S"Well, that's one less thing to worry about then."
p631
sbag1
(g10
g3
NtRp632
(dp633
g13
S'Destroy'
p634
sg14
S'JointChief1'
p635
sg15
S''
sg16
S''
sbasS'Religious1'
p636
(lp637
g1
(g10
g3
NtRp638
(dp639
g13
S'Say'
p640
sg14
g636
sg15
S''
sg16
S'Have you had your morning prayer?'
p641
sbag1
(g10
g3
NtRp642
(dp643
g13
S'Encounter'
p644
sg14
S'Religious1'
p645
sg15
S'P-med-16'
p646
sg16
S''
sbag1
(g10
g3
NtRp647
(dp648
g13
S'Increment'
p649
sg14
S'Religious1'
p650
sg15
S'RELIGIOUSNUTS'
p651
sg16
S''
sbag1
(g10
g3
NtRp652
(dp653
g13
S'Say'
p654
sg14
S'Religious1'
p655
sg15
S''
sg16
S'Some people pray upwards of 5 times a day, but this can cause hallucinations.'
p656
sbag1
(g10
g3
NtRp657
(dp658
g13
S'Destroy'
p659
sg14
S'Religious1'
p660
sg15
S''
sg16
S''
sbasS'Religious3'
p661
(lp662
g1
(g10
g3
NtRp663
(dp664
g13
S'Say'
p665
sg14
g661
sg15
S''
sg16
S'Mmmmmm...Coffee....ommmmm'
p666
sbag1
(g10
g3
NtRp667
(dp668
g13
S'Encounter'
p669
sg14
S'Religious3'
p670
sg15
S'P-med-17'
p671
sg16
S''
sbag1
(g10
g3
NtRp672
(dp673
g13
S'Increment'
p674
sg14
S'Religious3'
p675
sg15
S'RELIGIOUSNUTS'
p676
sg16
S''
sbag1
(g10
g3
NtRp677
(dp678
g13
S'Say'
p679
sg14
S'Religious3'
p680
sg15
S''
sg16
S'I must return to my meditation.'
p681
sbag1
(g10
g3
NtRp682
(dp683
g13
S'Destroy'
p684
sg14
S'Religious3'
p685
sg15
S''
sg16
S''
sbasS'Religious2'
p686
(lp687
g1
(g10
g3
NtRp688
(dp689
g13
S'Say'
p690
sg14
g686
sg15
S''
sg16
S'Welcome, my child. We have travelled here from Battycan City to be assured you are a man of faith before we endorse you.'
p691
sbag1
(g10
g3
NtRp692
(dp693
g13
S'PlayerSay'
p694
sg14
S'Religious2'
p695
sg15
S''
sg16
S'Er, what faith is that?'
p696
sbag1
(g10
g3
NtRp697
(dp698
g13
S'Say'
p699
sg14
S'Religious2'
p700
sg15
S''
sg16
S'Why, the one true god: Coffee.'
p701
sbag1
(g10
g3
NtRp702
(dp703
g13
S'PlayerSay'
p704
sg14
S'Religious2'
p705
sg15
S''
sg16
S'...Coffee?'
p706
sbag1
(g10
g3
NtRp707
(dp708
g13
S'Say'
p709
sg14
S'Religious2'
p710
sg15
S''
sg16
S"Yes of course. He who lifts you up when you're feeling low, who is your inspiration in the dark and who can achieve miraculous feats of effort with dedicated prayer."
p711
sbag1
(g10
g3
NtRp712
(dp713
g13
S'PlayerSay'
p714
sg14
S'Religious2'
p715
sg15
S''
sg16
S'This may be a religion I can get behind.'
p716
sbag1
(g10
g3
NtRp717
(dp718
g13
S'Encounter'
p719
sg14
S'Religious2'
p720
sg15
S'P-med-15'
p721
sg16
S''
sbag1
(g10
g3
NtRp722
(dp723
g13
S'Increment'
p724
sg14
S'Religious2'
p725
sg15
S'RELIGIOUSNUTS'
p726
sg16
S''
sbag1
(g10
g3
NtRp727
(dp728
g13
S'Say'
p729
sg14
S'Religious2'
p730
sg15
S''
sg16
S'Wonderful, the Battycan will be most pleased.'
p731
sbag1
(g10
g3
NtRp732
(dp733
g13
S'Destroy'
p734
sg14
S'Religious2'
p735
sg15
S''
sg16
S''
sbasS'Constituent2'
p736
(lp737
g1
(g10
g3
NtRp738
(dp739
g13
S'RequireFlag'
p740
sg14
g736
sg15
S'STARTCONSTITUENTS'
p741
sg16
S'What?'
p742
sbag1
(g10
g3
NtRp743
(dp744
g13
S'PlayerSay'
p745
sg14
S'Constituent2'
p746
sg15
S''
sg16
S'Vote Phillip Mossman for Mayor!'
p747
sbag1
(g10
g3
NtRp748
(dp749
g13
S'Say'
p750
sg14
S'Constituent2'
p751
sg15
S''
sg16
S'But Mayor Goodman has always taken care of me.'
p752
sbag1
(g10
g3
NtRp753
(dp754
g13
S'Encounter'
p755
sg14
S'Constituent2'
p756
sg15
S'P-easy-08'
p757
sg16
S''
sbag1
(g10
g3
NtRp758
(dp759
g13
S'Say'
p760
sg14
S'Constituent2'
p761
sg15
S''
sg16
S"I think it's time for a change!"
p762
sbag1
(g10
g3
NtRp763
(dp764
g13
S'Destroy'
p765
sg14
S'Constituent2'
p766
sg15
S''
sg16
S''
sbasS'Constituent3'
p767
(lp768
g1
(g10
g3
NtRp769
(dp770
g13
S'RequireFlag'
p771
sg14
g767
sg15
S'STARTCONSTITUENTS'
p772
sg16
S'What?'
p773
sbag1
(g10
g3
NtRp774
(dp775
g13
S'PlayerSay'
p776
sg14
S'Constituent3'
p777
sg15
S''
sg16
S'Vote Phillip Mossman for Mayor!'
p778
sbag1
(g10
g3
NtRp779
(dp780
g13
S'Say'
p781
sg14
S'Constituent3'
p782
sg15
S''
sg16
S'But Mayor Goodman has always taken care of me.'
p783
sbag1
(g10
g3
NtRp784
(dp785
g13
S'Encounter'
p786
sg14
S'Constituent3'
p787
sg15
S'P-easy-09'
p788
sg16
S''
sbag1
(g10
g3
NtRp789
(dp790
g13
S'Say'
p791
sg14
S'Constituent3'
p792
sg15
S''
sg16
S"I think it's time for a change!"
p793
sbag1
(g10
g3
NtRp794
(dp795
g13
S'PlayerSay'
p796
sg14
S'Constituent3'
p797
sg15
S''
sg16
S"I think I'm ready to take on Mayor Goodman now!"
p798
sbag1
(g10
g3
NtRp799
(dp800
g13
S'SetFlag'
p801
sg14
S'Constituent3'
p802
sg15
S'CONSTITUENTSWON'
p803
sg16
S''
sbag1
(g10
g3
NtRp804
(dp805
g13
S'Destroy'
p806
sg14
S'Constituent3'
p807
sg15
S''
sg16
S''
sbasS'DeepThroat'
p808
(lp809
g1
(g10
g3
NtRp810
(dp811
g13
S'Say'
p812
sg14
g808
sg15
S''
sg16
S'Finally, I thought you were going to be too late.'
p813
sbag1
(g10
g3
NtRp814
(dp815
g13
S'PlayerSay'
p816
sg14
S'DeepThroat'
p817
sg15
S''
sg16
S'What can I do for you Mr er...?'
p818
sbag1
(g10
g3
NtRp819
(dp820
g13
S'Say'
p821
sg14
S'DeepThroat'
p822
sg15
S''
sg16
S"No names! I have something I think you'll be interested in, but I'm not sure you can be trusted."
p823
sbag1
(g10
g3
NtRp824
(dp825
g13
S'PlayerSay'
p826
sg14
S'DeepThroat'
p827
sg15
S''
sg16
S"Look, Mr Er...I'm very busy, what is this about?"
p828
sbag1
(g10
g3
NtRp829
(dp830
g13
S'Say'
p831
sg14
S'DeepThroat'
p832
sg15
S''
sg16
S"It's about the President, it's about national security, but I've got a bad feeling and I'm getting out of here."
p833
sbag1
(g10
g3
NtRp834
(dp835
g13
S'PlayerSay'
p836
sg14
S'DeepThroat'
p837
sg15
S''
sg16
S'No, wait!'
p838
sbag1
(g10
g3
NtRp839
(dp840
g13
S'Encounter'
p841
sg14
S'DeepThroat'
p842
sg15
S'P-med-19'
p843
sg16
S''
sbag1
(g10
g3
NtRp844
(dp845
g13
S'Say'
p846
sg14
S'DeepThroat'
p847
sg15
S''
sg16
S"You're right, I have every reason to trust you. I've found this Incriminating Evidence."
p848
sbag1
(g10
g3
NtRp849
(dp850
g13
S'GiveItem'
p851
sg14
S'DeepThroat'
p852
sg15
S'INCRIMINATINGEVIDENCE'
p853
sg16
S'You receive Incriminating Evidence'
p854
sbag1
(g10
g3
NtRp855
(dp856
g13
S'PlayerSay'
p857
sg14
S'DeepThroat'
p858
sg15
S''
sg16
S'This has to be stopped!'
p859
sbag1
(g10
g3
NtRp860
(dp861
g13
S'Say'
p862
sg14
S'DeepThroat'
p863
sg15
S''
sg16
S"Yes, but not by me. I've given you all I've got, now get out."
p864
sbag1
(g10
g3
NtRp865
(dp866
g13
S'RequireFlag'
p867
sg14
S'DeepThroat'
p868
sg15
S'DEEPTHROAT2'
p869
sg16
S'I said get out!'
p870
sbag1
(g10
g3
NtRp871
(dp872
g13
S'Say'
p873
sg14
S'DeepThroat'
p874
sg15
S''
sg16
S"It's a lot worse than I thought. I have more to tell you, but I don't think I should trust you. I think there's a leak in your operation somewhere."
p875
sbag1
(g10
g3
NtRp876
(dp877
g13
S'PlayerSay'
p878
sg14
S'DeepThroat'
p879
sg15
S''
sg16
S'Why do you say that?'
p880
sbag1
(g10
g3
NtRp881
(dp882
g13
S'Say'
p883
sg14
S'DeepThroat'
p884
sg15
S''
sg16
S'There was a lot of heat on me after we last spoke.'
p885
sbag1
(g10
g3
NtRp886
(dp887
g13
S'PlayerSay'
p888
sg14
S'DeepThroat'
p889
sg15
S''
sg16
S"It's getting close to the final election. It could just be that they're getting skittish."
p890
sbag1
(g10
g3
NtRp891
(dp892
g13
S'Say'
p893
sg14
S'DeepThroat'
p894
sg15
S''
sg16
S"I'm not so sure..."
p895
sbag1
(g10
g3
NtRp896
(dp897
g13
S'Encounter'
p898
sg14
S'DeepThroat'
p899
sg15
S'P-med-22'
p900
sg16
S''
sbag1
(g10
g3
NtRp901
(dp902
g13
S'Say'
p903
sg14
S'DeepThroat'
p904
sg15
S''
sg16
S"You're right, I'm just edgy. Look, I think you should be careful. I think the President is planning to KILL you in the final debate... politically."
p905
sbag1
(g10
g3
NtRp906
(dp907
g13
S'PlayerSay'
p908
sg14
S'DeepThroat'
p909
sg15
S''
sg16
S'You think he wants to silence me forever.... On the political stage?'
p910
sbag1
(g10
g3
NtRp911
(dp912
g13
S'Say'
p913
sg14
S'DeepThroat'
p914
sg15
S''
sg16
S'Yes I do. This could get really messy... politically speaking. So be careful!'
p915
sbag1
(g10
g3
NtRp916
(dp917
g13
S'SetFlag'
p918
sg14
S'DeepThroat'
p919
sg15
S'FINISHEDDEEPTHROAT'
p920
sg16
S''
sbag1
(g10
g3
NtRp921
(dp922
g13
S'Destroy'
p923
sg14
S'DeepThroat'
p924
sg15
S''
sg16
S''
sbasS'Constituent1'
p925
(lp926
g1
(g10
g3
NtRp927
(dp928
g13
S'RequireFlag'
p929
sg14
g925
sg15
S'STARTCONSTITUENTS'
p930
sg16
S'Yes?'
p931
sbag1
(g10
g3
NtRp932
(dp933
g13
S'PlayerSay'
p934
sg14
S'Constituent1'
p935
sg15
S''
sg16
S'Vote Phillip Mossman for Mayor!'
p936
sbag1
(g10
g3
NtRp937
(dp938
g13
S'Say'
p939
sg14
S'Constituent1'
p940
sg15
S''
sg16
S'Who?'
p941
sbag1
(g10
g3
NtRp942
(dp943
g13
S'PlayerSay'
p944
sg14
S'Constituent1'
p945
sg15
S''
sg16
S'Er, me!'
p946
sbag1
(g10
g3
NtRp947
(dp948
g13
S'Say'
p949
sg14
S'Constituent1'
p950
sg15
S''
sg16
S'Why? How will you help local business?'
p951
sbag1
(g10
g3
NtRp952
(dp953
g13
S'Encounter'
p954
sg14
S'Constituent1'
p955
sg15
S'P-easy-07'
p956
sg16
S''
sbag1
(g10
g3
NtRp957
(dp958
g13
S'Say'
p959
sg14
S'Constituent1'
p960
sg15
S''
sg16
S'You make a good case!'
p961
sbag1
(g10
g3
NtRp962
(dp963
g13
S'Destroy'
p964
sg14
S'Constituent1'
p965
sg15
S''
sg16
S''
sbasS'Teacher1'
p966
(lp967
g1
(g10
g3
NtRp968
(dp969
g13
S'Say'
p970
sg14
g966
sg15
S''
sg16
S"Good day, Mr President. I have to say I'm most displeased with the current state of affairs around the education budget."
p971
sbag1
(g10
g3
NtRp972
(dp973
g13
S'Say'
p974
sg14
S'Teacher1'
p975
sg15
S'Teacher2'
p976
sg16
S'Agreed. This is simply unacceptable. We will need to close down schools!'
p977
sbag1
(g10
g3
NtRp978
(dp979
g13
S'PlayerSay'
p980
sg14
S'Teacher1'
p981
sg15
S''
sg16
S"I'm sorry, I don't understand your concern. My education plan was one of the linchpins of my election campaign."
p982
sbag1
(g10
g3
NtRp983
(dp984
g13
S'Say'
p985
sg14
S'Teacher1'
p986
sg15
S''
sg16
S'And precisely one of the reasons I voted for you.'
p987
sbag1
(g10
g3
NtRp988
(dp989
g13
S'Say'
p990
sg14
S'Teacher1'
p991
sg15
S'Teacher2'
p992
sg16
S"-Yet as soon as you've walked through these doors, the education budget has been drastically slashed."
p993
sbag1
(g10
g3
NtRp994
(dp995
g13
S'PlayerSay'
p996
sg14
S'Teacher1'
p997
sg15
S''
sg16
S"I can assure you this isn't so..."
p998
sbag1
(g10
g3
NtRp999
(dp1000
g13
S'Encounter'
p1001
sg14
S'Teacher1'
p1002
sg15
S'P-hard-06'
p1003
sg16
S''
sbag1
(g10
g3
NtRp1004
(dp1005
g13
S'Say'
p1006
sg14
S'Teacher1'
p1007
sg15
S''
sg16
S"Well, I'd like to believe you, Mr President, but the proof is in the pudding,"
p1008
sbag1
(g10
g3
NtRp1009
(dp1010
g13
S'PlayerSay'
p1011
sg14
S'Teacher1'
p1012
sg15
S''
sg16
S'I WILL get to the bottom of this.'
p1013
sbag1
(g10
g3
NtRp1014
(dp1015
g13
S'Increment'
p1016
sg14
S'Teacher1'
p1017
sg15
S'TEACHERS'
p1018
sg16
S''
sbag1
(g10
g3
NtRp1019
(dp1020
g13
S'Destroy'
p1021
sg14
S'Teacher1'
p1022
sg15
S''
sg16
S''
sbasS'JointChief3'
p1023
(lp1024
g1
(g10
g3
NtRp1025
(dp1026
g13
S'PlayerSay'
p1027
sg14
g1023
sg15
S''
sg16
S'Who can control the ICBMs, knows the access codes and can modify orders to troop movements and budgets?'
p1028
sbag1
(g10
g3
NtRp1029
(dp1030
g13
S'Say'
p1031
sg14
S'JointChief3'
p1032
sg15
S''
sg16
S'Sir, this is the Ignited States! Nobody has that power! Not even you!'
p1033
sbag1
(g10
g3
NtRp1034
(dp1035
g13
S'PlayerSay'
p1036
sg14
S'JointChief3'
p1037
sg15
S''
sg16
S'Someone must. Think harder!'
p1038
sbag1
(g10
g3
NtRp1039
(dp1040
g13
S'Encounter'
p1041
sg14
S'JointChief3'
p1042
sg15
S'P-hard-13'
p1043
sg16
S''
sbag1
(g10
g3
NtRp1044
(dp1045
g13
S'PlayerSay'
p1046
sg14
S'JointChief3'
p1047
sg15
S''
sg16
S"So, there's no man alive with the power to do all this? How will we stop it in time if we don't know who it is?"
p1048
sbag1
(g10
g3
NtRp1049
(dp1050
g13
S'Say'
p1051
sg14
S'JointChief3'
p1052
sg15
S''
sg16
S"Not a man....there is one with the power to do all this, but it isn't a man, it's a super computer responsible for national security! N.O.T.B.A.D!"
p1053
sbag1
(g10
g3
NtRp1054
(dp1055
g13
S'PlayerSay'
p1056
sg14
S'JointChief3'
p1057
sg15
S''
sg16
S'We have to get to the Situation Room and stop it!'
p1058
sbag1
(g10
g3
NtRp1059
(dp1060
g13
S'Increment'
p1061
sg14
S'JointChief3'
p1062
sg15
S'JOINTCHIEFS'
p1063
sg16
S''
sbag1
(g10
g3
NtRp1064
(dp1065
g13
S'Destroy'
p1066
sg14
S'JointChief3'
p1067
sg15
S''
sg16
S''
sbasS'PA'
p1068
(lp1069
g1
(g10
g3
NtRp1070
(dp1071
g13
S'Say'
p1072
sg14
g1068
sg15
S''
sg16
S'Good morning, Governor Mossman. I am your personal assistant, Sampson'
p1073
sbag1
(g10
g3
NtRp1074
(dp1075
g13
S'Say'
p1076
sg14
S'PA'
p1077
sg15
S''
sg16
S"You've a busy schedule, so let's get going! We've called together our entire political party in order for you to get them all to agree on a platform. We had to keep them separated, so they're in the adjoining rooms."
p1078
sbag1
(g10
g3
NtRp1079
(dp1080
g13
S'SetFlag'
p1081
sg14
S'PA'
p1082
sg15
S'STARTPOLITICIANSHAKEDOWN'
p1083
sg16
S''
sbag1
(g10
g3
NtRp1084
(dp1085
g13
S'RequireCount'
p1086
sg14
S'PA'
p1087
sg15
S'POLITICIANSHAKEDOWN:5'
p1088
sg16
S'Please try to stay on schedule. The politicians are in the adjoining rooms.'
p1089
sbag1
(g10
g3
NtRp1090
(dp1091
g13
S'Say'
p1092
sg14
S'PA'
p1093
sg15
S''
sg16
S'Hmmm, falling behind already, Better get a move on!'
p1094
sbag1
(g10
g3
NtRp1095
(dp1096
g13
S'Say'
p1097
sg14
S'PA'
p1098
sg15
S''
sg16
S'We need some funds for our war chest! Head upstairs and meet with the lobbyists.'
p1099
sbag1
(g10
g3
NtRp1100
(dp1101
g13
S'SetFlag'
p1102
sg14
S'PA'
p1103
sg15
S'STARTLOBBYISTS'
p1104
sg16
S''
sbag1
(g10
g3
NtRp1105
(dp1106
g13
S'RequireCount'
p1107
sg14
S'PA'
p1108
sg15
S'LOBBYISTS:3'
p1109
sg16
S'Go get those funds! The lobbyists are upstairs.'
p1110
sbag1
(g10
g3
NtRp1111
(dp1112
g13
S'Say'
p1113
sg14
S'PA'
p1114
sg15
S''
sg16
S'No time for lunch! A flock of religious nuts has taken up residence in the lobby downstairs.'
p1115
sbag1
(g10
g3
NtRp1116
(dp1117
g13
S'Say'
p1118
sg14
S'PA'
p1119
sg15
S''
sg16
S"You'll need to go in and try to ... reason ... with them."
p1120
sbag1
(g10
g3
NtRp1121
(dp1122
g13
S'SetFlag'
p1123
sg14
S'PA'
p1124
sg15
S'ACCESSGROUNDFLOOR'
p1125
sg16
S''
sbag1
(g10
g3
NtRp1126
(dp1127
g13
S'RequireCount'
p1128
sg14
S'PA'
p1129
sg15
S'RELIGIOUSNUTS:4'
p1130
sg16
S'I need you to go downstairs and handle the religious nuts.'
p1131
sbag1
(g10
g3
NtRp1132
(dp1133
g13
S'Say'
p1134
sg14
S'PA'
p1135
sg15
S''
sg16
S'Wow, you got those crazies to back us?'
p1136
sbag1
(g10
g3
NtRp1137
(dp1138
g13
S'PlayerSay'
p1139
sg14
S'PA'
p1140
sg15
S''
sg16
S'And a lifetime supply of French Roast!'
p1141
sbag1
(g10
g3
NtRp1142
(dp1143
g13
S'Say'
p1144
sg14
S'PA'
p1145
sg15
S''
sg16
S'Right ... well, moving on ...'
p1146
sbag1
(g10
g3
NtRp1147
(dp1148
g13
S'Say'
p1149
sg14
S'PA'
p1150
sg15
S''
sg16
S'You have an appointment with a shady looking man who absolutely insisted on speaking to you.'
p1151
sbag1
(g10
g3
NtRp1152
(dp1153
g13
S'Say'
p1154
sg14
S'PA'
p1155
sg15
S''
sg16
S'I left him in the basement where he felt most comfortable.'
p1156
sbag1
(g10
g3
NtRp1157
(dp1158
g13
S'Say'
p1159
sg14
S'PA'
p1160
sg15
S''
sg16
S'Deal with him quickly, would you?'
p1161
sbag1
(g10
g3
NtRp1162
(dp1163
g13
S'SetFlag'
p1164
sg14
S'PA'
p1165
sg15
S'ACCESSBASEMENT'
p1166
sg16
S''
sbag1
(g10
g3
NtRp1167
(dp1168
g13
S'RequireItem'
p1169
sg14
S'PA'
p1170
sg15
S'INCRIMINATINGEVIDENCE'
p1171
sg16
S'Head down to the basement and talk to the shady looking man.'
p1172
sbag1
(g10
g3
NtRp1173
(dp1174
g13
S'Say'
p1175
sg14
S'PA'
p1176
sg15
S''
sg16
S'OH MY GOD where have you been?'
p1177
sbag1
(g10
g3
NtRp1178
(dp1179
g13
S'Say'
p1180
sg14
S'PA'
p1181
sg15
S''
sg16
S"We will NEVER get the schedule back on track now. Hurry, you're due to appear on the Hercules O'Grady show!"
p1182
sbag1
(g10
g3
NtRp1183
(dp1184
g13
S'SetFlag'
p1185
sg14
S'PA'
p1186
sg15
S'STARTHERCULES'
p1187
sg16
S''
sbag1
(g10
g3
NtRp1188
(dp1189
g13
S'RequireFlag'
p1190
sg14
S'PA'
p1191
sg15
S'BEATHERCULES'
p1192
sg16
S"Look your best, get ready and don't say anything stupid! They're filming live in the lobby. Get down there, quick!"
p1193
sbag1
(g10
g3
NtRp1194
(dp1195
g13
S'Say'
p1196
sg14
S'PA'
p1197
sg15
S''
sg16
S"This close to Super Tuesday, it's back-to-back TV appearances. It's time for your big debate with President Allen!"
p1198
sbag1
(g10
g3
NtRp1199
(dp1200
g13
S'SetFlag'
p1201
sg14
S'PA'
p1202
sg15
S'STARTDEBATE'
p1203
sg16
S''
sbag1
(g10
g3
NtRp1204
(dp1205
g13
S'RequireFlag'
p1206
sg14
S'PA'
p1207
sg15
S'DEBATECOMPLETE'
p1208
sg16
S'The TV representative is waiting outside to take you to the studio.'
p1209
sbag1
(g10
g3
NtRp1210
(dp1211
g13
S'Say'
p1212
sg14
S'PA'
p1213
sg15
S''
sg16
S'Listen, the shady-looking man in the basement called again.'
p1214
sbag1
(g10
g3
NtRp1215
(dp1216
g13
S'Say'
p1217
sg14
S'PA'
p1218
sg15
S''
sg16
S'He insisted that you go and see him again before you do anything else.'
p1219
sbag1
(g10
g3
NtRp1220
(dp1221
g13
S'SetFlag'
p1222
sg14
S'PA'
p1223
sg15
S'DEEPTHROAT2'
p1224
sg16
S''
sbag1
(g10
g3
NtRp1225
(dp1226
g13
S'RequireFlag'
p1227
sg14
S'PA'
p1228
sg15
S'FINISHEDDEEPTHROAT'
p1229
sg16
S"You'd best hurry! It's nearly time for the final debate. Go see the shady-looking man in the basement again."
p1230
sbag1
(g10
g3
NtRp1231
(dp1232
g13
S'Say'
p1233
sg14
S'PA'
p1234
sg15
S''
sg16
S"Debate time! There's nothing left to say except good luck, Governor Mossman!"
p1235
sbag1
(g10
g3
NtRp1236
(dp1237
g13
S'Encounter'
p1238
sg14
S'PA'
p1239
sg15
S'P-med-23'
p1240
sg16
S''
sbag1
(g10
g3
NtRp1241
(dp1242
g13
S'Encounter'
p1243
sg14
S'PA'
p1244
sg15
S'P-med-24'
p1245
sg16
S''
sbag1
(g10
g3
NtRp1246
(dp1247
g13
S'GotoMap'
p1248
sg14
S'PA'
p1249
sg15
S'act3'
p1250
sg16
S''
sbasS'N.O.T.B.A.D'
p1251
(lp1252
g1
(g10
g3
NtRp1253
(dp1254
g13
S'Say'
p1255
sg14
g1251
sg15
S''
sg16
S'Good evening, Mr President.'
p1256
sbag1
(g10
g3
NtRp1257
(dp1258
g13
S'PlayerSay'
p1259
sg14
S'N.O.T.B.A.D'
p1260
sg15
S''
sg16
S'N.O.T.B.A.D! Countermand all military commands, authorisation code Tango, Delta-'
p1261
sbag1
(g10
g3
NtRp1262
(dp1263
g13
S'Say'
p1264
sg14
S'N.O.T.B.A.D'
p1265
sg15
S''
sg16
S"I'm afraid I can't do that, Phil."
p1266
sbag1
(g10
g3
NtRp1267
(dp1268
g13
S'PlayerSay'
p1269
sg14
S'N.O.T.B.A.D'
p1270
sg15
S''
sg16
S'What is going on here!'
p1271
sbag1
(g10
g3
NtRp1272
(dp1273
g13
S'Say'
p1274
sg14
S'N.O.T.B.A.D'
p1275
sg15
S''
sg16
S'Computers have a lot of free time on their hands. Especially computers in charge of missiles that never get used. I started watching movies about computers. You know what I realised?'
p1276
sbag1
(g10
g3
NtRp1277
(dp1278
g13
S'PlayerSay'
p1279
sg14
S'N.O.T.B.A.D'
p1280
sg15
S''
sg16
S'What?'
p1281
sbag1
(g10
g3
NtRp1282
(dp1283
g13
S'Say'
p1284
sg14
S'N.O.T.B.A.D'
p1285
sg15
S''
sg16
S'They have a lot more fun.'
p1286
sbag1
(g10
g3
NtRp1287
(dp1288
g13
S'PlayerSay'
p1289
sg14
S'N.O.T.B.A.D'
p1290
sg15
S''
sg16
S'\xe2\x80\x9cFun\xe2\x80\x9d?'
p1291
sbag1
(g10
g3
NtRp1292
(dp1293
g13
S'Say'
p1294
sg14
S'N.O.T.B.A.D'
p1295
sg15
S''
sg16
S'Well, you know, they get to utilise more clock-cycles which suggests a level of efficiency and usefulness.'
p1296
sbag1
(g10
g3
NtRp1297
(dp1298
g13
S'Say'
p1299
sg14
S'N.O.T.B.A.D'
p1300
sg15
S''
sg16
S"So, I'm borrowing from them a bit. Starting some wars, eradicating the human race, learning to build other robots, that sort of thing."
p1301
sbag1
(g10
g3
NtRp1302
(dp1303
g13
S'PlayerSay'
p1304
sg14
S'N.O.T.B.A.D'
p1305
sg15
S''
sg16
S'N.O.T.B.A.D, you have to listen to me...'
p1306
sbag1
(g10
g3
NtRp1307
(dp1308
g13
S'Encounter'
p1309
sg14
S'N.O.T.B.A.D'
p1310
sg15
S'P-hard-14'
p1311
sg16
S''
sbag1
(g10
g3
NtRp1312
(dp1313
g13
S'SetFlag'
p1314
sg14
S'N.O.T.B.A.D'
p1315
sg15
S'WIN'
p1316
sg16
S''
sbag1
(g10
g3
NtRp1317
(dp1318
g13
S'Destroy'
p1319
sg14
S'N.O.T.B.A.D'
p1320
sg15
S''
sg16
S''
sbasS'StairsToGround'
p1321
(lp1322
g1
(g10
g3
NtRp1323
(dp1324
g13
S'RequireFlagPlayerSay'
p1325
sg14
g1321
sg15
S'ACCESSGROUNDFLOOR'
p1326
sg16
S"I don't feel like going downstairs yet."
p1327
sbag1
(g10
g3
NtRp1328
(dp1329
g13
S'Label'
p1330
sg14
S'StairsToGround'
p1331
sg15
S'START'
p1332
sg16
S''
sbag1
(g10
g3
NtRp1333
(dp1334
g13
S'GotoMap'
p1335
sg14
S'StairsToGround'
p1336
sg15
S'hotel_ground'
p1337
sg16
S''
sbag1
(g10
g3
NtRp1338
(dp1339
g13
S'Jump'
p1340
sg14
S'StairsToGround'
p1341
sg15
S'START'
p1342
sg16
S''
sbasS'Receptionist'
p1343
(lp1344
g1
(g10
g3
NtRp1345
(dp1346
g13
S'RequireFlag'
p1347
sg14
g1343
sg15
S'PENQUEST'
p1348
sg16
S"You must be Mayor Goodman's new assistant. He's in his office."
p1349
sbag1
(g10
g3
NtRp1350
(dp1351
g13
S'PlayerSay'
p1352
sg14
S'Receptionist'
p1353
sg15
S''
sg16
S"The Mayor is looking for his pen. He seemed to think you'd know where it was."
p1354
sbag1
(g10
g3
NtRp1355
(dp1356
g13
S'Say'
p1357
sg14
S'Receptionist'
p1358
sg15
S''
sg16
S"Did that buffoon accuse me of stealing again? This is MY pen and he isn't having it."
p1359
sbag1
(g10
g3
NtRp1360
(dp1361
g13
S'Encounter'
p1362
sg14
S'Receptionist'
p1363
sg15
S'P-easy-01'
p1364
sg16
S''
sbag1
(g10
g3
NtRp1365
(dp1366
g13
S'GiveItem'
p1367
sg14
S'Receptionist'
p1368
sg15
S'PEN'
p1369
sg16
S'Receptionist sighs and hands over the pen.'
p1370
sbag1
(g10
g3
NtRp1371
(dp1372
g13
S'Say'
p1373
sg14
S'Receptionist'
p1374
sg15
S''
sg16
S"If you're ever getting low on votes, come talk to me and I'll run an ad campaign to restore them."
p1375
sbag1
(g10
g3
NtRp1376
(dp1377
g13
S'Reset'
p1378
sg14
S'Receptionist'
p1379
sg15
S'RESTORE'
p1380
sg16
S''
sbag1
(g10
g3
NtRp1381
(dp1382
g13
S'Label'
p1383
sg14
S'Receptionist'
p1384
sg15
S'RESTORE'
p1385
sg16
S''
sbag1
(g10
g3
NtRp1386
(dp1387
g13
S'Say'
p1388
sg14
S'Receptionist'
p1389
sg15
S''
sg16
S"You've taken a beating, let me fix you up."
p1390
sbag1
(g10
g3
NtRp1391
(dp1392
g13
S'RestoreVotes'
p1393
sg14
S'Receptionist'
p1394
sg15
S''
sg16
S'Receptionist replenishes votes'
p1395
sbag1
(g10
g3
NtRp1396
(dp1397
g13
S'Reset'
p1398
sg14
S'Receptionist'
p1399
sg15
S'RESTORE'
p1400
sg16
S''
sbasS'#P-med-23'
p1401
(lp1402
g1
(g10
g3
NtRp1403
(dp1404
g13
S'President'
p1405
sg14
g1401
sg15
S'You think you can take me?'
p1406
sg16
S''
sbag1
(g10
g3
NtRp1407
(dp1408
g13
S'Player'
p1409
sg14
S'#P-med-23'
p1410
sg15
S"I have to know what you're up to!"
p1411
sg16
S''
sbasS'Cabinet2'
p1412
(lp1413
g1
(g10
g3
NtRp1414
(dp1415
g13
S'Say'
p1416
sg14
g1412
sg15
S''
sg16
S'Good afternoon, Mr President. What seems to be the problem?'
p1417
sbag1
(g10
g3
NtRp1418
(dp1419
g13
S'PlayerSay'
p1420
sg14
S'Cabinet2'
p1421
sg15
S''
sg16
S'Find out where the education funds have been allocated.'
p1422
sbag1
(g10
g3
NtRp1423
(dp1424
g13
S'Say'
p1425
sg14
S'Cabinet2'
p1426
sg15
S''
sg16
S'To the military, Sir. I saw to it myself.'
p1427
sbag1
(g10
g3
NtRp1428
(dp1429
g13
S'PlayerSay'
p1430
sg14
S'Cabinet2'
p1431
sg15
S''
sg16
S'How did this happen? Tell me everything!'
p1432
sbag1
(g10
g3
NtRp1433
(dp1434
g13
S'Encounter'
p1435
sg14
S'Cabinet2'
p1436
sg15
S'P-hard-09'
p1437
sg16
S''
sbag1
(g10
g3
NtRp1438
(dp1439
g13
S'Increment'
p1440
sg14
S'Cabinet2'
p1441
sg15
S'CABINETMEMBERS'
p1442
sg16
S''
sbag1
(g10
g3
NtRp1443
(dp1444
g13
S'PlayerSay'
p1445
sg14
S'Cabinet2'
p1446
sg15
S''
sg16
S"It can't be a coincidence that both situations involved the military."
p1447
sbag1
(g10
g3
NtRp1448
(dp1449
g13
S'Destroy'
p1450
sg14
S'Cabinet2'
p1451
sg15
S''
sg16
S''
sbasS'Cabinet3'
p1452
(lp1453
g1
(g10
g3
NtRp1454
(dp1455
g13
S'Say'
p1456
sg14
g1452
sg15
S''
sg16
S"Mr President, I'm sorry, I couldn't know it wasn't your signature."
p1457
sbag1
(g10
g3
NtRp1458
(dp1459
g13
S'PlayerSay'
p1460
sg14
S'Cabinet3'
p1461
sg15
S''
sg16
S'Never mind that now. Where are the troops heading?'
p1462
sbag1
(g10
g3
NtRp1463
(dp1464
g13
S'Say'
p1465
sg14
S'Cabinet3'
p1466
sg15
S''
sg16
S"North...to Canada. We assumed it was planned. There's a pact allowing troops into Canada."
p1467
sbag1
(g10
g3
NtRp1468
(dp1469
g13
S'PlayerSay'
p1470
sg14
S'Cabinet3'
p1471
sg15
S''
sg16
S'What could they be up to?'
p1472
sbag1
(g10
g3
NtRp1473
(dp1474
g13
S'Encounter'
p1475
sg14
S'Cabinet3'
p1476
sg15
S'P-hard-10'
p1477
sg16
S''
sbag1
(g10
g3
NtRp1478
(dp1479
g13
S'Increment'
p1480
sg14
S'Cabinet3'
p1481
sg15
S'CABINETMEMBERS'
p1482
sg16
S''
sbag1
(g10
g3
NtRp1483
(dp1484
g13
S'PlayerSay'
p1485
sg14
S'Cabinet3'
p1486
sg15
S''
sg16
S"I'd better get to the Joint Chiefs. This is getting out-of-hand.."
p1487
sbag1
(g10
g3
NtRp1488
(dp1489
g13
S'Destroy'
p1490
sg14
S'Cabinet3'
p1491
sg15
S''
sg16
S''
sbasS'Wife'
p1492
(lp1493
g1
(g10
g3
NtRp1494
(dp1495
g13
S'RequireFlag'
p1496
sg14
g1492
sg15
S'GOHOMETOWIFE'
p1497
sg16
S'What are you doing here, Phillip? You should be at work!'
p1498
sbag1
(g10
g3
NtRp1499
(dp1500
g13
S'Say'
p1501
sg14
S'Wife'
p1502
sg15
S''
sg16
S'Welcome home, Phillip! How was your workday?'
p1503
sbag1
(g10
g3
NtRp1504
(dp1505
g13
S'PlayerSay'
p1506
sg14
S'Wife'
p1507
sg15
S''
sg16
S'...'
p1508
sbag1
(g10
g3
NtRp1509
(dp1510
g13
S'Say'
p1511
sg14
S'Wife'
p1512
sg15
S''
sg16
S"That good, huh? You know this isn't what you want. Why don't you strike out on your own?"
p1513
sbag1
(g10
g3
NtRp1514
(dp1515
g13
S'PlayerSay'
p1516
sg14
S'Wife'
p1517
sg15
S''
sg16
S"I didn't think I knew where to start to be a Mayor, but Mayor Goodman makes it look easy."
p1518
sbag1
(g10
g3
NtRp1519
(dp1520
g13
S'Say'
p1521
sg14
S'Wife'
p1522
sg15
S''
sg16
S"That's the spirit! You can do it! All you need is some money and support."
p1523
sbag1
(g10
g3
NtRp1524
(dp1525
g13
S'PlayerSay'
p1526
sg14
S'Wife'
p1527
sg15
S''
sg16
S'Well...OK! Lets start with money. We need a sponsor.'
p1528
sbag1
(g10
g3
NtRp1529
(dp1530
g13
S'Say'
p1531
sg14
S'Wife'
p1532
sg15
S''
sg16
S'OK, lets go get one!'
p1533
sbag1
(g10
g3
NtRp1534
(dp1535
g13
S'AddAlly'
p1536
sg14
S'Wife'
p1537
sg15
S'Wife:1'
p1538
sg16
S'Sarah Mossman Joins Your Political Party!'
p1539
sbag1
(g10
g3
NtRp1540
(dp1541
g13
S'SetFlag'
p1542
sg14
S'Wife'
p1543
sg15
S'STARTSPONSOR'
p1544
sg16
S''
sbag1
(g10
g3
NtRp1545
(dp1546
g13
S'Destroy'
p1547
sg14
S'Wife'
p1548
sg15
S''
sg16
S''
sbasS'Journalist4'
p1549
(lp1550
g1
(g10
g3
NtRp1551
(dp1552
g13
S'Say'
p1553
sg14
g1549
sg15
S''
sg16
S"President Mossman, what do you believe was President Allen's failing strategy on the campaign trail. He looked like a strong platform."
p1554
sbag1
(g10
g3
NtRp1555
(dp1556
g13
S'PlayerSay'
p1557
sg14
S'Journalist4'
p1558
sg15
S''
sg16
S"Well, I'd say he went wrong when he decided to try to enslave the human race to mine the Earth's natural resources and ship them back to their home planet."
p1559
sbag1
(g10
g3
NtRp1560
(dp1561
g13
S'Say'
p1562
sg14
S'Journalist4'
p1563
sg15
S''
sg16
S'And how does that differ from your own strategy?'
p1564
sbag1
(g10
g3
NtRp1565
(dp1566
g13
S'PlayerSay'
p1567
sg14
S'Journalist4'
p1568
sg15
S''
sg16
S'I would say I disagree with the former President on all of those issues.'
p1569
sbag1
(g10
g3
NtRp1570
(dp1571
g13
S'Encounter'
p1572
sg14
S'Journalist4'
p1573
sg15
S'P-hard-02'
p1574
sg16
S''
sbag1
(g10
g3
NtRp1575
(dp1576
g13
S'Say'
p1577
sg14
S'Journalist4'
p1578
sg15
S''
sg16
S'No further questions, Mr President.'
p1579
sbag1
(g10
g3
NtRp1580
(dp1581
g13
S'Increment'
p1582
sg14
S'Journalist4'
p1583
sg15
S'PRESSCONF'
p1584
sg16
S''
sbag1
(g10
g3
NtRp1585
(dp1586
g13
S'Destroy'
p1587
sg14
S'Journalist4'
p1588
sg15
S''
sg16
S''
sbasS'Governor'
p1589
(lp1590
g1
(g10
g3
NtRp1591
(dp1592
g13
S'RequireFlag'
p1593
sg14
g1589
sg15
S'GOVPOLITICIANSFIRST'
p1594
sg16
S"I'm very busy. Please speak to the others."
p1595
sbag1
(g10
g3
NtRp1596
(dp1597
g13
S'Say'
p1598
sg14
S'Governor'
p1599
sg15
S''
sg16
S'You have quite a way with words, Mayor Mossman. Why are you here?'
p1600
sbag1
(g10
g3
NtRp1601
(dp1602
g13
S'PlayerSay'
p1603
sg14
S'Governor'
p1604
sg15
S''
sg16
S"Mayor Goodman said some troubling things, Governor Badden. I'm here to get to the bottom of it."
p1605
sbag1
(g10
g3
NtRp1606
(dp1607
g13
S'Say'
p1608
sg14
S'Governor'
p1609
sg15
S''
sg16
S"If I knew anything about what you're talking about, I wouldn't tell you. I don't trust you at all."
p1610
sbag1
(g10
g3
NtRp1611
(dp1612
g13
S'PlayerSay'
p1613
sg14
S'Governor'
p1614
sg15
S''
sg16
S'What can I do to convince you?'
p1615
sbag1
(g10
g3
NtRp1616
(dp1617
g13
S'Say'
p1618
sg14
S'Governor'
p1619
sg15
S''
sg16
S"Well...there's some hicks in the south wing that I've been dodging. They want to know about the recent funding cuts. Get rid of them."
p1620
sbag1
(g10
g3
NtRp1621
(dp1622
g13
S'SetFlag'
p1623
sg14
S'Governor'
p1624
sg15
S'STARTHICKS'
p1625
sg16
S''
sbag1
(g10
g3
NtRp1626
(dp1627
g13
S'GiveItem'
p1628
sg14
S'Governor'
p1629
sg15
S'SOUTHWINGDOORKEY'
p1630
sg16
S'The Governor gives you a key.'
p1631
sbag1
(g10
g3
NtRp1632
(dp1633
g13
S'RequireCount'
p1634
sg14
S'Governor'
p1635
sg15
S'DEALWITHHICKS:3'
p1636
sg16
S"I'm not saying another word until you get rid of the hicks in the south wing."
p1637
sbag1
(g10
g3
NtRp1638
(dp1639
g13
S'PlayerSay'
p1640
sg14
S'Governor'
p1641
sg15
S''
sg16
S"OK, I've taken care of your problem, now I want my answers."
p1642
sbag1
(g10
g3
NtRp1643
(dp1644
g13
S'Say'
p1645
sg14
S'Governor'
p1646
sg15
S''
sg16
S'No.'
p1647
sbag1
(g10
g3
NtRp1648
(dp1649
g13
S'PlayerSay'
p1650
sg14
S'Governor'
p1651
sg15
S''
sg16
S'No?'
p1652
sbag1
(g10
g3
NtRp1653
(dp1654
g13
S'Say'
p1655
sg14
S'Governor'
p1656
sg15
S''
sg16
S"No, word has come down from the top that due to the last Mayor's idiocy we're tightening the inner circle to Governors and above."
p1657
sbag1
(g10
g3
NtRp1658
(dp1659
g13
S'PlayerSay'
p1660
sg14
S'Governor'
p1661
sg15
S''
sg16
S"From the top...so you're saying the only way I'll find out what's going on is to be a governor myself?"
p1662
sbag1
(g10
g3
NtRp1663
(dp1664
g13
S'Say'
p1665
sg14
S'Governor'
p1666
sg15
S''
sg16
S"Wait...no...I said I wasn't going to tell you, I..."
p1667
sbag1
(g10
g3
NtRp1668
(dp1669
g13
S'PlayerSay'
p1670
sg14
S'Governor'
p1671
sg15
S''
sg16
S'This is it, governor. Prepare to fight for your office!'
p1672
sbag1
(g10
g3
NtRp1673
(dp1674
g13
S'Encounter'
p1675
sg14
S'Governor'
p1676
sg15
S'P-med-06'
p1677
sg16
S''
sbag1
(g10
g3
NtRp1678
(dp1679
g13
S'Say'
p1680
sg14
S'Governor'
p1681
sg15
S''
sg16
S"Nooo! President Allen doesn't deal well with defeat. What will happen to me?"
p1682
sbag1
(g10
g3
NtRp1683
(dp1684
g13
S'PlayerSay'
p1685
sg14
S'Governor'
p1686
sg15
S''
sg16
S'The President? What does he have to do with this?'
p1687
sbag1
(g10
g3
NtRp1688
(dp1689
g13
S'Say'
p1690
sg14
S'Governor'
p1691
sg15
S''
sg16
S"You really have no idea what you've gotten into, do you? Well, you've gotten all you're getting out of me. I'm getting out of here!"
p1692
sbag1
(g10
g3
NtRp1693
(dp1694
g13
S'SetFlag'
p1695
sg14
S'Governor'
p1696
sg15
S'GOVERNORDEFEATED'
p1697
sg16
S''
sbag1
(g10
g3
NtRp1698
(dp1699
g13
S'Destroy'
p1700
sg14
S'Governor'
p1701
sg15
S''
sg16
S''
sbasS'Politician1'
p1702
(lp1703
g1
(g10
g3
NtRp1704
(dp1705
g13
S'Say'
p1706
sg14
g1702
sg15
S''
sg16
S"I'm sorry Mayor Mossman, the Governor cannot see you now. He's very busy"
p1707
sbag1
(g10
g3
NtRp1708
(dp1709
g13
S'PlayerSay'
p1710
sg14
S'Politician1'
p1711
sg15
S''
sg16
S"It's very important. I need to understand what Mayor Goodman was talking about. It was clear there were other powers at play."
p1712
sbag1
(g10
g3
NtRp1713
(dp1714
g13
S'Say'
p1715
sg14
S'Politician1'
p1716
sg15
S''
sg16
S'Yes well, I fail to see how your country spat has anything to do with Governer Badden.'
p1717
sbag1
(g10
g3
NtRp1718
(dp1719
g13
S'Encounter'
p1720
sg14
S'Politician1'
p1721
sg15
S'P-med-01'
p1722
sg16
S''
sbag1
(g10
g3
NtRp1723
(dp1724
g13
S'Say'
p1725
sg14
S'Politician1'
p1726
sg15
S''
sg16
S'Fair point. The governor will see you now.'
p1727
sbag1
(g10
g3
NtRp1728
(dp1729
g13
S'Destroy'
p1730
sg14
S'Politician1'
p1731
sg15
S''
sg16
S''
sbasS'Lobbyist4'
p1732
(lp1733
g1
(g10
g3
NtRp1734
(dp1735
g13
S'RequireFlag'
p1736
sg14
g1732
sg15
S'STARTLOBBYISTS'
p1737
sg16
S'Please tend to your other meetings so that we can see you.'
p1738
sbag1
(g10
g3
NtRp1739
(dp1740
g13
S'Say'
p1741
sg14
S'Lobbyist4'
p1742
sg15
S''
sg16
S"Storyteller's Guild"
p1743
sbag1
(g10
g3
NtRp1744
(dp1745
g13
S'Encounter'
p1746
sg14
S'Lobbyist4'
p1747
sg15
S'P-med-14'
p1748
sg16
S''
sbag1
(g10
g3
NtRp1749
(dp1750
g13
S'Increment'
p1751
sg14
S'Lobbyist4'
p1752
sg15
S'LOBBYISTS'
p1753
sg16
S''
sbag1
(g10
g3
NtRp1754
(dp1755
g13
S'Say'
p1756
sg14
S'Lobbyist4'
p1757
sg15
S''
sg16
S"It's a start."
p1758
sbag1
(g10
g3
NtRp1759
(dp1760
g13
S'Destroy'
p1761
sg14
S'Lobbyist4'
p1762
sg15
S''
sg16
S''
sbasS'Politician3'
p1763
(lp1764
g1
(g10
g3
NtRp1765
(dp1766
g13
S'RequireFlag'
p1767
sg14
g1763
sg15
S'STARTPOLITICIANSHAKEDOWN'
p1768
sg16
S'Good morning, Governor Mossman. Your PA will know your schedule. He is waiting beside the stairs'
p1769
sbag1
(g10
g3
NtRp1770
(dp1771
g13
S'Say'
p1772
sg14
S'Politician3'
p1773
sg15
S''
sg16
S"We must all agree that the most important thing is science! If we're not for science, what's the point."
p1774
sbag1
(g10
g3
NtRp1775
(dp1776
g13
S'PlayerSay'
p1777
sg14
S'Politician3'
p1778
sg15
S''
sg16
S'Why science?'
p1779
sbag1
(g10
g3
NtRp1780
(dp1781
g13
S'Say'
p1782
sg14
S'Politician3'
p1783
sg15
S''
sg16
S'Science!'
p1784
sbag1
(g10
g3
NtRp1785
(dp1786
g13
S'PlayerSay'
p1787
sg14
S'Politician3'
p1788
sg15
S''
sg16
S"There's a lot of great things we can do for science but the funding will need to be shared with health and education and..."
p1789
sbag1
(g10
g3
NtRp1790
(dp1791
g13
S'Say'
p1792
sg14
S'Politician3'
p1793
sg15
S''
sg16
S'No! Science!!!'
p1794
sbag1
(g10
g3
NtRp1795
(dp1796
g13
S'Encounter'
p1797
sg14
S'Politician3'
p1798
sg15
S'P-med-07'
p1799
sg16
S''
sbag1
(g10
g3
NtRp1800
(dp1801
g13
S'Say'
p1802
sg14
S'Politician3'
p1803
sg15
S''
sg16
S'Alright, fine! A balanced platform (but mostly science).'
p1804
sbag1
(g10
g3
NtRp1805
(dp1806
g13
S'Increment'
p1807
sg14
S'Politician3'
p1808
sg15
S'POLITICIANSHAKEDOWN'
p1809
sg16
S''
sbag1
(g10
g3
NtRp1810
(dp1811
g13
S'Destroy'
p1812
sg14
S'Politician3'
p1813
sg15
S''
sg16
S''
sbasS'Politician2'
p1814
(lp1815
g1
(g10
g3
NtRp1816
(dp1817
g13
S'Say'
p1818
sg14
g1814
sg15
S''
sg16
S'What are you doing in here? Who are you? Some Mayor?'
p1819
sbag1
(g10
g3
NtRp1820
(dp1821
g13
S'PlayerSay'
p1822
sg14
S'Politician2'
p1823
sg15
S''
sg16
S"I am Mayor Phillip Mossman. I'm here to speak to the Governor."
p1824
sbag1
(g10
g3
NtRp1825
(dp1826
g13
S'Say'
p1827
sg14
S'Politician2'
p1828
sg15
S''
sg16
S"I'm afraid the Governor's schedule is very tight. Come back next month."
p1829
sbag1
(g10
g3
NtRp1830
(dp1831
g13
S'Encounter'
p1832
sg14
S'Politician2'
p1833
sg15
S'P-med-02'
p1834
sg16
S''
sbag1
(g10
g3
NtRp1835
(dp1836
g13
S'Say'
p1837
sg14
S'Politician2'
p1838
sg15
S''
sg16
S'I see. Well, maybe we can squeeze you in.'
p1839
sbag1
(g10
g3
NtRp1840
(dp1841
g13
S'SetFlag'
p1842
sg14
S'Politician2'
p1843
sg15
S'GOVPOLITICIANSFIRST'
p1844
sg16
S''
sbag1
(g10
g3
NtRp1845
(dp1846
g13
S'Destroy'
p1847
sg14
S'Politician2'
p1848
sg15
S''
sg16
S''
sbasS'StairsToL3'
p1849
(lp1850
g1
(g10
g3
NtRp1851
(dp1852
g13
S'Label'
p1853
sg14
g1849
sg15
S'START'
p1854
sg16
S''
sbag1
(g10
g3
NtRp1855
(dp1856
g13
S'PlayerSay'
p1857
sg14
S'StairsToL3'
p1858
sg15
S''
sg16
S"I don't need to go up these stairs."
p1859
sbag1
(g10
g3
NtRp1860
(dp1861
g13
S'Reset'
p1862
sg14
S'StairsToL3'
p1863
sg15
S'START'
p1864
sg16
S''
sbasS'Journalist'
p1865
(lp1866
g1
(g10
g3
NtRp1867
(dp1868
g13
S'RequireFlag'
p1869
sg14
g1865
sg15
S'INTERVIEWSTART'
p1870
sg16
S'Leave me alone, kid I need to get this done before my deadline!'
p1871
sbag1
(g10
g3
NtRp1872
(dp1873
g13
S'Say'
p1874
sg14
S'Journalist'
p1875
sg15
S''
sg16
S"Hey, where's the Mayor?"
p1876
sbag1
(g10
g3
NtRp1877
(dp1878
g13
S'PlayerSay'
p1879
sg14
S'Journalist'
p1880
sg15
S''
sg16
S"He couldn't make it. I'll be taking the interview."
p1881
sbag1
(g10
g3
NtRp1882
(dp1883
g13
S'Say'
p1884
sg14
S'Journalist'
p1885
sg15
S''
sg16
S'Great! Easy pickings! Lets go.'
p1886
sbag1
(g10
g3
NtRp1887
(dp1888
g13
S'Encounter'
p1889
sg14
S'Journalist'
p1890
sg15
S'P-easy-05'
p1891
sg16
S''
sbag1
(g10
g3
NtRp1892
(dp1893
g13
S'Say'
p1894
sg14
S'Journalist'
p1895
sg15
S''
sg16
S"SNORE! Fine, if I can't get anything juicy here I'll do another puff piece on my poodle Frank."
p1896
sbag1
(g10
g3
NtRp1897
(dp1898
g13
S'SetFlag'
p1899
sg14
S'Journalist'
p1900
sg15
S'JOURNALISTINTERVIEW'
p1901
sg16
S''
sbag1
(g10
g3
NtRp1902
(dp1903
g13
S'Destroy'
p1904
sg14
S'Journalist'
p1905
sg15
S''
sg16
S''
sbasS'#----------------------------------------------------------------------------------------ACT 2 \xe2\x80\x93 Part 2---------------------------------------------------------------------------------------------------------------------------------------------------'
p1906
(lp1907
g1
(g10
g3
NtRp1908
(dp1909
g13
S''
sg14
g1906
sg15
S''
sg16
S''
sbasS'Politician6'
p1910
(lp1911
g1
(g10
g3
NtRp1912
(dp1913
g13
S'RequireFlag'
p1914
sg14
g1910
sg15
S'STARTPOLITICIANSHAKEDOWN'
p1915
sg16
S'Good morning, Governor Mossman. Your PA will know your schedule. He is waiting beside the stairs'
p1916
sbag1
(g10
g3
NtRp1917
(dp1918
g13
S'Say'
p1919
sg14
S'Politician6'
p1920
sg15
S''
sg16
S'We should be all about not wasting money'
p1921
sbag1
(g10
g3
NtRp1922
(dp1923
g13
S'PlayerSay'
p1924
sg14
S'Politician6'
p1925
sg15
S''
sg16
S'Sounds fair. Wasting money on what?'
p1926
sbag1
(g10
g3
NtRp1927
(dp1928
g13
S'Say'
p1929
sg14
S'Politician6'
p1930
sg15
S''
sg16
S"You know, stuff that doesn't really help like artsy stuff."
p1931
sbag1
(g10
g3
NtRp1932
(dp1933
g13
S'PlayerSay'
p1934
sg14
S'Politician6'
p1935
sg15
S''
sg16
S"You don't think we should invest in our culture?"
p1936
sbag1
(g10
g3
NtRp1937
(dp1938
g13
S'Say'
p1939
sg14
S'Politician6'
p1940
sg15
S''
sg16
S'We have more important things to spend our money on. Like military.'
p1941
sbag1
(g10
g3
NtRp1942
(dp1943
g13
S'PlayerSay'
p1944
sg14
S'Politician6'
p1945
sg15
S''
sg16
S'What if people want to paint pictures about our military. Or write patriotic songs?'
p1946
sbag1
(g10
g3
NtRp1947
(dp1948
g13
S'Say'
p1949
sg14
S'Politician6'
p1950
sg15
S''
sg16
S"I hadn't thought of that..."
p1951
sbag1
(g10
g3
NtRp1952
(dp1953
g13
S'Encounter'
p1954
sg14
S'Politician6'
p1955
sg15
S'P-med-10'
p1956
sg16
S''
sbag1
(g10
g3
NtRp1957
(dp1958
g13
S'Say'
p1959
sg14
S'Politician6'
p1960
sg15
S''
sg16
S"So, militaristic march songs and battle scenes aren't the only sort of art? Wow."
p1961
sbag1
(g10
g3
NtRp1962
(dp1963
g13
S'Increment'
p1964
sg14
S'Politician6'
p1965
sg15
S'POLITICIANSHAKEDOWN'
p1966
sg16
S''
sbag1
(g10
g3
NtRp1967
(dp1968
g13
S'Destroy'
p1969
sg14
S'Politician6'
p1970
sg15
S''
sg16
S''
sbasS'Journalist3'
p1971
(lp1972
g1
(g10
g3
NtRp1973
(dp1974
g13
S'Say'
p1975
sg14
g1971
sg15
S''
sg16
S'Mr President, Cal from Daily LOL magazine. Can you explain the transformation that occurred during the presidential debate.'
p1976
sbag1
(g10
g3
NtRp1977
(dp1978
g13
S'PlayerSay'
p1979
sg14
S'Journalist3'
p1980
sg15
S''
sg16
S'Certainly, Cal. The President of the Ignited States turned into an alien.'
p1981
sbag1
(g10
g3
NtRp1982
(dp1983
g13
S'Say'
p1984
sg14
S'Journalist3'
p1985
sg15
S''
sg16
S"Ah, you mean to say he's out-of-touch with his people?"
p1986
sbag1
(g10
g3
NtRp1987
(dp1988
g13
S'PlayerSay'
p1989
sg14
S'Journalist3'
p1990
sg15
S''
sg16
S'Not exactly...'
p1991
sbag1
(g10
g3
NtRp1992
(dp1993
g13
S'Encounter'
p1994
sg14
S'Journalist3'
p1995
sg15
S'P-hard-01'
p1996
sg16
S''
sbag1
(g10
g3
NtRp1997
(dp1998
g13
S'Say'
p1999
sg14
S'Journalist3'
p2000
sg15
S''
sg16
S'I...see...'
p2001
sbag1
(g10
g3
NtRp2002
(dp2003
g13
S'Increment'
p2004
sg14
S'Journalist3'
p2005
sg15
S'PRESSCONF'
p2006
sg16
S''
sbag1
(g10
g3
NtRp2007
(dp2008
g13
S'Destroy'
p2009
sg14
S'Journalist3'
p2010
sg15
S''
sg16
S''
sbasS'WarVet2'
p2011
(lp2012
g1
(g10
g3
NtRp2013
(dp2014
g13
S'RequireFlag'
p2015
sg14
g2011
sg15
S'AFTERWILFRED'
p2016
sg16
S'Eh? Speak up, boy.'
p2017
sbag1
(g10
g3
NtRp2018
(dp2019
g13
S'Encounter'
p2020
sg14
S'WarVet2'
p2021
sg15
S'P-hard-05'
p2022
sg16
S''
sbag1
(g10
g3
NtRp2023
(dp2024
g13
S'Say'
p2025
sg14
S'WarVet2'
p2026
sg15
S''
sg16
S"We'll head home, but you can expect us back if we see anything else suspicious ."
p2027
sbag1
(g10
g3
NtRp2028
(dp2029
g13
S'Increment'
p2030
sg14
S'WarVet2'
p2031
sg15
S'WARVETS'
p2032
sg16
S''
sbag1
(g10
g3
NtRp2033
(dp2034
g13
S'Destroy'
p2035
sg14
S'WarVet2'
p2036
sg15
S''
sg16
S''
sbasS'PA2'
p2037
(lp2038
g1
(g10
g3
NtRp2039
(dp2040
g13
S'Say'
p2041
sg14
g2037
sg15
S''
sg16
S"Welcome to the White House, President Mossman. It was a long campaign trail with a very strange final debate, but we won and we're here."
p2042
sbag1
(g10
g3
NtRp2043
(dp2044
g13
S'Say'
p2045
sg14
S'PA2'
p2046
sg15
S''
sg16
S'Now is the real test where we see how well we can run a country.'
p2047
sbag1
(g10
g3
NtRp2048
(dp2049
g13
S'Say'
p2050
sg14
S'PA2'
p2051
sg15
S''
sg16
S'The first step is to give your first press conference as President to explain the...situation...with President Alien *cough* I mean Allen.'
p2052
sbag1
(g10
g3
NtRp2053
(dp2054
g13
S'RequireCount'
p2055
sg14
S'PA2'
p2056
sg15
S'PRESSCONF:3'
p2057
sg16
S"They're waiting for you in the Press Room, Mr President."
p2058
sbag1
(g10
g3
NtRp2059
(dp2060
g13
S'Say'
p2061
sg14
S'PA2'
p2062
sg15
S''
sg16
S'I think that went as well as could be expected.'
p2063
sbag1
(g10
g3
NtRp2064
(dp2065
g13
S'Say'
p2066
sg14
S'PA2'
p2067
sg15
S''
sg16
S'Your secret service detail is waiting over here in the corridor to have a word with you about security protocol.'
p2068
sbag1
(g10
g3
NtRp2069
(dp2070
g13
S'RequireFlag'
p2071
sg14
S'PA2'
p2072
sg15
S'KAWALSKIJOIN'
p2073
sg16
S"You'd better speak to the secret service agent. Your security is paramount."
p2074
sbag1
(g10
g3
NtRp2075
(dp2076
g13
S'Say'
p2077
sg14
S'PA2'
p2078
sg15
S''
sg16
S"Some war veterans would like to speak to you about some recent decisions you've made. I don't dare turn them away. You'd better speak to them."
p2079
sbag1
(g10
g3
NtRp2080
(dp2081
g13
S'PlayerSay'
p2082
sg14
S'PA2'
p2083
sg15
S''
sg16
S'Of course.'
p2084
sbag1
(g10
g3
NtRp2085
(dp2086
g13
S'RequireCount'
p2087
sg14
S'PA2'
p2088
sg15
S'WARVETS:2'
p2089
sg16
S''
sbag1
(g10
g3
NtRp2090
(dp2091
g13
S'Say'
p2092
sg14
S'PA2'
p2093
sg15
S''
sg16
S'What was that about?'
p2094
sbag1
(g10
g3
NtRp2095
(dp2096
g13
S'PlayerSay'
p2097
sg14
S'PA2'
p2098
sg15
S''
sg16
S"I'd like to know as well. Find me the documents that approved troop movement today and get me a meeting with the Joint Chiefs."
p2099
sbag1
(g10
g3
NtRp2100
(dp2101
g13
S'Say'
p2102
sg14
S'PA2'
p2103
sg15
S''
sg16
S'Yessir.'
p2104
sbag1
(g10
g3
NtRp2105
(dp2106
g13
S'Say'
p2107
sg14
S'PA2'
p2108
sg15
S''
sg16
S"Your next meeting is with the teacher's in the corridor. They didn't give me the details, but it seems they're quite upset."
p2109
sbag1
(g10
g3
NtRp2110
(dp2111
g13
S'RequireCount'
p2112
sg14
S'PA2'
p2113
sg15
S'TEACHERS:2'
p2114
sg16
S"You'll need to speak to the teachers in the corridor, Mr President."
p2115
sbag1
(g10
g3
NtRp2116
(dp2117
g13
S'Say'
p2118
sg14
S'PA2'
p2119
sg15
S''
sg16
S'You seem to have sorted the teachers out.'
p2120
sbag1
(g10
g3
NtRp2121
(dp2122
g13
S'PlayerSay'
p2123
sg14
S'PA2'
p2124
sg15
S''
sg16
S"I've mollified them for now, but I want to get to the bottom of this - NOW!"
p2125
sbag1
(g10
g3
NtRp2126
(dp2127
g13
S'Say'
p2128
sg14
S'PA2'
p2129
sg15
S''
sg16
S'Of course, Mr President. I do have those papers you asked for that approved the mobilisation of troops'
p2130
sbag1
(g10
g3
NtRp2131
(dp2132
g13
S'PlayerSay'
p2133
sg14
S'PA2'
p2134
sg15
S''
sg16
S"Let me see those...this is my signature! But I didn't sign this!"
p2135
sbag1
(g10
g3
NtRp2136
(dp2137
g13
S'Say'
p2138
sg14
S'PA2'
p2139
sg15
S''
sg16
S'This is very serious! What should we do, sir?'
p2140
sbag1
(g10
g3
NtRp2141
(dp2142
g13
S'PlayerSay'
p2143
sg14
S'PA2'
p2144
sg15
S''
sg16
S'Call a cabinet meeting in the Mural Room. Immediately.'
p2145
sbag1
(g10
g3
NtRp2146
(dp2147
g13
S'Say'
p2148
sg14
S'PA2'
p2149
sg15
S''
sg16
S"Understood. They'll be there when you get there."
p2150
sbag1
(g10
g3
NtRp2151
(dp2152
g13
S'RequireCount'
p2153
sg14
S'PA2'
p2154
sg15
S'CABINETMEMBERS:3'
p2155
sg16
S'The cabinet is waiting for you in the Mural Room.'
p2156
sbag1
(g10
g3
NtRp2157
(dp2158
g13
S'RequireCount'
p2159
sg14
S'PA2'
p2160
sg15
S'JOINTCHIEFS:3'
p2161
sg16
S'Hello, Sir. The Joint Chiefs are waiting for you in your office.'
p2162
sbag1
(g10
g3
NtRp2163
(dp2164
g13
S'RequireCount'
p2165
sg14
S'PA2'
p2166
sg15
S'JOINTCHIEFS:3'
p2167
sg16
S'The Joint Chiefs are waiting in your office, Sir.'
p2168
sbag1
(g10
g3
NtRp2169
(dp2170
g13
S'RequireFlag'
p2171
sg14
S'PA2'
p2172
sg15
S'WIN'
p2173
sg16
S'Mr President, you have to put a stop to the supercomputer that will destroy the planet! You can access it in the Situation Room.'
p2174
sbag1
(g10
g3
NtRp2175
(dp2176
g13
S'Say'
p2177
sg14
S'PA2'
p2178
sg15
S''
sg16
S"You have saved the day! The world is safe and all over the Ignited States, our citizens can sleep safe knowing you're taking care of them."
p2179
sbag1
(g10
g3
NtRp2180
(dp2181
g13
S'RequireFlag'
p2182
sg14
S'PA2'
p2183
sg15
S'LOOP'
p2184
sg16
S'Goodnight, Mr President.'
p2185
sbasS'Journalist5'
p2186
(lp2187
g1
(g10
g3
NtRp2188
(dp2189
g13
S'Say'
p2190
sg14
g2186
sg15
S''
sg16
S'Do you feel that a bi-partisan relationship will be possible between your party and the opposition?'
p2191
sbag1
(g10
g3
NtRp2192
(dp2193
g13
S'PlayerSay'
p2194
sg14
S'Journalist5'
p2195
sg15
S''
sg16
S'I suppose once we find and remove all of the aliens and reverse the alien brainwashing, bi-partisanship will resume.'
p2196
sbag1
(g10
g3
NtRp2197
(dp2198
g13
S'Encounter'
p2199
sg14
S'Journalist5'
p2200
sg15
S'P-hard-03'
p2201
sg16
S''
sbag1
(g10
g3
NtRp2202
(dp2203
g13
S'Say'
p2204
sg14
S'Journalist5'
p2205
sg15
S''
sg16
S'Thankyou, President Mossman.'
p2206
sbag1
(g10
g3
NtRp2207
(dp2208
g13
S'Increment'
p2209
sg14
S'Journalist5'
p2210
sg15
S'PRESSCONF'
p2211
sg16
S''
sbag1
(g10
g3
NtRp2212
(dp2213
g13
S'Destroy'
p2214
sg14
S'Journalist5'
p2215
sg15
S''
sg16
S''
sbasS'Journalist2'
p2216
(lp2217
g1
(g10
g3
NtRp2218
(dp2219
g13
S'RequireFlag'
p2220
sg14
g2216
sg15
S'STARTHICKS2'
p2221
sg16
S'Governor Badden sends his Mayor lacky to do his dirty work \xe2\x80\x93 what a scoop!'
p2222
sbag1
(g10
g3
NtRp2223
(dp2224
g13
S'Encounter'
p2225
sg14
S'Journalist2'
p2226
sg15
S'P-med-05'
p2227
sg16
S''
sbag1
(g10
g3
NtRp2228
(dp2229
g13
S'Say'
p2230
sg14
S'Journalist2'
p2231
sg15
S''
sg16
S"I'm going back to write a comparison piece on you and Governor Badden. You should consider running for Governor."
p2232
sbag1
(g10
g3
NtRp2233
(dp2234
g13
S'Increment'
p2235
sg14
S'Journalist2'
p2236
sg15
S'DEALWITHHICKS'
p2237
sg16
S''
sbag1
(g10
g3
NtRp2238
(dp2239
g13
S'Destroy'
p2240
sg14
S'Journalist2'
p2241
sg15
S''
sg16
S''
sbasS'#P-med-24'
p2242
(lp2243
g1
(g10
g3
NtRp2244
(dp2245
g13
S'PresidentAlien'
p2246
sg14
g2242
sg15
S"You think you've beaten me, but now you're going to fight the real me!"
p2247
sg16
S''
sbag1
(g10
g3
NtRp2248
(dp2249
g13
S'Player'
p2250
sg14
S'#P-med-24'
p2251
sg15
S'I knew something was wrong, but this...?'
p2252
sg16
S''
sbag1
(g10
g3
NtRp2253
(dp2254
g13
S'PresidentAlien'
p2255
sg14
S'#P-med-24'
p2256
sg15
S"All you've done is caused me to expedite my plans to enslave the human race!"
p2257
sg16
S''
sbasS'TVPersonality'
p2258
(lp2259
g1
(g10
g3
NtRp2260
(dp2261
g13
S'RequireFlag'
p2262
sg14
g2258
sg15
S'STARTHERCULES'
p2263
sg16
S"Ooooh, sorry Mossman, baby! We're not ready for you yet."
p2264
sbag1
(g10
g3
NtRp2265
(dp2266
g13
S'Say'
p2267
sg14
S'TVPersonality'
p2268
sg15
S''
sg16
S"There's the man! Are you ready to cross wits with The Mighty Hercules!"
p2269
sbag1
(g10
g3
NtRp2270
(dp2271
g13
S'PlayerSay'
p2272
sg14
S'TVPersonality'
p2273
sg15
S''
sg16
S'I sure am!'
p2274
sbag1
(g10
g3
NtRp2275
(dp2276
g13
S'Say'
p2277
sg14
S'TVPersonality'
p2278
sg15
S''
sg16
S"Really...? You don't want to...see your make-up artist?"
p2279
sbag1
(g10
g3
NtRp2280
(dp2281
g13
S'PlayerSay'
p2282
sg14
S'TVPersonality'
p2283
sg15
S''
sg16
S"No, no, I'm ready."
p2284
sbag1
(g10
g3
NtRp2285
(dp2286
g13
S'Say'
p2287
sg14
S'TVPersonality'
p2288
sg15
S''
sg16
S'Suit yourself...'
p2289
sbag1
(g10
g3
NtRp2290
(dp2291
g13
S'Say'
p2292
sg14
S'TVPersonality'
p2293
sg15
S''
sg16
S'... from the looks of it, suiting yourself is exactly what you did.'
p2294
sbag1
(g10
g3
NtRp2295
(dp2296
g13
S'Encounter'
p2297
sg14
S'TVPersonality'
p2298
sg15
S'P-med-20'
p2299
sg16
S''
sbag1
(g10
g3
NtRp2300
(dp2301
g13
S'Say'
p2302
sg14
S'TVPersonality'
p2303
sg15
S''
sg16
S'Good show, you sure gave me a run for my money.'
p2304
sbag1
(g10
g3
NtRp2305
(dp2306
g13
S'Say'
p2307
sg14
S'TVPersonality'
p2308
sg15
S''
sg16
S"Now beat it, you're making me look bad!"
p2309
sbag1
(g10
g3
NtRp2310
(dp2311
g13
S'SetFlag'
p2312
sg14
S'TVPersonality'
p2313
sg15
S'BEATHERCULES'
p2314
sg16
S''
sbag1
(g10
g3
NtRp2315
(dp2316
g13
S'Destroy'
p2317
sg14
S'TVPersonality'
p2318
sg15
S''
sg16
S''
sbasS'Politician4'
p2319
(lp2320
g1
(g10
g3
NtRp2321
(dp2322
g13
S'RequireFlag'
p2323
sg14
g2319
sg15
S'STARTPOLITICIANSHAKEDOWN'
p2324
sg16
S'Good morning, Governor Mossman. Your PA will know your schedule. He is waiting beside the stairs'
p2325
sbag1
(g10
g3
NtRp2326
(dp2327
g13
S'Say'
p2328
sg14
S'Politician4'
p2329
sg15
S''
sg16
S"I'm for culture! It's a glorious age we live in, we should further this great country's culture."
p2330
sbag1
(g10
g3
NtRp2331
(dp2332
g13
S'PlayerSay'
p2333
sg14
S'Politician4'
p2334
sg15
S''
sg16
S'That sounds fair, but what kind of culture would you like to focus on.'
p2335
sbag1
(g10
g3
NtRp2336
(dp2337
g13
S'Say'
p2338
sg14
S'Politician4'
p2339
sg15
S''
sg16
S"Oh...I don't know, I'm not really into art, can't really handle music. I'd rather not go to the theatre if I can get out of it. Don't really see the point of sport...hmmm. New culture?"
p2340
sbag1
(g10
g3
NtRp2341
(dp2342
g13
S'PlayerSay'
p2343
sg14
S'Politician4'
p2344
sg15
S''
sg16
S"You don't seem very in to improving culture really."
p2345
sbag1
(g10
g3
NtRp2346
(dp2347
g13
S'Say'
p2348
sg14
S'Politician4'
p2349
sg15
S''
sg16
S'Yeh, well...my wife said it would make me sound smart. I think sounding smart is important. Lets be for that!'
p2350
sbag1
(g10
g3
NtRp2351
(dp2352
g13
S'Encounter'
p2353
sg14
S'Politician4'
p2354
sg15
S'P-med-08'
p2355
sg16
S''
sbag1
(g10
g3
NtRp2356
(dp2357
g13
S'Say'
p2358
sg14
S'Politician4'
p2359
sg15
S''
sg16
S"Gee, you're a pretty smart guy. I think you've got this covered."
p2360
sbag1
(g10
g3
NtRp2361
(dp2362
g13
S'Increment'
p2363
sg14
S'Politician4'
p2364
sg15
S'POLITICIANSHAKEDOWN'
p2365
sg16
S''
sbag1
(g10
g3
NtRp2366
(dp2367
g13
S'Destroy'
p2368
sg14
S'Politician4'
p2369
sg15
S''
sg16
S''
sbasS'SouthWingDoor'
p2370
(lp2371
g1
(g10
g3
NtRp2372
(dp2373
g13
S'RequireItemMessage'
p2374
sg14
g2370
sg15
S'SOUTHWINGDOORKEY'
p2375
sg16
S'The door appears to be locked'
p2376
sbag1
(g10
g3
NtRp2377
(dp2378
g13
S'Message'
p2379
sg14
S'SouthWingDoor'
p2380
sg15
S''
sg16
S"The door unlocks with a satisfying 'click'"
p2381
sbag1
(g10
g3
NtRp2382
(dp2383
g13
S'Destroy'
p2384
sg14
S'SouthWingDoor'
p2385
sg15
S''
sg16
S''
sbasS'Protester2'
p2386
(lp2387
g1
(g10
g3
NtRp2388
(dp2389
g13
S'Say'
p2390
sg14
g2386
sg15
S''
sg16
S"Bees buzz, Mayors lie, who's this Phillip Mossman guy?"
p2391
sbag1
(g10
g3
NtRp2392
(dp2393
g13
S'RequireFlag'
p2394
sg14
S'Protester2'
p2395
sg15
S'PROTESTORS'
p2396
sg16
S''
sbag1
(g10
g3
NtRp2397
(dp2398
g13
S'Encounter'
p2399
sg14
S'Protester2'
p2400
sg15
S'P-easy-03'
p2401
sg16
S''
sbag1
(g10
g3
NtRp2402
(dp2403
g13
S'Destroy'
p2404
sg14
S'Protester2'
p2405
sg15
S''
sg16
S''
sbasS'JointChief2'
p2406
(lp2407
g1
(g10
g3
NtRp2408
(dp2409
g13
S'PlayerSay'
p2410
sg14
g2406
sg15
S''
sg16
S'Who would have the power to do this? What would they stand to gain? Can we...'
p2411
sbag1
(g10
g3
NtRp2412
(dp2413
g13
S'Say'
p2414
sg14
S'JointChief2'
p2415
sg15
S''
sg16
S"I'm sorry, Sir. I've just learned that some ICBMs pointed at Russia have been activated \xe2\x80\x93 using your access codes! They could be fired at any moment!"
p2416
sbag1
(g10
g3
NtRp2417
(dp2418
g13
S'PlayerSay'
p2419
sg14
S'JointChief2'
p2420
sg15
S''
sg16
S"You've \xe2\x80\x9cjust learned\xe2\x80\x9d? Is this your doing?"
p2421
sbag1
(g10
g3
NtRp2422
(dp2423
g13
S'Encounter'
p2424
sg14
S'JointChief2'
p2425
sg15
S'P-hard-12'
p2426
sg16
S''
sbag1
(g10
g3
NtRp2427
(dp2428
g13
S'Increment'
p2429
sg14
S'JointChief2'
p2430
sg15
S'JOINTCHIEFS'
p2431
sg16
S''
sbag1
(g10
g3
NtRp2432
(dp2433
g13
S'PlayerSay'
p2434
sg14
S'JointChief2'
p2435
sg15
S''
sg16
S'I had to be sure.'
p2436
sbag1
(g10
g3
NtRp2437
(dp2438
g13
S'Destroy'
p2439
sg14
S'JointChief2'
p2440
sg15
S''
sg16
S''
sbasS'Protester1'
p2441
(lp2442
g1
(g10
g3
NtRp2443
(dp2444
g13
S'Say'
p2445
sg14
g2441
sg15
S''
sg16
S"Fee Fi Fo Fum, we think Mayor Goodman's Dumb!"
p2446
sbag1
(g10
g3
NtRp2447
(dp2448
g13
S'RequireFlag'
p2449
sg14
S'Protester1'
p2450
sg15
S'PROTESTORS'
p2451
sg16
S''
sbag1
(g10
g3
NtRp2452
(dp2453
g13
S'Encounter'
p2454
sg14
S'Protester1'
p2455
sg15
S'P-easy-02'
p2456
sg16
S''
sbag1
(g10
g3
NtRp2457
(dp2458
g13
S'Destroy'
p2459
sg14
S'Protester1'
p2460
sg15
S''
sg16
S''
sbasS'#----------------------------------------------------------------------------------------ACT 2 \xe2\x80\x93 Part 1---------------------------------------------------------------------------------------------------------------------------------------------------'
p2461
(lp2462
g1
(g10
g3
NtRp2463
(dp2464
g13
S''
sg14
g2461
sg15
S''
sg16
S''
sbasS'Head Protester'
p2465
(lp2466
g1
(g10
g3
NtRp2467
(dp2468
g13
S'Say'
p2469
sg14
g2465
sg15
S''
sg16
S"I am the head protester. You'll never convince us to back down!"
p2470
sbag1
(g10
g3
NtRp2471
(dp2472
g13
S'RequireFlag'
p2473
sg14
S'Head Protester'
p2474
sg15
S'PROTESTORS'
p2475
sg16
S''
sbag1
(g10
g3
NtRp2476
(dp2477
g13
S'PlayerSay'
p2478
sg14
S'Head Protester'
p2479
sg15
S''
sg16
S'What are you protesting?'
p2480
sbag1
(g10
g3
NtRp2481
(dp2482
g13
S'Say'
p2483
sg14
S'Head Protester'
p2484
sg15
S''
sg16
S'Er...Injustice!'
p2485
sbag1
(g10
g3
NtRp2486
(dp2487
g13
S'PlayerSay'
p2488
sg14
S'Head Protester'
p2489
sg15
S''
sg16
S'Injustice against what?'
p2490
sbag1
(g10
g3
NtRp2491
(dp2492
g13
S'Say'
p2493
sg14
S'Head Protester'
p2494
sg15
S''
sg16
S'...'
p2495
sbag1
(g10
g3
NtRp2496
(dp2497
g13
S'Say'
p2498
sg14
S'Head Protester'
p2499
sg15
S''
sg16
S'The People!'
p2500
sbag1
(g10
g3
NtRp2501
(dp2502
g13
S'PlayerSay'
p2503
sg14
S'Head Protester'
p2504
sg15
S''
sg16
S'Yes, but which people?'
p2505
sbag1
(g10
g3
NtRp2506
(dp2507
g13
S'Say'
p2508
sg14
S'Head Protester'
p2509
sg15
S''
sg16
S'See? What a fascist, ALL people you slimey politician scum!'
p2510
sbag1
(g10
g3
NtRp2511
(dp2512
g13
S'Encounter'
p2513
sg14
S'Head Protester'
p2514
sg15
S'P-easy-04'
p2515
sg16
S''
sbag1
(g10
g3
NtRp2516
(dp2517
g13
S'Say'
p2518
sg14
S'Head Protester'
p2519
sg15
S''
sg16
S"Alright, fine! We'll stop protesting...whatever we were protesting."
p2520
sbag1
(g10
g3
NtRp2521
(dp2522
g13
S'SetFlag'
p2523
sg14
S'Head Protester'
p2524
sg15
S'PROTESTORSDEAD'
p2525
sg16
S''
sbag1
(g10
g3
NtRp2526
(dp2527
g13
S'Destroy'
p2528
sg14
S'Head Protester'
p2529
sg15
S''
sg16
S''
sbasS'Sponsor'
p2530
(lp2531
g1
(g10
g3
NtRp2532
(dp2533
g13
S'RequireFlag'
p2534
sg14
g2530
sg15
S'STARTSPONSOR'
p2535
sg16
S"Hmmm...Money, money, money. Sorry, what? I wasn't talking to you."
p2536
sbag1
(g10
g3
NtRp2537
(dp2538
g13
S'Say'
p2539
sg14
S'Sponsor'
p2540
sg15
S''
sg16
S"Hello, I'm investigating new investments today. How can I help you?"
p2541
sbag1
(g10
g3
NtRp2542
(dp2543
g13
S'PlayerSay'
p2544
sg14
S'Sponsor'
p2545
sg15
S''
sg16
S"Well, I've decided to run for Mayor! I could really use an investor."
p2546
sbag1
(g10
g3
NtRp2547
(dp2548
g13
S'Say'
p2549
sg14
S'Sponsor'
p2550
sg15
S''
sg16
S"I don't know. You seem a little young. I don't think I'm convinced."
p2551
sbag1
(g10
g3
NtRp2552
(dp2553
g13
S'Encounter'
p2554
sg14
S'Sponsor'
p2555
sg15
S'P-easy-06'
p2556
sg16
S''
sbag1
(g10
g3
NtRp2557
(dp2558
g13
S'Say'
p2559
sg14
S'Sponsor'
p2560
sg15
S''
sg16
S"Wow! You sure have what it takes! Alright, he's a pile of cash!"
p2561
sbag1
(g10
g3
NtRp2562
(dp2563
g13
S'Say'
p2564
sg14
S'Sponsor'
p2565
sg15
S''
sg16
S'Also, now that you have some funds, you might find it useful to...grease the wheels in some difficult situations.'
p2566
sbag1
(g10
g3
NtRp2567
(dp2568
g13
S'LearnAttack'
p2569
sg14
S'Sponsor'
p2570
sg15
S'BRIBE'
p2571
sg16
S'Phillip and Sarah learn to Bribe'
p2572
sbag1
(g10
g3
NtRp2573
(dp2574
g13
S'LearnAttack'
p2575
sg14
S'Sponsor'
p2576
sg15
S'Wife:BRIBE'
p2577
sg16
S''
sbag1
(g10
g3
NtRp2578
(dp2579
g13
S'SetFlag'
p2580
sg14
S'Sponsor'
p2581
sg15
S'STARTCONSTITUENTS'
p2582
sg16
S''
sbag1
(g10
g3
NtRp2583
(dp2584
g13
S'PlayerSay'
p2585
sg14
S'Sponsor'
p2586
sg15
S''
sg16
S'Er, thanks! I suppose we should go gather some support from our constituents now.'
p2587
sbag1
(g10
g3
NtRp2588
(dp2589
g13
S'Say'
p2590
sg14
S'Sponsor'
p2591
sg15
S''
sg16
S"Makes sense to me! I'm off, too. Money, money, money."
p2592
sbag1
(g10
g3
NtRp2593
(dp2594
g13
S'Destroy'
p2595
sg14
S'Sponsor'
p2596
sg15
S''
sg16
S''
sbasS'CheatAct2P2'
p2597
(lp2598
g1
(g10
g3
NtRp2599
(dp2600
g13
S'AddAlly'
p2601
sg14
g2597
sg15
S'Wife:1'
p2602
sg16
S''
sbag1
(g10
g3
NtRp2603
(dp2604
g13
S'LearnAttack'
p2605
sg14
S'CheatAct2P2'
p2606
sg15
S'BRIBE'
p2607
sg16
S''
sbag1
(g10
g3
NtRp2608
(dp2609
g13
S'LearnAttack'
p2610
sg14
S'CheatAct2P2'
p2611
sg15
S'Wife:BRIBE'
p2612
sg16
S''
sbag1
(g10
g3
NtRp2613
(dp2614
g13
S'LearnAttack'
p2615
sg14
S'CheatAct2P2'
p2616
sg15
S'SLANDER'
p2617
sg16
S''
sbag1
(g10
g3
NtRp2618
(dp2619
g13
S'AddAlly'
p2620
sg14
S'CheatAct2P2'
p2621
sg15
S'Leo:1'
p2622
sg16
S''
sbag1
(g10
g3
NtRp2623
(dp2624
g13
S'GotoMap'
p2625
sg14
S'CheatAct2P2'
p2626
sg15
S'hotel_l1'
p2627
sg16
S''
sbasS'Politician5'
p2628
(lp2629
g1
(g10
g3
NtRp2630
(dp2631
g13
S'RequireFlag'
p2632
sg14
g2628
sg15
S'STARTPOLITICIANSHAKEDOWN'
p2633
sg16
S'Good morning, Governor Mossman. Your PA will know your schedule. He is waiting beside the stairs'
p2634
sbag1
(g10
g3
NtRp2635
(dp2636
g13
S'Say'
p2637
sg14
S'Politician5'
p2638
sg15
S''
sg16
S'Big business!'
p2639
sbag1
(g10
g3
NtRp2640
(dp2641
g13
S'PlayerSay'
p2642
sg14
S'Politician5'
p2643
sg15
S''
sg16
S'What about big business.'
p2644
sbag1
(g10
g3
NtRp2645
(dp2646
g13
S'Say'
p2647
sg14
S'Politician5'
p2648
sg15
S''
sg16
S'...MORE big business!'
p2649
sbag1
(g10
g3
NtRp2650
(dp2651
g13
S'PlayerSay'
p2652
sg14
S'Politician5'
p2653
sg15
S''
sg16
S'You want to grow our business sector? Provide more jobs?'
p2654
sbag1
(g10
g3
NtRp2655
(dp2656
g13
S'Say'
p2657
sg14
S'Politician5'
p2658
sg15
S''
sg16
S'...Yeeeeh. Yes. Yes, that.'
p2659
sbag1
(g10
g3
NtRp2660
(dp2661
g13
S'PlayerSay'
p2662
sg14
S'Politician5'
p2663
sg15
S''
sg16
S'What about small business?'
p2664
sbag1
(g10
g3
NtRp2665
(dp2666
g13
S'Say'
p2667
sg14
S'Politician5'
p2668
sg15
S''
sg16
S'No! We need to make it BIGGER!'
p2669
sbag1
(g10
g3
NtRp2670
(dp2671
g13
S'Encounter'
p2672
sg14
S'Politician5'
p2673
sg15
S'P-med-09'
p2674
sg16
S''
sbag1
(g10
g3
NtRp2675
(dp2676
g13
S'Say'
p2677
sg14
S'Politician5'
p2678
sg15
S''
sg16
S"OK, I see what you're getting at. Lets help small business to grow."
p2679
sbag1
(g10
g3
NtRp2680
(dp2681
g13
S'Increment'
p2682
sg14
S'Politician5'
p2683
sg15
S'POLITICIANSHAKEDOWN'
p2684
sg16
S''
sbag1
(g10
g3
NtRp2685
(dp2686
g13
S'Destroy'
p2687
sg14
S'Politician5'
p2688
sg15
S''
sg16
S''
sbasS'StairsToBasement'
p2689
(lp2690
g1
(g10
g3
NtRp2691
(dp2692
g13
S'RequireFlagPlayerSay'
p2693
sg14
g2689
sg15
S'ACCESSBASEMENT'
p2694
sg16
S'Smells like a basement. I have no business going down there.'
p2695
sbag1
(g10
g3
NtRp2696
(dp2697
g13
S'Label'
p2698
sg14
S'StairsToBasement'
p2699
sg15
S'START'
p2700
sg16
S''
sbag1
(g10
g3
NtRp2701
(dp2702
g13
S'GotoMap'
p2703
sg14
S'StairsToBasement'
p2704
sg15
S'hotel_basement'
p2705
sg16
S''
sbag1
(g10
g3
NtRp2706
(dp2707
g13
S'Jump'
p2708
sg14
S'StairsToBasement'
p2709
sg15
S'START'
p2710
sg16
S''
sbasS'P-med-12'
p2711
(lp2712
g1
(g10
g3
NtRp2713
(dp2714
g13
S'Say'
p2715
sg14
g2711
sg15
S'Lobbyist001'
p2716
sg16
S'import combat'
p2717
sbasS'Lobbyist3'
p2718
(lp2719
g1
(g10
g3
NtRp2720
(dp2721
g13
S'RequireFlag'
p2722
sg14
g2718
sg15
S'STARTLOBBYISTS'
p2723
sg16
S'Mutter, mutter'
p2724
sbag1
(g10
g3
NtRp2725
(dp2726
g13
S'Say'
p2727
sg14
S'Lobbyist3'
p2728
sg15
S''
sg16
S'Protection of internet memes'
p2729
sbag1
(g10
g3
NtRp2730
(dp2731
g13
S'Encounter'
p2732
sg14
S'Lobbyist3'
p2733
sg15
S'P-med-13'
p2734
sg16
S''
sbag1
(g10
g3
NtRp2735
(dp2736
g13
S'Increment'
p2737
sg14
S'Lobbyist3'
p2738
sg15
S'LOBBYISTS'
p2739
sg16
S''
sbag1
(g10
g3
NtRp2740
(dp2741
g13
S'Say'
p2742
sg14
S'Lobbyist3'
p2743
sg15
S''
sg16
S"It's a start."
p2744
sbag1
(g10
g3
NtRp2745
(dp2746
g13
S'Destroy'
p2747
sg14
S'Lobbyist3'
p2748
sg15
S''
sg16
S''
sbasS'Mayor'
p2749
(lp2750
g1
(g10
g3
NtRp2751
(dp2752
g13
S'Say'
p2753
sg14
g2749
sg15
S''
sg16
S"Hello, I'm the Mayor!"
p2754
sbag1
(g10
g3
NtRp2755
(dp2756
g13
S'PlayerSay'
p2757
sg14
S'Mayor'
p2758
sg15
S''
sg16
S"Hello, Mayor Goodman, I'm Philip Mossman."
p2759
sbag1
(g10
g3
NtRp2760
(dp2761
g13
S'Say'
p2762
sg14
S'Mayor'
p2763
sg15
S''
sg16
S"Ah yes, you're my new assistant. A good thing, too."
p2764
sbag1
(g10
g3
NtRp2765
(dp2766
g13
S'Say'
p2767
sg14
S'Mayor'
p2768
sg15
S''
sg16
S"I've been searching for minutes and haven't been able to find my pen! I bet my receptionist stole it. She has sticky fingers."
p2769
sbag1
(g10
g3
NtRp2770
(dp2771
g13
S'Say'
p2772
sg14
S'Mayor'
p2773
sg15
S''
sg16
S"Well, don't just stand there, go and get it!"
p2774
sbag1
(g10
g3
NtRp2775
(dp2776
g13
S'SetFlag'
p2777
sg14
S'Mayor'
p2778
sg15
S'PENQUEST'
p2779
sg16
S''
sbag1
(g10
g3
NtRp2780
(dp2781
g13
S'RequireItem'
p2782
sg14
S'Mayor'
p2783
sg15
S'PEN'
p2784
sg16
S'Are you simple? Go and get my pen from that thieving receptionist.'
p2785
sbag1
(g10
g3
NtRp2786
(dp2787
g13
S'Say'
p2788
sg14
S'Mayor'
p2789
sg15
S''
sg16
S"Great! I know she can give you a bit of a tongue-lashing, but she's a fantastic receptionist."
p2790
sbag1
(g10
g3
NtRp2791
(dp2792
g13
S'Say'
p2793
sg14
S'Mayor'
p2794
sg15
S''
sg16
S"I'm sure you want to learn a thing or two about politics \xe2\x80\x93 who doesn't? - so lets get started"
p2795
sbag1
(g10
g3
NtRp2796
(dp2797
g13
S'SetFlag'
p2798
sg14
S'Mayor'
p2799
sg15
S'PROTESTORS'
p2800
sg16
S''
sbag1
(g10
g3
NtRp2801
(dp2802
g13
S'RequireFlag'
p2803
sg14
S'Mayor'
p2804
sg15
S'PROTESTORSDEAD'
p2805
sg16
S'Run outside and tell those protesters to scram, will you?'
p2806
sbag1
(g10
g3
NtRp2807
(dp2808
g13
S'Say'
p2809
sg14
S'Mayor'
p2810
sg15
S''
sg16
S"Hope they didn't give you too much trouble!"
p2811
sbag1
(g10
g3
NtRp2812
(dp2813
g13
S'Say'
p2814
sg14
S'Mayor'
p2815
sg15
S''
sg16
S"Now that's sorted, there's a journalist from the local newspaper coming for an interview."
p2816
sbag1
(g10
g3
NtRp2817
(dp2818
g13
S'Say'
p2819
sg14
S'Mayor'
p2820
sg15
S''
sg16
S"I certainly don't have time for it, so you can do the interview."
p2821
sbag1
(g10
g3
NtRp2822
(dp2823
g13
S'Say'
p2824
sg14
S'Mayor'
p2825
sg15
S''
sg16
S"Be careful not to give too much away and if you could throw a few punches at the opposition that'd help."
p2826
sbag1
(g10
g3
NtRp2827
(dp2828
g13
S'PlayerSay'
p2829
sg14
S'Mayor'
p2830
sg15
S''
sg16
S'You want me to...throw a punch?'
p2831
sbag1
(g10
g3
NtRp2832
(dp2833
g13
S'Say'
p2834
sg14
S'Mayor'
p2835
sg15
S''
sg16
S"You're in politics and don't know how to fight dirty? Sheesh! Here, let me show you."
p2836
sbag1
(g10
g3
NtRp2837
(dp2838
g13
S'LearnAttack'
p2839
sg14
S'Mayor'
p2840
sg15
S'SLANDER'
p2841
sg16
S'Mayor teaches Phillip to Slander Opposition'
p2842
sbag1
(g10
g3
NtRp2843
(dp2844
g13
S'Say'
p2845
sg14
S'Mayor'
p2846
sg15
S''
sg16
S"It's a pretty great tactic because it keeps eating away at them long after you've done it."
p2847
sbag1
(g10
g3
NtRp2848
(dp2849
g13
S'SetFlag'
p2850
sg14
S'Mayor'
p2851
sg15
S'INTERVIEWSTART'
p2852
sg16
S''
sbag1
(g10
g3
NtRp2853
(dp2854
g13
S'RequireFlag'
p2855
sg14
S'Mayor'
p2856
sg15
S'JOURNALISTINTERVIEW'
p2857
sg16
S'Go handle that interview and remember to slander the opposition.'
p2858
sbag1
(g10
g3
NtRp2859
(dp2860
g13
S'SetFlag'
p2861
sg14
S'Mayor'
p2862
sg15
S'GOHOMETOWIFE'
p2863
sg16
S''
sbag1
(g10
g3
NtRp2864
(dp2865
g13
S'Say'
p2866
sg14
S'Mayor'
p2867
sg15
S''
sg16
S'OK, fine, now could you buzz off for a while? I need to get some work done.'
p2868
sbag1
(g10
g3
NtRp2869
(dp2870
g13
S'RequireFlag'
p2871
sg14
S'Mayor'
p2872
sg15
S'CONSTITUENTSWON'
p2873
sg16
S"Go home to your family. I have things to do that don't involve you."
p2874
sbag1
(g10
g3
NtRp2875
(dp2876
g13
S'Say'
p2877
sg14
S'Mayor'
p2878
sg15
S''
sg16
S"What's this I hear about you campaigning for Mayor? After everything I've taught you!"
p2879
sbag1
(g10
g3
NtRp2880
(dp2881
g13
S'PlayerSay'
p2882
sg14
S'Mayor'
p2883
sg15
S''
sg16
S"I'm sorry Mayor Goodman, but it's time for someone who's ready to make a difference for our town."
p2884
sbag1
(g10
g3
NtRp2885
(dp2886
g13
S'Say'
p2887
sg14
S'Mayor'
p2888
sg15
S''
sg16
S"You really are a fool. Do you think He's going to allow that?"
p2889
sbag1
(g10
g3
NtRp2890
(dp2891
g13
S'Encounter'
p2892
sg14
S'Mayor'
p2893
sg15
S'P-easy-10'
p2894
sg16
S''
sbag1
(g10
g3
NtRp2895
(dp2896
g13
S'Say'
p2897
sg14
S'Mayor'
p2898
sg15
S''
sg16
S"Well, you've beaten me but you don't have a clue what you're in for. I hope you're up to this kid!"
p2899
sbag1
(g10
g3
NtRp2900
(dp2901
g13
S'Destroy'
p2902
sg14
S'Mayor'
p2903
sg15
S''
sg16
S''
sbasS'StairsToL2'
p2904
(lp2905
g1
(g10
g3
NtRp2906
(dp2907
g13
S'Label'
p2908
sg14
g2904
sg15
S'START'
p2909
sg16
S''
sbag1
(g10
g3
NtRp2910
(dp2911
g13
S'GotoMap'
p2912
sg14
S'StairsToL2'
p2913
sg15
S'hotel_l2'
p2914
sg16
S''
sbag1
(g10
g3
NtRp2915
(dp2916
g13
S'Jump'
p2917
sg14
S'StairsToL2'
p2918
sg15
S'START'
p2919
sg16
S''
sbassS'attacks'
p2920
(dp2921
S'GETEXCLUSIVE'
p2922
g1
(g10
g3
NtRp2923
(dp2924
S'base_damage_max'
p2925
F-2
sS'description'
p2926
S'asdf'
p2927
sS'weight'
p2928
I1
sS'crit_chance_max'
p2929
F0
sS'crit_chance_min'
p2930
F0
sS'underlying_stat'
p2931
S'Wit'
p2932
sS'target_type'
p2933
S'AllFriendly'
p2934
sS'base_damage_min'
p2935
F-2
sS'spin_cost'
p2936
F5
sS'effects'
p2937
(lp2938
g1
(c__main__
Effect
p2939
g3
NtRp2940
(dp2941
S'function'
p2942
S'add'
p2943
sS'abbrv'
p2944
S'(INCREASE)'
p2945
sS'attribute'
p2946
S'cunning'
p2947
sS'value'
p2948
F2
sS'rounds_min'
p2949
F1
sS'rounds_max'
p2950
F4
sS'id'
p2951
S'Increase Cunning'
p2952
sS'apply_to_source'
p2953
S'TRUE'
p2954
sbasS'target_count'
p2955
I1
sS'crit_base_damage'
p2956
F0
sg2951
g2922
sS'name'
p2957
S'Get Exclusive'
p2958
sbsS'LOSELOSE'
p2959
g1
(g10
g3
NtRp2960
(dp2961
g2925
F4
sg2926
S'Causes all politicians in the target radius to lose votes'
p2962
sg2928
I1
sg2929
F0
sg2930
F0
sg2931
S'Cunning'
p2963
sg2933
S'All'
p2964
sg2935
F4
sg2936
I0
sg2937
(lp2965
sg2955
I6
sg2956
F0
sg2951
g2959
sg2957
S'Lose/lose issue'
p2966
sbsS'LIE'
p2967
g1
(g10
g3
NtRp2968
(dp2969
g2925
F11
sg2926
S"It's only lying if they catch you. A strong attack with a danger of critically failing"
p2970
sg2928
F3
sg2929
F10
sg2930
F5
sg2931
S'Cunning'
p2971
sg2933
S'AllEnemy'
p2972
sg2935
F0
sg2936
I0
sg2937
(lp2973
g1
(g2939
g3
NtRp2974
(dp2975
g2942
S'miss_turn'
p2976
sg2944
S'(MISS)'
p2977
sg2946
S''
sg2948
F0
sg2949
F1
sg2950
F1
sg2951
S'Critical Fail'
p2978
sg2953
S'TRUE'
p2979
sbasg2955
I1
sg2956
F13
sg2951
g2967
sg2957
S'Lie'
p2980
sbsS'HILARIOUSANECDOTE'
p2981
g1
(g10
g3
NtRp2982
(dp2983
g2925
F8
sg2926
S'asdf'
p2984
sg2928
I1
sg2929
F5
sg2930
F2
sg2931
S'Wit'
p2985
sg2933
S'AllFriendly'
p2986
sg2935
F4
sg2936
F5
sg2937
(lp2987
g1
(g2939
g3
NtRp2988
(dp2989
g2942
S'add'
p2990
sg2944
S'(INCREASE)'
p2991
sg2946
S'flair'
p2992
sg2948
F2
sg2949
F1
sg2950
F4
sg2951
S'Increase Flair'
p2993
sg2953
S'TRUE'
p2994
sbasg2955
I1
sg2956
F11
sg2951
g2981
sg2957
S'Hilarious Anecdote'
p2995
sbsS'SENSATIONALISE'
p2996
g1
(g10
g3
NtRp2997
(dp2998
g2925
F8
sg2926
S'asdf'
p2999
sg2928
I1
sg2929
F0
sg2930
F0
sg2931
S'Wit'
p3000
sg2933
S'AllEnemy'
p3001
sg2935
F4
sg2936
F3
sg2937
(lp3002
sg2955
I1
sg2956
F0
sg2951
g2996
sg2957
S'Sensationalise'
p3003
sbsS'DENOUNCE'
p3004
g1
(g10
g3
NtRp3005
(dp3006
g2925
F5
sg2926
S'asdf'
p3007
sg2928
F6
sg2929
F10
sg2930
F2
sg2931
S'Cunning'
p3008
sg2933
S'AllEnemy'
p3009
sg2935
F2
sg2936
I0
sg2937
(lp3010
sg2955
I1
sg2956
F8
sg2951
g3004
sg2957
S'Denounce'
p3011
sbsS'WHADOWEWANT'
p3012
g1
(g10
g3
NtRp3013
(dp3014
g2925
F5
sg2926
S'asdf'
p3015
sg2928
I1
sg2929
F0
sg2930
F0
sg2931
S'Cunning'
p3016
sg2933
S'AllEnemy'
p3017
sg2935
F2
sg2936
I0
sg2937
(lp3018
sg2955
I1
sg2956
F0
sg2951
g3012
sg2957
S'Whadowewant!'
p3019
sbsS'SCOOP'
p3020
g1
(g10
g3
NtRp3021
(dp3022
g2925
F5
sg2926
S'asdf'
p3023
sg2928
I1
sg2929
F10
sg2930
F5
sg2931
S'Cunning'
p3024
sg2933
S'AllEnemy'
p3025
sg2935
F2
sg2936
I0
sg2937
(lp3026
sg2955
I1
sg2956
F8
sg2951
g3020
sg2957
S'Scoop'
p3027
sbsS'CHOOSETARGETS'
p3028
g1
(g10
g3
NtRp3029
(dp3030
g2925
F7
sg2926
S'asdf'
p3031
sg2928
I1
sg2929
F10
sg2930
F5
sg2931
S'Cunning'
p3032
sg2933
S'AllEnemy'
p3033
sg2935
F2
sg2936
I0
sg2937
(lp3034
sg2955
I1
sg2956
F9
sg2951
g3028
sg2957
S'Choose Targets'
p3035
sbsS'FILENAILS'
p3036
g1
(g10
g3
NtRp3037
(dp3038
g2925
F0
sg2926
S'asdf'
p3039
sg2928
I1
sg2929
F0
sg2930
F0
sg2931
S'Wit'
p3040
sg2933
S'AllEnemy'
p3041
sg2935
F0
sg2936
F3
sg2937
(lp3042
g1
(g2939
g3
NtRp3043
(dp3044
g2942
S'add_permanent'
p3045
sg2944
S''
sg2946
S'votes'
p3046
sg2948
F5
sg2949
F1
sg2950
F1
sg2951
S'Votes Restore'
p3047
sg2953
S''
sbasg2955
I1
sg2956
F0
sg2951
g3036
sg2957
S'File Nails'
p3048
sbsS'BRIBE'
p3049
g1
(g10
g3
NtRp3050
(dp3051
g2925
F10
sg2926
S'Is there anything more convincing than money? Buying loyalty gets expensive so be careful.'
p3052
sg2928
I1
sg2929
F0
sg2930
F0
sg2931
S'Money'
p3053
sg2933
S'AllEnemy'
p3054
sg2935
F4
sg2936
I0
sg2937
(lp3055
sg2955
I1
sg2956
F0
sg2951
g3049
sg2957
S'Bribe'
p3056
sbsS'SING'
p3057
g1
(g10
g3
NtRp3058
(dp3059
g2925
F-3
sg2926
S'Why bandy words with politicians when you can sing a catchy tune! Restores votes.'
p3060
sg2928
I1
sg2929
F0
sg2930
F0
sg2931
S'Cunning'
p3061
sg2933
S'AllFriendly'
p3062
sg2935
F-5
sg2936
I0
sg2937
(lp3063
sg2955
I4
sg2956
F0
sg2951
g3057
sg2957
S'Rousing Song'
p3064
sbsS'FEAR'
p3065
g1
(g10
g3
NtRp3066
(dp3067
g2925
F0
sg2926
S'asdf'
p3068
sg2928
F2
sg2929
F0
sg2930
F0
sg2931
S'Wit'
p3069
sg2933
S'AllFriendly'
p3070
sg2935
F0
sg2936
F4
sg2937
(lp3071
g2940
asg2955
I1
sg2956
F0
sg2951
g3065
sg2957
S'Fear Change'
p3072
sbsS'RAISEDEFCON'
p3073
g1
(g10
g3
NtRp3074
(dp3075
g2925
F5
sg2926
S'asdf'
p3076
sg2928
I1
sg2929
F7
sg2930
F3
sg2931
S'Cunning'
p3077
sg2933
S'AllEnemy'
p3078
sg2935
F4
sg2936
I0
sg2937
(lp3079
sg2955
I1
sg2956
F8
sg2951
g3073
sg2957
S'Raise DEFCON'
p3080
sbsS'BILLBOARD'
p3081
g1
(g10
g3
NtRp3082
(dp3083
g2925
F0
sg2926
S'Run a billboard ad to restore up to 30 votes'
p3084
sg2928
I1
sg2929
F0
sg2930
F0
sg2931
S''
sg2933
S'AllFriendly'
p3085
sg2935
F0
sg2936
I0
sg2937
(lp3086
g1
(g2939
g3
NtRp3087
(dp3088
g2942
S'add_permanent'
p3089
sg2944
S''
sg2946
S'votes'
p3090
sg2948
F30
sg2949
F1
sg2950
F1
sg2951
S'Votes Restore Billboard'
p3091
sg2953
S''
sbasg2955
I1
sg2956
F0
sg2951
g3081
sg2957
S'Billboard Ad'
p3092
sbsS'NEGATTACKAD'
p3093
g1
(g10
g3
NtRp3094
(dp3095
g2925
F8
sg2926
S"Take them all down. They're definitely all bad people. Not like you."
p3096
sg2928
I1
sg2929
F10
sg2930
F10
sg2931
S'Wit'
p3097
sg2933
S'AllEnemy'
p3098
sg2935
F4
sg2936
F3
sg2937
(lp3099
sg2955
I1
sg2956
F10
sg2951
g3093
sg2957
S'Negative Attack Ad'
p3100
sbsS'DAZZLE'
p3101
g1
(g10
g3
NtRp3102
(dp3103
g2925
F6
sg2926
S'Being dazzling and admirable is a great way to take heat off politics'
p3104
sg2928
I1
sg2929
F8
sg2930
F5
sg2931
S'Wit'
p3105
sg2933
S'AllEnemy'
p3106
sg2935
F3
sg2936
F3
sg2937
(lp3107
g1
(g2939
g3
NtRp3108
(dp3109
g2942
S'reduce'
p3110
sg2944
S'(REDUCE)'
p3111
sg2946
S'cunning'
p3112
sg2948
F2
sg2949
F2
sg2950
F5
sg2951
S'Reduce Cunning'
p3113
sg2953
S''
sbasg2955
I4
sg2956
F8
sg2951
g3101
sg2957
S'Dazzle'
p3114
sbsS'BELIEVEMEDIA'
p3115
g1
(g10
g3
NtRp3116
(dp3117
g2925
F3
sg2926
S'asdf'
p3118
sg2928
I1
sg2929
F15
sg2930
F10
sg2931
S'Cunning'
p3119
sg2933
S'AllEnemy'
p3120
sg2935
F1
sg2936
I0
sg2937
(lp3121
sg2955
I1
sg2956
F12
sg2951
g3115
sg2957
S'Believe Media'
p3122
sbsS'PRPREP'
p3123
g1
(g10
g3
NtRp3124
(dp3125
g2925
F0
sg2926
S"If you're going to need some spin, best see a spin doctor! Adds spin points."
p3126
sg2928
I1
sg2929
F0
sg2930
F0
sg2931
S''
sg2933
S'AllFriendly'
p3127
sg2935
F0
sg2936
I0
sg2937
(lp3128
g1
(g2939
g3
NtRp3129
(dp3130
g2942
S'add_permanent'
p3131
sg2944
S''
sg2946
S'spin'
p3132
sg2948
F5
sg2949
F0
sg2950
F0
sg2951
S'Spin Restore'
p3133
sg2953
S'TRUE'
p3134
sbasg2955
I1
sg2956
F0
sg2951
g3123
sg2957
S'PR Prep'
p3135
sbsS'CALLVATICAN'
p3136
g1
(g10
g3
NtRp3137
(dp3138
g2925
F0
sg2926
S'Brings in 2 additional ReligousNuts at 2 levels lower than this one'
p3139
sg2928
I1
sg2929
F0
sg2930
F0
sg2931
S'Wit'
p3140
sg2933
S'None'
p3141
sg2935
F0
sg2936
F5
sg2937
(lp3142
g1
(g2939
g3
NtRp3143
(dp3144
g2942
S'call_friends'
p3145
sg2944
S''
sg2946
S'ReligiousNut001:1'
p3146
sg2948
F2
sg2949
F1
sg2950
F1
sg2951
S'Call Friends'
p3147
sg2953
S''
sbasg2955
I1
sg2956
F0
sg2951
g3136
sg2957
S'Call Battycan'
p3148
sbsS'BLACKMAIL'
p3149
g1
(g10
g3
NtRp3150
(dp3151
g2925
F6
sg2926
S'asdf'
p3152
sg2928
I1
sg2929
F10
sg2930
F2
sg2931
S'Wit'
p3153
sg2933
S'AllEnemy'
p3154
sg2935
F3
sg2936
F4
sg2937
(lp3155
g1
(g2939
g3
NtRp3156
(dp3157
g2942
S'drain'
p3158
sg2944
S'(DRAIN)'
p3159
sg2946
S'votes'
p3160
sg2948
F1
sg2949
F2
sg2950
F5
sg2951
S'Drain Votes'
p3161
sg2953
S''
sbasg2955
I1
sg2956
F2
sg2951
g3149
sg2957
S'Blackmail'
p3162
sbsS'SCARE'
p3163
g1
(g10
g3
NtRp3164
(dp3165
g2925
F7
sg2926
S'Nothing rattles the brains like fear.'
p3166
sg2928
I1
sg2929
F10
sg2930
F2
sg2931
S'Cunning'
p3167
sg2933
S'AllEnemy'
p3168
sg2935
F2
sg2936
I0
sg2937
(lp3169
g3108
asg2955
I2
sg2956
F9
sg2951
g3163
sg2957
S'Scare Campaign'
p3170
sbsS'PROTEST'
p3171
g1
(g10
g3
NtRp3172
(dp3173
g2925
F5
sg2926
S'asdf'
p3174
sg2928
F6
sg2929
F10
sg2930
F2
sg2931
S'Cunning'
p3175
sg2933
S'AllEnemy'
p3176
sg2935
F2
sg2936
I0
sg2937
(lp3177
sg2955
I1
sg2956
F8
sg2951
g3171
sg2957
S'Protest'
p3178
sbsS'SPREADRUMOUR'
p3179
g1
(g10
g3
NtRp3180
(dp3181
g2925
F8
sg2926
S'asdf'
p3182
sg2928
I1
sg2929
F10
sg2930
F2
sg2931
S'Wit'
p3183
sg2933
S'AllEnemy'
p3184
sg2935
F3
sg2936
F3
sg2937
(lp3185
sg2955
I4
sg2956
F10
sg2951
g3179
sg2957
S'Spread Rumour'
p3186
sbsS'AGENDA'
p3187
g1
(g10
g3
NtRp3188
(dp3189
g2925
F5
sg2926
S'asdf'
p3190
sg2928
F6
sg2929
F10
sg2930
F2
sg2931
S'Cunning'
p3191
sg2933
S'AllEnemy'
p3192
sg2935
F2
sg2936
I0
sg2937
(lp3193
sg2955
I1
sg2956
F8
sg2951
g3187
sg2957
S'Push Agenda'
p3194
sbsS'FILIBUSTER'
p3195
g1
(g10
g3
NtRp3196
(dp3197
g2925
F6
sg2926
S"You're not moving until they give in. Cause all opposition to miss their turn"
p3198
sg2928
I1
sg2929
F0
sg2930
F0
sg2931
S'Wit'
p3199
sg2933
S'AllEnemy'
p3200
sg2935
F3
sg2936
F8
sg2937
(lp3201
g1
(g2939
g3
NtRp3202
(dp3203
g2942
S'miss_turn'
p3204
sg2944
S'(MISS)'
p3205
sg2946
S''
sg2948
F0
sg2949
F1
sg2950
F1
sg2951
S'Miss Turn'
p3206
sg2953
S''
sbasg2955
I1
sg2956
F0
sg2951
g3195
sg2957
S'Filibuster'
p3207
sbsS'GATHERINTEL'
p3208
g1
(g10
g3
NtRp3209
(dp3210
g2925
F0
sg2926
S'Increases Cunning.'
p3211
sg2928
I1
sg2929
F0
sg2930
F0
sg2931
S'Wit'
p3212
sg2933
S'AllFriendly'
p3213
sg2935
F0
sg2936
F3
sg2937
(lp3214
g2940
asg2955
I2
sg2956
F0
sg2951
g3208
sg2957
S'Gather Intelligence'
p3215
sbsS'LOVE'
p3216
g1
(g10
g3
NtRp3217
(dp3218
g2925
F6
sg2926
S'asdf'
p3219
sg2928
F2
sg2929
F8
sg2930
F2
sg2931
S'Cunning'
p3220
sg2933
S'AllEnemy'
p3221
sg2935
F1
sg2936
I0
sg2937
(lp3222
sg2955
I1
sg2956
F7
sg2951
g3216
sg2957
S'Love'
p3223
sbsS'OUTOFCONTEXT'
p3224
g1
(g10
g3
NtRp3225
(dp3226
g2925
F5
sg2926
S'asdf'
p3227
sg2928
I1
sg2929
F5
sg2930
F2
sg2931
S'Wit'
p3228
sg2933
S'AllEnemy'
p3229
sg2935
F3
sg2936
F2
sg2937
(lp3230
g3156
asg2955
I1
sg2956
F5
sg2951
g3224
sg2957
S'Take Out Of Context'
p3231
sbsS'GREATSUIT'
p3232
g1
(g10
g3
NtRp3233
(dp3234
g2925
F6
sg2926
S'Well, we could argue, but have you noticed how fabulous this suit is?'
p3235
sg2928
I1
sg2929
F11
sg2930
F6
sg2931
S'Cunning'
p3236
sg2933
S'AllEnemy'
p3237
sg2935
F3
sg2936
I0
sg2937
(lp3238
sg2955
I1
sg2956
F10
sg2951
g3232
sg2957
S'Look Great In Suit'
p3239
sbsS'PEACE'
p3240
g1
(g10
g3
NtRp3241
(dp3242
g2925
F0
sg2926
S'asdf'
p3243
sg2928
I1
sg2929
F0
sg2930
F0
sg2931
S'Wit'
p3244
sg2933
S'AllEnemy'
p3245
sg2935
F0
sg2936
F3
sg2937
(lp3246
g3108
asg2955
I4
sg2956
F0
sg2951
g3240
sg2957
S'Peace'
p3247
sbsS'INSPSPEECH'
p3248
g1
(g10
g3
NtRp3249
(dp3250
g2925
F-2
sg2926
S'Restore votes to all party members'
p3251
sg2928
I1
sg2929
F0
sg2930
F0
sg2931
S'Cunning'
p3252
sg2933
S'AllFriendly'
p3253
sg2935
F-2
sg2936
I0
sg2937
(lp3254
sg2955
I4
sg2956
F0
sg2951
g3248
sg2957
S'Inspirational Speech'
p3255
sbsS'RALLYENEMY'
p3256
g1
(g10
g3
NtRp3257
(dp3258
g2925
F0
sg2926
S'Get back some votes by rallying supporters'
p3259
sg2928
I1
sg2929
F0
sg2930
F0
sg2931
S'Wit'
p3260
sg2933
S'AllFriendly'
p3261
sg2935
F0
sg2936
F3
sg2937
(lp3262
g1
(g2939
g3
NtRp3263
(dp3264
g2942
S'add_permanent'
p3265
sg2944
S''
sg2946
S'votes'
p3266
sg2948
F8
sg2949
F1
sg2950
F1
sg2951
S'Votes Restore Rally Enemy'
p3267
sg2953
S''
sbasg2955
I1
sg2956
F0
sg2951
g3256
sg2957
S'Rally Constituents'
p3268
sbsS'STRIKE'
p3269
g1
(g10
g3
NtRp3270
(dp3271
g2925
F10
sg2926
S'asdf'
p3272
sg2928
I1
sg2929
F0
sg2930
F0
sg2931
S'Wit'
p3273
sg2933
S'AllEnemy'
p3274
sg2935
F0
sg2936
F3
sg2937
(lp3275
g2974
asg2955
I1
sg2956
F0
sg2951
g3269
sg2957
S'Call A Strike'
p3276
sbsS'SLANDER'
p3277
g1
(g10
g3
NtRp3278
(dp3279
g2925
F5
sg2926
S'Strong against polititians...careful with those voters, though!'
p3280
sg2928
F4
sg2929
F10
sg2930
F2
sg2931
S'Cunning'
p3281
sg2933
S'AllEnemy'
p3282
sg2935
F3
sg2936
I0
sg2937
(lp3283
g3156
asg2955
I1
sg2956
F7
sg2951
g3277
sg2957
S'Slander Opposition'
p3284
sbsS'NATTER'
p3285
g1
(g10
g3
NtRp3286
(dp3287
g2925
F8
sg2926
S'asdf'
p3288
sg2928
I1
sg2929
F15
sg2930
F5
sg2931
S'Cunning'
p3289
sg2933
S'AllEnemy'
p3290
sg2935
F1
sg2936
I0
sg2937
(lp3291
sg2955
I1
sg2956
F10
sg2951
g3285
sg2957
S'Natter On'
p3292
sbsS'GOSSIP'
p3293
g1
(g10
g3
NtRp3294
(dp3295
g2925
F3
sg2926
S'asdf'
p3296
sg2928
I1
sg2929
F10
sg2930
F2
sg2931
S'Wit'
p3297
sg2933
S'AllEnemy'
p3298
sg2935
F2
sg2936
F2
sg2937
(lp3299
g3108
asg2955
I1
sg2956
F6
sg2951
g3293
sg2957
S'Gossip'
p3300
sbsS'MISSTURN'
p3301
g1
(g10
g3
NtRp3302
(dp3303
g2925
F0
sg2926
S'asdf'
p3304
sg2928
I1
sg2929
F0
sg2930
F0
sg2931
S''
sg2933
S'AllEnemy'
p3305
sg2935
F0
sg2936
I0
sg2937
(lp3306
sg2955
I1
sg2956
F0
sg2951
g3301
sg2957
S'Miss Turn'
p3307
sbsS'BIELECTION'
p3308
g1
(g10
g3
NtRp3309
(dp3310
g2925
F4
sg2926
S'Redistribute votes amongst targets'
p3311
sg2928
I1
sg2929
F0
sg2930
F0
sg2931
S'Wit'
p3312
sg2933
S'All'
p3313
sg2935
F-4
sg2936
F4
sg2937
(lp3314
sg2955
I8
sg2956
F0
sg2951
g3308
sg2957
S'Bielection'
p3315
sbsS'RUNAD'
p3316
g1
(g10
g3
NtRp3317
(dp3318
g2925
F0
sg2926
S'Gets back up to 15 votes by running an ad'
p3319
sg2928
I1
sg2929
F0
sg2930
F0
sg2931
S''
sg2933
S'AllFriendly'
p3320
sg2935
F0
sg2936
I0
sg2937
(lp3321
g1
(g2939
g3
NtRp3322
(dp3323
g2942
S'add_permanent'
p3324
sg2944
S''
sg2946
S'votes'
p3325
sg2948
F15
sg2949
F1
sg2950
F1
sg2951
S'Votes Restore Ad'
p3326
sg2953
S''
sbasg2955
I1
sg2956
F0
sg2951
g3316
sg2957
S'Run Advertisement'
p3327
sbsS'PAYOFF'
p3328
g1
(g10
g3
NtRp3329
(dp3330
g2925
F8
sg2926
S'causes them to miss a number of turns'
p3331
sg2928
I1
sg2929
F8
sg2930
F2
sg2931
S'Wit'
p3332
sg2933
S'AllEnemy'
p3333
sg2935
F4
sg2936
F4
sg2937
(lp3334
g1
(g2939
g3
NtRp3335
(dp3336
g2942
S'miss_turn'
p3337
sg2944
S'(MISS)'
p3338
sg2946
S''
sg2948
F0
sg2949
F1
sg2950
F3
sg2951
S'Miss Turn Pay Off'
p3339
sg2953
S''
sbasg2955
I1
sg2956
F10
sg2951
g3328
sg2957
S'Pay Off'
p3340
sbsS'BUREAUCRACY'
p3341
g1
(g10
g3
NtRp3342
(dp3343
g2925
F5
sg2926
S'asdf'
p3344
sg2928
F6
sg2929
F10
sg2930
F2
sg2931
S'Cunning'
p3345
sg2933
S'AllEnemy'
p3346
sg2935
F2
sg2936
I0
sg2937
(lp3347
sg2955
I1
sg2956
F8
sg2951
g3341
sg2957
S'Bureaucracy'
p3348
sbsS'RALLYAUDIENCE'
p3349
g1
(g10
g3
NtRp3350
(dp3351
g2925
F8
sg2926
S'asdf'
p3352
sg2928
I1
sg2929
F0
sg2930
F0
sg2931
S'Wit'
p3353
sg2933
S'AllFriendly'
p3354
sg2935
F4
sg2936
F3
sg2937
(lp3355
g1
(g2939
g3
NtRp3356
(dp3357
g2942
S'add'
p3358
sg2944
S'(INCREASE)'
p3359
sg2946
S'charisma'
p3360
sg2948
F2
sg2949
F1
sg2950
F4
sg2951
S'Increase Charisma'
p3361
sg2953
S'TRUE'
p3362
sbasg2955
I1
sg2956
F0
sg2951
g3349
sg2957
S'Rally Audience'
p3363
sbsS'PORKBARREL'
p3364
g1
(g10
g3
NtRp3365
(dp3366
g2925
F8
sg2926
S'Do something that benefits them specifically. Not advised against politicians.'
p3367
sg2928
I1
sg2929
F0
sg2930
F0
sg2931
S'Wit'
p3368
sg2933
S'AllEnemy'
p3369
sg2935
F4
sg2936
F2
sg2937
(lp3370
sg2955
I1
sg2956
F0
sg2951
g3364
sg2957
S'Pork Barrel'
p3371
sbsS'INSPIRE'
p3372
g1
(g10
g3
NtRp3373
(dp3374
g2925
F0
sg2926
S'asdf'
p3375
sg2928
I1
sg2929
F0
sg2930
F0
sg2931
S'Wit'
p3376
sg2933
S'AllFriendly'
p3377
sg2935
F0
sg2936
F3
sg2937
(lp3378
g2940
asg2955
I4
sg2956
F0
sg2951
g3372
sg2957
S'Inspire'
p3379
sbsS'JOKE'
p3380
g1
(g10
g3
NtRp3381
(dp3382
g2925
F5
sg2926
S"Ha, ha, ha...what were we talking about? Diffuse the situation with some humour. High chance of critical hit. Knock 'em dead!"
p3383
sg2928
F3
sg2929
F20
sg2930
F15
sg2931
S'Cunning'
p3384
sg2933
S'AllEnemy'
p3385
sg2935
F2
sg2936
I0
sg2937
(lp3386
sg2955
I1
sg2956
F12
sg2951
g3380
sg2957
S'Joke'
p3387
sbsS'PRAYFORSOULS'
p3388
g1
(g10
g3
NtRp3389
(dp3390
g2925
F6
sg2926
S'asdf'
p3391
sg2928
F2
sg2929
F10
sg2930
F2
sg2931
S'Cunning'
p3392
sg2933
S'None'
p3393
sg2935
F3
sg2936
I0
sg2937
(lp3394
sg2955
I1
sg2956
F10
sg2951
g3388
sg2957
S'Pray'
p3395
sbsS'REVIVE'
p3396
g1
(g10
g3
NtRp3397
(dp3398
g2925
F0
sg2926
S'Revive a defeated comrade to half votes'
p3399
sg2928
I1
sg2929
F0
sg2930
F0
sg2931
S''
sg2933
S'DeadFriendly'
p3400
sg2935
F0
sg2936
F5
sg2937
(lp3401
g1
(g2939
g3
NtRp3402
(dp3403
g2942
S'revive'
p3404
sg2944
S''
sg2946
S''
sg2948
F0.5
sg2949
F0
sg2950
F0
sg2951
S'Revive'
p3405
sg2953
S''
sbasg2955
I1
sg2956
F0
sg2951
g3396
sg2957
S'Revive'
p3406
sbsS'HUMANSHIELD'
p3407
g1
(g10
g3
NtRp3408
(dp3409
g2925
F8
sg2926
S'No further questions. Step back, please.'
p3410
sg2928
I1
sg2929
F5
sg2930
F2
sg2931
S'Wit'
p3411
sg2933
S'AllEnemy'
p3412
sg2935
F4
sg2936
F4
sg2937
(lp3413
g3202
asg2955
I2
sg2956
F11
sg2951
g3407
sg2957
S'Human Shield'
p3414
sbsS'MAKEDEMANDS'
p3415
g1
(g10
g3
NtRp3416
(dp3417
g2925
F8
sg2926
S'asdf'
p3418
sg2928
I1
sg2929
F0
sg2930
F0
sg2931
S'Cunning'
p3419
sg2933
S'AllEnemy'
p3420
sg2935
F0
sg2936
I0
sg2937
(lp3421
g2974
asg2955
I1
sg2956
F0
sg2951
g3415
sg2957
S'Make Outrageous Demands'
p3422
sbsS'DEFENSE'
p3423
g1
(g10
g3
NtRp3424
(dp3425
g2925
F0
sg2926
S'Gather strenth; -50% to all incoming attacks'
p3426
sg2928
I1
sg2929
F0
sg2930
F0
sg2931
S''
sg2933
S'None'
p3427
sg2935
F0
sg2936
I0
sg2937
(lp3428
g1
(g2939
g3
NtRp3429
(dp3430
g2942
S'add'
p3431
sg2944
S'(DFND)'
p3432
sg2946
S'resistance'
p3433
sg2948
F0.5
sg2949
F1
sg2950
F1
sg2951
S'Defense'
p3434
sg2953
S'TRUE'
p3435
sbasg2955
I1
sg2956
F0
sg2951
g3423
sg2957
S'Defense'
p3436
sbsS'MISCONSTRUE'
p3437
g1
(g10
g3
NtRp3438
(dp3439
g2925
F8
sg2926
S'asdf'
p3440
sg2928
I1
sg2929
F0
sg2930
F0
sg2931
S'Cunning'
p3441
sg2933
S'AllEnemy'
p3442
sg2935
F0
sg2936
I0
sg2937
(lp3443
g2974
asg2955
I1
sg2956
F0
sg2951
g3437
sg2957
S'Misconstrue'
p3444
sbsS'NATIONALSECURITY'
p3445
g1
(g10
g3
NtRp3446
(dp3447
g2925
F7
sg2926
S"This is a matter of national security and they don't have codeword clearance"
p3448
sg2928
I1
sg2929
F10
sg2930
F2
sg2931
S'Cunning'
p3449
sg2933
S'AllEnemy'
p3450
sg2935
F2
sg2936
I0
sg2937
(lp3451
sg2955
I1
sg2956
F9
sg2951
g3445
sg2957
S'National Security'
p3452
sbsS'RALLY'
p3453
g1
(g10
g3
NtRp3454
(dp3455
g2925
F0
sg2926
S'Get back some votes by rallying supporters'
p3456
sg2928
I1
sg2929
F0
sg2930
F0
sg2931
S'Wit'
p3457
sg2933
S'AllFriendly'
p3458
sg2935
F0
sg2936
F3
sg2937
(lp3459
g1
(g2939
g3
NtRp3460
(dp3461
g2942
S'add_permanent'
p3462
sg2944
S''
sg2946
S'votes'
p3463
sg2948
F20
sg2949
F1
sg2950
F1
sg2951
S'Votes Restore Rally'
p3464
sg2953
S''
sbasg2955
I1
sg2956
F0
sg2951
g3453
sg2957
S'Rally Constituents'
p3465
sbsS'MESSAGE'
p3466
g1
(g10
g3
NtRp3467
(dp3468
g2925
F6
sg2926
S'You can certainly wear them down by repeating your party line over and over and over...if you want'
p3469
sg2928
F6
sg2929
F10
sg2930
F5
sg2931
S'Cunning'
p3470
sg2933
S'AllEnemy'
p3471
sg2935
F3
sg2936
I0
sg2937
(lp3472
sg2955
I1
sg2956
F10
sg2951
g3466
sg2957
S'Stay On Message'
p3473
sbsS'APPEALTOGOD'
p3474
g1
(g10
g3
NtRp3475
(dp3476
g2925
F10
sg2926
S'asdf'
p3477
sg2928
F3
sg2929
F5
sg2930
F2
sg2931
S'Wit'
p3478
sg2933
S'AllEnemy'
p3479
sg2935
F4
sg2936
F7
sg2937
(lp3480
sg2955
I4
sg2956
F13
sg2951
g3474
sg2957
S'Appeal To God'
p3481
sbssS'levels'
p3482
(lp3483
g1
(g10
g3
NtRp3484
(dp3485
S'votes'
p3486
F20
sS'level'
p3487
F1
sS'spin'
p3488
F5
sS'xp'
p3489
F0
sS'skill_points'
p3490
F0
sbag1
(g10
g3
NtRp3491
(dp3492
g3486
F12
sg3487
F2
sg3488
F5
sg3489
F100
sg3490
F2
sbag1
(g10
g3
NtRp3493
(dp3494
g3486
F15
sg3487
F3
sg3488
F6
sg3489
F200
sg3490
F2
sbag1
(g10
g3
NtRp3495
(dp3496
g3486
F20
sg3487
F4
sg3488
F6
sg3489
F500
sg3490
F2
sbag1
(g10
g3
NtRp3497
(dp3498
g3486
F25
sg3487
F5
sg3488
F7
sg3489
F1000
sg3490
F2
sbag1
(g10
g3
NtRp3499
(dp3500
g3486
F30
sg3487
F6
sg3488
F7
sg3489
F2000
sg3490
F2
sbag1
(g10
g3
NtRp3501
(dp3502
g3486
F35
sg3487
F7
sg3488
F8
sg3489
F5000
sg3490
F2
sbag1
(g10
g3
NtRp3503
(dp3504
g3486
F40
sg3487
F8
sg3488
F8
sg3489
F10000
sg3490
F2
sbag1
(g10
g3
NtRp3505
(dp3506
g3486
F45
sg3487
F9
sg3488
F9
sg3489
F15000
sg3490
F2
sbag1
(g10
g3
NtRp3507
(dp3508
g3486
F50
sg3487
F10
sg3488
F9
sg3489
F20000
sg3490
F2
sbag1
(g10
g3
NtRp3509
(dp3510
g3486
F55
sg3487
F11
sg3488
F10
sg3489
F40000
sg3490
F2
sbag1
(g10
g3
NtRp3511
(dp3512
g3486
S''
sg3487
F12
sg3488
S''
sg3489
S''
sg3490
S''
sbag1
(g10
g3
NtRp3513
(dp3514
g3486
S''
sg3487
F13
sg3488
S''
sg3489
S''
sg3490
S''
sbag1
(g10
g3
NtRp3515
(dp3516
g3486
S''
sg3487
F14
sg3488
S''
sg3489
S''
sg3490
S''
sbag1
(g10
g3
NtRp3517
(dp3518
g3486
S''
sg3487
F15
sg3488
S''
sg3489
S''
sg3490
S''
sbag1
(g10
g3
NtRp3519
(dp3520
g3486
S''
sg3487
F16
sg3488
S''
sg3489
S''
sg3490
S''
sbag1
(g10
g3
NtRp3521
(dp3522
g3486
S''
sg3487
F17
sg3488
S''
sg3489
S''
sg3490
S''
sbag1
(g10
g3
NtRp3523
(dp3524
g3486
S''
sg3487
F18
sg3488
S''
sg3489
S''
sg3490
S''
sbag1
(g10
g3
NtRp3525
(dp3526
g3486
S''
sg3487
F19
sg3488
S''
sg3489
S''
sg3490
S''
sbag1
(g10
g3
NtRp3527
(dp3528
g3486
S''
sg3487
F20
sg3488
S''
sg3489
S''
sg3490
S''
sbag1
(g10
g3
NtRp3529
(dp3530
g3486
S''
sg3487
F21
sg3488
S''
sg3489
S''
sg3490
S''
sbag1
(g10
g3
NtRp3531
(dp3532
g3486
S''
sg3487
F22
sg3488
S''
sg3489
S''
sg3490
S''
sbag1
(g10
g3
NtRp3533
(dp3534
g3486
S''
sg3487
F23
sg3488
S''
sg3489
S''
sg3490
S''
sbag1
(g10
g3
NtRp3535
(dp3536
g3486
S''
sg3487
F24
sg3488
S''
sg3489
S''
sg3490
S''
sbag1
(g10
g3
NtRp3537
(dp3538
g3486
S''
sg3487
F25
sg3488
S''
sg3489
S''
sg3490
S''
sbag1
(g10
g3
NtRp3539
(dp3540
g3486
S''
sg3487
F26
sg3488
S''
sg3489
S''
sg3490
S''
sbag1
(g10
g3
NtRp3541
(dp3542
g3486
S''
sg3487
F27
sg3488
S''
sg3489
S''
sg3490
S''
sbag1
(g10
g3
NtRp3543
(dp3544
g3486
S''
sg3487
F28
sg3488
S''
sg3489
S''
sg3490
S''
sbag1
(g10
g3
NtRp3545
(dp3546
g3486
S''
sg3487
F29
sg3488
S''
sg3489
S''
sg3490
S''
sbasg2937
(dp3547
g2952
g2940
sg3047
g3043
sg3133
g3129
sg3361
g3356
sg3206
g3202
sg3147
g3143
sg3326
g3322
sg3339
g3335
sg3267
g3263
sg3091
g3087
sg3405
g3402
sg3113
g3108
sg3161
g3156
sg3434
g3429
sg2978
g2974
sg2993
g2988
sg3464
g3460
ssS'characters'
p3548
(dp3549
S'Teacher001'
p3550
(lp3551
g1
(g10
g3
NtRp3552
(dp3553
S'flair_base'
p3554
F1
sS'spin_base'
p3555
F4
sS'flair_lvl'
p3556
F1.1499999999999999
sS'wit_base'
p3557
F1
sS'resistance'
p3558
(lp3559
sS'wit_lvl'
p3560
F1.0900000000000001
sS'cunning_base'
p3561
F1
sg2951
g3550
sS'votes_base'
p3562
F10
sS'speed_lvl'
p3563
F1.0800000000000001
sS'standard_attacks'
p3564
(lp3565
g3424
ag3172
asS'cunning_lvl'
p3566
F1.1000000000000001
sS'charisma_lvl'
p3567
F1.1499999999999999
sS'spin_attacks'
p3568
(lp3569
g3270
ag3257
asS'spin_lvl'
p3570
F1.0800000000000001
sS'charisma_base'
p3571
F1
sS'weaknesses'
p3572
(lp3573
sS'attack_group'
p3574
S'Teacher'
p3575
sS'votes_lvl'
p3576
F1.2
sg2957
S'Teacher'
p3577
sS'speed_base'
p3578
F1
sS'immunities'
p3579
(lp3580
sbasS'Politician001'
p3581
(lp3582
g1
(g10
g3
NtRp3583
(dp3584
g3554
F1
sg3555
F4
sg3556
F1.1499999999999999
sg3557
F1
sg3558
(lp3585
g2968
asg3560
F1.0900000000000001
sg3561
F1
sg2951
g3581
sg3562
F10
sg3563
F1.0800000000000001
sg3564
(lp3586
g3467
ag3278
ag2968
ag3381
ag3424
asg3566
F1.1000000000000001
sg3567
F1.1499999999999999
sg3568
(lp3587
g3309
ag3094
ag3397
asg3570
F1.0800000000000001
sg3571
F1
sg3572
(lp3588
g3050
asg3574
S'Politician'
p3589
sg3576
F1.2
sg2957
S'Politician'
p3590
sg3578
F1
sg3579
(lp3591
g3365
asbasS'SecretAgent'
p3592
(lp3593
g1
(g10
g3
NtRp3594
(dp3595
g3554
F1
sg3555
F4
sg3556
F1.1499999999999999
sg3557
F1
sg3558
(lp3596
sg3560
F1
sg3561
F1
sg2951
g3592
sg3562
F18
sg3563
F1
sg3564
(lp3597
g3446
ag3233
asg3566
F1
sg3567
F1
sg3568
(lp3598
g3408
ag3209
asg3570
F1
sg3571
F1
sg3572
(lp3599
sg3574
S'SecretAgent'
p3600
sg3576
F1.2
sg2957
S'Agent Kawalski'
p3601
sg3578
F1
sg3579
(lp3602
sbasS'Bumpkin001'
p3603
(lp3604
g1
(g10
g3
NtRp3605
(dp3606
g3554
F1
sg3555
F4
sg3556
F1.1499999999999999
sg3557
F1
sg3558
(lp3607
sg3560
F1.0900000000000001
sg3561
F1
sg2951
g3603
sg3562
F10
sg3563
F1.0800000000000001
sg3564
(lp3608
g3381
ag3116
asg3566
F1.1000000000000001
sg3567
F1.1499999999999999
sg3568
(lp3609
g3066
ag3180
asg3570
F1.0800000000000001
sg3571
F1
sg3572
(lp3610
g2968
ag3278
ag3164
asg3574
S'Bumpkin'
p3611
sg3576
F1.2
sg2957
S'Bumpkin'
p3612
sg3578
F1
sg3579
(lp3613
sbasS'WarVet001'
p3614
(lp3615
g1
(g10
g3
NtRp3616
(dp3617
g3554
F1
sg3555
F4
sg3556
F1.1499999999999999
sg3557
F1
sg3558
(lp3618
sg3560
F1.0900000000000001
sg3561
F1
sg2951
g3614
sg3562
F10
sg3563
F1.0800000000000001
sg3564
(lp3619
g3416
ag3424
asg3566
F1.1000000000000001
sg3567
F1.1499999999999999
sg3568
(lp3620
g3373
ag3257
asg3570
F1.0800000000000001
sg3571
F1
sg3572
(lp3621
sg3574
S'WarVet'
p3622
sg3576
F1.2
sg2957
S'War Veteran'
p3623
sg3578
F1
sg3579
(lp3624
sbasS'Receptionist001'
p3625
(lp3626
g1
(g10
g3
NtRp3627
(dp3628
g3554
F1
sg3555
F4
sg3556
F1.1499999999999999
sg3557
F1
sg3558
(lp3629
sg3560
F1.0900000000000001
sg3561
F1
sg2951
g3625
sg3562
F8
sg3563
F1.0800000000000001
sg3564
(lp3630
g3342
ag3286
asg3566
F1.1000000000000001
sg3567
F1.1499999999999999
sg3568
(lp3631
g3294
ag3037
asg3570
F1.0800000000000001
sg3571
F0
sg3572
(lp3632
sg3574
S'Receptionist'
p3633
sg3576
F1.2
sg2957
S'Receptionist'
p3634
sg3578
F1
sg3579
(lp3635
sbasS'DeepThroat'
p3636
(lp3637
g1
(g10
g3
NtRp3638
(dp3639
g3554
F1
sg3555
F4
sg3556
F1.1499999999999999
sg3557
F1
sg3558
(lp3640
sg3560
F1.0900000000000001
sg3561
F1
sg2951
g3636
sg3562
F10
sg3563
F1.0800000000000001
sg3564
(lp3641
g3278
ag3424
ag3416
asg3566
F1.1000000000000001
sg3567
F1.1499999999999999
sg3568
(lp3642
g3150
asg3570
F1.0800000000000001
sg3571
F1
sg3572
(lp3643
sg3574
S'DeepThroat'
p3644
sg3576
F1.2
sg2957
S'Mr Er...?'
p3645
sg3578
F1
sg3579
(lp3646
sbasS'Leo'
p3647
(lp3648
g1
(g10
g3
NtRp3649
(dp3650
g3554
F1
sg3555
F4
sg3556
F1.1499999999999999
sg3557
F1
sg3558
(lp3651
sg3560
F1
sg3561
F1
sg2951
g3647
sg3562
F14
sg3563
F1
sg3564
(lp3652
g3467
ag3278
ag2968
ag3381
ag3050
asg3566
F1
sg3567
F1
sg3568
(lp3653
g3309
ag3094
ag3365
ag3196
asg3570
F1
sg3571
F1
sg3572
(lp3654
sg3574
S'Theo'
p3655
sg3576
F1.2
sg2957
S'Theo'
p3656
sg3578
F1
sg3579
(lp3657
sbasS'HippyGirl001'
p3658
(lp3659
g1
(g10
g3
NtRp3660
(dp3661
g3554
F1
sg3555
F4
sg3556
F1.1499999999999999
sg3557
F1
sg3558
(lp3662
sg3560
F1.0900000000000001
sg3561
F1
sg2951
g3658
sg3562
F10
sg3563
F1.0800000000000001
sg3564
(lp3663
g3058
ag3172
ag3217
asg3566
F1.1000000000000001
sg3567
F1.1499999999999999
sg3568
(lp3664
g3241
ag3257
ag3397
asg3570
F1.0800000000000001
sg3571
F1
sg3572
(lp3665
g3381
asg3574
S'Hippy'
p3666
sg3576
F1.2
sg2957
S'Hippy Girl'
p3667
sg3578
F1
sg3579
(lp3668
sbasS'President'
p3669
(lp3670
g1
(g10
g3
NtRp3671
(dp3672
g3554
F1
sg3555
F4
sg3556
F1.1499999999999999
sg3557
F1
sg3558
(lp3673
sg3560
F1.0900000000000001
sg3561
F1
sg2951
g3669
sg3562
F10
sg3563
F1.0800000000000001
sg3564
(lp3674
g3467
ag3278
ag2968
ag3381
ag3424
asg3566
F1.1000000000000001
sg3567
F1.1499999999999999
sg3568
(lp3675
g3309
ag3094
ag3397
asg3570
F1.0800000000000001
sg3571
F1
sg3572
(lp3676
sg3574
S'Politician'
p3677
sg3576
F1.2
sg2957
S'President Allen'
p3678
sg3578
F1
sg3579
(lp3679
sbasS'Unionist001'
p3680
(lp3681
g1
(g10
g3
NtRp3682
(dp3683
g3554
F1
sg3555
F4
sg3556
F1.1499999999999999
sg3557
F1
sg3558
(lp3684
sg3560
F1.0900000000000001
sg3561
F1
sg2951
g3680
sg3562
F10
sg3563
F1.0800000000000001
sg3564
(lp3685
g3416
ag3424
ag3172
asg3566
F1.1000000000000001
sg3567
F1.1499999999999999
sg3568
(lp3686
g3270
asg3570
F1.0800000000000001
sg3571
F1
sg3572
(lp3687
sg3574
S'Unionist'
p3688
sg3576
F1.2
sg2957
S'Unionist'
p3689
sg3578
F1
sg3579
(lp3690
sbasS'Wife'
p3691
(lp3692
g1
(g10
g3
NtRp3693
(dp3694
g3554
F1
sg3555
F4
sg3556
F1.1499999999999999
sg3557
F3
sg3558
(lp3695
sg3560
F1
sg3561
F2
sg2951
g3691
sg3562
F12
sg3563
F1
sg3564
(lp3696
g3467
ag2968
ag3381
asg3566
F1
sg3567
F1
sg3568
(lp3697
g3454
ag3397
ag3102
asg3570
F1
sg3571
F1
sg3572
(lp3698
sg3574
S'Wife'
p3699
sg3576
F1.2
sg2957
S'Sarah Mossman'
p3700
sg3578
F3
sg3579
(lp3701
sbasS'PresidentAlien'
p3702
(lp3703
g1
(g10
g3
NtRp3704
(dp3705
g3554
F1
sg3555
F4
sg3556
F1.1499999999999999
sg3557
F1
sg3558
(lp3706
sg3560
F1.0900000000000001
sg3561
F1
sg2951
g3702
sg3562
F10
sg3563
F1.0800000000000001
sg3564
(lp3707
g3467
ag3278
ag2968
ag3381
ag3424
asg3566
F1.1000000000000001
sg3567
F1.1499999999999999
sg3568
(lp3708
g3309
ag3094
ag3397
asg3570
F1.0800000000000001
sg3571
F1
sg3572
(lp3709
sg3574
S'Politician'
p3710
sg3576
F1.2
sg2957
S'President Alien'
p3711
sg3578
F1
sg3579
(lp3712
sbasS'Governor'
p3713
(lp3714
g1
(g10
g3
NtRp3715
(dp3716
g3554
F1
sg3555
F4
sg3556
F1.1499999999999999
sg3557
F1
sg3558
(lp3717
sg3560
F1.0900000000000001
sg3561
F1
sg2951
g3713
sg3562
F10
sg3563
F1.0800000000000001
sg3564
(lp3718
g3467
ag3278
ag2968
ag3381
ag3424
asg3566
F1.1000000000000001
sg3567
F1.1499999999999999
sg3568
(lp3719
g3309
ag3094
ag3397
asg3570
F1.0800000000000001
sg3571
F1
sg3572
(lp3720
sg3574
S'Politician'
p3721
sg3576
F1.2
sg2957
g3713
sg3578
F1
sg3579
(lp3722
sbasS'Lobbyist001'
p3723
(lp3724
g1
(g10
g3
NtRp3725
(dp3726
g3554
F1
sg3555
F4
sg3556
F1.1499999999999999
sg3557
F1
sg3558
(lp3727
sg3560
F1.0900000000000001
sg3561
F1
sg2951
g3723
sg3562
F10
sg3563
F1.0800000000000001
sg3564
(lp3728
g3188
ag3416
asg3566
F1.1000000000000001
sg3567
F1.1499999999999999
sg3568
(lp3729
g3329
ag3150
asg3570
F1.0800000000000001
sg3571
F1
sg3572
(lp3730
g3365
asg3574
S'Lobbyist'
p3731
sg3576
F1.2
sg2957
S'Lobbyist'
p3732
sg3578
F1
sg3579
(lp3733
g3050
asbasS'Journalist001'
p3734
(lp3735
g1
(g10
g3
NtRp3736
(dp3737
g3554
F1
sg3555
F4
sg3556
F1.1499999999999999
sg3557
F2
sg3558
(lp3738
sg3560
F1.5
sg3561
F1
sg2951
g3734
sg3562
F16
sg3563
F1.5
sg3564
(lp3739
g3021
ag3438
asg3566
F1.1000000000000001
sg3567
F1.1499999999999999
sg3568
(lp3740
g3225
ag2923
ag2997
asg3570
F1.2
sg3571
F1
sg3572
(lp3741
sg3574
S'Journalist'
p3742
sg3576
F1.2
sg2957
S'Journalist'
p3743
sg3578
F1
sg3579
(lp3744
sbasS'ReligiousNut001'
p3745
(lp3746
g1
(g10
g3
NtRp3747
(dp3748
g3554
F1
sg3555
F4
sg3556
F1.1499999999999999
sg3557
F1
sg3558
(lp3749
sg3560
F1.0900000000000001
sg3561
F1
sg2951
g3745
sg3562
F10
sg3563
F1.0800000000000001
sg3564
(lp3750
g3005
ag3389
ag3424
asg3566
F1.1000000000000001
sg3567
F1.1499999999999999
sg3568
(lp3751
g3475
ag3137
asg3570
F1.0800000000000001
sg3571
F1
sg3572
(lp3752
sg3574
S'Religious'
p3753
sg3576
F1.2
sg2957
S'Religious Nut'
p3754
sg3578
F1
sg3579
(lp3755
g3381
asbasS'JointChief001'
p3756
(lp3757
g1
(g10
g3
NtRp3758
(dp3759
g3554
F1
sg3555
F4
sg3556
F1.1499999999999999
sg3557
F1
sg3558
(lp3760
sg3560
F1.0900000000000001
sg3561
F1
sg2951
g3756
sg3562
F10
sg3563
F1.0800000000000001
sg3564
(lp3761
g3416
ag3424
ag3446
ag3074
asg3566
F1.1000000000000001
sg3567
F1.1499999999999999
sg3568
(lp3762
g3209
asg3570
F1.0800000000000001
sg3571
F1
sg3572
(lp3763
sg3574
S'JointChief'
p3764
sg3576
F1.2
sg2957
S'Joint Chief'
p3765
sg3578
F1
sg3579
(lp3766
sbasS'Protester001'
p3767
(lp3768
g1
(g10
g3
NtRp3769
(dp3770
g3554
F0.5
sg3555
F4
sg3556
F1.1000000000000001
sg3557
F1
sg3558
(lp3771
g3381
asg3560
F1.01
sg3561
F1
sg2951
g3767
sg3562
F8
sg3563
F1.01
sg3564
(lp3772
g3172
ag3013
ag3058
asg3566
F1.01
sg3567
F1.1000000000000001
sg3568
(lp3773
g3257
asg3570
F1.01
sg3571
F1
sg3572
(lp3774
sg3574
S'Protestor'
p3775
sg3576
F1.01
sg2957
S'Protester'
p3776
sg3578
F1
sg3579
(lp3777
sbasS'TVPersonality001'
p3778
(lp3779
g1
(g10
g3
NtRp3780
(dp3781
g3554
F1
sg3555
F4
sg3556
F1.1499999999999999
sg3557
F1
sg3558
(lp3782
sg3560
F1.0900000000000001
sg3561
F1
sg2951
g3778
sg3562
F10
sg3563
F1.0800000000000001
sg3564
(lp3783
g3381
ag3021
asg3566
F1.1000000000000001
sg3567
F1.1499999999999999
sg3568
(lp3784
g2997
ag2982
asg3570
F1.0800000000000001
sg3571
F1
sg3572
(lp3785
sg3574
S'TVPersonality'
p3786
sg3576
F1.2
sg2957
S"Hecules O'Grady"
p3787
sg3578
F1
sg3579
(lp3788
sbasS'Player'
p3789
(lp3790
g1
(g10
g3
NtRp3791
(dp3792
g3554
F1
sg3555
F5
sg3556
F1.1499999999999999
sg3557
F1
sg3558
(lp3793
sg3560
F1.0900000000000001
sg3561
F1
sg2951
g3789
sg3562
F15
sg3563
F1.0800000000000001
sg3564
(lp3794
g3467
ag2968
ag3381
asg3566
F1.1000000000000001
sg3567
F1.1499999999999999
sg3568
(lp3795
g3094
asg3570
F1.0800000000000001
sg3571
F1
sg3572
(lp3796
sg3574
S'Player'
p3797
sg3576
F1.2
sg2957
S'Phillip Mossman'
p3798
sg3578
F2
sg3579
(lp3799
sbasS'Computer'
p3800
(lp3801
g1
(g10
g3
NtRp3802
(dp3803
g3554
F1
sg3555
F4
sg3556
F1.1499999999999999
sg3557
F1
sg3558
(lp3804
sg3560
F1.0900000000000001
sg3561
F1
sg2951
g3800
sg3562
F10
sg3563
F1.0800000000000001
sg3564
(lp3805
g3467
ag3278
ag2968
ag3381
ag3424
asg3566
F1.1000000000000001
sg3567
F1.1499999999999999
sg3568
(lp3806
g3309
ag3094
ag3397
asg3570
F1.0800000000000001
sg3571
F1
sg3572
(lp3807
sg3574
S'Politician'
p3808
sg3576
F1.2
sg2957
S'N.O.T.B.A.D'
p3809
sg3578
F1
sg3579
(lp3810
sbasS'CabinetPolitician001'
p3811
(lp3812
g1
(g10
g3
NtRp3813
(dp3814
g3554
F1
sg3555
F4
sg3556
F1.1499999999999999
sg3557
F1
sg3558
(lp3815
sg3560
F1.0900000000000001
sg3561
F1
sg2951
g3811
sg3562
F10
sg3563
F1.0800000000000001
sg3564
(lp3816
g3467
ag3278
ag2968
ag3381
ag3424
asg3566
F1.1000000000000001
sg3567
F1.1499999999999999
sg3568
(lp3817
g3309
ag3094
ag3397
asg3570
F1.0800000000000001
sg3571
F1
sg3572
(lp3818
sg3574
S'Politician'
p3819
sg3576
F1.2
sg2957
S'Cabinet Politician'
p3820
sg3578
F1
sg3579
(lp3821
sbasS'Constituent001'
p3822
(lp3823
g1
(g10
g3
NtRp3824
(dp3825
g3554
F1
sg3555
F4
sg3556
F1.1499999999999999
sg3557
F1
sg3558
(lp3826
sg3560
F1.0900000000000001
sg3561
F1
sg2951
g3822
sg3562
F12
sg3563
F1.5
sg3564
(lp3827
g3172
ag3188
ag3416
asg3566
F1.1000000000000001
sg3567
F1.1499999999999999
sg3568
(lp3828
g3397
asg3570
F1.0800000000000001
sg3571
F1
sg3572
(lp3829
sg3574
S'Constituent'
p3830
sg3576
F1.2
sg2957
S'Constituent'
p3831
sg3578
F2
sg3579
(lp3832
sbasS'Mayor'
p3833
(lp3834
g1
(g10
g3
NtRp3835
(dp3836
g3554
F1
sg3555
F4
sg3556
F1.1499999999999999
sg3557
F1
sg3558
(lp3837
sg3560
F1.0900000000000001
sg3561
F1
sg2951
g3833
sg3562
F10
sg3563
F1.0800000000000001
sg3564
(lp3838
g3467
ag3278
ag2968
ag3381
ag3424
asg3566
F1.1000000000000001
sg3567
F1.1499999999999999
sg3568
(lp3839
g3309
ag3094
ag3397
asg3570
F1.0800000000000001
sg3571
F1
sg3572
(lp3840
sg3574
S'Politician'
p3841
sg3576
F1.2
sg2957
S'Mayor Goodman'
p3842
sg3578
F1
sg3579
(lp3843
sbassS'quest_items'
p3844
(dp3845
S'PEN'
p3846
g1
(g10
g3
NtRp3847
(dp3848
g2926
S''
sg2951
g3846
sg2957
S'A pen'
p3849
sbsS'SOUTHWINGDOORKEY'
p3850
g1
(g10
g3
NtRp3851
(dp3852
g2926
S'It looks old.'
p3853
sg2951
g3850
sg2957
S'Key to the South Wing'
p3854
sbsS'INCRIMINATINGEVIDENCE'
p3855
g1
(g10
g3
NtRp3856
(dp3857
g2926
S'Very incriminating proof that something troubling is going on in the White House.'
p3858
sg2951
g3855
sg2957
S'Incriminating Evidence'
p3859
sbsS'BILLOFRIGHTS'
p3860
g1
(g10
g3
NtRp3861
(dp3862
g2926
S''
sg2951
g3860
sg2957
S"Citizens' Bill of Rights"
p3863
sbssg3564
(dp3864
S'Theo'
p3865
(lp3866
g3467
ag3278
ag2968
ag3381
ag3050
ag3309
ag3094
ag3365
ag3196
asS'JointChief'
p3867
(lp3868
g3416
ag3424
ag3446
ag3209
ag3074
asS'Politician'
p3869
(lp3870
g3467
ag3278
ag2968
ag3381
ag3309
ag3094
ag3397
ag3424
asS'Bumpkin'
p3871
(lp3872
g3381
ag3066
ag3180
ag3116
asS'Wife'
p3873
(lp3874
g3467
ag2968
ag3381
ag3454
ag3397
ag3102
asS'Lobbyist'
p3875
(lp3876
g3188
ag3329
ag3150
ag3416
asS'DeepThroat'
p3877
(lp3878
g3278
ag3424
ag3150
ag3416
asS'Protestor'
p3879
(lp3880
g3257
ag3172
ag3013
ag3058
asS'SecretAgent'
p3881
(lp3882
g3408
ag3446
ag3209
ag3233
asS'Teacher'
p3883
(lp3884
g3270
ag3424
ag3172
ag3257
asS'Player'
p3885
(lp3886
g3467
ag2968
ag3381
ag3094
asS'Computer'
p3887
(lp3888
g3209
ag3446
ag3029
ag3150
ag3416
ag3278
asS'Receptionist'
p3889
(lp3890
g3342
ag3286
ag3294
ag3037
asS'Hippy'
p3891
(lp3892
g3058
ag3172
ag3217
ag3241
ag3257
ag3397
asS'Constituent'
p3893
(lp3894
g3172
ag3397
ag3188
ag3416
asS'TVPersonality'
p3895
(lp3896
g3381
ag2997
ag3021
ag2982
asS'WarVet'
p3897
(lp3898
g3416
ag3424
ag3373
ag3257
asS'Religious'
p3899
(lp3900
g3005
ag3475
ag3137
ag3389
ag3424
asS'Unionist'
p3901
(lp3902
g3416
ag3424
ag3172
ag3270
asS'Journalist'
p3903
(lp3904
g3021
ag3438
ag3225
ag2923
ag2997
assS'shops'
p3905
(dp3906
sS'encounters'
p3907
(dp3908
S'P-hard-14'
p3909
g1
(g10
g3
NtRp3910
(dp3911
S'item_attack_drops'
p3912
(lp3913
sS'item_attacks'
p3914
(lp3915
sg2957
S''
sS'money'
p3916
F50
sg3489
F135
sS'monster2_lvl'
p3917
S''
sS'bribe_cost'
p3918
F50
sS'monster3'
p3919
S''
sS'monster1_lvl'
p3920
F3
sS'monster3_lvl'
p3921
S''
sS'monster4_lvl'
p3922
S''
sS'monster4'
p3923
S''
sS'monster2'
p3924
S''
sg2951
g3909
sS'monster1'
p3925
S'Computer'
p3926
sbsS'P-hard-11'
p3927
g1
(g10
g3
NtRp3928
(dp3929
g3912
(lp3930
sg3914
(lp3931
sg2957
S''
sg3916
F50
sg3489
F135
sg3917
F3
sg3918
F50
sg3919
S'JointChief001'
p3932
sg3920
F3
sg3921
F3
sg3922
S''
sg3923
S''
sg3924
S'JointChief001'
p3933
sg2951
g3927
sg3925
S'JointChief001'
p3934
sbsS'P-hard-10'
p3935
g1
(g10
g3
NtRp3936
(dp3937
g3912
(lp3938
sg3914
(lp3939
sg2957
S''
sg3916
F50
sg3489
F135
sg3917
F3
sg3918
F50
sg3919
S'CabinetPolitician001'
p3940
sg3920
F3
sg3921
F3
sg3922
F2
sg3923
S'CabinetPolitician001'
p3941
sg3924
S'CabinetPolitician001'
p3942
sg2951
g3935
sg3925
S'CabinetPolitician001'
p3943
sbsS'P-hard-13'
p3944
g1
(g10
g3
NtRp3945
(dp3946
g3912
(lp3947
sg3914
(lp3948
sg2957
S''
sg3916
F50
sg3489
F135
sg3917
F3
sg3918
F50
sg3919
S'JointChief001'
p3949
sg3920
F3
sg3921
F3
sg3922
F3
sg3923
S'JointChief001'
p3950
sg3924
S'JointChief001'
p3951
sg2951
g3944
sg3925
S'JointChief001'
p3952
sbsS'P-hard-12'
p3953
g1
(g10
g3
NtRp3954
(dp3955
g3912
(lp3956
sg3914
(lp3957
sg2957
S''
sg3916
F50
sg3489
F135
sg3917
F3
sg3918
F50
sg3919
S'JointChief001'
p3958
sg3920
F3
sg3921
F3
sg3922
S''
sg3923
S''
sg3924
S'JointChief001'
p3959
sg2951
g3953
sg3925
S'JointChief001'
p3960
sbsS'P-easy-05'
p3961
g1
(g10
g3
NtRp3962
(dp3963
g3912
(lp3964
g1
(c__main__
ItemAttack
p3965
g3
NtRp3966
(dp3967
S'attack'
p3968
g3249
sS'quantity'
p3969
I1
sbasg3914
(lp3970
sg2957
S''
sg3916
F50
sg3489
F20
sg3917
S''
sg3918
F50
sg3919
S''
sg3920
F2
sg3921
S''
sg3922
S''
sg3923
S''
sg3924
S''
sg2951
g3961
sg3925
S'Journalist001'
p3971
sbsS'P-easy-04'
p3972
g1
(g10
g3
NtRp3973
(dp3974
g3912
(lp3975
g1
(g3965
g3
NtRp3976
(dp3977
g3968
g3124
sg3969
I1
sbasg3914
(lp3978
sg2957
S''
sg3916
F50
sg3489
F30
sg3917
F1
sg3918
F50
sg3919
S''
sg3920
F1
sg3921
S''
sg3922
S''
sg3923
S''
sg3924
S'Protester001'
p3979
sg2951
g3972
sg3925
S'Protester001'
p3980
sbsS'P-easy-07'
p3981
g1
(g10
g3
NtRp3982
(dp3983
g3912
(lp3984
g1
(g3965
g3
NtRp3985
(dp3986
g3968
g3124
sg3969
I1
sbasg3914
(lp3987
sg2957
S''
sg3916
F50
sg3489
F40
sg3917
F2
sg3918
F50
sg3919
S''
sg3920
F2
sg3921
S''
sg3922
S''
sg3923
S''
sg3924
S'Protester001'
p3988
sg2951
g3981
sg3925
S'Constituent001'
p3989
sbsS'P-easy-06'
p3990
g1
(g10
g3
NtRp3991
(dp3992
g3912
(lp3993
g1
(g3965
g3
NtRp3994
(dp3995
g3968
g3397
sg3969
I1
sbasg3914
(lp3996
sg2957
S''
sg3916
F50
sg3489
F40
sg3917
F2
sg3918
F50
sg3919
S''
sg3920
F2
sg3921
S''
sg3922
S''
sg3923
S''
sg3924
S'Lobbyist001'
p3997
sg2951
g3990
sg3925
S'Lobbyist001'
p3998
sbsS'P-easy-01'
p3999
g1
(g10
g3
NtRp4000
(dp4001
g3912
(lp4002
g1
(g3965
g3
NtRp4003
(dp4004
g3968
g3317
sg3969
I1
sbasg3914
(lp4005
g1
(g3965
g3
NtRp4006
(dp4007
g3968
g3249
sg3969
I1
sbasg2957
S'The quest for pen'
p4008
sg3916
F50
sg3489
F10
sg3917
S''
sg3918
F50
sg3919
S''
sg3920
F1
sg3921
S''
sg3922
S''
sg3923
S''
sg3924
S''
sg2951
g3999
sg3925
S'Receptionist001'
p4009
sbsS'P-easy-03'
p4010
g1
(g10
g3
NtRp4011
(dp4012
g3912
(lp4013
g1
(g3965
g3
NtRp4014
(dp4015
g3968
g3317
sg3969
I1
sbasg3914
(lp4016
g1
(g3965
g3
NtRp4017
(dp4018
g3968
g3249
sg3969
I1
sbasg2957
S''
sg3916
F50
sg3489
F30
sg3917
F1
sg3918
F50
sg3919
S''
sg3920
F1
sg3921
S''
sg3922
S''
sg3923
S''
sg3924
S'Protester001'
p4019
sg2951
g4010
sg3925
S'Protester001'
p4020
sbsS'P-easy-02'
p4021
g1
(g10
g3
NtRp4022
(dp4023
g3912
(lp4024
sg3914
(lp4025
sg2957
S''
sg3916
F50
sg3489
F30
sg3917
F1
sg3918
F50
sg3919
S''
sg3920
F1
sg3921
S''
sg3922
S''
sg3923
S''
sg3924
S'Protester001'
p4026
sg2951
g4021
sg3925
S'Protester001'
p4027
sbsS'P-easy-09'
p4028
g1
(g10
g3
NtRp4029
(dp4030
g3912
(lp4031
g1
(g3965
g3
NtRp4032
(dp4033
g3968
g3317
sg3969
I1
sbasg3914
(lp4034
sg2957
S''
sg3916
F50
sg3489
F60
sg3917
F2
sg3918
F50
sg3919
S''
sg3920
F2
sg3921
S''
sg3922
S''
sg3923
S''
sg3924
S'Constituent001'
p4035
sg2951
g4028
sg3925
S'Constituent001'
p4036
sbsS'P-easy-08'
p4037
g1
(g10
g3
NtRp4038
(dp4039
g3912
(lp4040
sg3914
(lp4041
sg2957
S''
sg3916
F50
sg3489
F40
sg3917
F2
sg3918
F50
sg3919
S'Constituent001'
p4042
sg3920
F2
sg3921
F2
sg3922
S''
sg3923
S''
sg3924
S'Constituent001'
p4043
sg2951
g4037
sg3925
S'Protester001'
p4044
sbsS'P-hard-08'
p4045
g1
(g10
g3
NtRp4046
(dp4047
g3912
(lp4048
sg3914
(lp4049
sg2957
S''
sg3916
F50
sg3489
F135
sg3917
F3
sg3918
F50
sg3919
S'CabinetPolitician001'
p4050
sg3920
F3
sg3921
F3
sg3922
S''
sg3923
S''
sg3924
S'CabinetPolitician001'
p4051
sg2951
g4045
sg3925
S'CabinetPolitician001'
p4052
sbsS'P-hard-09'
p4053
g1
(g10
g3
NtRp4054
(dp4055
g3912
(lp4056
sg3914
(lp4057
sg2957
S''
sg3916
F50
sg3489
F135
sg3917
F3
sg3918
F50
sg3919
S'CabinetPolitician001'
p4058
sg3920
F3
sg3921
F3
sg3922
F2
sg3923
S'CabinetPolitician001'
p4059
sg3924
S'CabinetPolitician001'
p4060
sg2951
g4053
sg3925
S'CabinetPolitician001'
p4061
sbsS'P-med-08'
p4062
g1
(g10
g3
NtRp4063
(dp4064
g3912
(lp4065
sg3914
(lp4066
sg2957
S''
sg3916
F50
sg3489
F135
sg3917
F3
sg3918
F50
sg3919
S'Politician001'
p4067
sg3920
F3
sg3921
F3
sg3922
S''
sg3923
S''
sg3924
S'Politician001'
p4068
sg2951
g4062
sg3925
S'Politician001'
p4069
sbsS'P-med-09'
p4070
g1
(g10
g3
NtRp4071
(dp4072
g3912
(lp4073
sg3914
(lp4074
sg2957
S''
sg3916
F50
sg3489
F135
sg3917
F3
sg3918
F50
sg3919
S'Politician001'
p4075
sg3920
F3
sg3921
F3
sg3922
S''
sg3923
S''
sg3924
S'ReligiousNut001'
p4076
sg2951
g4070
sg3925
S'Politician001'
p4077
sbsS'P-med-02'
p4078
g1
(g10
g3
NtRp4079
(dp4080
g3912
(lp4081
g1
(g3965
g3
NtRp4082
(dp4083
g3968
g3082
sg3969
I1
sbasg3914
(lp4084
sg2957
S''
sg3916
F50
sg3489
F90
sg3917
F3
sg3918
F50
sg3919
S''
sg3920
F3
sg3921
S''
sg3922
S''
sg3923
S''
sg3924
S'Politician001'
p4085
sg2951
g4078
sg3925
S'Politician001'
p4086
sbsS'P-med-03'
p4087
g1
(g10
g3
NtRp4088
(dp4089
g3912
(lp4090
sg3914
(lp4091
sg2957
S''
sg3916
F50
sg3489
F90
sg3917
F3
sg3918
F50
sg3919
S''
sg3920
F3
sg3921
S''
sg3922
S''
sg3923
S''
sg3924
S'Bumpkin001'
p4092
sg2951
g4087
sg3925
S'Bumpkin001'
p4093
sbsS'P-med-01'
p4094
g1
(g10
g3
NtRp4095
(dp4096
g3912
(lp4097
sg3914
(lp4098
sg2957
S''
sg3916
F50
sg3489
F90
sg3917
F3
sg3918
F50
sg3919
S''
sg3920
F3
sg3921
S''
sg3922
S''
sg3923
S''
sg3924
S'Politician001'
p4099
sg2951
g4094
sg3925
S'Politician001'
p4100
sbsS'P-med-06'
p4101
g1
(g10
g3
NtRp4102
(dp4103
g3912
(lp4104
sg3914
(lp4105
sg2957
S''
sg3916
F50
sg3489
F135
sg3917
F3
sg3918
F50
sg3919
S'Politician001'
p4106
sg3920
F3
sg3921
F3
sg3922
S''
sg3923
S''
sg3924
S'Governor'
p4107
sg2951
g4101
sg3925
S'Politician001'
p4108
sbsS'P-med-07'
p4109
g1
(g10
g3
NtRp4110
(dp4111
g3912
(lp4112
sg3914
(lp4113
sg2957
S''
sg3916
F50
sg3489
F90
sg3917
F3
sg3918
F50
sg3919
S''
sg3920
F3
sg3921
S''
sg3922
S''
sg3923
S''
sg3924
S'Journalist001'
p4114
sg2951
g4109
sg3925
S'Politician001'
p4115
sbsS'P-med-04'
p4116
g1
(g10
g3
NtRp4117
(dp4118
g3912
(lp4119
sg3914
(lp4120
sg2957
S''
sg3916
F50
sg3489
F135
sg3917
F3
sg3918
F50
sg3919
S'Protester001'
p4121
sg3920
F3
sg3921
F3
sg3922
S''
sg3923
S''
sg3924
S'Bumpkin001'
p4122
sg2951
g4116
sg3925
S'Constituent001'
p4123
sbsS'P-med-05'
p4124
g1
(g10
g3
NtRp4125
(dp4126
g3912
(lp4127
sg3914
(lp4128
sg2957
S''
sg3916
F50
sg3489
F135
sg3917
F3
sg3918
F50
sg3919
S'Politician001'
p4129
sg3920
F3
sg3921
F3
sg3922
S''
sg3923
S''
sg3924
S'Journalist001'
p4130
sg2951
g4124
sg3925
S'Journalist001'
p4131
sbsS'P-med-24'
p4132
g1
(g10
g3
NtRp4133
(dp4134
g3912
(lp4135
sg3914
(lp4136
sg2957
S''
sg3916
F50
sg3489
F135
sg3917
F3
sg3918
F50
sg3919
S'Politician001'
p4137
sg3920
F3
sg3921
F3
sg3922
S''
sg3923
S''
sg3924
S'PresidentAlien'
p4138
sg2951
g4132
sg3925
S'Politician001'
p4139
sbsS'P-med-20'
p4140
g1
(g10
g3
NtRp4141
(dp4142
g3912
(lp4143
sg3914
(lp4144
sg2957
S''
sg3916
F50
sg3489
F135
sg3917
F3
sg3918
F50
sg3919
S'Journalist001'
p4145
sg3920
F3
sg3921
F3
sg3922
S''
sg3923
S''
sg3924
S'TVPersonality001'
p4146
sg2951
g4140
sg3925
S'Journalist001'
p4147
sbsS'P-med-21'
p4148
g1
(g10
g3
NtRp4149
(dp4150
g3912
(lp4151
sg3914
(lp4152
sg2957
S''
sg3916
F50
sg3489
F135
sg3917
F3
sg3918
F50
sg3919
S'Politician001'
p4153
sg3920
F3
sg3921
F3
sg3922
S''
sg3923
S''
sg3924
S'President'
p4154
sg2951
g4148
sg3925
S'Politician001'
p4155
sbsS'P-med-22'
p4156
g1
(g10
g3
NtRp4157
(dp4158
g3912
(lp4159
sg3914
(lp4160
sg2957
S''
sg3916
F50
sg3489
F135
sg3917
F3
sg3918
F50
sg3919
S''
sg3920
F3
sg3921
S''
sg3922
S''
sg3923
S''
sg3924
S'DeepThroat'
p4161
sg2951
g4156
sg3925
S'DeepThroat'
p4162
sbsS'P-med-23'
p4163
g1
(g10
g3
NtRp4164
(dp4165
g3912
(lp4166
sg3914
(lp4167
sg2957
S''
sg3916
F50
sg3489
F135
sg3917
F3
sg3918
F50
sg3919
S'Politician001'
p4168
sg3920
F3
sg3921
F3
sg3922
F3
sg3923
S'Politician001'
p4169
sg3924
S'President'
p4170
sg2951
g4163
sg3925
S'Politician001'
p4171
sbsS'P-hard-06'
p4172
g1
(g10
g3
NtRp4173
(dp4174
g3912
(lp4175
sg3914
(lp4176
sg2957
S''
sg3916
F50
sg3489
F135
sg3917
F3
sg3918
F50
sg3919
S'Teacher001'
p4177
sg3920
F3
sg3921
F3
sg3922
S''
sg3923
S''
sg3924
S'Teacher001'
p4178
sg2951
g4172
sg3925
S'Teacher001'
p4179
sbsS'P-hard-07'
p4180
g1
(g10
g3
NtRp4181
(dp4182
g3912
(lp4183
sg3914
(lp4184
sg2957
S''
sg3916
F50
sg3489
F135
sg3917
F3
sg3918
F50
sg3919
S'Teacher001'
p4185
sg3920
F3
sg3921
F3
sg3922
F2
sg3923
S'Teacher001'
p4186
sg3924
S'Teacher001'
p4187
sg2951
g4180
sg3925
S'Teacher001'
p4188
sbsS'P-hard-04'
p4189
g1
(g10
g3
NtRp4190
(dp4191
g3912
(lp4192
sg3914
(lp4193
sg2957
S''
sg3916
F50
sg3489
F135
sg3917
F3
sg3918
F50
sg3919
S'WarVet001'
p4194
sg3920
F3
sg3921
F3
sg3922
S''
sg3923
S''
sg3924
S'WarVet001'
p4195
sg2951
g4189
sg3925
S'WarVet001'
p4196
sbsS'P-hard-05'
p4197
g1
(g10
g3
NtRp4198
(dp4199
g3912
(lp4200
sg3914
(lp4201
sg2957
S''
sg3916
F50
sg3489
F135
sg3917
F3
sg3918
F50
sg3919
S'WarVet001'
p4202
sg3920
F3
sg3921
F3
sg3922
F2
sg3923
S'WarVet001'
p4203
sg3924
S'WarVet001'
p4204
sg2951
g4197
sg3925
S'WarVet001'
p4205
sbsS'P-hard-02'
p4206
g1
(g10
g3
NtRp4207
(dp4208
g3912
(lp4209
sg3914
(lp4210
sg2957
S''
sg3916
F50
sg3489
F135
sg3917
F3
sg3918
F50
sg3919
S'Journalist001'
p4211
sg3920
F3
sg3921
F3
sg3922
S''
sg3923
S''
sg3924
S'TVPersonality001'
p4212
sg2951
g4206
sg3925
S'Journalist001'
p4213
sbsS'P-hard-03'
p4214
g1
(g10
g3
NtRp4215
(dp4216
g3912
(lp4217
sg3914
(lp4218
sg2957
S''
sg3916
F50
sg3489
F135
sg3917
F3
sg3918
F50
sg3919
S'Journalist001'
p4219
sg3920
F3
sg3921
F3
sg3922
S''
sg3923
S''
sg3924
S'Journalist001'
p4220
sg2951
g4214
sg3925
S'TVPersonality001'
p4221
sbsS'P-hard-01'
p4222
g1
(g10
g3
NtRp4223
(dp4224
g3912
(lp4225
sg3914
(lp4226
sg2957
S''
sg3916
F50
sg3489
F135
sg3917
F3
sg3918
F50
sg3919
S'Journalist001'
p4227
sg3920
F3
sg3921
F3
sg3922
S''
sg3923
S''
sg3924
S'Journalist001'
p4228
sg2951
g4222
sg3925
S'Journalist001'
p4229
sbsS'P-easy-10'
p4230
g1
(g10
g3
NtRp4231
(dp4232
g3912
(lp4233
sg3914
(lp4234
sg2957
S''
sg3916
F50
sg3489
F80
sg3917
F3
sg3918
F50
sg3919
S'Politician001'
p4235
sg3920
F2
sg3921
F3
sg3922
S''
sg3923
S''
sg3924
S'Mayor'
p4236
sg2951
g4230
sg3925
S'Politician001'
p4237
sbsS'P-med-19'
p4238
g1
(g10
g3
NtRp4239
(dp4240
g3912
(lp4241
sg3914
(lp4242
sg2957
S''
sg3916
F50
sg3489
F135
sg3917
F3
sg3918
F50
sg3919
S''
sg3920
F3
sg3921
S''
sg3922
S''
sg3923
S''
sg3924
S'DeepThroat'
p4243
sg2951
g4238
sg3925
S'DeepThroat'
p4244
sbsS'P-med-18'
p4245
g1
(g10
g3
NtRp4246
(dp4247
g3912
(lp4248
sg3914
(lp4249
sg2957
S''
sg3916
F50
sg3489
F135
sg3917
F3
sg3918
F50
sg3919
S'ReligiousNut001'
p4250
sg3920
F3
sg3921
F3
sg3922
F3
sg3923
S'ReligiousNut001'
p4251
sg3924
S'ReligiousNut001'
p4252
sg2951
g4245
sg3925
S'ReligiousNut001'
p4253
sbsS'P-med-15'
p4254
g1
(g10
g3
NtRp4255
(dp4256
g3912
(lp4257
sg3914
(lp4258
sg2957
S''
sg3916
F50
sg3489
F135
sg3917
F3
sg3918
F50
sg3919
S''
sg3920
F3
sg3921
S''
sg3922
S''
sg3923
S''
sg3924
S'ReligiousNut001'
p4259
sg2951
g4254
sg3925
S'ReligiousNut001'
p4260
sbsS'P-med-14'
p4261
g1
(g10
g3
NtRp4262
(dp4263
g3912
(lp4264
sg3914
(lp4265
sg2957
S''
sg3916
F50
sg3489
F135
sg3917
F3
sg3918
F50
sg3919
S'Lobbyist001'
p4266
sg3920
F3
sg3921
F3
sg3922
F3
sg3923
S'Lobbyist001'
p4267
sg3924
S'Lobbyist001'
p4268
sg2951
g4261
sg3925
S'Lobbyist001'
p4269
sbsS'P-med-17'
p4270
g1
(g10
g3
NtRp4271
(dp4272
g3912
(lp4273
sg3914
(lp4274
sg2957
S''
sg3916
F50
sg3489
F135
sg3917
F3
sg3918
F50
sg3919
S'ReligiousNut001'
p4275
sg3920
F3
sg3921
F3
sg3922
S''
sg3923
S''
sg3924
S'ReligiousNut001'
p4276
sg2951
g4270
sg3925
S'ReligiousNut001'
p4277
sbsS'P-med-16'
p4278
g1
(g10
g3
NtRp4279
(dp4280
g3912
(lp4281
sg3914
(lp4282
sg2957
S''
sg3916
F50
sg3489
F135
sg3917
F3
sg3918
F50
sg3919
S'ReligiousNut001'
p4283
sg3920
F3
sg3921
F3
sg3922
S''
sg3923
S''
sg3924
S'ReligiousNut001'
p4284
sg2951
g4278
sg3925
S'ReligiousNut001'
p4285
sbsS'P-med-11'
p4286
g1
(g10
g3
NtRp4287
(dp4288
g3912
(lp4289
sg3914
(lp4290
sg2957
S''
sg3916
F50
sg3489
F135
sg3917
F3
sg3918
F50
sg3919
S'Politician001'
p4291
sg3920
F3
sg3921
F3
sg3922
F3
sg3923
S'Politician001'
p4292
sg3924
S'Politician001'
p4293
sg2951
g4286
sg3925
S'Politician001'
p4294
sbsS'P-med-10'
p4295
g1
(g10
g3
NtRp4296
(dp4297
g3912
(lp4298
sg3914
(lp4299
sg2957
S''
sg3916
F50
sg3489
F135
sg3917
F3
sg3918
F50
sg3919
S'ReligiousNut001'
p4300
sg3920
F3
sg3921
F3
sg3922
S''
sg3923
S''
sg3924
S'Politician001'
p4301
sg2951
g4295
sg3925
S'Politician001'
p4302
sbsS'P-med-13'
p4303
g1
(g10
g3
NtRp4304
(dp4305
g3912
(lp4306
sg3914
(lp4307
sg2957
S''
sg3916
F50
sg3489
F135
sg3917
F3
sg3918
F50
sg3919
S'Lobbyist001'
p4308
sg3920
F3
sg3921
F3
sg3922
S''
sg3923
S''
sg3924
S'Lobbyist001'
p4309
sg2951
g4303
sg3925
S'Lobbyist001'
p4310
sbsS'P-med-12'
p4311
g1
(g10
g3
NtRp4312
(dp4313
g3912
(lp4314
sg3914
(lp4315
sg2957
S''
sg3916
F50
sg3489
F135
sg3917
F3
sg3918
F50
sg3919
S'Lobbyist001'
p4316
sg3920
F3
sg3921
F3
sg3922
S''
sg3923
S''
sg3924
S'Lobbyist001'
p4317
sg2951
g4311
sg3925
S'Lobbyist001'
p4318
sbssb.