ccopy_reg
_reconstructor
p1
(c__main__
GameData
p2
c__builtin__
object
p3
NtRp4
(dp5
S'script'
p6
(dp7
S'_Act2'
p8
(lp9
g1
(c__main__
TableRow
p10
g3
NtRp11
(dp12
S'action'
p13
S'AddAlly'
p14
sS'trigger'
p15
g8
sS'param'
p16
S'Wife:1'
p17
sS'dialog'
p18
S''
sbag1
(g10
g3
NtRp19
(dp20
g13
S'GotoMap'
p21
sg15
S'_Act2'
p22
sg16
S'act2'
p23
sg18
S''
sbasS'Wife'
p24
(lp25
g1
(g10
g3
NtRp26
(dp27
g13
S'GotoMap'
p28
sg15
g24
sg16
S'act1'
p29
sg18
S''
sbag1
(g10
g3
NtRp30
(dp31
g13
S'_RequireFlag'
p32
sg15
S'Wife'
p33
sg16
S'GOHOMETOWIFE'
p34
sg18
S'What are you doing here, Phillip? You should be at work!'
p35
sbag1
(g10
g3
NtRp36
(dp37
g13
S'Say'
p38
sg15
S'Wife'
p39
sg16
S''
sg18
S'Welcome home, Phillip! How was your workday?'
p40
sbag1
(g10
g3
NtRp41
(dp42
g13
S'PlayerSay'
p43
sg15
S'Wife'
p44
sg16
S''
sg18
S'\xe2\x80\xa6'
p45
sbag1
(g10
g3
NtRp46
(dp47
g13
S'Say'
p48
sg15
S'Wife'
p49
sg16
S''
sg18
S"That good, huh? You know this isn't what you want. Why don't you strike out on your own?"
p50
sbag1
(g10
g3
NtRp51
(dp52
g13
S'PlayerSay'
p53
sg15
S'Wife'
p54
sg16
S''
sg18
S"I didn't think I knew where to start to be a Mayor, but Mayor Goodman makes it look easy."
p55
sbag1
(g10
g3
NtRp56
(dp57
g13
S'Say'
p58
sg15
S'Wife'
p59
sg16
S''
sg18
S"That's the spirit! You can do it! All you need is some money and support."
p60
sbag1
(g10
g3
NtRp61
(dp62
g13
S'PlayerSay'
p63
sg15
S'Wife'
p64
sg16
S''
sg18
S'Well...OK! Lets start with money. We need a sponsor.'
p65
sbag1
(g10
g3
NtRp66
(dp67
g13
S'Say'
p68
sg15
S'Wife'
p69
sg16
S''
sg18
S'OK, lets go get one!'
p70
sbag1
(g10
g3
NtRp71
(dp72
g13
S'AddAlly'
p73
sg15
S'Wife'
p74
sg16
S'Wife:1'
p75
sg18
S'Sarah Mossman Joins Your Political Party!'
p76
sbag1
(g10
g3
NtRp77
(dp78
g13
S'SetFlag'
p79
sg15
S'Wife'
p80
sg16
S'STARTSPONSOR'
p81
sg18
S''
sbag1
(g10
g3
NtRp82
(dp83
g13
S'Destroy'
p84
sg15
S'Wife'
p85
sg16
S''
sg18
S''
sbasS'Protester2'
p86
(lp87
g1
(g10
g3
NtRp88
(dp89
g13
S'Say'
p90
sg15
g86
sg16
S''
sg18
S"Bees buzz, Mayors lie, who's this Phillip Mossman guy?"
p91
sbag1
(g10
g3
NtRp92
(dp93
g13
S'RequireFlag'
p94
sg15
S'Protester2'
p95
sg16
S'PROTESTORS'
p96
sg18
S''
sbag1
(g10
g3
NtRp97
(dp98
g13
S'Encounter'
p99
sg15
S'Protester2'
p100
sg16
S'P-easy-03'
p101
sg18
S''
sbag1
(g10
g3
NtRp102
(dp103
g13
S'Destroy'
p104
sg15
S'Protester2'
p105
sg16
S''
sg18
S''
sbasS'Protester1'
p106
(lp107
g1
(g10
g3
NtRp108
(dp109
g13
S'Say'
p110
sg15
g106
sg16
S''
sg18
S"Fee Fi Fo Fum, we think Mayor Goodman's Dumb!"
p111
sbag1
(g10
g3
NtRp112
(dp113
g13
S'RequireFlag'
p114
sg15
S'Protester1'
p115
sg16
S'PROTESTORS'
p116
sg18
S''
sbag1
(g10
g3
NtRp117
(dp118
g13
S'Encounter'
p119
sg15
S'Protester1'
p120
sg16
S'P-easy-02'
p121
sg18
S''
sbag1
(g10
g3
NtRp122
(dp123
g13
S'Destroy'
p124
sg15
S'Protester1'
p125
sg16
S''
sg18
S''
sbasS'Head Protester'
p126
(lp127
g1
(g10
g3
NtRp128
(dp129
g13
S'Say'
p130
sg15
g126
sg16
S''
sg18
S"I am the head protester. You'll never convince us to back down!"
p131
sbag1
(g10
g3
NtRp132
(dp133
g13
S'RequireFlag'
p134
sg15
S'Head Protester'
p135
sg16
S'PROTESTORS'
p136
sg18
S''
sbag1
(g10
g3
NtRp137
(dp138
g13
S'PlayerSay'
p139
sg15
S'Head Protester'
p140
sg16
S''
sg18
S'What are you protesting?'
p141
sbag1
(g10
g3
NtRp142
(dp143
g13
S'Say'
p144
sg15
S'Head Protester'
p145
sg16
S''
sg18
S'Er...Injustice!'
p146
sbag1
(g10
g3
NtRp147
(dp148
g13
S'PlayerSay'
p149
sg15
S'Head Protester'
p150
sg16
S''
sg18
S'Injustice against what?'
p151
sbag1
(g10
g3
NtRp152
(dp153
g13
S'Say'
p154
sg15
S'Head Protester'
p155
sg16
S''
sg18
S'\xe2\x80\xa6'
p156
sbag1
(g10
g3
NtRp157
(dp158
g13
S'Say'
p159
sg15
S'Head Protester'
p160
sg16
S''
sg18
S'The People!'
p161
sbag1
(g10
g3
NtRp162
(dp163
g13
S'PlayerSay'
p164
sg15
S'Head Protester'
p165
sg16
S''
sg18
S'Yes, but which people?'
p166
sbag1
(g10
g3
NtRp167
(dp168
g13
S'Say'
p169
sg15
S'Head Protester'
p170
sg16
S''
sg18
S'See? What a fascist, ALL people you slimey politician scum!'
p171
sbag1
(g10
g3
NtRp172
(dp173
g13
S'Encounter'
p174
sg15
S'Head Protester'
p175
sg16
S'P-easy-04'
p176
sg18
S''
sbag1
(g10
g3
NtRp177
(dp178
g13
S'Say'
p179
sg15
S'Head Protester'
p180
sg16
S''
sg18
S"Alright, fine! We'll stop protesting...whatever we were protesting."
p181
sbag1
(g10
g3
NtRp182
(dp183
g13
S'SetFlag'
p184
sg15
S'Head Protester'
p185
sg16
S'PROTESTORSDEAD'
p186
sg18
S''
sbag1
(g10
g3
NtRp187
(dp188
g13
S'Destroy'
p189
sg15
S'Head Protester'
p190
sg16
S''
sg18
S''
sbasS'Receptionist'
p191
(lp192
g1
(g10
g3
NtRp193
(dp194
g13
S'Encounter'
p195
sg15
g191
sg16
S'P-easy-01'
p196
sg18
S''
sbag1
(g10
g3
NtRp197
(dp198
g13
S'GiveItem'
p199
sg15
S'Receptionist'
p200
sg16
S'PEN'
p201
sg18
S'Receptionist sighs and hands over the pen.'
p202
sbag1
(g10
g3
NtRp203
(dp204
g13
S'Destroy'
p205
sg15
S'Receptionist'
p206
sg16
S''
sg18
S''
sbasS'Sponsor'
p207
(lp208
g1
(g10
g3
NtRp209
(dp210
g13
S'RequireFlag'
p211
sg15
g207
sg16
S'STARTSPONSOR'
p212
sg18
S"Hmmm...Money, money, money. Sorry, what? I wasn't talking to you."
p213
sbag1
(g10
g3
NtRp214
(dp215
g13
S'Say'
p216
sg15
S'Sponsor'
p217
sg16
S''
sg18
S"Hello, I'm investigating new investments today. How can I help you?"
p218
sbag1
(g10
g3
NtRp219
(dp220
g13
S'PlayerSay'
p221
sg15
S'Sponsor'
p222
sg16
S''
sg18
S"Well, I've decided to run for Mayor! I could really use an investor."
p223
sbag1
(g10
g3
NtRp224
(dp225
g13
S'Say'
p226
sg15
S'Sponsor'
p227
sg16
S''
sg18
S"I don't know. You seem a little young. I don't think I'm convinced."
p228
sbag1
(g10
g3
NtRp229
(dp230
g13
S'Encounter'
p231
sg15
S'Sponsor'
p232
sg16
S'P-easy-06'
p233
sg18
S''
sbag1
(g10
g3
NtRp234
(dp235
g13
S'Say'
p236
sg15
S'Sponsor'
p237
sg16
S''
sg18
S"Wow! You sure have what it takes! Alright, he's a pile of cash!"
p238
sbag1
(g10
g3
NtRp239
(dp240
g13
S'Say'
p241
sg15
S'Sponsor'
p242
sg16
S''
sg18
S'Also, now that you have some funds, you might find it useful to...grease the wheels in some difficult situations.'
p243
sbag1
(g10
g3
NtRp244
(dp245
g13
S'LearnAttack'
p246
sg15
S'Sponsor'
p247
sg16
S'BRIBE'
p248
sg18
S'Phillip and Sarah learn to Bribe'
p249
sbag1
(g10
g3
NtRp250
(dp251
g13
S'LearnAttack'
p252
sg15
S'Sponsor'
p253
sg16
S'Wife:BRIBE'
p254
sg18
S''
sbag1
(g10
g3
NtRp255
(dp256
g13
S'SetFlag'
p257
sg15
S'Sponsor'
p258
sg16
S'STARTCONSTITUENTS'
p259
sg18
S''
sbag1
(g10
g3
NtRp260
(dp261
g13
S'PlayerSay'
p262
sg15
S'Sponsor'
p263
sg16
S''
sg18
S'Er, thanks! I suppose we should go gather some support from our constituents now.'
p264
sbag1
(g10
g3
NtRp265
(dp266
g13
S'Say'
p267
sg15
S'Sponsor'
p268
sg16
S''
sg18
S"Makes sense to me! I'm off, too. Money, money, money."
p269
sbag1
(g10
g3
NtRp270
(dp271
g13
S'Destroy'
p272
sg15
S'Sponsor'
p273
sg16
S''
sg18
S''
sbasS'P-easy-01'
p274
(lp275
g1
(g10
g3
NtRp276
(dp277
g13
S'Say'
p278
sg15
g274
sg16
S'Player'
p279
sg18
S'Well now we are fighting'
p280
sbag1
(g10
g3
NtRp281
(dp282
g13
S'Say'
p283
sg15
S'P-easy-01'
p284
sg16
S'Receptionist001'
p285
sg18
S"Let's go!"
p286
sbag1
(g10
g3
NtRp287
(dp288
g13
S'BeginCombat'
p289
sg15
S'P-easy-01'
p290
sg16
S''
sg18
S''
sbag1
(g10
g3
NtRp291
(dp292
g13
S'Say'
p293
sg15
S'P-easy-01'
p294
sg16
S'Receptionist001'
p295
sg18
S'Alas, I am dead'
p296
sbasS'Mayor'
p297
(lp298
g1
(g10
g3
NtRp299
(dp300
g13
S'Say'
p301
sg15
g297
sg16
S''
sg18
S"Hello, I'm the Mayor!"
p302
sbag1
(g10
g3
NtRp303
(dp304
g13
S'PlayerSay'
p305
sg15
S'Mayor'
p306
sg16
S''
sg18
S"Hello, Mayor Goodman, I'm Philip Mossman."
p307
sbag1
(g10
g3
NtRp308
(dp309
g13
S'Say'
p310
sg15
S'Mayor'
p311
sg16
S''
sg18
S"Ah yes, you're my new assistant. A good thing, too."
p312
sbag1
(g10
g3
NtRp313
(dp314
g13
S'Say'
p315
sg15
S'Mayor'
p316
sg16
S''
sg18
S"I've been searching for minutes and haven't been able to find my pen! I bet my receptionist stole it. She has sticky fingers."
p317
sbag1
(g10
g3
NtRp318
(dp319
g13
S'Say'
p320
sg15
S'Mayor'
p321
sg16
S''
sg18
S"Well, don't just stand there, go and get it!"
p322
sbag1
(g10
g3
NtRp323
(dp324
g13
S'SetFlag'
p325
sg15
S'Mayor'
p326
sg16
S'PENQUEST'
p327
sg18
S''
sbag1
(g10
g3
NtRp328
(dp329
g13
S'RequireItem'
p330
sg15
S'Mayor'
p331
sg16
S'PEN'
p332
sg18
S'Are you simple? Go and get my pen from that thieving receptionist.'
p333
sbag1
(g10
g3
NtRp334
(dp335
g13
S'Say'
p336
sg15
S'Mayor'
p337
sg16
S''
sg18
S"Great! I know she can give you a bit of a tongue-lashing, but she's a fantastic receptionist."
p338
sbag1
(g10
g3
NtRp339
(dp340
g13
S'Say'
p341
sg15
S'Mayor'
p342
sg16
S''
sg18
S"I'm sure you want to learn a thing or two about politics \xe2\x80\x93 who doesn't? - so lets get started"
p343
sbag1
(g10
g3
NtRp344
(dp345
g13
S'SetFlag'
p346
sg15
S'Mayor'
p347
sg16
S'PROTESTORS'
p348
sg18
S''
sbag1
(g10
g3
NtRp349
(dp350
g13
S'RequireFlag'
p351
sg15
S'Mayor'
p352
sg16
S'PROTESTORSDEAD'
p353
sg18
S'Run outside and tell those protesters to scram, will you?'
p354
sbag1
(g10
g3
NtRp355
(dp356
g13
S'Say'
p357
sg15
S'Mayor'
p358
sg16
S''
sg18
S"Hope they didn't give you too much trouble!"
p359
sbag1
(g10
g3
NtRp360
(dp361
g13
S'Say'
p362
sg15
S'Mayor'
p363
sg16
S''
sg18
S"Now that's sorted, there's a journalist from the local newspaper coming for an interview."
p364
sbag1
(g10
g3
NtRp365
(dp366
g13
S'Say'
p367
sg15
S'Mayor'
p368
sg16
S''
sg18
S"I certainly don't have time for it, so you can do the interview."
p369
sbag1
(g10
g3
NtRp370
(dp371
g13
S'Say'
p372
sg15
S'Mayor'
p373
sg16
S''
sg18
S"Be careful not to give too much away and if you could throw a few punches at the opposition that'd help."
p374
sbag1
(g10
g3
NtRp375
(dp376
g13
S'PlayerSay'
p377
sg15
S'Mayor'
p378
sg16
S''
sg18
S'You want me to...throw a punch?'
p379
sbag1
(g10
g3
NtRp380
(dp381
g13
S'Say'
p382
sg15
S'Mayor'
p383
sg16
S''
sg18
S"You're in politics and don't know how to fight dirty? Sheesh! Here, let me show you."
p384
sbag1
(g10
g3
NtRp385
(dp386
g13
S'LearnAttack'
p387
sg15
S'Mayor'
p388
sg16
S'SLANDER'
p389
sg18
S'Mayor teaches Phillip to Slander Opposition'
p390
sbag1
(g10
g3
NtRp391
(dp392
g13
S'Say'
p393
sg15
S'Mayor'
p394
sg16
S''
sg18
S"It's a pretty great tactic because it keeps eating away at them long after you've done it."
p395
sbag1
(g10
g3
NtRp396
(dp397
g13
S'SetFlag'
p398
sg15
S'Mayor'
p399
sg16
S'INTERVIEWSTART'
p400
sg18
S''
sbag1
(g10
g3
NtRp401
(dp402
g13
S'RequireFlag'
p403
sg15
S'Mayor'
p404
sg16
S'JOURNALISTINTERVIEW'
p405
sg18
S'Go handle that interview and remember to slander the opposition.'
p406
sbag1
(g10
g3
NtRp407
(dp408
g13
S'SetFlag'
p409
sg15
S'Mayor'
p410
sg16
S'GOHOMETOWIFE'
p411
sg18
S''
sbag1
(g10
g3
NtRp412
(dp413
g13
S'Say'
p414
sg15
S'Mayor'
p415
sg16
S''
sg18
S'OK, fine, now could you buzz off for a while? I need to get some work done.'
p416
sbag1
(g10
g3
NtRp417
(dp418
g13
S'RequireFlag'
p419
sg15
S'Mayor'
p420
sg16
S'CONSTITUENTSWON'
p421
sg18
S"Go home to your family. I have things to do that don't involve you."
p422
sbasS'Journalist'
p423
(lp424
g1
(g10
g3
NtRp425
(dp426
g13
S'RequireFlag'
p427
sg15
g423
sg16
S'INTERVIEWSTART'
p428
sg18
S'Leave me alone, kid I need to get this done before my deadline!'
p429
sbag1
(g10
g3
NtRp430
(dp431
g13
S'Say'
p432
sg15
S'Journalist'
p433
sg16
S''
sg18
S"Hey, where's the Mayor?"
p434
sbag1
(g10
g3
NtRp435
(dp436
g13
S'PlayerSay'
p437
sg15
S'Journalist'
p438
sg16
S''
sg18
S"He couldn't make it. I'll be taking the interview."
p439
sbag1
(g10
g3
NtRp440
(dp441
g13
S'Say'
p442
sg15
S'Journalist'
p443
sg16
S''
sg18
S'Great! Easy pickings! Lets go.'
p444
sbag1
(g10
g3
NtRp445
(dp446
g13
S'Encounter'
p447
sg15
S'Journalist'
p448
sg16
S'P-easy-05'
p449
sg18
S''
sbag1
(g10
g3
NtRp450
(dp451
g13
S'Say'
p452
sg15
S'Journalist'
p453
sg16
S''
sg18
S"SNORE! Fine, if I can't get anything juicy here I'll do another puff piece on my poodle Frank."
p454
sbag1
(g10
g3
NtRp455
(dp456
g13
S'SetFlag'
p457
sg15
S'Journalist'
p458
sg16
S'JOURNALISTINTERVIEW'
p459
sg18
S''
sbag1
(g10
g3
NtRp460
(dp461
g13
S'Destroy'
p462
sg15
S'Journalist'
p463
sg16
S''
sg18
S''
sbassS'attacks'
p464
(dp465
S'GETEXCLUSIVE'
p466
g1
(g10
g3
NtRp467
(dp468
S'base_damage_max'
p469
F4
sS'description'
p470
S'asdf'
p471
sS'weight'
p472
I1
sS'crit_chance_max'
p473
F5
sS'crit_chance_min'
p474
F2
sS'underlying_stat'
p475
S'Wit'
p476
sS'target_type'
p477
S'AllFriendly'
p478
sS'base_damage_min'
p479
F2
sS'spin_cost'
p480
F5
sS'effects'
p481
(lp482
g1
(c__main__
Effect
p483
g3
NtRp484
(dp485
S'function'
p486
S'add'
p487
sS'abbrv'
p488
S'(INCREASE)'
p489
sS'attribute'
p490
S'cunning'
p491
sS'value'
p492
F2
sS'rounds_min'
p493
F1
sS'rounds_max'
p494
F4
sS'id'
p495
S'Increase Cunning'
p496
sS'apply_to_source'
p497
S'TRUE'
p498
sbasS'target_count'
p499
I1
sS'crit_base_damage'
p500
F8
sg495
g466
sS'name'
p501
S'Get Exclusive'
p502
sbsS'LOSELOSE'
p503
g1
(g10
g3
NtRp504
(dp505
g469
F4
sg470
S'Causes all politicians in the target radius to lose votes'
p506
sg472
I1
sg473
F0
sg474
F0
sg475
S'Cunning'
p507
sg477
S'All'
p508
sg479
F4
sg480
I0
sg481
(lp509
sg499
I6
sg500
F0
sg495
g503
sg501
S'Lose/lose issue'
p510
sbsS'LIE'
p511
g1
(g10
g3
NtRp512
(dp513
g469
F6
sg470
S"It's only lying if they catch you. A strong attack with a danger of failing entirely and leaving you high and dry."
p514
sg472
F3
sg473
F10
sg474
F2
sg475
S'Wit'
p515
sg477
S'AllEnemy'
p516
sg479
F0
sg480
I0
sg481
(lp517
g1
(g483
g3
NtRp518
(dp519
g486
S'miss_turn'
p520
sg488
S'(MISS)'
p521
sg490
S''
sg492
F0
sg493
F1
sg494
F1
sg495
S'Critical Fail'
p522
sg497
S'TRUE'
p523
sbasg499
I1
sg500
F10
sg495
g511
sg501
S'Lie'
p524
sbsS'HILARIOUSANECDOTE'
p525
g1
(g10
g3
NtRp526
(dp527
g469
F8
sg470
S'asdf'
p528
sg472
I1
sg473
F0
sg474
F0
sg475
S'Wit'
p529
sg477
S'AllFriendly'
p530
sg479
F4
sg480
F5
sg481
(lp531
g1
(g483
g3
NtRp532
(dp533
g486
S'add'
p534
sg488
S'(INCREASE)'
p535
sg490
S'flair'
p536
sg492
F2
sg493
F1
sg494
F4
sg495
S'Increase Flair'
p537
sg497
S'TRUE'
p538
sbasg499
I1
sg500
F0
sg495
g525
sg501
S'Hilarious Anecdote'
p539
sbsS'SENSATIONALISE'
p540
g1
(g10
g3
NtRp541
(dp542
g469
F8
sg470
S'asdf'
p543
sg472
I1
sg473
F0
sg474
F0
sg475
S'Wit'
p544
sg477
S'AllEnemy'
p545
sg479
F4
sg480
F3
sg481
(lp546
sg499
I1
sg500
F0
sg495
g540
sg501
S'Sensationalise'
p547
sbsS'DENOUNCE'
p548
g1
(g10
g3
NtRp549
(dp550
g469
F5
sg470
S'asdf'
p551
sg472
F6
sg473
F10
sg474
F2
sg475
S'Cunning'
p552
sg477
S'AllEnemy'
p553
sg479
F2
sg480
I0
sg481
(lp554
sg499
I1
sg500
F8
sg495
g548
sg501
S'Denounce'
p555
sbsS'WHADOWEWANT'
p556
g1
(g10
g3
NtRp557
(dp558
g469
F6
sg470
S'asdf'
p559
sg472
I1
sg473
F0
sg474
F0
sg475
S'Cunning'
p560
sg477
S'AllEnemy'
p561
sg479
F3
sg480
I0
sg481
(lp562
sg499
I1
sg500
F0
sg495
g556
sg501
S'Whadowewant!'
p563
sbsS'SCOOP'
p564
g1
(g10
g3
NtRp565
(dp566
g469
F5
sg470
S'asdf'
p567
sg472
I1
sg473
F10
sg474
F5
sg475
S'Cunning'
p568
sg477
S'AllEnemy'
p569
sg479
F2
sg480
I0
sg481
(lp570
sg499
I1
sg500
F8
sg495
g564
sg501
S'Scoop'
p571
sbsS'CHOOSETARGETS'
p572
g1
(g10
g3
NtRp573
(dp574
g469
F7
sg470
S'asdf'
p575
sg472
I1
sg473
F10
sg474
F5
sg475
S'Cunning'
p576
sg477
S'AllEnemy'
p577
sg479
F2
sg480
I0
sg481
(lp578
sg499
I1
sg500
F9
sg495
g572
sg501
S'Choose Targets'
p579
sbsS'FILENAILS'
p580
g1
(g10
g3
NtRp581
(dp582
g469
F0
sg470
S'asdf'
p583
sg472
I1
sg473
F0
sg474
F0
sg475
S'Wit'
p584
sg477
S'AllEnemy'
p585
sg479
F0
sg480
F3
sg481
(lp586
g1
(g483
g3
NtRp587
(dp588
g486
S'add_permanent'
p589
sg488
S''
sg490
S'votes'
p590
sg492
F5
sg493
F1
sg494
F1
sg495
S'Votes Restore'
p591
sg497
S'TRUE'
p592
sbasg499
I1
sg500
F0
sg495
g580
sg501
S'File Nails'
p593
sbsS'BRIBE'
p594
g1
(g10
g3
NtRp595
(dp596
g469
F1
sg470
S'Is there anything more convincing than money? Buying loyalty gets expensive so be careful.'
p597
sg472
I1
sg473
F1
sg474
F1
sg475
S'Money'
p598
sg477
S'AllEnemy'
p599
sg479
F2
sg480
I0
sg481
(lp600
sg499
I1
sg500
F1
sg495
g594
sg501
S'Bribe'
p601
sbsS'SING'
p602
g1
(g10
g3
NtRp603
(dp604
g469
F-3
sg470
S'Why bandy words with politicians when you can sing a catchy tune! Restores votes.'
p605
sg472
I1
sg473
F0
sg474
F0
sg475
S'Wit'
p606
sg477
S'AllFriendly'
p607
sg479
F-5
sg480
I0
sg481
(lp608
sg499
I4
sg500
F0
sg495
g602
sg501
S'Rousing Song'
p609
sbsS'FEAR'
p610
g1
(g10
g3
NtRp611
(dp612
g469
F0
sg470
S'asdf'
p613
sg472
F2
sg473
F0
sg474
F0
sg475
S'Wit'
p614
sg477
S'AllFriendly'
p615
sg479
F0
sg480
F4
sg481
(lp616
g484
asg499
I1
sg500
F0
sg495
g610
sg501
S'Fear Change'
p617
sbsS'RAISEDEFCON'
p618
g1
(g10
g3
NtRp619
(dp620
g469
F5
sg470
S'asdf'
p621
sg472
I1
sg473
F7
sg474
F3
sg475
S'Cunning'
p622
sg477
S'AllEnemy'
p623
sg479
F4
sg480
I0
sg481
(lp624
sg499
I1
sg500
F8
sg495
g618
sg501
S'Raise DEFCON'
p625
sbsS'NEGATTACKAD'
p626
g1
(g10
g3
NtRp627
(dp628
g469
F8
sg470
S"Take them all down. They're definitely all bad people. Not like you."
p629
sg472
I1
sg473
F10
sg474
F10
sg475
S'Cunning'
p630
sg477
S'AllEnemy'
p631
sg479
F3
sg480
F5
sg481
(lp632
sg499
I1
sg500
F10
sg495
g626
sg501
S'Negative Attack Ad'
p633
sbsS'DAZZLE'
p634
g1
(g10
g3
NtRp635
(dp636
g469
F3
sg470
S'Being dazzling and admirable is a great way to take heat off politics'
p637
sg472
I1
sg473
F8
sg474
F5
sg475
S'Wit'
p638
sg477
S'AllEnemy'
p639
sg479
F2
sg480
F3
sg481
(lp640
g1
(g483
g3
NtRp641
(dp642
g486
S'reduce'
p643
sg488
S'(REDUCE)'
p644
sg490
S'cunning'
p645
sg492
F2
sg493
F2
sg494
F5
sg495
S'Reduce Cunning'
p646
sg497
S''
sbasg499
I4
sg500
F8
sg495
g634
sg501
S'Dazzle'
p647
sbsS'BELIEVEMEDIA'
p648
g1
(g10
g3
NtRp649
(dp650
g469
F3
sg470
S'asdf'
p651
sg472
I1
sg473
F15
sg474
F5
sg475
S'Cunning'
p652
sg477
S'AllEnemy'
p653
sg479
F1
sg480
I0
sg481
(lp654
sg499
I1
sg500
F12
sg495
g648
sg501
S'Believe Media'
p655
sbsS'PRPREP'
p656
g1
(g10
g3
NtRp657
(dp658
g469
F0
sg470
S"If you're going to need some spin, best see a spin doctor! Adds spin points."
p659
sg472
I1
sg473
F0
sg474
F0
sg475
S''
sg477
S'AllFriendly'
p660
sg479
F0
sg480
I0
sg481
(lp661
g1
(g483
g3
NtRp662
(dp663
g486
S'add_permanent'
p664
sg488
S''
sg490
S'spin'
p665
sg492
F5
sg493
F0
sg494
F0
sg495
S'Spin Restore'
p666
sg497
S'TRUE'
p667
sbasg499
I1
sg500
F0
sg495
g656
sg501
S'PR Prep'
p668
sbsS'CALLVATICAN'
p669
g1
(g10
g3
NtRp670
(dp671
g469
F0
sg470
S'Brings in 2 additional ReligousNuts at 2 levels lower than this one'
p672
sg472
I1
sg473
F0
sg474
F0
sg475
S'Wit'
p673
sg477
S'None'
p674
sg479
F0
sg480
F5
sg481
(lp675
g1
(g483
g3
NtRp676
(dp677
g486
S'call_friends'
p678
sg488
S''
sg490
S''
sg492
F2
sg493
F1
sg494
F1
sg495
S'Call Friends'
p679
sg497
S''
sbasg499
I1
sg500
F0
sg495
g669
sg501
S'Call Vatican'
p680
sbsS'BLACKMAIL'
p681
g1
(g10
g3
NtRp682
(dp683
g469
F6
sg470
S'asdf'
p684
sg472
I1
sg473
F10
sg474
F2
sg475
S'Wit'
p685
sg477
S'AllEnemy'
p686
sg479
F3
sg480
F4
sg481
(lp687
g1
(g483
g3
NtRp688
(dp689
g486
S'drain'
p690
sg488
S'(DRAIN)'
p691
sg490
S'votes'
p692
sg492
F1
sg493
F2
sg494
F5
sg495
S'Drain Votes'
p693
sg497
S''
sbasg499
I1
sg500
F2
sg495
g681
sg501
S'Blackmail'
p694
sbsS'PROTEST'
p695
g1
(g10
g3
NtRp696
(dp697
g469
F5
sg470
S'asdf'
p698
sg472
F6
sg473
F10
sg474
F2
sg475
S'Cunning'
p699
sg477
S'AllEnemy'
p700
sg479
F2
sg480
I0
sg481
(lp701
sg499
I1
sg500
F8
sg495
g695
sg501
S'Protest'
p702
sbsS'SPREADRUMOUR'
p703
g1
(g10
g3
NtRp704
(dp705
g469
F6
sg470
S'asdf'
p706
sg472
I1
sg473
F10
sg474
F2
sg475
S'Wit'
p707
sg477
S'AllEnemy'
p708
sg479
F2
sg480
F3
sg481
(lp709
sg499
I4
sg500
F8
sg495
g703
sg501
S'Spread Rumour'
p710
sbsS'AGENDA'
p711
g1
(g10
g3
NtRp712
(dp713
g469
F5
sg470
S'asdf'
p714
sg472
F6
sg473
F10
sg474
F2
sg475
S'Cunning'
p715
sg477
S'AllEnemy'
p716
sg479
F2
sg480
I0
sg481
(lp717
sg499
I1
sg500
F8
sg495
g711
sg501
S'Push Agenda'
p718
sbsS'FILIBUSTER'
p719
g1
(g10
g3
NtRp720
(dp721
g469
F0
sg470
S"You're not moving until they give in. Cause all opposition to miss their turn"
p722
sg472
I1
sg473
F0
sg474
F0
sg475
S'Wit'
p723
sg477
S'AllEnemy'
p724
sg479
F0
sg480
F8
sg481
(lp725
g1
(g483
g3
NtRp726
(dp727
g486
S'miss_turn'
p728
sg488
S'(MISS)'
p729
sg490
S''
sg492
F0
sg493
F1
sg494
F1
sg495
S'Miss Turn'
p730
sg497
S''
sbasg499
I1
sg500
F0
sg495
g719
sg501
S'Filibuster'
p731
sbsS'GATHERINTEL'
p732
g1
(g10
g3
NtRp733
(dp734
g469
F0
sg470
S'Increases Cunning.'
p735
sg472
I1
sg473
F0
sg474
F0
sg475
S'Wit'
p736
sg477
S'AllFriendly'
p737
sg479
F0
sg480
F3
sg481
(lp738
g484
asg499
I2
sg500
F0
sg495
g732
sg501
S'Gather Intelligence'
p739
sbsS'LOVE'
p740
g1
(g10
g3
NtRp741
(dp742
g469
F6
sg470
S'asdf'
p743
sg472
F2
sg473
F8
sg474
F2
sg475
S'Cunning'
p744
sg477
S'AllEnemy'
p745
sg479
F1
sg480
I0
sg481
(lp746
sg499
I1
sg500
F7
sg495
g740
sg501
S'Love'
p747
sbsS'OUTOFCONTEXT'
p748
g1
(g10
g3
NtRp749
(dp750
g469
F3
sg470
S'asdf'
p751
sg472
I1
sg473
F5
sg474
F2
sg475
S'Wit'
p752
sg477
S'AllEnemy'
p753
sg479
F2
sg480
F2
sg481
(lp754
g688
asg499
I1
sg500
F5
sg495
g748
sg501
S'Take Out Of Context'
p755
sbsS'GREATSUIT'
p756
g1
(g10
g3
NtRp757
(dp758
g469
F6
sg470
S'Well, we could argue, but have you noticed how fabulous this suit is?'
p759
sg472
I1
sg473
F11
sg474
F6
sg475
S'Cunning'
p760
sg477
S'AllEnemy'
p761
sg479
F3
sg480
I0
sg481
(lp762
sg499
I1
sg500
F12
sg495
g756
sg501
S'Look Great In Suit'
p763
sbsS'PEACE'
p764
g1
(g10
g3
NtRp765
(dp766
g469
F0
sg470
S'asdf'
p767
sg472
I1
sg473
F0
sg474
F0
sg475
S'Wit'
p768
sg477
S'AllEnemy'
p769
sg479
F0
sg480
F3
sg481
(lp770
g641
asg499
I4
sg500
F0
sg495
g764
sg501
S'Peace'
p771
sbsS'INSPSPEECH'
p772
g1
(g10
g3
NtRp773
(dp774
g469
F-2
sg470
S'Restore votes to all party members'
p775
sg472
I1
sg473
F0
sg474
F0
sg475
S'Cunning'
p776
sg477
S'AllFriendly'
p777
sg479
F-2
sg480
I0
sg481
(lp778
sg499
I4
sg500
F0
sg495
g772
sg501
S'Inspirational Speech'
p779
sbsS'STRIKE'
p780
g1
(g10
g3
NtRp781
(dp782
g469
F8
sg470
S'asdf'
p783
sg472
I1
sg473
F0
sg474
F0
sg475
S'Wit'
p784
sg477
S'AllEnemy'
p785
sg479
F0
sg480
F3
sg481
(lp786
g518
asg499
I1
sg500
F0
sg495
g780
sg501
S'Call A Strike'
p787
sbsS'SLANDER'
p788
g1
(g10
g3
NtRp789
(dp790
g469
F3
sg470
S'Strong against polititians...careful with those voters, though!'
p791
sg472
F4
sg473
F10
sg474
F2
sg475
S'Wit'
p792
sg477
S'AllEnemy'
p793
sg479
F2
sg480
I0
sg481
(lp794
g688
asg499
I1
sg500
F5
sg495
g788
sg501
S'Slander Opposition'
p795
sbsS'NATTER'
p796
g1
(g10
g3
NtRp797
(dp798
g469
F8
sg470
S'asdf'
p799
sg472
I1
sg473
F15
sg474
F5
sg475
S'Cunning'
p800
sg477
S'AllEnemy'
p801
sg479
F1
sg480
I0
sg481
(lp802
sg499
I1
sg500
F10
sg495
g796
sg501
S'Natter On'
p803
sbsS'GOSSIP'
p804
g1
(g10
g3
NtRp805
(dp806
g469
F3
sg470
S'asdf'
p807
sg472
I1
sg473
F10
sg474
F2
sg475
S'Wit'
p808
sg477
S'AllEnemy'
p809
sg479
F1
sg480
F2
sg481
(lp810
g641
asg499
I1
sg500
F6
sg495
g804
sg501
S'Gossip'
p811
sbsS'MISSTURN'
p812
g1
(g10
g3
NtRp813
(dp814
g469
F0
sg470
S'asdf'
p815
sg472
I1
sg473
F0
sg474
F0
sg475
S''
sg477
S'AllEnemy'
p816
sg479
F0
sg480
I0
sg481
(lp817
sg499
I1
sg500
F0
sg495
g812
sg501
S'Miss Turn'
p818
sbsS'BIELECTION'
p819
g1
(g10
g3
NtRp820
(dp821
g469
F4
sg470
S'Redistribute votes amongst targets'
p822
sg472
I1
sg473
F0
sg474
F0
sg475
S'Cunning'
p823
sg477
S'All'
p824
sg479
F-4
sg480
F4
sg481
(lp825
sg499
I8
sg500
F0
sg495
g819
sg501
S'Bielection'
p826
sbsS'SCARE'
p827
g1
(g10
g3
NtRp828
(dp829
g469
F7
sg470
S'Nothing rattles the brains like fear.'
p830
sg472
I1
sg473
F10
sg474
F2
sg475
S'Wit'
p831
sg477
S'AllEnemy'
p832
sg479
F2
sg480
I0
sg481
(lp833
g641
asg499
I2
sg500
F9
sg495
g827
sg501
S'Scare Campaign'
p834
sbsS'PAYOFF'
p835
g1
(g10
g3
NtRp836
(dp837
g469
F7
sg470
S'causes them to miss a number of turns'
p838
sg472
I1
sg473
F8
sg474
F2
sg475
S'Wit'
p839
sg477
S'AllEnemy'
p840
sg479
F2
sg480
F4
sg481
(lp841
g1
(g483
g3
NtRp842
(dp843
g486
S'miss_turn'
p844
sg488
S'(MISS)'
p845
sg490
S''
sg492
F0
sg493
F1
sg494
F3
sg495
S'Miss Turn Pay Off'
p846
sg497
S''
sbasg499
I1
sg500
F9
sg495
g835
sg501
S'Pay Off'
p847
sbsS'BUREAUCRACY'
p848
g1
(g10
g3
NtRp849
(dp850
g469
F5
sg470
S'asdf'
p851
sg472
F6
sg473
F10
sg474
F2
sg475
S'Cunning'
p852
sg477
S'AllEnemy'
p853
sg479
F2
sg480
I0
sg481
(lp854
sg499
I1
sg500
F8
sg495
g848
sg501
S'Bureaucracy'
p855
sbsS'RALLYAUDIENCE'
p856
g1
(g10
g3
NtRp857
(dp858
g469
F8
sg470
S'asdf'
p859
sg472
I1
sg473
F0
sg474
F0
sg475
S'Wit'
p860
sg477
S'AllFriendly'
p861
sg479
F4
sg480
F3
sg481
(lp862
g1
(g483
g3
NtRp863
(dp864
g486
S'add'
p865
sg488
S'(INCREASE)'
p866
sg490
S'charisma'
p867
sg492
F2
sg493
F1
sg494
F4
sg495
S'Increase Charisma'
p868
sg497
S'TRUE'
p869
sbasg499
I1
sg500
F0
sg495
g856
sg501
S'Rally Audience'
p870
sbsS'PORKBARREL'
p871
g1
(g10
g3
NtRp872
(dp873
g469
F6
sg470
S'Do something that benefits them specifically. Not advised against politicians.'
p874
sg472
I1
sg473
F0
sg474
F0
sg475
S'Wit'
p875
sg477
S'AllEnemy'
p876
sg479
F2
sg480
F2
sg481
(lp877
sg499
I1
sg500
F0
sg495
g871
sg501
S'Pork Barrel'
p878
sbsS'INSPIRE'
p879
g1
(g10
g3
NtRp880
(dp881
g469
F0
sg470
S'asdf'
p882
sg472
I1
sg473
F0
sg474
F0
sg475
S'Wit'
p883
sg477
S'AllFriendly'
p884
sg479
F0
sg480
F3
sg481
(lp885
g484
asg499
I4
sg500
F0
sg495
g879
sg501
S'Inspire'
p886
sbsS'JOKE'
p887
g1
(g10
g3
NtRp888
(dp889
g469
F3
sg470
S"Ha, ha, ha...what were we talking about? Diffuse the situation with some humour. Not good if it falls flat, but if they get it, it'll knock 'em dead."
p890
sg472
F3
sg473
F30
sg474
F10
sg475
S'Wit'
p891
sg477
S'AllEnemy'
p892
sg479
F2
sg480
I0
sg481
(lp893
sg499
I1
sg500
F10
sg495
g887
sg501
S'Joke'
p894
sbsS'PRAYFORSOULS'
p895
g1
(g10
g3
NtRp896
(dp897
g469
F6
sg470
S'asdf'
p898
sg472
F2
sg473
F10
sg474
F2
sg475
S'Cunning'
p899
sg477
S'None'
p900
sg479
F3
sg480
I0
sg481
(lp901
sg499
I1
sg500
F10
sg495
g895
sg501
S'Pray'
p902
sbsS'REVIVE'
p903
g1
(g10
g3
NtRp904
(dp905
g469
F0
sg470
S'Revive a defeated comrade to half votes'
p906
sg472
I1
sg473
F0
sg474
F0
sg475
S''
sg477
S'DeadFriendly'
p907
sg479
F0
sg480
F3
sg481
(lp908
g1
(g483
g3
NtRp909
(dp910
g486
S'revive'
p911
sg488
S''
sg490
S''
sg492
F0.5
sg493
F0
sg494
F0
sg495
S'Revive'
p912
sg497
S''
sbasg499
I1
sg500
F0
sg495
g903
sg501
S'Revive'
p913
sbsS'HUMANSHIELD'
p914
g1
(g10
g3
NtRp915
(dp916
g469
F5
sg470
S'No further questions. Step back, please.'
p917
sg472
I1
sg473
F5
sg474
F2
sg475
S'Wit'
p918
sg477
S'AllEnemy'
p919
sg479
F2
sg480
F4
sg481
(lp920
g726
asg499
I2
sg500
F12
sg495
g914
sg501
S'Human Shield'
p921
sbsS'MAKEDEMANDS'
p922
g1
(g10
g3
NtRp923
(dp924
g469
F8
sg470
S'asdf'
p925
sg472
I1
sg473
F0
sg474
F0
sg475
S'Cunning'
p926
sg477
S'AllEnemy'
p927
sg479
F0
sg480
I0
sg481
(lp928
g518
asg499
I1
sg500
F0
sg495
g922
sg501
S'Make Outrageous Demands'
p929
sbsS'DEFENSE'
p930
g1
(g10
g3
NtRp931
(dp932
g469
F0
sg470
S'Gather strenth; -50% to all incoming attacks'
p933
sg472
I1
sg473
F0
sg474
F0
sg475
S''
sg477
S'None'
p934
sg479
F0
sg480
I0
sg481
(lp935
g1
(g483
g3
NtRp936
(dp937
g486
S'add'
p938
sg488
S'(DFND)'
p939
sg490
S'resistance'
p940
sg492
F0.5
sg493
F1
sg494
F1
sg495
S'Defense'
p941
sg497
S'TRUE'
p942
sbasg499
I1
sg500
F0
sg495
g930
sg501
S'Defense'
p943
sbsS'MISCONSTRUE'
p944
g1
(g10
g3
NtRp945
(dp946
g469
F8
sg470
S'asdf'
p947
sg472
I1
sg473
F0
sg474
F0
sg475
S'Cunning'
p948
sg477
S'AllEnemy'
p949
sg479
F0
sg480
I0
sg481
(lp950
g518
asg499
I1
sg500
F0
sg495
g944
sg501
S'Misconstrue'
p951
sbsS'NATIONALSECURITY'
p952
g1
(g10
g3
NtRp953
(dp954
g469
F7
sg470
S"This is a matter of national security and they don't have codeword clearance"
p955
sg472
I1
sg473
F10
sg474
F2
sg475
S'Cunning'
p956
sg477
S'AllEnemy'
p957
sg479
F2
sg480
I0
sg481
(lp958
sg499
I1
sg500
F9
sg495
g952
sg501
S'National Security'
p959
sbsS'RALLY'
p960
g1
(g10
g3
NtRp961
(dp962
g469
F-2
sg470
S'Get back some votes by rallying supporters'
p963
sg472
I1
sg473
F0
sg474
F0
sg475
S'Wit'
p964
sg477
S'AllFriendly'
p965
sg479
F-4
sg480
F2
sg481
(lp966
sg499
I1
sg500
F0
sg495
g960
sg501
S'Rally Constituents'
p967
sbsS'MESSAGE'
p968
g1
(g10
g3
NtRp969
(dp970
g469
F5
sg470
S'You can certainly wear them down by repeating your party line over and over and over...if you want'
p971
sg472
F6
sg473
F10
sg474
F2
sg475
S'Wit'
p972
sg477
S'AllEnemy'
p973
sg479
F2
sg480
I0
sg481
(lp974
sg499
I1
sg500
F8
sg495
g968
sg501
S'Stay On Message'
p975
sbsS'APPEALTOGOD'
p976
g1
(g10
g3
NtRp977
(dp978
g469
F6
sg470
S'asdf'
p979
sg472
F3
sg473
F0
sg474
F0
sg475
S'Wit'
p980
sg477
S'AllEnemy'
p981
sg479
F4
sg480
F7
sg481
(lp982
sg499
I4
sg500
F0
sg495
g976
sg501
S'Appeal To God'
p983
sbssS'levels'
p984
(lp985
g1
(g10
g3
NtRp986
(dp987
S'votes'
p988
F10
sS'level'
p989
F1
sS'spin'
p990
F5
sS'xp'
p991
F0
sS'skill_points'
p992
F0
sbag1
(g10
g3
NtRp993
(dp994
g988
F12
sg989
F2
sg990
F5
sg991
F5
sg992
F2
sbag1
(g10
g3
NtRp995
(dp996
g988
F15
sg989
F3
sg990
F6
sg991
F200
sg992
F2
sbag1
(g10
g3
NtRp997
(dp998
g988
F20
sg989
F4
sg990
F6
sg991
F500
sg992
F2
sbag1
(g10
g3
NtRp999
(dp1000
g988
F25
sg989
F5
sg990
F7
sg991
F1000
sg992
F2
sbag1
(g10
g3
NtRp1001
(dp1002
g988
F30
sg989
F6
sg990
F7
sg991
F2000
sg992
F2
sbag1
(g10
g3
NtRp1003
(dp1004
g988
F35
sg989
F7
sg990
F8
sg991
F5000
sg992
F2
sbag1
(g10
g3
NtRp1005
(dp1006
g988
F40
sg989
F8
sg990
F8
sg991
F10000
sg992
F2
sbag1
(g10
g3
NtRp1007
(dp1008
g988
F45
sg989
F9
sg990
F9
sg991
F15000
sg992
F2
sbag1
(g10
g3
NtRp1009
(dp1010
g988
F50
sg989
F10
sg990
F9
sg991
F20000
sg992
F2
sbag1
(g10
g3
NtRp1011
(dp1012
g988
F55
sg989
F11
sg990
F10
sg991
F40000
sg992
F2
sbag1
(g10
g3
NtRp1013
(dp1014
g988
S''
sg989
F12
sg990
S''
sg991
S''
sg992
S''
sbag1
(g10
g3
NtRp1015
(dp1016
g988
S''
sg989
F13
sg990
S''
sg991
S''
sg992
S''
sbag1
(g10
g3
NtRp1017
(dp1018
g988
S''
sg989
F14
sg990
S''
sg991
S''
sg992
S''
sbag1
(g10
g3
NtRp1019
(dp1020
g988
S''
sg989
F15
sg990
S''
sg991
S''
sg992
S''
sbag1
(g10
g3
NtRp1021
(dp1022
g988
S''
sg989
F16
sg990
S''
sg991
S''
sg992
S''
sbag1
(g10
g3
NtRp1023
(dp1024
g988
S''
sg989
F17
sg990
S''
sg991
S''
sg992
S''
sbag1
(g10
g3
NtRp1025
(dp1026
g988
S''
sg989
F18
sg990
S''
sg991
S''
sg992
S''
sbag1
(g10
g3
NtRp1027
(dp1028
g988
S''
sg989
F19
sg990
S''
sg991
S''
sg992
S''
sbag1
(g10
g3
NtRp1029
(dp1030
g988
S''
sg989
F20
sg990
S''
sg991
S''
sg992
S''
sbag1
(g10
g3
NtRp1031
(dp1032
g988
S''
sg989
F21
sg990
S''
sg991
S''
sg992
S''
sbag1
(g10
g3
NtRp1033
(dp1034
g988
S''
sg989
F22
sg990
S''
sg991
S''
sg992
S''
sbag1
(g10
g3
NtRp1035
(dp1036
g988
S''
sg989
F23
sg990
S''
sg991
S''
sg992
S''
sbag1
(g10
g3
NtRp1037
(dp1038
g988
S''
sg989
F24
sg990
S''
sg991
S''
sg992
S''
sbag1
(g10
g3
NtRp1039
(dp1040
g988
S''
sg989
F25
sg990
S''
sg991
S''
sg992
S''
sbag1
(g10
g3
NtRp1041
(dp1042
g988
S''
sg989
F26
sg990
S''
sg991
S''
sg992
S''
sbag1
(g10
g3
NtRp1043
(dp1044
g988
S''
sg989
F27
sg990
S''
sg991
S''
sg992
S''
sbag1
(g10
g3
NtRp1045
(dp1046
g988
S''
sg989
F28
sg990
S''
sg991
S''
sg992
S''
sbag1
(g10
g3
NtRp1047
(dp1048
g988
S''
sg989
F29
sg990
S''
sg991
S''
sg992
S''
sbasg481
(dp1049
g496
g484
sg591
g587
sg666
g662
sg868
g863
sg730
g726
sg679
g676
sg846
g842
sg912
g909
sg646
g641
sg693
g688
sg941
g936
sg522
g518
sg537
g532
ssS'characters'
p1050
(dp1051
S'Teacher001'
p1052
(lp1053
g1
(g10
g3
NtRp1054
(dp1055
S'flair_base'
p1056
F1
sS'spin_base'
p1057
F4
sS'flair_lvl'
p1058
F1.1499999999999999
sS'wit_base'
p1059
F1
sS'resistance'
p1060
(lp1061
sS'wit_lvl'
p1062
F1.0900000000000001
sS'cunning_base'
p1063
F1
sg495
g1052
sS'votes_base'
p1064
F10
sS'speed_lvl'
p1065
F1.0800000000000001
sS'standard_attacks'
p1066
(lp1067
g931
ag696
asS'cunning_lvl'
p1068
F1.1000000000000001
sS'charisma_lvl'
p1069
F1.1499999999999999
sS'spin_attacks'
p1070
(lp1071
g781
ag961
asS'spin_lvl'
p1072
F1.0800000000000001
sS'charisma_base'
p1073
F1
sS'weaknesses'
p1074
(lp1075
sS'attack_group'
p1076
S'Teacher'
p1077
sS'votes_lvl'
p1078
F1.2
sg501
S'Teacher'
p1079
sS'speed_base'
p1080
F1
sS'immunities'
p1081
(lp1082
sbasS'Politician001'
p1083
(lp1084
g1
(g10
g3
NtRp1085
(dp1086
g1056
F1
sg1057
F4
sg1058
F1.1499999999999999
sg1059
F1
sg1060
(lp1087
g512
asg1062
F1.0900000000000001
sg1063
F1
sg495
g1083
sg1064
F10
sg1065
F1.0800000000000001
sg1066
(lp1088
g969
ag789
ag512
ag888
ag931
asg1068
F1.1000000000000001
sg1069
F1.1499999999999999
sg1070
(lp1089
g820
ag627
ag904
asg1072
F1.0800000000000001
sg1073
F1
sg1074
(lp1090
g595
asg1076
S'Politician'
p1091
sg1078
F1.2
sg501
S'Politician'
p1092
sg1080
F1
sg1081
(lp1093
g872
asbasS'SecretAgent'
p1094
(lp1095
g1
(g10
g3
NtRp1096
(dp1097
g1056
F1
sg1057
F4
sg1058
F1.1499999999999999
sg1059
F1
sg1060
(lp1098
sg1062
F1.0900000000000001
sg1063
F1
sg495
g1094
sg1064
F18
sg1065
F1.0800000000000001
sg1066
(lp1099
g931
ag953
ag757
asg1068
F1.1000000000000001
sg1069
F1.1499999999999999
sg1070
(lp1100
g915
ag733
asg1072
F1.0800000000000001
sg1073
F1
sg1074
(lp1101
sg1076
S'SecretAgent'
p1102
sg1078
F1.2
sg501
S'Agent Kawalski'
p1103
sg1080
F1
sg1081
(lp1104
sbasS'Bumpkin001'
p1105
(lp1106
g1
(g10
g3
NtRp1107
(dp1108
g1056
F1
sg1057
F4
sg1058
F1.1499999999999999
sg1059
F1
sg1060
(lp1109
sg1062
F1.0900000000000001
sg1063
F1
sg495
g1105
sg1064
F10
sg1065
F1.0800000000000001
sg1066
(lp1110
g888
ag649
asg1068
F1.1000000000000001
sg1069
F1.1499999999999999
sg1070
(lp1111
g611
ag704
asg1072
F1.0800000000000001
sg1073
F1
sg1074
(lp1112
g512
ag789
ag828
asg1076
S'Bumpkin'
p1113
sg1078
F1.2
sg501
S'Bumpkin'
p1114
sg1080
F1
sg1081
(lp1115
sbasS'WarVet001'
p1116
(lp1117
g1
(g10
g3
NtRp1118
(dp1119
g1056
F1
sg1057
F4
sg1058
F1.1499999999999999
sg1059
F1
sg1060
(lp1120
sg1062
F1.0900000000000001
sg1063
F1
sg495
g1116
sg1064
F10
sg1065
F1.0800000000000001
sg1066
(lp1121
g923
ag931
asg1068
F1.1000000000000001
sg1069
F1.1499999999999999
sg1070
(lp1122
g880
ag961
asg1072
F1.0800000000000001
sg1073
F1
sg1074
(lp1123
sg1076
S'WarVet'
p1124
sg1078
F1.2
sg501
S'War Veteran'
p1125
sg1080
F1
sg1081
(lp1126
sbasS'Receptionist001'
p1127
(lp1128
g1
(g10
g3
NtRp1129
(dp1130
g1056
F1
sg1057
F4
sg1058
F1.1499999999999999
sg1059
F1
sg1060
(lp1131
sg1062
F1.0900000000000001
sg1063
F1
sg495
g1127
sg1064
F10
sg1065
F1.0800000000000001
sg1066
(lp1132
g849
ag797
asg1068
F1.1000000000000001
sg1069
F1.1499999999999999
sg1070
(lp1133
g805
ag581
asg1072
F1.0800000000000001
sg1073
F1
sg1074
(lp1134
sg1076
S'Receptionist'
p1135
sg1078
F1.2
sg501
S'Receptionist'
p1136
sg1080
F1
sg1081
(lp1137
sbasS'DeepThroat'
p1138
(lp1139
g1
(g10
g3
NtRp1140
(dp1141
g1056
F1
sg1057
F4
sg1058
F1.1499999999999999
sg1059
F1
sg1060
(lp1142
sg1062
F1.0900000000000001
sg1063
F1
sg495
g1138
sg1064
F10
sg1065
F1.0800000000000001
sg1066
(lp1143
g789
ag931
ag923
asg1068
F1.1000000000000001
sg1069
F1.1499999999999999
sg1070
(lp1144
g682
asg1072
F1.0800000000000001
sg1073
F1
sg1074
(lp1145
sg1076
S'DeepThroat'
p1146
sg1078
F1.2
sg501
S'Deep Throat'
p1147
sg1080
F1
sg1081
(lp1148
sbasS'Leo'
p1149
(lp1150
g1
(g10
g3
NtRp1151
(dp1152
g1056
F1
sg1057
F4
sg1058
F1.1499999999999999
sg1059
F1
sg1060
(lp1153
sg1062
F1.0900000000000001
sg1063
F1
sg495
g1149
sg1064
F14
sg1065
F1.0800000000000001
sg1066
(lp1154
g969
ag789
ag512
ag888
ag595
asg1068
F1.1000000000000001
sg1069
F1.1499999999999999
sg1070
(lp1155
g820
ag627
ag872
ag720
asg1072
F1.0800000000000001
sg1073
F1
sg1074
(lp1156
sg1076
S'Theo'
p1157
sg1078
F1.2
sg501
S'Theo'
p1158
sg1080
F1
sg1081
(lp1159
sbasS'HippyGirl001'
p1160
(lp1161
g1
(g10
g3
NtRp1162
(dp1163
g1056
F1
sg1057
F4
sg1058
F1.1499999999999999
sg1059
F1
sg1060
(lp1164
sg1062
F1.0900000000000001
sg1063
F1
sg495
g1160
sg1064
F10
sg1065
F1.0800000000000001
sg1066
(lp1165
g603
ag696
ag741
asg1068
F1.1000000000000001
sg1069
F1.1499999999999999
sg1070
(lp1166
g765
ag961
ag904
asg1072
F1.0800000000000001
sg1073
F1
sg1074
(lp1167
g888
asg1076
S'Hippy'
p1168
sg1078
F1.2
sg501
S'Hippy Girl'
p1169
sg1080
F1
sg1081
(lp1170
sbasS'President'
p1171
(lp1172
g1
(g10
g3
NtRp1173
(dp1174
g1056
F1
sg1057
F4
sg1058
F1.1499999999999999
sg1059
F1
sg1060
(lp1175
sg1062
F1.0900000000000001
sg1063
F1
sg495
g1171
sg1064
F10
sg1065
F1.0800000000000001
sg1066
(lp1176
g969
ag789
ag512
ag888
ag931
asg1068
F1.1000000000000001
sg1069
F1.1499999999999999
sg1070
(lp1177
g820
ag627
ag904
asg1072
F1.0800000000000001
sg1073
F1
sg1074
(lp1178
sg1076
S'Politician'
p1179
sg1078
F1.2
sg501
S'President Allen'
p1180
sg1080
F1
sg1081
(lp1181
sbasS'Unionist001'
p1182
(lp1183
g1
(g10
g3
NtRp1184
(dp1185
g1056
F1
sg1057
F4
sg1058
F1.1499999999999999
sg1059
F1
sg1060
(lp1186
sg1062
F1.0900000000000001
sg1063
F1
sg495
g1182
sg1064
F10
sg1065
F1.0800000000000001
sg1066
(lp1187
g923
ag931
ag696
asg1068
F1.1000000000000001
sg1069
F1.1499999999999999
sg1070
(lp1188
g781
asg1072
F1.0800000000000001
sg1073
F1
sg1074
(lp1189
sg1076
S'Unionist'
p1190
sg1078
F1.2
sg501
S'Unionist'
p1191
sg1080
F1
sg1081
(lp1192
sbasS'Wife'
p1193
(lp1194
g1
(g10
g3
NtRp1195
(dp1196
g1056
F1
sg1057
F4
sg1058
F1.1499999999999999
sg1059
F1
sg1060
(lp1197
sg1062
F1.0900000000000001
sg1063
F1
sg495
g1193
sg1064
F12
sg1065
F1.0800000000000001
sg1066
(lp1198
g931
ag969
asg1068
F1.1000000000000001
sg1069
F1.1499999999999999
sg1070
(lp1199
g961
ag904
ag635
asg1072
F1.0800000000000001
sg1073
F1
sg1074
(lp1200
sg1076
S'Wife'
p1201
sg1078
F1.2
sg501
S'Sarah Mossman'
p1202
sg1080
F1
sg1081
(lp1203
sbasS'PresidentAlien'
p1204
(lp1205
g1
(g10
g3
NtRp1206
(dp1207
g1056
F1
sg1057
F4
sg1058
F1.1499999999999999
sg1059
F1
sg1060
(lp1208
sg1062
F1.0900000000000001
sg1063
F1
sg495
g1204
sg1064
F10
sg1065
F1.0800000000000001
sg1066
(lp1209
g969
ag789
ag512
ag888
ag931
asg1068
F1.1000000000000001
sg1069
F1.1499999999999999
sg1070
(lp1210
g820
ag627
ag904
asg1072
F1.0800000000000001
sg1073
F1
sg1074
(lp1211
sg1076
S'Politician'
p1212
sg1078
F1.2
sg501
S'President Alien'
p1213
sg1080
F1
sg1081
(lp1214
sbasS'Governor'
p1215
(lp1216
g1
(g10
g3
NtRp1217
(dp1218
g1056
F1
sg1057
F4
sg1058
F1.1499999999999999
sg1059
F1
sg1060
(lp1219
sg1062
F1.0900000000000001
sg1063
F1
sg495
g1215
sg1064
F10
sg1065
F1.0800000000000001
sg1066
(lp1220
g969
ag789
ag512
ag888
ag931
asg1068
F1.1000000000000001
sg1069
F1.1499999999999999
sg1070
(lp1221
g820
ag627
ag904
asg1072
F1.0800000000000001
sg1073
F1
sg1074
(lp1222
sg1076
S'Politician'
p1223
sg1078
F1.2
sg501
g1215
sg1080
F1
sg1081
(lp1224
sbasS'Lobbyist001'
p1225
(lp1226
g1
(g10
g3
NtRp1227
(dp1228
g1056
F1
sg1057
F4
sg1058
F1.1499999999999999
sg1059
F1
sg1060
(lp1229
sg1062
F1.0900000000000001
sg1063
F1
sg495
g1225
sg1064
F10
sg1065
F1.0800000000000001
sg1066
(lp1230
g712
ag923
asg1068
F1.1000000000000001
sg1069
F1.1499999999999999
sg1070
(lp1231
g836
ag682
asg1072
F1.0800000000000001
sg1073
F1
sg1074
(lp1232
g872
asg1076
S'Lobbyist'
p1233
sg1078
F1.2
sg501
S'Lobbyist'
p1234
sg1080
F1
sg1081
(lp1235
g595
asbasS'Journalist001'
p1236
(lp1237
g1
(g10
g3
NtRp1238
(dp1239
g1056
F1
sg1057
F4
sg1058
F1.1499999999999999
sg1059
F1
sg1060
(lp1240
sg1062
F1.0900000000000001
sg1063
F1
sg495
g1236
sg1064
F10
sg1065
F1.0800000000000001
sg1066
(lp1241
g565
ag945
asg1068
F1.1000000000000001
sg1069
F1.1499999999999999
sg1070
(lp1242
g749
ag467
ag541
asg1072
F1.0800000000000001
sg1073
F1
sg1074
(lp1243
sg1076
S'Journalist'
p1244
sg1078
F1.2
sg501
S'Journalist'
p1245
sg1080
F1
sg1081
(lp1246
sbasS'ReligiousNut001'
p1247
(lp1248
g1
(g10
g3
NtRp1249
(dp1250
g1056
F1
sg1057
F4
sg1058
F1.1499999999999999
sg1059
F1
sg1060
(lp1251
sg1062
F1.0900000000000001
sg1063
F1
sg495
g1247
sg1064
F10
sg1065
F1.0800000000000001
sg1066
(lp1252
g549
ag896
ag931
asg1068
F1.1000000000000001
sg1069
F1.1499999999999999
sg1070
(lp1253
g977
ag670
asg1072
F1.0800000000000001
sg1073
F1
sg1074
(lp1254
sg1076
S'Religious'
p1255
sg1078
F1.2
sg501
S'Religious Nut'
p1256
sg1080
F1
sg1081
(lp1257
g888
asbasS'JointChief001'
p1258
(lp1259
g1
(g10
g3
NtRp1260
(dp1261
g1056
F1
sg1057
F4
sg1058
F1.1499999999999999
sg1059
F1
sg1060
(lp1262
sg1062
F1.0900000000000001
sg1063
F1
sg495
g1258
sg1064
F10
sg1065
F1.0800000000000001
sg1066
(lp1263
g923
ag931
ag953
ag619
asg1068
F1.1000000000000001
sg1069
F1.1499999999999999
sg1070
(lp1264
g733
asg1072
F1.0800000000000001
sg1073
F1
sg1074
(lp1265
sg1076
S'JointChief'
p1266
sg1078
F1.2
sg501
S'Joint Chief'
p1267
sg1080
F1
sg1081
(lp1268
sbasS'Protester001'
p1269
(lp1270
g1
(g10
g3
NtRp1271
(dp1272
g1056
F1
sg1057
F4
sg1058
F1.1499999999999999
sg1059
F1
sg1060
(lp1273
sg1062
F1.0900000000000001
sg1063
F1
sg495
g1269
sg1064
F10
sg1065
F1.0800000000000001
sg1066
(lp1274
g696
ag557
ag603
asg1068
F1.1000000000000001
sg1069
F1.1499999999999999
sg1070
(lp1275
g961
asg1072
F1.0800000000000001
sg1073
F1
sg1074
(lp1276
sg1076
S'Protestor'
p1277
sg1078
F1.2
sg501
S'Protester'
p1278
sg1080
F1
sg1081
(lp1279
sbasS'TVPersonality001'
p1280
(lp1281
g1
(g10
g3
NtRp1282
(dp1283
g1056
F1
sg1057
F4
sg1058
F1.1499999999999999
sg1059
F1
sg1060
(lp1284
sg1062
F1.0900000000000001
sg1063
F1
sg495
g1280
sg1064
F10
sg1065
F1.0800000000000001
sg1066
(lp1285
g888
ag565
asg1068
F1.1000000000000001
sg1069
F1.1499999999999999
sg1070
(lp1286
g541
ag526
asg1072
F1.0800000000000001
sg1073
F1
sg1074
(lp1287
sg1076
S'TVPersonality'
p1288
sg1078
F1.2
sg501
S"Hecules O'Grady"
p1289
sg1080
F1
sg1081
(lp1290
sbasS'Player'
p1291
(lp1292
g1
(g10
g3
NtRp1293
(dp1294
g1056
F1
sg1057
F5
sg1058
F1.1499999999999999
sg1059
F1
sg1060
(lp1295
sg1062
F1.0900000000000001
sg1063
F1
sg495
g1291
sg1064
F15
sg1065
F1.0800000000000001
sg1066
(lp1296
g969
ag512
ag888
asg1068
F1.1000000000000001
sg1069
F1.1499999999999999
sg1070
(lp1297
g820
ag627
ag961
asg1072
F1.0800000000000001
sg1073
F1
sg1074
(lp1298
sg1076
S'Player'
p1299
sg1078
F1.2
sg501
S'Phillip Mossman'
p1300
sg1080
F2
sg1081
(lp1301
sbasS'Computer'
p1302
(lp1303
g1
(g10
g3
NtRp1304
(dp1305
g1056
F1
sg1057
F4
sg1058
F1.1499999999999999
sg1059
F1
sg1060
(lp1306
sg1062
F1.0900000000000001
sg1063
F1
sg495
g1302
sg1064
F10
sg1065
F1.0800000000000001
sg1066
(lp1307
g969
ag789
ag512
ag888
ag931
asg1068
F1.1000000000000001
sg1069
F1.1499999999999999
sg1070
(lp1308
g820
ag627
ag904
asg1072
F1.0800000000000001
sg1073
F1
sg1074
(lp1309
sg1076
S'Politician'
p1310
sg1078
F1.2
sg501
S'N.O.T.B.A.D'
p1311
sg1080
F1
sg1081
(lp1312
sbasS'CabinetPolitician001'
p1313
(lp1314
g1
(g10
g3
NtRp1315
(dp1316
g1056
F1
sg1057
F4
sg1058
F1.1499999999999999
sg1059
F1
sg1060
(lp1317
sg1062
F1.0900000000000001
sg1063
F1
sg495
g1313
sg1064
F10
sg1065
F1.0800000000000001
sg1066
(lp1318
g969
ag789
ag512
ag888
ag931
asg1068
F1.1000000000000001
sg1069
F1.1499999999999999
sg1070
(lp1319
g820
ag627
ag904
asg1072
F1.0800000000000001
sg1073
F1
sg1074
(lp1320
sg1076
S'Politician'
p1321
sg1078
F1.2
sg501
S'Cabinet Politician'
p1322
sg1080
F1
sg1081
(lp1323
sbasS'Constituent001'
p1324
(lp1325
g1
(g10
g3
NtRp1326
(dp1327
g1056
F1
sg1057
F4
sg1058
F1.1499999999999999
sg1059
F1
sg1060
(lp1328
sg1062
F1.0900000000000001
sg1063
F1
sg495
g1324
sg1064
F10
sg1065
F1.0800000000000001
sg1066
(lp1329
g696
ag712
ag923
asg1068
F1.1000000000000001
sg1069
F1.1499999999999999
sg1070
(lp1330
g904
asg1072
F1.0800000000000001
sg1073
F1
sg1074
(lp1331
sg1076
S'Constituent'
p1332
sg1078
F1.2
sg501
S'Constituent'
p1333
sg1080
F1
sg1081
(lp1334
sbasS'Mayor'
p1335
(lp1336
g1
(g10
g3
NtRp1337
(dp1338
g1056
F1
sg1057
F4
sg1058
F1.1499999999999999
sg1059
F1
sg1060
(lp1339
sg1062
F1.0900000000000001
sg1063
F1
sg495
g1335
sg1064
F10
sg1065
F1.0800000000000001
sg1066
(lp1340
g969
ag789
ag512
ag888
ag931
asg1068
F1.1000000000000001
sg1069
F1.1499999999999999
sg1070
(lp1341
g820
ag627
ag904
asg1072
F1.0800000000000001
sg1073
F1
sg1074
(lp1342
sg1076
S'Politician'
p1343
sg1078
F1.2
sg501
S'Mayor Goodman'
p1344
sg1080
F1
sg1081
(lp1345
sbassS'quest_items'
p1346
(dp1347
S'PEN'
p1348
g1
(g10
g3
NtRp1349
(dp1350
g501
S'A pen'
p1351
sg495
g1348
sbsS'BILLOFRIGHTS'
p1352
g1
(g10
g3
NtRp1353
(dp1354
g501
S"Citizens' Bill of Rights"
p1355
sg495
g1352
sbssg1066
(dp1356
S'Theo'
p1357
(lp1358
g969
ag789
ag512
ag888
ag595
ag820
ag627
ag872
ag720
asS'JointChief'
p1359
(lp1360
g923
ag931
ag953
ag733
ag619
asS'Politician'
p1361
(lp1362
g969
ag789
ag512
ag888
ag820
ag627
ag904
ag931
asS'Bumpkin'
p1363
(lp1364
g888
ag611
ag704
ag649
asS'TVPersonality'
p1365
(lp1366
g888
ag541
ag565
ag526
asS'SecretAgent'
p1367
(lp1368
g931
ag915
ag953
ag733
ag757
asS'DeepThroat'
p1369
(lp1370
g789
ag931
ag682
ag923
asS'Protestor'
p1371
(lp1372
g961
ag696
ag557
ag603
asS'Lobbyist'
p1373
(lp1374
g712
ag836
ag682
ag923
asS'Teacher'
p1375
(lp1376
g781
ag931
ag696
ag961
asS'Player'
p1377
(lp1378
g969
ag512
ag888
ag820
ag627
ag961
asS'Computer'
p1379
(lp1380
g733
ag953
ag573
ag682
ag923
ag789
asS'Receptionist'
p1381
(lp1382
g849
ag797
ag805
ag581
asS'Hippy'
p1383
(lp1384
g603
ag696
ag741
ag765
ag961
ag904
asS'Constituent'
p1385
(lp1386
g696
ag904
ag712
ag923
asS'Wife'
p1387
(lp1388
g961
ag904
ag931
ag969
ag635
asS'WarVet'
p1389
(lp1390
g923
ag931
ag880
ag961
asS'Religious'
p1391
(lp1392
g549
ag977
ag670
ag896
ag931
asS'Unionist'
p1393
(lp1394
g923
ag931
ag696
ag781
asS'Journalist'
p1395
(lp1396
g565
ag945
ag749
ag467
ag541
assS'encounters'
p1397
(dp1398
S'P-easy-05'
p1399
g1
(g10
g3
NtRp1400
(dp1401
S'item_attack_drops'
p1402
(lp1403
sS'item_attacks'
p1404
(lp1405
sg991
F10
sS'monster2_lvl'
p1406
S''
sS'monster3'
p1407
S''
sS'monster1_lvl'
p1408
F1
sS'monster3_lvl'
p1409
S''
sS'monster4_lvl'
p1410
S''
sS'monster4'
p1411
S''
sS'monster2'
p1412
S''
sg495
g1399
sS'monster1'
p1413
S'Journalist001'
p1414
sbsS'P-easy-04'
p1415
g1
(g10
g3
NtRp1416
(dp1417
g1402
(lp1418
sg1404
(lp1419
sg991
F10
sg1406
F1
sg1407
S'Protester001'
p1420
sg1408
F1
sg1409
F1
sg1410
S''
sg1411
S''
sg1412
S'Protester001'
p1421
sg495
g1415
sg1413
S'Protester001'
p1422
sbsS'P-easy-06'
p1423
g1
(g10
g3
NtRp1424
(dp1425
g1402
(lp1426
sg1404
(lp1427
sg991
F10
sg1406
F1
sg1407
S''
sg1408
F1
sg1409
S''
sg1410
S''
sg1411
S''
sg1412
S'Lobbyist001'
p1428
sg495
g1423
sg1413
S'Lobbyist001'
p1429
sbsS'P-easy-01'
p1430
g1
(g10
g3
NtRp1431
(dp1432
g1402
(lp1433
g1
(c__main__
ItemAttack
p1434
g3
NtRp1435
(dp1436
S'attack'
p1437
g504
sS'quantity'
p1438
I1
sbasg1404
(lp1439
g1
(g1434
g3
NtRp1440
(dp1441
g1437
g773
sg1438
I1
sbasg991
F10
sg1406
S''
sg1407
S''
sg1408
F1
sg1409
S''
sg1410
S''
sg1411
S''
sg1412
S''
sg495
g1430
sg1413
S'Receptionist001'
p1442
sbsS'P-easy-03'
p1443
g1
(g10
g3
NtRp1444
(dp1445
g1402
(lp1446
sg1404
(lp1447
sg991
F10
sg1406
F1
sg1407
S''
sg1408
F1
sg1409
S''
sg1410
S''
sg1411
S''
sg1412
S'Protester001'
p1448
sg495
g1443
sg1413
S'Protester001'
p1449
sbsS'P-easy-02'
p1450
g1
(g10
g3
NtRp1451
(dp1452
g1402
(lp1453
sg1404
(lp1454
sg991
F10
sg1406
F1
sg1407
S''
sg1408
F1
sg1409
S''
sg1410
S''
sg1411
S''
sg1412
S'Protester001'
p1455
sg495
g1450
sg1413
S'Protester001'
p1456
sbssb.