ccopy_reg
_reconstructor
p1
(c__main__
GameData
p2
c__builtin__
object
p3
NtRp4
(dp5
S'attacks'
p6
(dp7
S'Lie'
p8
g1
(c__main__
TableRow
p9
g3
NtRp10
(dp11
S'base_damage_max'
p12
F8
sS'description'
p13
S'ghi'
p14
sS'name'
p15
g8
sS'crit_chance_max'
p16
F10
sS'crit_chance_min'
p17
F2
sS'target_type'
p18
S'AllEnemy'
p19
sS'base_damage_min'
p20
F0
sS'effects'
p21
(lp22
g1
(c__main__
Effect
p23
g3
NtRp24
(dp25
S'function'
p26
S'miss_turn'
p27
sS'attribute'
p28
S''
sS'rounds_max'
p29
F1
sS'rounds_min'
p30
F1
sS'value'
p31
F0
sS'id'
p32
S'Critical Fail'
p33
sS'apply_to_source'
p34
S'TRUE'
p35
sbasS'target_count'
p36
I4
sS'crit_base_damage'
p37
F15
sS'underlying_stat'
p38
S'Cunning'
p39
sbsS'Lose/lose issue'
p40
g1
(g9
g3
NtRp41
(dp42
g12
F4
sg13
S'Causes all politicians in the target radius to lose votes'
p43
sg15
g40
sg16
F4
sg17
F4
sg18
S'All'
p44
sg20
F4
sg21
(lp45
sg36
I6
sg37
F4
sg38
S'Cunning'
p46
sbsS'Stay On Message'
p47
g1
(g9
g3
NtRp48
(dp49
g12
F5
sg13
S'abc'
p50
sg15
g47
sg16
F10
sg17
F2
sg18
S'AllEnemy'
p51
sg20
F2
sg21
(lp52
sg36
I2
sg37
F8
sg38
S'Cunning'
p53
sbsS'Joke'
p54
g1
(g9
g3
NtRp55
(dp56
g12
F3
sg13
S'jkl'
p57
sg15
g54
sg16
F10
sg17
F2
sg18
S'AllEnemy'
p58
sg20
F1
sg21
(lp59
g1
(g23
g3
NtRp60
(dp61
g26
S'reduce'
p62
sg28
S'cunning'
p63
sg29
F5
sg30
F2
sg31
F2
sg32
S'Reduce Cunning'
p64
sg34
S''
sbasg36
I1
sg37
F6
sg38
S'Wit'
p65
sbsS'Slander Opposition'
p66
g1
(g9
g3
NtRp67
(dp68
g12
F3
sg13
S'def'
p69
sg15
g66
sg16
F10
sg17
F2
sg18
S'AllEnemy'
p70
sg20
F1
sg21
(lp71
g1
(g23
g3
NtRp72
(dp73
g26
S'drain'
p74
sg28
S'votes'
p75
sg29
F5
sg30
F2
sg31
F1
sg32
S'Drain Votes'
p76
sg34
S''
sbasg36
I3
sg37
F5
sg38
S'Cunning'
p77
sbsS'Defense'
p78
g1
(g9
g3
NtRp79
(dp80
g12
F0
sg13
S'Gather strenth; -50% to all incoming attacks'
p81
sg15
g78
sg16
F0
sg17
F0
sg18
S'None'
p82
sg20
F0
sg21
(lp83
g1
(g23
g3
NtRp84
(dp85
g26
S'add'
p86
sg28
S'resistance'
p87
sg29
F1
sg30
F1
sg31
F0.5
sg32
S'Defense'
p88
sg34
S'TRUE'
p89
sbasg36
I1
sg37
F0
sg38
S''
sbsS'Bribe'
p90
g1
(g9
g3
NtRp91
(dp92
g12
F1
sg13
S'mno'
p93
sg15
g90
sg16
F1
sg17
F1
sg18
S'AllEnemy'
p94
sg20
F1
sg21
(lp95
sg36
I1
sg37
F1
sg38
S'Money'
p96
sbsS'Inspirational Speech'
p97
g1
(g9
g3
NtRp98
(dp99
g12
F-2
sg13
S'Restore votes to all party members'
p100
sg15
g97
sg16
F0
sg17
F0
sg18
S'AllFriendly'
p101
sg20
F-2
sg21
(lp102
sg36
I4
sg37
F0
sg38
S'Cunning'
p103
sbssS'standard_attacks'
p104
(dp105
S'Player'
p106
(lp107
g48
ag67
ag10
ag55
ag91
assS'encounters'
p108
(dp109
S'P-easy-01'
p110
g1
(g9
g3
NtRp111
(dp112
S'monster2_lvl'
p113
F1
sg32
g110
sS'monster1_lvl'
p114
F1
sS'monster3_lvl'
p115
F1
sS'monster4_lvl'
p116
F1
sS'monster4'
p117
S'Politician001'
p118
sS'monster2'
p119
S'Politician001'
p120
sS'monster3'
p121
S'Politician001'
p122
sS'monster1'
p123
S'Politician001'
p124
sbssg21
(dp125
g33
g24
sg64
g60
sg76
g72
sg88
g84
ssS'characters'
p126
(dp127
S'Player'
p128
(lp129
g1
(g9
g3
NtRp130
(dp131
S'flair_base'
p132
F1
sS'charisma_lvl'
p133
F1.1499999999999999
sS'spin_lvl'
p134
F1.0800000000000001
sS'flair_lvl'
p135
F1.1499999999999999
sS'votes_lvl'
p136
F1.2
sS'charisma_base'
p137
F2
sS'wit_base'
p138
F2
sS'speed_base'
p139
F2
sS'weaknesses'
p140
(lp141
sS'resistance'
p142
(lp143
sS'spin_base'
p144
F5
sS'votes_base'
p145
F10
sS'wit_lvl'
p146
F1.0900000000000001
sS'immunities'
p147
(lp148
sS'speed_lvl'
p149
F1.0800000000000001
sS'cunning_lvl'
p150
F1.1000000000000001
sS'cunning_base'
p151
F2
sS'attack_group'
p152
S'Player'
p153
sg32
g128
sg104
g107
sbasS'ReligiousNut001'
p154
(lp155
g1
(g9
g3
NtRp156
(dp157
g132
S''
sg133
S''
sg134
S''
sg135
S''
sg136
S''
sg137
S''
sg138
S''
sg139
S''
sg140
(lp158
sg142
(lp159
sg144
S''
sg145
S''
sg146
S''
sg147
(lp160
g55
asg149
S''
sg150
S''
sg151
S''
sg152
S'Player'
p161
sg32
g154
sg104
g107
sbasS'Lobbyist001'
p162
(lp163
g1
(g9
g3
NtRp164
(dp165
g132
S''
sg133
S''
sg134
S''
sg135
S''
sg136
S''
sg137
S''
sg138
S''
sg139
S''
sg140
(lp166
sg142
(lp167
sg144
S''
sg145
S''
sg146
S''
sg147
(lp168
g91
asg149
S''
sg150
S''
sg151
S''
sg152
S'Player'
p169
sg32
g162
sg104
g107
sbasS'Politician001'
p170
(lp171
g1
(g9
g3
NtRp172
(dp173
g132
F1
sg133
F1.1499999999999999
sg134
F1.0800000000000001
sg135
F1.1499999999999999
sg136
F1.2
sg137
F1
sg138
F1
sg139
F1
sg140
(lp174
g91
asg142
(lp175
g10
asg144
F4
sg145
F20
sg146
F1.0900000000000001
sg147
(lp176
g48
asg149
F1.0800000000000001
sg150
F1.1000000000000001
sg151
F1
sg152
S'Player'
p177
sg32
g170
sg104
g107
sbasS'Bumpkin001'
p178
(lp179
g1
(g9
g3
NtRp180
(dp181
g132
S''
sg133
S''
sg134
S''
sg135
S''
sg136
S''
sg137
S''
sg138
S''
sg139
S''
sg140
(lp182
g10
asg142
(lp183
sg144
S''
sg145
S''
sg146
S''
sg147
(lp184
sg149
S''
sg150
S''
sg151
S''
sg152
S'Player'
p185
sg32
g178
sg104
g107
sbassb.