ccopy_reg
_reconstructor
p1
(c__main__
GameData
p2
c__builtin__
object
p3
NtRp4
(dp5
S'attacks'
p6
(lp7
g1
(c__main__
TableRow
p8
g3
NtRp9
(dp10
S'base_damage_max'
p11
F5
sS'description'
p12
S'abc'
p13
sS'name'
p14
S'Stay On Message'
p15
sS'crit_chance_max'
p16
F10
sS'crit_chance_min'
p17
F2
sS'target_type'
p18
S'AllEnemy'
p19
sS'base_damage_min'
p20
F2
sS'effects'
p21
(lp22
sS'target_count'
p23
I2
sS'crit_base_damage'
p24
F8
sS'underlying_stat'
p25
S'Cunning'
p26
sbag1
(g8
g3
NtRp27
(dp28
g11
F3
sg12
S'def'
p29
sg14
S'Slander Opposition'
p30
sg16
F10
sg17
F2
sg18
S'AllEnemy'
p31
sg20
F1
sg21
(lp32
g1
(c__main__
Effect
p33
g3
NtRp34
(dp35
S'function'
p36
S'drain'
p37
sS'attribute'
p38
S'votes'
p39
sS'rounds_max'
p40
F5
sS'rounds_min'
p41
F2
sS'value'
p42
F1
sS'id'
p43
S'Drain Votes'
p44
sS'apply_to_source'
p45
S''
sbasg23
I3
sg24
F5
sg25
S'Cunning'
p46
sbag1
(g8
g3
NtRp47
(dp48
g11
F8
sg12
S'ghi'
p49
sg14
S'Lie'
p50
sg16
F10
sg17
F2
sg18
S'AllEnemy'
p51
sg20
F0
sg21
(lp52
g1
(g33
g3
NtRp53
(dp54
g36
S'miss_turn'
p55
sg38
S''
sg40
F1
sg41
F1
sg42
F0
sg43
S'Critical Fail'
p56
sg45
S'TRUE'
p57
sbasg23
I4
sg24
F15
sg25
S'Cunning'
p58
sbag1
(g8
g3
NtRp59
(dp60
g11
F3
sg12
S'jkl'
p61
sg14
S'Joke'
p62
sg16
F10
sg17
F2
sg18
S'AllEnemy'
p63
sg20
F1
sg21
(lp64
g1
(g33
g3
NtRp65
(dp66
g36
S'reduce'
p67
sg38
S'cunning'
p68
sg40
F5
sg41
F2
sg42
F2
sg43
S'Reduce Cunning'
p69
sg45
S''
sbasg23
I1
sg24
F6
sg25
S'Wit'
p70
sbag1
(g8
g3
NtRp71
(dp72
g11
F1
sg12
S'mno'
p73
sg14
S'Bribe'
p74
sg16
F1
sg17
F1
sg18
S'AllEnemy'
p75
sg20
F1
sg21
(lp76
sg23
I1
sg24
F1
sg25
S'Money'
p77
sbasS'encounters'
p78
(dp79
S'P-easy-01'
p80
g1
(g8
g3
NtRp81
(dp82
S'monster2_lvl'
p83
F1
sg43
g80
sS'monster1_lvl'
p84
F1
sS'monster3_lvl'
p85
F1
sS'monster4_lvl'
p86
F1
sS'monster4'
p87
S'Politician001'
p88
sS'monster2'
p89
S'Politician001'
p90
sS'monster3'
p91
S'Politician001'
p92
sS'monster1'
p93
S'Politician001'
p94
sbssg21
(dp95
g56
g53
sg69
g65
sg44
g34
ssS'characters'
p96
(dp97
S'Player'
p98
(lp99
g1
(g8
g3
NtRp100
(dp101
S'flair_base'
p102
F1
sS'charisma_lvl'
p103
F1.1499999999999999
sS'spin_lvl'
p104
F1.0800000000000001
sS'cunning_base'
p105
F2
sS'votes_lvl'
p106
F1.2
sS'charisma_base'
p107
F2
sS'wit_base'
p108
F2
sS'speed_base'
p109
F2
sS'votes_base'
p110
F10
sS'spin_base'
p111
F5
sS'wit_lvl'
p112
F1.0900000000000001
sS'speed_lvl'
p113
F1.0800000000000001
sS'cunning_lvl'
p114
F1.1000000000000001
sS'flair_lvl'
p115
F1.1499999999999999
sg43
g98
sbasS'ReligiousNut001'
p116
(lp117
g1
(g8
g3
NtRp118
(dp119
g102
S''
sg103
S''
sg104
S''
sg105
S''
sg106
S''
sg107
S''
sg108
S''
sg109
S''
sg110
S''
sg111
S''
sg112
S''
sg113
S''
sg114
S''
sg115
S''
sg43
g116
sbasS'Lobbyist001'
p120
(lp121
g1
(g8
g3
NtRp122
(dp123
g102
S''
sg103
S''
sg104
S''
sg105
S''
sg106
S''
sg107
S''
sg108
S''
sg109
S''
sg110
S''
sg111
S''
sg112
S''
sg113
S''
sg114
S''
sg115
S''
sg43
g120
sbasS'Politician001'
p124
(lp125
g1
(g8
g3
NtRp126
(dp127
g102
F1
sg103
F1.1499999999999999
sg104
F1.0800000000000001
sg105
F1
sg106
F1.2
sg107
F1
sg108
F1
sg109
F1
sg110
F20
sg111
F4
sg112
F1.0900000000000001
sg113
F1.0800000000000001
sg114
F1.1000000000000001
sg115
F1.1499999999999999
sg43
g124
sbasS'Bumpkin001'
p128
(lp129
g1
(g8
g3
NtRp130
(dp131
g102
S''
sg103
S''
sg104
S''
sg105
S''
sg106
S''
sg107
S''
sg108
S''
sg109
S''
sg110
S''
sg111
S''
sg112
S''
sg113
S''
sg114
S''
sg115
S''
sg43
g128
sbassb.