ccopy_reg
_reconstructor
p1
(c__main__
GameData
p2
c__builtin__
object
p3
NtRp4
(dp5
S'script'
p6
(dp7
S'_Act2'
p8
(lp9
g1
(c__main__
TableRow
p10
g3
NtRp11
(dp12
S'action'
p13
S'AddAlly'
p14
sS'trigger'
p15
g8
sS'param'
p16
S'Wife:1'
p17
sS'dialog'
p18
S''
sbag1
(g10
g3
NtRp19
(dp20
g13
S'GotoMap'
p21
sg15
S'_Act2'
p22
sg16
S'act2'
p23
sg18
S''
sbasS'FlunkyTest'
p24
(lp25
g1
(g10
g3
NtRp26
(dp27
g13
S'LearnAttack'
p28
sg15
g24
sg16
S'PORKBARREL'
p29
sg18
S'...'
p30
sbag1
(g10
g3
NtRp31
(dp32
g13
S'GiveSpin'
p33
sg15
S'FlunkyTest'
p34
sg16
F2
sg18
S'Here is spin'
p35
sbag1
(g10
g3
NtRp36
(dp37
g13
S'GiveMoney'
p38
sg15
S'FlunkyTest'
p39
sg16
F100
sg18
S'Here is $100'
p40
sbag1
(g10
g3
NtRp41
(dp42
g13
S'RequireCount'
p43
sg15
S'FlunkyTest'
p44
sg16
S'FLUNKIES:3'
p45
sg18
S'Take out 3 flunkies'
p46
sbag1
(g10
g3
NtRp47
(dp48
g13
S'Say'
p49
sg15
S'FlunkyTest'
p50
sg16
S''
sg18
S'Thanks!'
p51
sbasS'Wife'
p52
(lp53
g1
(g10
g3
NtRp54
(dp55
g13
S'GotoMap'
p56
sg15
g52
sg16
S'act1'
p57
sg18
S''
sbag1
(g10
g3
NtRp58
(dp59
g13
S'_RequireFlag'
p60
sg15
S'Wife'
p61
sg16
S'GOHOMETOWIFE'
p62
sg18
S'What are you doing here, Phillip? You should be at work!'
p63
sbag1
(g10
g3
NtRp64
(dp65
g13
S'Say'
p66
sg15
S'Wife'
p67
sg16
S''
sg18
S'Welcome home, Phillip! How was your workday?'
p68
sbag1
(g10
g3
NtRp69
(dp70
g13
S'PlayerSay'
p71
sg15
S'Wife'
p72
sg16
S''
sg18
S'...'
p73
sbag1
(g10
g3
NtRp74
(dp75
g13
S'Say'
p76
sg15
S'Wife'
p77
sg16
S''
sg18
S"That good, huh? You know this isn't what you want. Why don't you strike out on your own?"
p78
sbag1
(g10
g3
NtRp79
(dp80
g13
S'PlayerSay'
p81
sg15
S'Wife'
p82
sg16
S''
sg18
S"I didn't think I knew where to start to be a Mayor, but Mayor Goodman makes it look easy."
p83
sbag1
(g10
g3
NtRp84
(dp85
g13
S'Say'
p86
sg15
S'Wife'
p87
sg16
S''
sg18
S"That's the spirit! You can do it! All you need is some money and support."
p88
sbag1
(g10
g3
NtRp89
(dp90
g13
S'PlayerSay'
p91
sg15
S'Wife'
p92
sg16
S''
sg18
S'Well...OK! Lets start with money. We need a sponsor.'
p93
sbag1
(g10
g3
NtRp94
(dp95
g13
S'Say'
p96
sg15
S'Wife'
p97
sg16
S''
sg18
S'OK, lets go get one!'
p98
sbag1
(g10
g3
NtRp99
(dp100
g13
S'AddAlly'
p101
sg15
S'Wife'
p102
sg16
S'Wife:1'
p103
sg18
S'Sarah Mossman Joins Your Political Party!'
p104
sbag1
(g10
g3
NtRp105
(dp106
g13
S'SetFlag'
p107
sg15
S'Wife'
p108
sg16
S'STARTSPONSOR'
p109
sg18
S''
sbag1
(g10
g3
NtRp110
(dp111
g13
S'Destroy'
p112
sg15
S'Wife'
p113
sg16
S''
sg18
S''
sbasS'Flunky2'
p114
(lp115
g1
(g10
g3
NtRp116
(dp117
g13
S'Increment'
p118
sg15
g114
sg16
S'FLUNKIES'
p119
sg18
S''
sbag1
(g10
g3
NtRp120
(dp121
g13
S'Say'
p122
sg15
S'Flunky2'
p123
sg16
S''
sg18
S'You talked to me'
p124
sbag1
(g10
g3
NtRp125
(dp126
g13
S'Destroy'
p127
sg15
S'Flunky2'
p128
sg16
S''
sg18
S''
sbasS'Flunky3'
p129
(lp130
g1
(g10
g3
NtRp131
(dp132
g13
S'Increment'
p133
sg15
g129
sg16
S'FLUNKIES'
p134
sg18
S''
sbag1
(g10
g3
NtRp135
(dp136
g13
S'Encounter'
p137
sg15
S'Flunky3'
p138
sg16
S'P-easy-01'
p139
sg18
S''
sbag1
(g10
g3
NtRp140
(dp141
g13
S'Destroy'
p142
sg15
S'Flunky3'
p143
sg16
S''
sg18
S''
sbasS'Flunky1'
p144
(lp145
g1
(g10
g3
NtRp146
(dp147
g13
S'Increment'
p148
sg15
g144
sg16
S'FLUNKIES'
p149
sg18
S''
sbag1
(g10
g3
NtRp150
(dp151
g13
S'Say'
p152
sg15
S'Flunky1'
p153
sg16
S''
sg18
S'You talked to me'
p154
sbag1
(g10
g3
NtRp155
(dp156
g13
S'Destroy'
p157
sg15
S'Flunky1'
p158
sg16
S''
sg18
S''
sbasS'Protester2'
p159
(lp160
g1
(g10
g3
NtRp161
(dp162
g13
S'Say'
p163
sg15
g159
sg16
S''
sg18
S"Bees buzz, Mayors lie, who's this Phillip Mossman guy?"
p164
sbag1
(g10
g3
NtRp165
(dp166
g13
S'RequireFlag'
p167
sg15
S'Protester2'
p168
sg16
S'PROTESTORS'
p169
sg18
S''
sbag1
(g10
g3
NtRp170
(dp171
g13
S'Encounter'
p172
sg15
S'Protester2'
p173
sg16
S'P-easy-03'
p174
sg18
S''
sbag1
(g10
g3
NtRp175
(dp176
g13
S'Destroy'
p177
sg15
S'Protester2'
p178
sg16
S''
sg18
S''
sbasS'Protester1'
p179
(lp180
g1
(g10
g3
NtRp181
(dp182
g13
S'Say'
p183
sg15
g179
sg16
S''
sg18
S"Fee Fi Fo Fum, we think Mayor Goodman's Dumb!"
p184
sbag1
(g10
g3
NtRp185
(dp186
g13
S'RequireFlag'
p187
sg15
S'Protester1'
p188
sg16
S'PROTESTORS'
p189
sg18
S''
sbag1
(g10
g3
NtRp190
(dp191
g13
S'Encounter'
p192
sg15
S'Protester1'
p193
sg16
S'P-easy-02'
p194
sg18
S''
sbag1
(g10
g3
NtRp195
(dp196
g13
S'Destroy'
p197
sg15
S'Protester1'
p198
sg16
S''
sg18
S''
sbasS'Head Protester'
p199
(lp200
g1
(g10
g3
NtRp201
(dp202
g13
S'Say'
p203
sg15
g199
sg16
S''
sg18
S"I am the head protester. You'll never convince us to back down!"
p204
sbag1
(g10
g3
NtRp205
(dp206
g13
S'RequireFlag'
p207
sg15
S'Head Protester'
p208
sg16
S'PROTESTORS'
p209
sg18
S''
sbag1
(g10
g3
NtRp210
(dp211
g13
S'PlayerSay'
p212
sg15
S'Head Protester'
p213
sg16
S''
sg18
S'What are you protesting?'
p214
sbag1
(g10
g3
NtRp215
(dp216
g13
S'Say'
p217
sg15
S'Head Protester'
p218
sg16
S''
sg18
S'Er...Injustice!'
p219
sbag1
(g10
g3
NtRp220
(dp221
g13
S'PlayerSay'
p222
sg15
S'Head Protester'
p223
sg16
S''
sg18
S'Injustice against what?'
p224
sbag1
(g10
g3
NtRp225
(dp226
g13
S'Say'
p227
sg15
S'Head Protester'
p228
sg16
S''
sg18
S'...'
p229
sbag1
(g10
g3
NtRp230
(dp231
g13
S'Say'
p232
sg15
S'Head Protester'
p233
sg16
S''
sg18
S'The People!'
p234
sbag1
(g10
g3
NtRp235
(dp236
g13
S'PlayerSay'
p237
sg15
S'Head Protester'
p238
sg16
S''
sg18
S'Yes, but which people?'
p239
sbag1
(g10
g3
NtRp240
(dp241
g13
S'Say'
p242
sg15
S'Head Protester'
p243
sg16
S''
sg18
S'See? What a fascist, ALL people you slimey politician scum!'
p244
sbag1
(g10
g3
NtRp245
(dp246
g13
S'Encounter'
p247
sg15
S'Head Protester'
p248
sg16
S'P-easy-04'
p249
sg18
S''
sbag1
(g10
g3
NtRp250
(dp251
g13
S'Say'
p252
sg15
S'Head Protester'
p253
sg16
S''
sg18
S"Alright, fine! We'll stop protesting...whatever we were protesting."
p254
sbag1
(g10
g3
NtRp255
(dp256
g13
S'SetFlag'
p257
sg15
S'Head Protester'
p258
sg16
S'PROTESTORSDEAD'
p259
sg18
S''
sbag1
(g10
g3
NtRp260
(dp261
g13
S'Destroy'
p262
sg15
S'Head Protester'
p263
sg16
S''
sg18
S''
sbasS'Receptionist'
p264
(lp265
g1
(g10
g3
NtRp266
(dp267
g13
S'Encounter'
p268
sg15
g264
sg16
S'P-easy-01'
p269
sg18
S''
sbag1
(g10
g3
NtRp270
(dp271
g13
S'GiveItem'
p272
sg15
S'Receptionist'
p273
sg16
S'PEN'
p274
sg18
S'Receptionist sighs and hands over the pen.'
p275
sbag1
(g10
g3
NtRp276
(dp277
g13
S'Destroy'
p278
sg15
S'Receptionist'
p279
sg16
S''
sg18
S''
sbasS'Sponsor'
p280
(lp281
g1
(g10
g3
NtRp282
(dp283
g13
S'RequireFlag'
p284
sg15
g280
sg16
S'STARTSPONSOR'
p285
sg18
S"Hmmm...Money, money, money. Sorry, what? I wasn't talking to you."
p286
sbag1
(g10
g3
NtRp287
(dp288
g13
S'Say'
p289
sg15
S'Sponsor'
p290
sg16
S''
sg18
S"Hello, I'm investigating new investments today. How can I help you?"
p291
sbag1
(g10
g3
NtRp292
(dp293
g13
S'PlayerSay'
p294
sg15
S'Sponsor'
p295
sg16
S''
sg18
S"Well, I've decided to run for Mayor! I could really use an investor."
p296
sbag1
(g10
g3
NtRp297
(dp298
g13
S'Say'
p299
sg15
S'Sponsor'
p300
sg16
S''
sg18
S"I don't know. You seem a little young. I don't think I'm convinced."
p301
sbag1
(g10
g3
NtRp302
(dp303
g13
S'Encounter'
p304
sg15
S'Sponsor'
p305
sg16
S'P-easy-06'
p306
sg18
S''
sbag1
(g10
g3
NtRp307
(dp308
g13
S'Say'
p309
sg15
S'Sponsor'
p310
sg16
S''
sg18
S"Wow! You sure have what it takes! Alright, he's a pile of cash!"
p311
sbag1
(g10
g3
NtRp312
(dp313
g13
S'Say'
p314
sg15
S'Sponsor'
p315
sg16
S''
sg18
S'Also, now that you have some funds, you might find it useful to...grease the wheels in some difficult situations.'
p316
sbag1
(g10
g3
NtRp317
(dp318
g13
S'LearnAttack'
p319
sg15
S'Sponsor'
p320
sg16
S'BRIBE'
p321
sg18
S'Phillip and Sarah learn to Bribe'
p322
sbag1
(g10
g3
NtRp323
(dp324
g13
S'LearnAttack'
p325
sg15
S'Sponsor'
p326
sg16
S'Wife:BRIBE'
p327
sg18
S''
sbag1
(g10
g3
NtRp328
(dp329
g13
S'SetFlag'
p330
sg15
S'Sponsor'
p331
sg16
S'STARTCONSTITUENTS'
p332
sg18
S''
sbag1
(g10
g3
NtRp333
(dp334
g13
S'PlayerSay'
p335
sg15
S'Sponsor'
p336
sg16
S''
sg18
S'Er, thanks! I suppose we should go gather some support from our constituents now.'
p337
sbag1
(g10
g3
NtRp338
(dp339
g13
S'Say'
p340
sg15
S'Sponsor'
p341
sg16
S''
sg18
S"Makes sense to me! I'm off, too. Money, money, money."
p342
sbag1
(g10
g3
NtRp343
(dp344
g13
S'Destroy'
p345
sg15
S'Sponsor'
p346
sg16
S''
sg18
S''
sbasS'P-easy-01'
p347
(lp348
g1
(g10
g3
NtRp349
(dp350
g13
S'Say'
p351
sg15
g347
sg16
S'Player'
p352
sg18
S'Well now we are fighting'
p353
sbag1
(g10
g3
NtRp354
(dp355
g13
S'Say'
p356
sg15
S'P-easy-01'
p357
sg16
S'Receptionist001'
p358
sg18
S"Let's go!"
p359
sbag1
(g10
g3
NtRp360
(dp361
g13
S'BeginCombat'
p362
sg15
S'P-easy-01'
p363
sg16
S''
sg18
S''
sbag1
(g10
g3
NtRp364
(dp365
g13
S'Say'
p366
sg15
S'P-easy-01'
p367
sg16
S'Receptionist001'
p368
sg18
S'Alas, I am dead'
p369
sbasS'Mayor'
p370
(lp371
g1
(g10
g3
NtRp372
(dp373
g13
S'Say'
p374
sg15
g370
sg16
S''
sg18
S"Hello, I'm the Mayor!"
p375
sbag1
(g10
g3
NtRp376
(dp377
g13
S'PlayerSay'
p378
sg15
S'Mayor'
p379
sg16
S''
sg18
S"Hello, Mayor Goodman, I'm Philip Mossman."
p380
sbag1
(g10
g3
NtRp381
(dp382
g13
S'Say'
p383
sg15
S'Mayor'
p384
sg16
S''
sg18
S"Ah yes, you're my new assistant. A good thing, too."
p385
sbag1
(g10
g3
NtRp386
(dp387
g13
S'Say'
p388
sg15
S'Mayor'
p389
sg16
S''
sg18
S"I've been searching for minutes and haven't been able to find my pen! I bet my receptionist stole it. She has sticky fingers."
p390
sbag1
(g10
g3
NtRp391
(dp392
g13
S'Say'
p393
sg15
S'Mayor'
p394
sg16
S''
sg18
S"Well, don't just stand there, go and get it!"
p395
sbag1
(g10
g3
NtRp396
(dp397
g13
S'SetFlag'
p398
sg15
S'Mayor'
p399
sg16
S'PENQUEST'
p400
sg18
S''
sbag1
(g10
g3
NtRp401
(dp402
g13
S'RequireItem'
p403
sg15
S'Mayor'
p404
sg16
S'PEN'
p405
sg18
S'Are you simple? Go and get my pen from that thieving receptionist.'
p406
sbag1
(g10
g3
NtRp407
(dp408
g13
S'Say'
p409
sg15
S'Mayor'
p410
sg16
S''
sg18
S"Great! I know she can give you a bit of a tongue-lashing, but she's a fantastic receptionist."
p411
sbag1
(g10
g3
NtRp412
(dp413
g13
S'Say'
p414
sg15
S'Mayor'
p415
sg16
S''
sg18
S"I'm sure you want to learn a thing or two about politics \xe2\x80\x93 who doesn't? - so lets get started"
p416
sbag1
(g10
g3
NtRp417
(dp418
g13
S'SetFlag'
p419
sg15
S'Mayor'
p420
sg16
S'PROTESTORS'
p421
sg18
S''
sbag1
(g10
g3
NtRp422
(dp423
g13
S'RequireFlag'
p424
sg15
S'Mayor'
p425
sg16
S'PROTESTORSDEAD'
p426
sg18
S'Run outside and tell those protesters to scram, will you?'
p427
sbag1
(g10
g3
NtRp428
(dp429
g13
S'Say'
p430
sg15
S'Mayor'
p431
sg16
S''
sg18
S"Hope they didn't give you too much trouble!"
p432
sbag1
(g10
g3
NtRp433
(dp434
g13
S'Say'
p435
sg15
S'Mayor'
p436
sg16
S''
sg18
S"Now that's sorted, there's a journalist from the local newspaper coming for an interview."
p437
sbag1
(g10
g3
NtRp438
(dp439
g13
S'Say'
p440
sg15
S'Mayor'
p441
sg16
S''
sg18
S"I certainly don't have time for it, so you can do the interview."
p442
sbag1
(g10
g3
NtRp443
(dp444
g13
S'Say'
p445
sg15
S'Mayor'
p446
sg16
S''
sg18
S"Be careful not to give too much away and if you could throw a few punches at the opposition that'd help."
p447
sbag1
(g10
g3
NtRp448
(dp449
g13
S'PlayerSay'
p450
sg15
S'Mayor'
p451
sg16
S''
sg18
S'You want me to...throw a punch?'
p452
sbag1
(g10
g3
NtRp453
(dp454
g13
S'Say'
p455
sg15
S'Mayor'
p456
sg16
S''
sg18
S"You're in politics and don't know how to fight dirty? Sheesh! Here, let me show you."
p457
sbag1
(g10
g3
NtRp458
(dp459
g13
S'LearnAttack'
p460
sg15
S'Mayor'
p461
sg16
S'SLANDER'
p462
sg18
S'Mayor teaches Phillip to Slander Opposition'
p463
sbag1
(g10
g3
NtRp464
(dp465
g13
S'Say'
p466
sg15
S'Mayor'
p467
sg16
S''
sg18
S"It's a pretty great tactic because it keeps eating away at them long after you've done it."
p468
sbag1
(g10
g3
NtRp469
(dp470
g13
S'SetFlag'
p471
sg15
S'Mayor'
p472
sg16
S'INTERVIEWSTART'
p473
sg18
S''
sbag1
(g10
g3
NtRp474
(dp475
g13
S'RequireFlag'
p476
sg15
S'Mayor'
p477
sg16
S'JOURNALISTINTERVIEW'
p478
sg18
S'Go handle that interview and remember to slander the opposition.'
p479
sbag1
(g10
g3
NtRp480
(dp481
g13
S'SetFlag'
p482
sg15
S'Mayor'
p483
sg16
S'GOHOMETOWIFE'
p484
sg18
S''
sbag1
(g10
g3
NtRp485
(dp486
g13
S'Say'
p487
sg15
S'Mayor'
p488
sg16
S''
sg18
S'OK, fine, now could you buzz off for a while? I need to get some work done.'
p489
sbag1
(g10
g3
NtRp490
(dp491
g13
S'RequireFlag'
p492
sg15
S'Mayor'
p493
sg16
S'CONSTITUENTSWON'
p494
sg18
S"Go home to your family. I have things to do that don't involve you."
p495
sbasS'Journalist'
p496
(lp497
g1
(g10
g3
NtRp498
(dp499
g13
S'RequireFlag'
p500
sg15
g496
sg16
S'INTERVIEWSTART'
p501
sg18
S'Leave me alone, kid I need to get this done before my deadline!'
p502
sbag1
(g10
g3
NtRp503
(dp504
g13
S'Say'
p505
sg15
S'Journalist'
p506
sg16
S''
sg18
S"Hey, where's the Mayor?"
p507
sbag1
(g10
g3
NtRp508
(dp509
g13
S'PlayerSay'
p510
sg15
S'Journalist'
p511
sg16
S''
sg18
S"He couldn't make it. I'll be taking the interview."
p512
sbag1
(g10
g3
NtRp513
(dp514
g13
S'Say'
p515
sg15
S'Journalist'
p516
sg16
S''
sg18
S'Great! Easy pickings! Lets go.'
p517
sbag1
(g10
g3
NtRp518
(dp519
g13
S'Encounter'
p520
sg15
S'Journalist'
p521
sg16
S'P-easy-05'
p522
sg18
S''
sbag1
(g10
g3
NtRp523
(dp524
g13
S'Say'
p525
sg15
S'Journalist'
p526
sg16
S''
sg18
S"SNORE! Fine, if I can't get anything juicy here I'll do another puff piece on my poodle Frank."
p527
sbag1
(g10
g3
NtRp528
(dp529
g13
S'SetFlag'
p530
sg15
S'Journalist'
p531
sg16
S'JOURNALISTINTERVIEW'
p532
sg18
S''
sbag1
(g10
g3
NtRp533
(dp534
g13
S'Destroy'
p535
sg15
S'Journalist'
p536
sg16
S''
sg18
S''
sbassS'attacks'
p537
(dp538
S'GETEXCLUSIVE'
p539
g1
(g10
g3
NtRp540
(dp541
S'base_damage_max'
p542
F4
sS'description'
p543
S'asdf'
p544
sS'weight'
p545
I1
sS'crit_chance_max'
p546
F5
sS'crit_chance_min'
p547
F2
sS'underlying_stat'
p548
S'Wit'
p549
sS'target_type'
p550
S'AllFriendly'
p551
sS'base_damage_min'
p552
F2
sS'spin_cost'
p553
F5
sS'effects'
p554
(lp555
g1
(c__main__
Effect
p556
g3
NtRp557
(dp558
S'function'
p559
S'add'
p560
sS'abbrv'
p561
S'(INCREASE)'
p562
sS'attribute'
p563
S'cunning'
p564
sS'value'
p565
F2
sS'rounds_min'
p566
F1
sS'rounds_max'
p567
F4
sS'id'
p568
S'Increase Cunning'
p569
sS'apply_to_source'
p570
S'TRUE'
p571
sbasS'target_count'
p572
I1
sS'crit_base_damage'
p573
F8
sg568
g539
sS'name'
p574
S'Get Exclusive'
p575
sbsS'LOSELOSE'
p576
g1
(g10
g3
NtRp577
(dp578
g542
F4
sg543
S'Causes all politicians in the target radius to lose votes'
p579
sg545
I1
sg546
F0
sg547
F0
sg548
S'Cunning'
p580
sg550
S'All'
p581
sg552
F4
sg553
I0
sg554
(lp582
sg572
I6
sg573
F0
sg568
g576
sg574
S'Lose/lose issue'
p583
sbsS'LIE'
p584
g1
(g10
g3
NtRp585
(dp586
g542
F6
sg543
S"It's only lying if they catch you. A strong attack with a danger of failing entirely and leaving you high and dry."
p587
sg545
F3
sg546
F10
sg547
F2
sg548
S'Wit'
p588
sg550
S'AllEnemy'
p589
sg552
F0
sg553
I0
sg554
(lp590
g1
(g556
g3
NtRp591
(dp592
g559
S'miss_turn'
p593
sg561
S'(MISS)'
p594
sg563
S''
sg565
F0
sg566
F1
sg567
F1
sg568
S'Critical Fail'
p595
sg570
S'TRUE'
p596
sbasg572
I1
sg573
F10
sg568
g584
sg574
S'Lie'
p597
sbsS'HILARIOUSANECDOTE'
p598
g1
(g10
g3
NtRp599
(dp600
g542
F8
sg543
S'asdf'
p601
sg545
I1
sg546
F0
sg547
F0
sg548
S'Wit'
p602
sg550
S'AllFriendly'
p603
sg552
F4
sg553
F5
sg554
(lp604
g1
(g556
g3
NtRp605
(dp606
g559
S'add'
p607
sg561
S'(INCREASE)'
p608
sg563
S'flair'
p609
sg565
F2
sg566
F1
sg567
F4
sg568
S'Increase Flair'
p610
sg570
S'TRUE'
p611
sbasg572
I1
sg573
F0
sg568
g598
sg574
S'Hilarious Anecdote'
p612
sbsS'SENSATIONALISE'
p613
g1
(g10
g3
NtRp614
(dp615
g542
F8
sg543
S'asdf'
p616
sg545
I1
sg546
F0
sg547
F0
sg548
S'Wit'
p617
sg550
S'AllEnemy'
p618
sg552
F4
sg553
F3
sg554
(lp619
sg572
I1
sg573
F0
sg568
g613
sg574
S'Sensationalise'
p620
sbsS'DENOUNCE'
p621
g1
(g10
g3
NtRp622
(dp623
g542
F5
sg543
S'asdf'
p624
sg545
F6
sg546
F10
sg547
F2
sg548
S'Cunning'
p625
sg550
S'AllEnemy'
p626
sg552
F2
sg553
I0
sg554
(lp627
sg572
I1
sg573
F8
sg568
g621
sg574
S'Denounce'
p628
sbsS'WHADOWEWANT'
p629
g1
(g10
g3
NtRp630
(dp631
g542
F6
sg543
S'asdf'
p632
sg545
I1
sg546
F0
sg547
F0
sg548
S'Cunning'
p633
sg550
S'AllEnemy'
p634
sg552
F3
sg553
I0
sg554
(lp635
sg572
I1
sg573
F0
sg568
g629
sg574
S'Whadowewant!'
p636
sbsS'SCOOP'
p637
g1
(g10
g3
NtRp638
(dp639
g542
F5
sg543
S'asdf'
p640
sg545
I1
sg546
F10
sg547
F5
sg548
S'Cunning'
p641
sg550
S'AllEnemy'
p642
sg552
F2
sg553
I0
sg554
(lp643
sg572
I1
sg573
F8
sg568
g637
sg574
S'Scoop'
p644
sbsS'CHOOSETARGETS'
p645
g1
(g10
g3
NtRp646
(dp647
g542
F7
sg543
S'asdf'
p648
sg545
I1
sg546
F10
sg547
F5
sg548
S'Cunning'
p649
sg550
S'AllEnemy'
p650
sg552
F2
sg553
I0
sg554
(lp651
sg572
I1
sg573
F9
sg568
g645
sg574
S'Choose Targets'
p652
sbsS'FILENAILS'
p653
g1
(g10
g3
NtRp654
(dp655
g542
F0
sg543
S'asdf'
p656
sg545
I1
sg546
F0
sg547
F0
sg548
S'Wit'
p657
sg550
S'AllEnemy'
p658
sg552
F0
sg553
F3
sg554
(lp659
g1
(g556
g3
NtRp660
(dp661
g559
S'add_permanent'
p662
sg561
S''
sg563
S'votes'
p663
sg565
F5
sg566
F1
sg567
F1
sg568
S'Votes Restore'
p664
sg570
S'TRUE'
p665
sbasg572
I1
sg573
F0
sg568
g653
sg574
S'File Nails'
p666
sbsS'BRIBE'
p667
g1
(g10
g3
NtRp668
(dp669
g542
F1
sg543
S'Is there anything more convincing than money? Buying loyalty gets expensive so be careful.'
p670
sg545
I1
sg546
F1
sg547
F1
sg548
S'Money'
p671
sg550
S'AllEnemy'
p672
sg552
F2
sg553
I0
sg554
(lp673
sg572
I1
sg573
F1
sg568
g667
sg574
S'Bribe'
p674
sbsS'SING'
p675
g1
(g10
g3
NtRp676
(dp677
g542
F-3
sg543
S'Why bandy words with politicians when you can sing a catchy tune! Restores votes.'
p678
sg545
I1
sg546
F0
sg547
F0
sg548
S'Wit'
p679
sg550
S'AllFriendly'
p680
sg552
F-5
sg553
I0
sg554
(lp681
sg572
I4
sg573
F0
sg568
g675
sg574
S'Rousing Song'
p682
sbsS'FEAR'
p683
g1
(g10
g3
NtRp684
(dp685
g542
F0
sg543
S'asdf'
p686
sg545
F2
sg546
F0
sg547
F0
sg548
S'Wit'
p687
sg550
S'AllFriendly'
p688
sg552
F0
sg553
F4
sg554
(lp689
g557
asg572
I1
sg573
F0
sg568
g683
sg574
S'Fear Change'
p690
sbsS'RAISEDEFCON'
p691
g1
(g10
g3
NtRp692
(dp693
g542
F5
sg543
S'asdf'
p694
sg545
I1
sg546
F7
sg547
F3
sg548
S'Cunning'
p695
sg550
S'AllEnemy'
p696
sg552
F4
sg553
I0
sg554
(lp697
sg572
I1
sg573
F8
sg568
g691
sg574
S'Raise DEFCON'
p698
sbsS'NEGATTACKAD'
p699
g1
(g10
g3
NtRp700
(dp701
g542
F8
sg543
S"Take them all down. They're definitely all bad people. Not like you."
p702
sg545
I1
sg546
F10
sg547
F10
sg548
S'Cunning'
p703
sg550
S'AllEnemy'
p704
sg552
F3
sg553
F5
sg554
(lp705
sg572
I1
sg573
F10
sg568
g699
sg574
S'Negative Attack Ad'
p706
sbsS'DAZZLE'
p707
g1
(g10
g3
NtRp708
(dp709
g542
F3
sg543
S'Being dazzling and admirable is a great way to take heat off politics'
p710
sg545
I1
sg546
F8
sg547
F5
sg548
S'Wit'
p711
sg550
S'AllEnemy'
p712
sg552
F2
sg553
F3
sg554
(lp713
g1
(g556
g3
NtRp714
(dp715
g559
S'reduce'
p716
sg561
S'(REDUCE)'
p717
sg563
S'cunning'
p718
sg565
F2
sg566
F2
sg567
F5
sg568
S'Reduce Cunning'
p719
sg570
S''
sbasg572
I4
sg573
F8
sg568
g707
sg574
S'Dazzle'
p720
sbsS'BELIEVEMEDIA'
p721
g1
(g10
g3
NtRp722
(dp723
g542
F3
sg543
S'asdf'
p724
sg545
I1
sg546
F15
sg547
F5
sg548
S'Cunning'
p725
sg550
S'AllEnemy'
p726
sg552
F1
sg553
I0
sg554
(lp727
sg572
I1
sg573
F12
sg568
g721
sg574
S'Believe Media'
p728
sbsS'PRPREP'
p729
g1
(g10
g3
NtRp730
(dp731
g542
F0
sg543
S"If you're going to need some spin, best see a spin doctor! Adds spin points."
p732
sg545
I1
sg546
F0
sg547
F0
sg548
S''
sg550
S'AllFriendly'
p733
sg552
F0
sg553
I0
sg554
(lp734
g1
(g556
g3
NtRp735
(dp736
g559
S'add_permanent'
p737
sg561
S''
sg563
S'spin'
p738
sg565
F5
sg566
F0
sg567
F0
sg568
S'Spin Restore'
p739
sg570
S'TRUE'
p740
sbasg572
I1
sg573
F0
sg568
g729
sg574
S'PR Prep'
p741
sbsS'CALLVATICAN'
p742
g1
(g10
g3
NtRp743
(dp744
g542
F0
sg543
S'Brings in 2 additional ReligousNuts at 2 levels lower than this one'
p745
sg545
I1
sg546
F0
sg547
F0
sg548
S'Wit'
p746
sg550
S'None'
p747
sg552
F0
sg553
F5
sg554
(lp748
g1
(g556
g3
NtRp749
(dp750
g559
S'call_friends'
p751
sg561
S''
sg563
S''
sg565
F2
sg566
F1
sg567
F1
sg568
S'Call Friends'
p752
sg570
S''
sbasg572
I1
sg573
F0
sg568
g742
sg574
S'Call Vatican'
p753
sbsS'BLACKMAIL'
p754
g1
(g10
g3
NtRp755
(dp756
g542
F6
sg543
S'asdf'
p757
sg545
I1
sg546
F10
sg547
F2
sg548
S'Wit'
p758
sg550
S'AllEnemy'
p759
sg552
F3
sg553
F4
sg554
(lp760
g1
(g556
g3
NtRp761
(dp762
g559
S'drain'
p763
sg561
S'(DRAIN)'
p764
sg563
S'votes'
p765
sg565
F1
sg566
F2
sg567
F5
sg568
S'Drain Votes'
p766
sg570
S''
sbasg572
I1
sg573
F2
sg568
g754
sg574
S'Blackmail'
p767
sbsS'PROTEST'
p768
g1
(g10
g3
NtRp769
(dp770
g542
F5
sg543
S'asdf'
p771
sg545
F6
sg546
F10
sg547
F2
sg548
S'Cunning'
p772
sg550
S'AllEnemy'
p773
sg552
F2
sg553
I0
sg554
(lp774
sg572
I1
sg573
F8
sg568
g768
sg574
S'Protest'
p775
sbsS'SPREADRUMOUR'
p776
g1
(g10
g3
NtRp777
(dp778
g542
F6
sg543
S'asdf'
p779
sg545
I1
sg546
F10
sg547
F2
sg548
S'Wit'
p780
sg550
S'AllEnemy'
p781
sg552
F2
sg553
F3
sg554
(lp782
sg572
I4
sg573
F8
sg568
g776
sg574
S'Spread Rumour'
p783
sbsS'AGENDA'
p784
g1
(g10
g3
NtRp785
(dp786
g542
F5
sg543
S'asdf'
p787
sg545
F6
sg546
F10
sg547
F2
sg548
S'Cunning'
p788
sg550
S'AllEnemy'
p789
sg552
F2
sg553
I0
sg554
(lp790
sg572
I1
sg573
F8
sg568
g784
sg574
S'Push Agenda'
p791
sbsS'FILIBUSTER'
p792
g1
(g10
g3
NtRp793
(dp794
g542
F0
sg543
S"You're not moving until they give in. Cause all opposition to miss their turn"
p795
sg545
I1
sg546
F0
sg547
F0
sg548
S'Wit'
p796
sg550
S'AllEnemy'
p797
sg552
F0
sg553
F8
sg554
(lp798
g1
(g556
g3
NtRp799
(dp800
g559
S'miss_turn'
p801
sg561
S'(MISS)'
p802
sg563
S''
sg565
F0
sg566
F1
sg567
F1
sg568
S'Miss Turn'
p803
sg570
S''
sbasg572
I1
sg573
F0
sg568
g792
sg574
S'Filibuster'
p804
sbsS'GATHERINTEL'
p805
g1
(g10
g3
NtRp806
(dp807
g542
F0
sg543
S'Increases Cunning.'
p808
sg545
I1
sg546
F0
sg547
F0
sg548
S'Wit'
p809
sg550
S'AllFriendly'
p810
sg552
F0
sg553
F3
sg554
(lp811
g557
asg572
I2
sg573
F0
sg568
g805
sg574
S'Gather Intelligence'
p812
sbsS'LOVE'
p813
g1
(g10
g3
NtRp814
(dp815
g542
F6
sg543
S'asdf'
p816
sg545
F2
sg546
F8
sg547
F2
sg548
S'Cunning'
p817
sg550
S'AllEnemy'
p818
sg552
F1
sg553
I0
sg554
(lp819
sg572
I1
sg573
F7
sg568
g813
sg574
S'Love'
p820
sbsS'OUTOFCONTEXT'
p821
g1
(g10
g3
NtRp822
(dp823
g542
F3
sg543
S'asdf'
p824
sg545
I1
sg546
F5
sg547
F2
sg548
S'Wit'
p825
sg550
S'AllEnemy'
p826
sg552
F2
sg553
F2
sg554
(lp827
g761
asg572
I1
sg573
F5
sg568
g821
sg574
S'Take Out Of Context'
p828
sbsS'GREATSUIT'
p829
g1
(g10
g3
NtRp830
(dp831
g542
F6
sg543
S'Well, we could argue, but have you noticed how fabulous this suit is?'
p832
sg545
I1
sg546
F11
sg547
F6
sg548
S'Cunning'
p833
sg550
S'AllEnemy'
p834
sg552
F3
sg553
I0
sg554
(lp835
sg572
I1
sg573
F12
sg568
g829
sg574
S'Look Great In Suit'
p836
sbsS'PEACE'
p837
g1
(g10
g3
NtRp838
(dp839
g542
F0
sg543
S'asdf'
p840
sg545
I1
sg546
F0
sg547
F0
sg548
S'Wit'
p841
sg550
S'AllEnemy'
p842
sg552
F0
sg553
F3
sg554
(lp843
g714
asg572
I4
sg573
F0
sg568
g837
sg574
S'Peace'
p844
sbsS'INSPSPEECH'
p845
g1
(g10
g3
NtRp846
(dp847
g542
F-2
sg543
S'Restore votes to all party members'
p848
sg545
I1
sg546
F0
sg547
F0
sg548
S'Cunning'
p849
sg550
S'AllFriendly'
p850
sg552
F-2
sg553
I0
sg554
(lp851
sg572
I4
sg573
F0
sg568
g845
sg574
S'Inspirational Speech'
p852
sbsS'STRIKE'
p853
g1
(g10
g3
NtRp854
(dp855
g542
F8
sg543
S'asdf'
p856
sg545
I1
sg546
F0
sg547
F0
sg548
S'Wit'
p857
sg550
S'AllEnemy'
p858
sg552
F0
sg553
F3
sg554
(lp859
g591
asg572
I1
sg573
F0
sg568
g853
sg574
S'Call A Strike'
p860
sbsS'SLANDER'
p861
g1
(g10
g3
NtRp862
(dp863
g542
F3
sg543
S'Strong against polititians...careful with those voters, though!'
p864
sg545
F4
sg546
F10
sg547
F2
sg548
S'Wit'
p865
sg550
S'AllEnemy'
p866
sg552
F2
sg553
I0
sg554
(lp867
g761
asg572
I1
sg573
F5
sg568
g861
sg574
S'Slander Opposition'
p868
sbsS'NATTER'
p869
g1
(g10
g3
NtRp870
(dp871
g542
F8
sg543
S'asdf'
p872
sg545
I1
sg546
F15
sg547
F5
sg548
S'Cunning'
p873
sg550
S'AllEnemy'
p874
sg552
F1
sg553
I0
sg554
(lp875
sg572
I1
sg573
F10
sg568
g869
sg574
S'Natter On'
p876
sbsS'GOSSIP'
p877
g1
(g10
g3
NtRp878
(dp879
g542
F3
sg543
S'asdf'
p880
sg545
I1
sg546
F10
sg547
F2
sg548
S'Wit'
p881
sg550
S'AllEnemy'
p882
sg552
F1
sg553
F2
sg554
(lp883
g714
asg572
I1
sg573
F6
sg568
g877
sg574
S'Gossip'
p884
sbsS'MISSTURN'
p885
g1
(g10
g3
NtRp886
(dp887
g542
F0
sg543
S'asdf'
p888
sg545
I1
sg546
F0
sg547
F0
sg548
S''
sg550
S'AllEnemy'
p889
sg552
F0
sg553
I0
sg554
(lp890
sg572
I1
sg573
F0
sg568
g885
sg574
S'Miss Turn'
p891
sbsS'BIELECTION'
p892
g1
(g10
g3
NtRp893
(dp894
g542
F4
sg543
S'Redistribute votes amongst targets'
p895
sg545
I1
sg546
F0
sg547
F0
sg548
S'Cunning'
p896
sg550
S'All'
p897
sg552
F-4
sg553
F4
sg554
(lp898
sg572
I8
sg573
F0
sg568
g892
sg574
S'Bielection'
p899
sbsS'SCARE'
p900
g1
(g10
g3
NtRp901
(dp902
g542
F7
sg543
S'Nothing rattles the brains like fear.'
p903
sg545
I1
sg546
F10
sg547
F2
sg548
S'Wit'
p904
sg550
S'AllEnemy'
p905
sg552
F2
sg553
I0
sg554
(lp906
g714
asg572
I2
sg573
F9
sg568
g900
sg574
S'Scare Campaign'
p907
sbsS'PAYOFF'
p908
g1
(g10
g3
NtRp909
(dp910
g542
F7
sg543
S'causes them to miss a number of turns'
p911
sg545
I1
sg546
F8
sg547
F2
sg548
S'Wit'
p912
sg550
S'AllEnemy'
p913
sg552
F2
sg553
F4
sg554
(lp914
g1
(g556
g3
NtRp915
(dp916
g559
S'miss_turn'
p917
sg561
S'(MISS)'
p918
sg563
S''
sg565
F0
sg566
F1
sg567
F3
sg568
S'Miss Turn Pay Off'
p919
sg570
S''
sbasg572
I1
sg573
F9
sg568
g908
sg574
S'Pay Off'
p920
sbsS'BUREAUCRACY'
p921
g1
(g10
g3
NtRp922
(dp923
g542
F5
sg543
S'asdf'
p924
sg545
F6
sg546
F10
sg547
F2
sg548
S'Cunning'
p925
sg550
S'AllEnemy'
p926
sg552
F2
sg553
I0
sg554
(lp927
sg572
I1
sg573
F8
sg568
g921
sg574
S'Bureaucracy'
p928
sbsS'RALLYAUDIENCE'
p929
g1
(g10
g3
NtRp930
(dp931
g542
F8
sg543
S'asdf'
p932
sg545
I1
sg546
F0
sg547
F0
sg548
S'Wit'
p933
sg550
S'AllFriendly'
p934
sg552
F4
sg553
F3
sg554
(lp935
g1
(g556
g3
NtRp936
(dp937
g559
S'add'
p938
sg561
S'(INCREASE)'
p939
sg563
S'charisma'
p940
sg565
F2
sg566
F1
sg567
F4
sg568
S'Increase Charisma'
p941
sg570
S'TRUE'
p942
sbasg572
I1
sg573
F0
sg568
g929
sg574
S'Rally Audience'
p943
sbsS'PORKBARREL'
p944
g1
(g10
g3
NtRp945
(dp946
g542
F6
sg543
S'Do something that benefits them specifically. Not advised against politicians.'
p947
sg545
I1
sg546
F0
sg547
F0
sg548
S'Wit'
p948
sg550
S'AllEnemy'
p949
sg552
F2
sg553
F2
sg554
(lp950
sg572
I1
sg573
F0
sg568
g944
sg574
S'Pork Barrel'
p951
sbsS'INSPIRE'
p952
g1
(g10
g3
NtRp953
(dp954
g542
F0
sg543
S'asdf'
p955
sg545
I1
sg546
F0
sg547
F0
sg548
S'Wit'
p956
sg550
S'AllFriendly'
p957
sg552
F0
sg553
F3
sg554
(lp958
g557
asg572
I4
sg573
F0
sg568
g952
sg574
S'Inspire'
p959
sbsS'JOKE'
p960
g1
(g10
g3
NtRp961
(dp962
g542
F3
sg543
S"Ha, ha, ha...what were we talking about? Diffuse the situation with some humour. Not good if it falls flat, but if they get it, it'll knock 'em dead."
p963
sg545
F3
sg546
F30
sg547
F10
sg548
S'Wit'
p964
sg550
S'AllEnemy'
p965
sg552
F2
sg553
I0
sg554
(lp966
sg572
I1
sg573
F10
sg568
g960
sg574
S'Joke'
p967
sbsS'PRAYFORSOULS'
p968
g1
(g10
g3
NtRp969
(dp970
g542
F6
sg543
S'asdf'
p971
sg545
F2
sg546
F10
sg547
F2
sg548
S'Cunning'
p972
sg550
S'None'
p973
sg552
F3
sg553
I0
sg554
(lp974
sg572
I1
sg573
F10
sg568
g968
sg574
S'Pray'
p975
sbsS'REVIVE'
p976
g1
(g10
g3
NtRp977
(dp978
g542
F0
sg543
S'Revive a defeated comrade to half votes'
p979
sg545
I1
sg546
F0
sg547
F0
sg548
S''
sg550
S'DeadFriendly'
p980
sg552
F0
sg553
F3
sg554
(lp981
g1
(g556
g3
NtRp982
(dp983
g559
S'revive'
p984
sg561
S''
sg563
S''
sg565
F0.5
sg566
F0
sg567
F0
sg568
S'Revive'
p985
sg570
S''
sbasg572
I1
sg573
F0
sg568
g976
sg574
S'Revive'
p986
sbsS'HUMANSHIELD'
p987
g1
(g10
g3
NtRp988
(dp989
g542
F5
sg543
S'No further questions. Step back, please.'
p990
sg545
I1
sg546
F5
sg547
F2
sg548
S'Wit'
p991
sg550
S'AllEnemy'
p992
sg552
F2
sg553
F4
sg554
(lp993
g799
asg572
I2
sg573
F12
sg568
g987
sg574
S'Human Shield'
p994
sbsS'MAKEDEMANDS'
p995
g1
(g10
g3
NtRp996
(dp997
g542
F8
sg543
S'asdf'
p998
sg545
I1
sg546
F0
sg547
F0
sg548
S'Cunning'
p999
sg550
S'AllEnemy'
p1000
sg552
F0
sg553
I0
sg554
(lp1001
g591
asg572
I1
sg573
F0
sg568
g995
sg574
S'Make Outrageous Demands'
p1002
sbsS'DEFENSE'
p1003
g1
(g10
g3
NtRp1004
(dp1005
g542
F0
sg543
S'Gather strenth; -50% to all incoming attacks'
p1006
sg545
I1
sg546
F0
sg547
F0
sg548
S''
sg550
S'None'
p1007
sg552
F0
sg553
I0
sg554
(lp1008
g1
(g556
g3
NtRp1009
(dp1010
g559
S'add'
p1011
sg561
S'(DFND)'
p1012
sg563
S'resistance'
p1013
sg565
F0.5
sg566
F1
sg567
F1
sg568
S'Defense'
p1014
sg570
S'TRUE'
p1015
sbasg572
I1
sg573
F0
sg568
g1003
sg574
S'Defense'
p1016
sbsS'MISCONSTRUE'
p1017
g1
(g10
g3
NtRp1018
(dp1019
g542
F8
sg543
S'asdf'
p1020
sg545
I1
sg546
F0
sg547
F0
sg548
S'Cunning'
p1021
sg550
S'AllEnemy'
p1022
sg552
F0
sg553
I0
sg554
(lp1023
g591
asg572
I1
sg573
F0
sg568
g1017
sg574
S'Misconstrue'
p1024
sbsS'NATIONALSECURITY'
p1025
g1
(g10
g3
NtRp1026
(dp1027
g542
F7
sg543
S"This is a matter of national security and they don't have codeword clearance"
p1028
sg545
I1
sg546
F10
sg547
F2
sg548
S'Cunning'
p1029
sg550
S'AllEnemy'
p1030
sg552
F2
sg553
I0
sg554
(lp1031
sg572
I1
sg573
F9
sg568
g1025
sg574
S'National Security'
p1032
sbsS'RALLY'
p1033
g1
(g10
g3
NtRp1034
(dp1035
g542
F-2
sg543
S'Get back some votes by rallying supporters'
p1036
sg545
I1
sg546
F0
sg547
F0
sg548
S'Wit'
p1037
sg550
S'AllFriendly'
p1038
sg552
F-4
sg553
F2
sg554
(lp1039
sg572
I1
sg573
F0
sg568
g1033
sg574
S'Rally Constituents'
p1040
sbsS'MESSAGE'
p1041
g1
(g10
g3
NtRp1042
(dp1043
g542
F5
sg543
S'You can certainly wear them down by repeating your party line over and over and over...if you want'
p1044
sg545
F6
sg546
F10
sg547
F2
sg548
S'Wit'
p1045
sg550
S'AllEnemy'
p1046
sg552
F2
sg553
I0
sg554
(lp1047
sg572
I1
sg573
F8
sg568
g1041
sg574
S'Stay On Message'
p1048
sbsS'APPEALTOGOD'
p1049
g1
(g10
g3
NtRp1050
(dp1051
g542
F6
sg543
S'asdf'
p1052
sg545
F3
sg546
F0
sg547
F0
sg548
S'Wit'
p1053
sg550
S'AllEnemy'
p1054
sg552
F4
sg553
F7
sg554
(lp1055
sg572
I4
sg573
F0
sg568
g1049
sg574
S'Appeal To God'
p1056
sbssS'levels'
p1057
(lp1058
g1
(g10
g3
NtRp1059
(dp1060
S'votes'
p1061
F10
sS'level'
p1062
F1
sS'spin'
p1063
F5
sS'xp'
p1064
F0
sS'skill_points'
p1065
F0
sbag1
(g10
g3
NtRp1066
(dp1067
g1061
F12
sg1062
F2
sg1063
F5
sg1064
F5
sg1065
F2
sbag1
(g10
g3
NtRp1068
(dp1069
g1061
F15
sg1062
F3
sg1063
F6
sg1064
F200
sg1065
F2
sbag1
(g10
g3
NtRp1070
(dp1071
g1061
F20
sg1062
F4
sg1063
F6
sg1064
F500
sg1065
F2
sbag1
(g10
g3
NtRp1072
(dp1073
g1061
F25
sg1062
F5
sg1063
F7
sg1064
F1000
sg1065
F2
sbag1
(g10
g3
NtRp1074
(dp1075
g1061
F30
sg1062
F6
sg1063
F7
sg1064
F2000
sg1065
F2
sbag1
(g10
g3
NtRp1076
(dp1077
g1061
F35
sg1062
F7
sg1063
F8
sg1064
F5000
sg1065
F2
sbag1
(g10
g3
NtRp1078
(dp1079
g1061
F40
sg1062
F8
sg1063
F8
sg1064
F10000
sg1065
F2
sbag1
(g10
g3
NtRp1080
(dp1081
g1061
F45
sg1062
F9
sg1063
F9
sg1064
F15000
sg1065
F2
sbag1
(g10
g3
NtRp1082
(dp1083
g1061
F50
sg1062
F10
sg1063
F9
sg1064
F20000
sg1065
F2
sbag1
(g10
g3
NtRp1084
(dp1085
g1061
F55
sg1062
F11
sg1063
F10
sg1064
F40000
sg1065
F2
sbag1
(g10
g3
NtRp1086
(dp1087
g1061
S''
sg1062
F12
sg1063
S''
sg1064
S''
sg1065
S''
sbag1
(g10
g3
NtRp1088
(dp1089
g1061
S''
sg1062
F13
sg1063
S''
sg1064
S''
sg1065
S''
sbag1
(g10
g3
NtRp1090
(dp1091
g1061
S''
sg1062
F14
sg1063
S''
sg1064
S''
sg1065
S''
sbag1
(g10
g3
NtRp1092
(dp1093
g1061
S''
sg1062
F15
sg1063
S''
sg1064
S''
sg1065
S''
sbag1
(g10
g3
NtRp1094
(dp1095
g1061
S''
sg1062
F16
sg1063
S''
sg1064
S''
sg1065
S''
sbag1
(g10
g3
NtRp1096
(dp1097
g1061
S''
sg1062
F17
sg1063
S''
sg1064
S''
sg1065
S''
sbag1
(g10
g3
NtRp1098
(dp1099
g1061
S''
sg1062
F18
sg1063
S''
sg1064
S''
sg1065
S''
sbag1
(g10
g3
NtRp1100
(dp1101
g1061
S''
sg1062
F19
sg1063
S''
sg1064
S''
sg1065
S''
sbag1
(g10
g3
NtRp1102
(dp1103
g1061
S''
sg1062
F20
sg1063
S''
sg1064
S''
sg1065
S''
sbag1
(g10
g3
NtRp1104
(dp1105
g1061
S''
sg1062
F21
sg1063
S''
sg1064
S''
sg1065
S''
sbag1
(g10
g3
NtRp1106
(dp1107
g1061
S''
sg1062
F22
sg1063
S''
sg1064
S''
sg1065
S''
sbag1
(g10
g3
NtRp1108
(dp1109
g1061
S''
sg1062
F23
sg1063
S''
sg1064
S''
sg1065
S''
sbag1
(g10
g3
NtRp1110
(dp1111
g1061
S''
sg1062
F24
sg1063
S''
sg1064
S''
sg1065
S''
sbag1
(g10
g3
NtRp1112
(dp1113
g1061
S''
sg1062
F25
sg1063
S''
sg1064
S''
sg1065
S''
sbag1
(g10
g3
NtRp1114
(dp1115
g1061
S''
sg1062
F26
sg1063
S''
sg1064
S''
sg1065
S''
sbag1
(g10
g3
NtRp1116
(dp1117
g1061
S''
sg1062
F27
sg1063
S''
sg1064
S''
sg1065
S''
sbag1
(g10
g3
NtRp1118
(dp1119
g1061
S''
sg1062
F28
sg1063
S''
sg1064
S''
sg1065
S''
sbag1
(g10
g3
NtRp1120
(dp1121
g1061
S''
sg1062
F29
sg1063
S''
sg1064
S''
sg1065
S''
sbasg554
(dp1122
g569
g557
sg664
g660
sg739
g735
sg941
g936
sg803
g799
sg752
g749
sg919
g915
sg985
g982
sg719
g714
sg766
g761
sg1014
g1009
sg595
g591
sg610
g605
ssS'characters'
p1123
(dp1124
S'Teacher001'
p1125
(lp1126
g1
(g10
g3
NtRp1127
(dp1128
S'flair_base'
p1129
F1
sS'spin_base'
p1130
F4
sS'flair_lvl'
p1131
F1.1499999999999999
sS'wit_base'
p1132
F1
sS'resistance'
p1133
(lp1134
sS'wit_lvl'
p1135
F1.0900000000000001
sS'cunning_base'
p1136
F1
sg568
g1125
sS'votes_base'
p1137
F10
sS'speed_lvl'
p1138
F1.0800000000000001
sS'standard_attacks'
p1139
(lp1140
g1004
ag769
asS'cunning_lvl'
p1141
F1.1000000000000001
sS'charisma_lvl'
p1142
F1.1499999999999999
sS'spin_attacks'
p1143
(lp1144
g854
ag1034
asS'spin_lvl'
p1145
F1.0800000000000001
sS'charisma_base'
p1146
F1
sS'weaknesses'
p1147
(lp1148
sS'attack_group'
p1149
S'Teacher'
p1150
sS'votes_lvl'
p1151
F1.2
sg574
S'Teacher'
p1152
sS'speed_base'
p1153
F1
sS'immunities'
p1154
(lp1155
sbasS'Politician001'
p1156
(lp1157
g1
(g10
g3
NtRp1158
(dp1159
g1129
F1
sg1130
F4
sg1131
F1.1499999999999999
sg1132
F1
sg1133
(lp1160
g585
asg1135
F1.0900000000000001
sg1136
F1
sg568
g1156
sg1137
F10
sg1138
F1.0800000000000001
sg1139
(lp1161
g1042
ag862
ag585
ag961
ag1004
asg1141
F1.1000000000000001
sg1142
F1.1499999999999999
sg1143
(lp1162
g893
ag700
ag977
asg1145
F1.0800000000000001
sg1146
F1
sg1147
(lp1163
g668
asg1149
S'Politician'
p1164
sg1151
F1.2
sg574
S'Politician'
p1165
sg1153
F1
sg1154
(lp1166
g945
asbasS'SecretAgent'
p1167
(lp1168
g1
(g10
g3
NtRp1169
(dp1170
g1129
F1
sg1130
F4
sg1131
F1.1499999999999999
sg1132
F1
sg1133
(lp1171
sg1135
F1.0900000000000001
sg1136
F1
sg568
g1167
sg1137
F18
sg1138
F1.0800000000000001
sg1139
(lp1172
g1004
ag1026
ag830
asg1141
F1.1000000000000001
sg1142
F1.1499999999999999
sg1143
(lp1173
g988
ag806
asg1145
F1.0800000000000001
sg1146
F1
sg1147
(lp1174
sg1149
S'SecretAgent'
p1175
sg1151
F1.2
sg574
S'Agent Kawalski'
p1176
sg1153
F1
sg1154
(lp1177
sbasS'Bumpkin001'
p1178
(lp1179
g1
(g10
g3
NtRp1180
(dp1181
g1129
F1
sg1130
F4
sg1131
F1.1499999999999999
sg1132
F1
sg1133
(lp1182
sg1135
F1.0900000000000001
sg1136
F1
sg568
g1178
sg1137
F10
sg1138
F1.0800000000000001
sg1139
(lp1183
g961
ag722
asg1141
F1.1000000000000001
sg1142
F1.1499999999999999
sg1143
(lp1184
g684
ag777
asg1145
F1.0800000000000001
sg1146
F1
sg1147
(lp1185
g585
ag862
ag901
asg1149
S'Bumpkin'
p1186
sg1151
F1.2
sg574
S'Bumpkin'
p1187
sg1153
F1
sg1154
(lp1188
sbasS'WarVet001'
p1189
(lp1190
g1
(g10
g3
NtRp1191
(dp1192
g1129
F1
sg1130
F4
sg1131
F1.1499999999999999
sg1132
F1
sg1133
(lp1193
sg1135
F1.0900000000000001
sg1136
F1
sg568
g1189
sg1137
F10
sg1138
F1.0800000000000001
sg1139
(lp1194
g996
ag1004
asg1141
F1.1000000000000001
sg1142
F1.1499999999999999
sg1143
(lp1195
g953
ag1034
asg1145
F1.0800000000000001
sg1146
F1
sg1147
(lp1196
sg1149
S'WarVet'
p1197
sg1151
F1.2
sg574
S'War Veteran'
p1198
sg1153
F1
sg1154
(lp1199
sbasS'Receptionist001'
p1200
(lp1201
g1
(g10
g3
NtRp1202
(dp1203
g1129
F1
sg1130
F4
sg1131
F1.1499999999999999
sg1132
F1
sg1133
(lp1204
sg1135
F1.0900000000000001
sg1136
F1
sg568
g1200
sg1137
F10
sg1138
F1.0800000000000001
sg1139
(lp1205
g922
ag870
asg1141
F1.1000000000000001
sg1142
F1.1499999999999999
sg1143
(lp1206
g878
ag654
asg1145
F1.0800000000000001
sg1146
F1
sg1147
(lp1207
sg1149
S'Receptionist'
p1208
sg1151
F1.2
sg574
S'Receptionist'
p1209
sg1153
F1
sg1154
(lp1210
sbasS'DeepThroat'
p1211
(lp1212
g1
(g10
g3
NtRp1213
(dp1214
g1129
F1
sg1130
F4
sg1131
F1.1499999999999999
sg1132
F1
sg1133
(lp1215
sg1135
F1.0900000000000001
sg1136
F1
sg568
g1211
sg1137
F10
sg1138
F1.0800000000000001
sg1139
(lp1216
g862
ag1004
ag996
asg1141
F1.1000000000000001
sg1142
F1.1499999999999999
sg1143
(lp1217
g755
asg1145
F1.0800000000000001
sg1146
F1
sg1147
(lp1218
sg1149
S'DeepThroat'
p1219
sg1151
F1.2
sg574
S'Deep Throat'
p1220
sg1153
F1
sg1154
(lp1221
sbasS'Leo'
p1222
(lp1223
g1
(g10
g3
NtRp1224
(dp1225
g1129
F1
sg1130
F4
sg1131
F1.1499999999999999
sg1132
F1
sg1133
(lp1226
sg1135
F1.0900000000000001
sg1136
F1
sg568
g1222
sg1137
F14
sg1138
F1.0800000000000001
sg1139
(lp1227
g1042
ag862
ag585
ag961
ag668
asg1141
F1.1000000000000001
sg1142
F1.1499999999999999
sg1143
(lp1228
g893
ag700
ag945
ag793
asg1145
F1.0800000000000001
sg1146
F1
sg1147
(lp1229
sg1149
S'Theo'
p1230
sg1151
F1.2
sg574
S'Theo'
p1231
sg1153
F1
sg1154
(lp1232
sbasS'HippyGirl001'
p1233
(lp1234
g1
(g10
g3
NtRp1235
(dp1236
g1129
F1
sg1130
F4
sg1131
F1.1499999999999999
sg1132
F1
sg1133
(lp1237
sg1135
F1.0900000000000001
sg1136
F1
sg568
g1233
sg1137
F10
sg1138
F1.0800000000000001
sg1139
(lp1238
g676
ag769
ag814
asg1141
F1.1000000000000001
sg1142
F1.1499999999999999
sg1143
(lp1239
g838
ag1034
ag977
asg1145
F1.0800000000000001
sg1146
F1
sg1147
(lp1240
g961
asg1149
S'Hippy'
p1241
sg1151
F1.2
sg574
S'Hippy Girl'
p1242
sg1153
F1
sg1154
(lp1243
sbasS'President'
p1244
(lp1245
g1
(g10
g3
NtRp1246
(dp1247
g1129
F1
sg1130
F4
sg1131
F1.1499999999999999
sg1132
F1
sg1133
(lp1248
sg1135
F1.0900000000000001
sg1136
F1
sg568
g1244
sg1137
F10
sg1138
F1.0800000000000001
sg1139
(lp1249
g1042
ag862
ag585
ag961
ag1004
asg1141
F1.1000000000000001
sg1142
F1.1499999999999999
sg1143
(lp1250
g893
ag700
ag977
asg1145
F1.0800000000000001
sg1146
F1
sg1147
(lp1251
sg1149
S'Politician'
p1252
sg1151
F1.2
sg574
S'President Allen'
p1253
sg1153
F1
sg1154
(lp1254
sbasS'Unionist001'
p1255
(lp1256
g1
(g10
g3
NtRp1257
(dp1258
g1129
F1
sg1130
F4
sg1131
F1.1499999999999999
sg1132
F1
sg1133
(lp1259
sg1135
F1.0900000000000001
sg1136
F1
sg568
g1255
sg1137
F10
sg1138
F1.0800000000000001
sg1139
(lp1260
g996
ag1004
ag769
asg1141
F1.1000000000000001
sg1142
F1.1499999999999999
sg1143
(lp1261
g854
asg1145
F1.0800000000000001
sg1146
F1
sg1147
(lp1262
sg1149
S'Unionist'
p1263
sg1151
F1.2
sg574
S'Unionist'
p1264
sg1153
F1
sg1154
(lp1265
sbasS'Wife'
p1266
(lp1267
g1
(g10
g3
NtRp1268
(dp1269
g1129
F1
sg1130
F4
sg1131
F1.1499999999999999
sg1132
F1
sg1133
(lp1270
sg1135
F1.0900000000000001
sg1136
F1
sg568
g1266
sg1137
F12
sg1138
F1.0800000000000001
sg1139
(lp1271
g1004
ag1042
asg1141
F1.1000000000000001
sg1142
F1.1499999999999999
sg1143
(lp1272
g1034
ag977
ag708
asg1145
F1.0800000000000001
sg1146
F1
sg1147
(lp1273
sg1149
S'Wife'
p1274
sg1151
F1.2
sg574
S'Sarah Mossman'
p1275
sg1153
F1
sg1154
(lp1276
sbasS'PresidentAlien'
p1277
(lp1278
g1
(g10
g3
NtRp1279
(dp1280
g1129
F1
sg1130
F4
sg1131
F1.1499999999999999
sg1132
F1
sg1133
(lp1281
sg1135
F1.0900000000000001
sg1136
F1
sg568
g1277
sg1137
F10
sg1138
F1.0800000000000001
sg1139
(lp1282
g1042
ag862
ag585
ag961
ag1004
asg1141
F1.1000000000000001
sg1142
F1.1499999999999999
sg1143
(lp1283
g893
ag700
ag977
asg1145
F1.0800000000000001
sg1146
F1
sg1147
(lp1284
sg1149
S'Politician'
p1285
sg1151
F1.2
sg574
S'President Alien'
p1286
sg1153
F1
sg1154
(lp1287
sbasS'Governor'
p1288
(lp1289
g1
(g10
g3
NtRp1290
(dp1291
g1129
F1
sg1130
F4
sg1131
F1.1499999999999999
sg1132
F1
sg1133
(lp1292
sg1135
F1.0900000000000001
sg1136
F1
sg568
g1288
sg1137
F10
sg1138
F1.0800000000000001
sg1139
(lp1293
g1042
ag862
ag585
ag961
ag1004
asg1141
F1.1000000000000001
sg1142
F1.1499999999999999
sg1143
(lp1294
g893
ag700
ag977
asg1145
F1.0800000000000001
sg1146
F1
sg1147
(lp1295
sg1149
S'Politician'
p1296
sg1151
F1.2
sg574
g1288
sg1153
F1
sg1154
(lp1297
sbasS'Lobbyist001'
p1298
(lp1299
g1
(g10
g3
NtRp1300
(dp1301
g1129
F1
sg1130
F4
sg1131
F1.1499999999999999
sg1132
F1
sg1133
(lp1302
sg1135
F1.0900000000000001
sg1136
F1
sg568
g1298
sg1137
F10
sg1138
F1.0800000000000001
sg1139
(lp1303
g785
ag996
asg1141
F1.1000000000000001
sg1142
F1.1499999999999999
sg1143
(lp1304
g909
ag755
asg1145
F1.0800000000000001
sg1146
F1
sg1147
(lp1305
g945
asg1149
S'Lobbyist'
p1306
sg1151
F1.2
sg574
S'Lobbyist'
p1307
sg1153
F1
sg1154
(lp1308
g668
asbasS'Journalist001'
p1309
(lp1310
g1
(g10
g3
NtRp1311
(dp1312
g1129
F1
sg1130
F4
sg1131
F1.1499999999999999
sg1132
F1
sg1133
(lp1313
sg1135
F1.0900000000000001
sg1136
F1
sg568
g1309
sg1137
F10
sg1138
F1.0800000000000001
sg1139
(lp1314
g638
ag1018
asg1141
F1.1000000000000001
sg1142
F1.1499999999999999
sg1143
(lp1315
g822
ag540
ag614
asg1145
F1.0800000000000001
sg1146
F1
sg1147
(lp1316
sg1149
S'Journalist'
p1317
sg1151
F1.2
sg574
S'Journalist'
p1318
sg1153
F1
sg1154
(lp1319
sbasS'ReligiousNut001'
p1320
(lp1321
g1
(g10
g3
NtRp1322
(dp1323
g1129
F1
sg1130
F4
sg1131
F1.1499999999999999
sg1132
F1
sg1133
(lp1324
sg1135
F1.0900000000000001
sg1136
F1
sg568
g1320
sg1137
F10
sg1138
F1.0800000000000001
sg1139
(lp1325
g622
ag969
ag1004
asg1141
F1.1000000000000001
sg1142
F1.1499999999999999
sg1143
(lp1326
g1050
ag743
asg1145
F1.0800000000000001
sg1146
F1
sg1147
(lp1327
sg1149
S'Religious'
p1328
sg1151
F1.2
sg574
S'Religious Nut'
p1329
sg1153
F1
sg1154
(lp1330
g961
asbasS'JointChief001'
p1331
(lp1332
g1
(g10
g3
NtRp1333
(dp1334
g1129
F1
sg1130
F4
sg1131
F1.1499999999999999
sg1132
F1
sg1133
(lp1335
sg1135
F1.0900000000000001
sg1136
F1
sg568
g1331
sg1137
F10
sg1138
F1.0800000000000001
sg1139
(lp1336
g996
ag1004
ag1026
ag692
asg1141
F1.1000000000000001
sg1142
F1.1499999999999999
sg1143
(lp1337
g806
asg1145
F1.0800000000000001
sg1146
F1
sg1147
(lp1338
sg1149
S'JointChief'
p1339
sg1151
F1.2
sg574
S'Joint Chief'
p1340
sg1153
F1
sg1154
(lp1341
sbasS'Protester001'
p1342
(lp1343
g1
(g10
g3
NtRp1344
(dp1345
g1129
F1
sg1130
F4
sg1131
F1.1499999999999999
sg1132
F1
sg1133
(lp1346
sg1135
F1.0900000000000001
sg1136
F1
sg568
g1342
sg1137
F10
sg1138
F1.0800000000000001
sg1139
(lp1347
g769
ag630
ag676
asg1141
F1.1000000000000001
sg1142
F1.1499999999999999
sg1143
(lp1348
g1034
asg1145
F1.0800000000000001
sg1146
F1
sg1147
(lp1349
sg1149
S'Protestor'
p1350
sg1151
F1.2
sg574
S'Protester'
p1351
sg1153
F1
sg1154
(lp1352
sbasS'TVPersonality001'
p1353
(lp1354
g1
(g10
g3
NtRp1355
(dp1356
g1129
F1
sg1130
F4
sg1131
F1.1499999999999999
sg1132
F1
sg1133
(lp1357
sg1135
F1.0900000000000001
sg1136
F1
sg568
g1353
sg1137
F10
sg1138
F1.0800000000000001
sg1139
(lp1358
g961
ag638
asg1141
F1.1000000000000001
sg1142
F1.1499999999999999
sg1143
(lp1359
g614
ag599
asg1145
F1.0800000000000001
sg1146
F1
sg1147
(lp1360
sg1149
S'TVPersonality'
p1361
sg1151
F1.2
sg574
S"Hecules O'Grady"
p1362
sg1153
F1
sg1154
(lp1363
sbasS'Player'
p1364
(lp1365
g1
(g10
g3
NtRp1366
(dp1367
g1129
F1
sg1130
F5
sg1131
F1.1499999999999999
sg1132
F1
sg1133
(lp1368
sg1135
F1.0900000000000001
sg1136
F1
sg568
g1364
sg1137
F15
sg1138
F1.0800000000000001
sg1139
(lp1369
g1042
ag585
ag961
asg1141
F1.1000000000000001
sg1142
F1.1499999999999999
sg1143
(lp1370
g893
ag700
ag1034
asg1145
F1.0800000000000001
sg1146
F1
sg1147
(lp1371
sg1149
S'Player'
p1372
sg1151
F1.2
sg574
S'Phillip Mossman'
p1373
sg1153
F2
sg1154
(lp1374
sbasS'Computer'
p1375
(lp1376
g1
(g10
g3
NtRp1377
(dp1378
g1129
F1
sg1130
F4
sg1131
F1.1499999999999999
sg1132
F1
sg1133
(lp1379
sg1135
F1.0900000000000001
sg1136
F1
sg568
g1375
sg1137
F10
sg1138
F1.0800000000000001
sg1139
(lp1380
g1042
ag862
ag585
ag961
ag1004
asg1141
F1.1000000000000001
sg1142
F1.1499999999999999
sg1143
(lp1381
g893
ag700
ag977
asg1145
F1.0800000000000001
sg1146
F1
sg1147
(lp1382
sg1149
S'Politician'
p1383
sg1151
F1.2
sg574
S'N.O.T.B.A.D'
p1384
sg1153
F1
sg1154
(lp1385
sbasS'CabinetPolitician001'
p1386
(lp1387
g1
(g10
g3
NtRp1388
(dp1389
g1129
F1
sg1130
F4
sg1131
F1.1499999999999999
sg1132
F1
sg1133
(lp1390
sg1135
F1.0900000000000001
sg1136
F1
sg568
g1386
sg1137
F10
sg1138
F1.0800000000000001
sg1139
(lp1391
g1042
ag862
ag585
ag961
ag1004
asg1141
F1.1000000000000001
sg1142
F1.1499999999999999
sg1143
(lp1392
g893
ag700
ag977
asg1145
F1.0800000000000001
sg1146
F1
sg1147
(lp1393
sg1149
S'Politician'
p1394
sg1151
F1.2
sg574
S'Cabinet Politician'
p1395
sg1153
F1
sg1154
(lp1396
sbasS'Constituent001'
p1397
(lp1398
g1
(g10
g3
NtRp1399
(dp1400
g1129
F1
sg1130
F4
sg1131
F1.1499999999999999
sg1132
F1
sg1133
(lp1401
sg1135
F1.0900000000000001
sg1136
F1
sg568
g1397
sg1137
F10
sg1138
F1.0800000000000001
sg1139
(lp1402
g769
ag785
ag996
asg1141
F1.1000000000000001
sg1142
F1.1499999999999999
sg1143
(lp1403
g977
asg1145
F1.0800000000000001
sg1146
F1
sg1147
(lp1404
sg1149
S'Constituent'
p1405
sg1151
F1.2
sg574
S'Constituent'
p1406
sg1153
F1
sg1154
(lp1407
sbasS'Mayor'
p1408
(lp1409
g1
(g10
g3
NtRp1410
(dp1411
g1129
F1
sg1130
F4
sg1131
F1.1499999999999999
sg1132
F1
sg1133
(lp1412
sg1135
F1.0900000000000001
sg1136
F1
sg568
g1408
sg1137
F10
sg1138
F1.0800000000000001
sg1139
(lp1413
g1042
ag862
ag585
ag961
ag1004
asg1141
F1.1000000000000001
sg1142
F1.1499999999999999
sg1143
(lp1414
g893
ag700
ag977
asg1145
F1.0800000000000001
sg1146
F1
sg1147
(lp1415
sg1149
S'Politician'
p1416
sg1151
F1.2
sg574
S'Mayor Goodman'
p1417
sg1153
F1
sg1154
(lp1418
sbassS'quest_items'
p1419
(dp1420
S'PEN'
p1421
g1
(g10
g3
NtRp1422
(dp1423
g574
S'A pen'
p1424
sg568
g1421
sbsS'BILLOFRIGHTS'
p1425
g1
(g10
g3
NtRp1426
(dp1427
g574
S"Citizens' Bill of Rights"
p1428
sg568
g1425
sbssg1139
(dp1429
S'Theo'
p1430
(lp1431
g1042
ag862
ag585
ag961
ag668
ag893
ag700
ag945
ag793
asS'JointChief'
p1432
(lp1433
g996
ag1004
ag1026
ag806
ag692
asS'Politician'
p1434
(lp1435
g1042
ag862
ag585
ag961
ag893
ag700
ag977
ag1004
asS'Bumpkin'
p1436
(lp1437
g961
ag684
ag777
ag722
asS'TVPersonality'
p1438
(lp1439
g961
ag614
ag638
ag599
asS'SecretAgent'
p1440
(lp1441
g1004
ag988
ag1026
ag806
ag830
asS'DeepThroat'
p1442
(lp1443
g862
ag1004
ag755
ag996
asS'Protestor'
p1444
(lp1445
g1034
ag769
ag630
ag676
asS'Lobbyist'
p1446
(lp1447
g785
ag909
ag755
ag996
asS'Teacher'
p1448
(lp1449
g854
ag1004
ag769
ag1034
asS'Player'
p1450
(lp1451
g1042
ag585
ag961
ag893
ag700
ag1034
asS'Computer'
p1452
(lp1453
g806
ag1026
ag646
ag755
ag996
ag862
asS'Receptionist'
p1454
(lp1455
g922
ag870
ag878
ag654
asS'Hippy'
p1456
(lp1457
g676
ag769
ag814
ag838
ag1034
ag977
asS'Constituent'
p1458
(lp1459
g769
ag977
ag785
ag996
asS'Wife'
p1460
(lp1461
g1034
ag977
ag1004
ag1042
ag708
asS'WarVet'
p1462
(lp1463
g996
ag1004
ag953
ag1034
asS'Religious'
p1464
(lp1465
g622
ag1050
ag743
ag969
ag1004
asS'Unionist'
p1466
(lp1467
g996
ag1004
ag769
ag854
asS'Journalist'
p1468
(lp1469
g638
ag1018
ag822
ag540
ag614
assS'encounters'
p1470
(dp1471
S'P-easy-05'
p1472
g1
(g10
g3
NtRp1473
(dp1474
S'item_attack_drops'
p1475
(lp1476
sS'item_attacks'
p1477
(lp1478
sg1064
F10
sS'monster2_lvl'
p1479
S''
sS'monster3'
p1480
S''
sS'monster1_lvl'
p1481
F1
sS'monster3_lvl'
p1482
S''
sS'monster4_lvl'
p1483
S''
sS'monster4'
p1484
S''
sS'monster2'
p1485
S''
sg568
g1472
sS'monster1'
p1486
S'Journalist001'
p1487
sbsS'P-easy-04'
p1488
g1
(g10
g3
NtRp1489
(dp1490
g1475
(lp1491
sg1477
(lp1492
sg1064
F10
sg1479
F1
sg1480
S'Protester001'
p1493
sg1481
F1
sg1482
F1
sg1483
S''
sg1484
S''
sg1485
S'Protester001'
p1494
sg568
g1488
sg1486
S'Protester001'
p1495
sbsS'P-easy-06'
p1496
g1
(g10
g3
NtRp1497
(dp1498
g1475
(lp1499
sg1477
(lp1500
sg1064
F10
sg1479
F1
sg1480
S''
sg1481
F1
sg1482
S''
sg1483
S''
sg1484
S''
sg1485
S'Lobbyist001'
p1501
sg568
g1496
sg1486
S'Lobbyist001'
p1502
sbsS'P-easy-01'
p1503
g1
(g10
g3
NtRp1504
(dp1505
g1475
(lp1506
g1
(c__main__
ItemAttack
p1507
g3
NtRp1508
(dp1509
S'attack'
p1510
g577
sS'quantity'
p1511
I1
sbasg1477
(lp1512
g1
(g1507
g3
NtRp1513
(dp1514
g1510
g846
sg1511
I1
sbasg1064
F10
sg1479
S''
sg1480
S''
sg1481
F1
sg1482
S''
sg1483
S''
sg1484
S''
sg1485
S''
sg568
g1503
sg1486
S'Receptionist001'
p1515
sbsS'P-easy-03'
p1516
g1
(g10
g3
NtRp1517
(dp1518
g1475
(lp1519
sg1477
(lp1520
sg1064
F10
sg1479
F1
sg1480
S''
sg1481
F1
sg1482
S''
sg1483
S''
sg1484
S''
sg1485
S'Protester001'
p1521
sg568
g1516
sg1486
S'Protester001'
p1522
sbsS'P-easy-02'
p1523
g1
(g10
g3
NtRp1524
(dp1525
g1475
(lp1526
sg1477
(lp1527
sg1064
F10
sg1479
F1
sg1480
S''
sg1481
F1
sg1482
S''
sg1483
S''
sg1484
S''
sg1485
S'Protester001'
p1528
sg568
g1523
sg1486
S'Protester001'
p1529
sbssb.